
/mnt/c/Users/kersz/Documents/ufrgs/IC/core-v-verif/cv32e40p/tests/programs/custom/hello-world/hello-world.elf:     file format elf32-littleriscv


Disassembly of section .vectors:

00000000 <__vector_start>:
.section .vectors, "ax"
.option norvc
.global vector_table

vector_table:
	j u_sw_irq_handler
   0:	1fc0006f          	jal	x0,1fc <u_sw_irq_handler>
	j __no_irq_handler
   4:	1c40006f          	jal	x0,1c8 <__no_irq_handler>
	j __no_irq_handler
   8:	1c00006f          	jal	x0,1c8 <__no_irq_handler>
	j m_software_irq_handler
   c:	1ca0006f          	jal	x0,1d6 <m_software_irq_handler>
	j __no_irq_handler
  10:	1b80006f          	jal	x0,1c8 <__no_irq_handler>
	j __no_irq_handler
  14:	1b40006f          	jal	x0,1c8 <__no_irq_handler>
	j __no_irq_handler
  18:	1b00006f          	jal	x0,1c8 <__no_irq_handler>
	j m_timer_irq_handler
  1c:	1bc0006f          	jal	x0,1d8 <m_timer_irq_handler>
	j __no_irq_handler
  20:	1a80006f          	jal	x0,1c8 <__no_irq_handler>
	j __no_irq_handler
  24:	1a40006f          	jal	x0,1c8 <__no_irq_handler>
	j __no_irq_handler
  28:	1a00006f          	jal	x0,1c8 <__no_irq_handler>
	j m_external_irq_handler
  2c:	1ae0006f          	jal	x0,1da <m_external_irq_handler>
	j __no_irq_handler
  30:	1980006f          	jal	x0,1c8 <__no_irq_handler>
	j __no_irq_handler
  34:	1940006f          	jal	x0,1c8 <__no_irq_handler>
	j __no_irq_handler
  38:	1900006f          	jal	x0,1c8 <__no_irq_handler>
	j __no_irq_handler
  3c:	18c0006f          	jal	x0,1c8 <__no_irq_handler>
	j m_fast0_irq_handler
  40:	19c0006f          	jal	x0,1dc <m_fast0_irq_handler>
	j m_fast1_irq_handler
  44:	19a0006f          	jal	x0,1de <m_fast1_irq_handler>
	j m_fast2_irq_handler
  48:	1980006f          	jal	x0,1e0 <m_fast2_irq_handler>
	j m_fast3_irq_handler
  4c:	1960006f          	jal	x0,1e2 <m_fast3_irq_handler>
	j m_fast4_irq_handler
  50:	1940006f          	jal	x0,1e4 <m_fast4_irq_handler>
	j m_fast5_irq_handler
  54:	1920006f          	jal	x0,1e6 <m_fast5_irq_handler>
	j m_fast6_irq_handler
  58:	1900006f          	jal	x0,1e8 <m_fast6_irq_handler>
	j m_fast7_irq_handler
  5c:	18e0006f          	jal	x0,1ea <m_fast7_irq_handler>
	j m_fast8_irq_handler
  60:	18c0006f          	jal	x0,1ec <m_fast8_irq_handler>
	j m_fast9_irq_handler
  64:	18a0006f          	jal	x0,1ee <m_fast9_irq_handler>
	j m_fast10_irq_handler
  68:	1880006f          	jal	x0,1f0 <m_fast10_irq_handler>
	j m_fast11_irq_handler
  6c:	1860006f          	jal	x0,1f2 <m_fast11_irq_handler>
	j m_fast12_irq_handler
  70:	1840006f          	jal	x0,1f4 <m_fast12_irq_handler>
	j m_fast13_irq_handler
  74:	1820006f          	jal	x0,1f6 <m_fast13_irq_handler>
	j m_fast14_irq_handler
  78:	1800006f          	jal	x0,1f8 <m_fast14_irq_handler>
	j m_fast15_irq_handler
  7c:	17e0006f          	jal	x0,1fa <m_fast15_irq_handler>

Disassembly of section .init:

00000080 <_start>:

_start:
/* initialize global pointer */
.option push
.option norelax
1:	auipc gp, %pcrel_hi(__global_pointer$)
  80:	00013197          	auipc	x3,0x13
	addi  gp, gp, %pcrel_lo(1b)
  84:	09018193          	addi	x3,x3,144 # 13110 <__global_pointer$>
.option pop

/* initialize stack pointer */
	la sp, __stack_end
  88:	00400117          	auipc	x2,0x400
  8c:	f7810113          	addi	x2,x2,-136 # 400000 <__heap_end>

/* set vector table address */
	la a0, __vector_start
  90:	00000517          	auipc	x10,0x0
  94:	f7050513          	addi	x10,x10,-144 # 0 <__vector_start>
	ori a0, a0, 1 /*vector mode = vectored */
  98:	00156513          	ori	x10,x10,1
	csrw mtvec, a0
  9c:	30551073          	csrrw	x0,mtvec,x10

/* clear the bss segment */
	la a0, _edata
  a0:	f1818513          	addi	x10,x3,-232 # 13028 <errno>
	la a2, _end
  a4:	22418613          	addi	x12,x3,548 # 13334 <__bss_end>
	sub a2, a2, a0
  a8:	8e09                	c.sub	x12,x10
	li a1, 0
  aa:	4581                	c.li	x11,0
	call memset
  ac:	21a5                	c.jal	514 <memset>

/* new-style constructors and destructors */
	la a0, __libc_fini_array
  ae:	00002517          	auipc	x10,0x2
  b2:	8f250513          	addi	x10,x10,-1806 # 19a0 <__libc_fini_array>
	call atexit
  b6:	30f020ef          	jal	x1,2bc4 <atexit>
	call __libc_init_array
  ba:	24b020ef          	jal	x1,2b04 <__libc_init_array>
//	lw a0, 0(sp)                    /* a0 = argc */
//	addi a1, sp, __SIZEOF_POINTER__ /* a1 = argv */
//	li a2, 0                        /* a2 = envp = NULL */
// Initialize these variables to 0. Cannot use argc or argv
// since the stack is not initialized
	li a0, 0
  be:	4501                	c.li	x10,0
	li a1, 0
  c0:	4581                	c.li	x11,0
	li a2, 0
  c2:	4601                	c.li	x12,0

	call main
  c4:	2021                	c.jal	cc <main>
	tail exit
  c6:	2d30206f          	jal	x0,2b98 <exit>

000000ca <_fini>:
.type   _fini, @function
_init:
_fini:
 /* These don't have to do anything since we use init_array/fini_array. Prevent
    missing symbol error */
	ret
  ca:	8082                	c.jr	x1

Disassembly of section .text:

000000cc <main>:
#define EXP_MISA 0x40801104
#endif


int main(int argc, char *argv[])
{
      cc:	1101                	c.addi	x2,-32
      ce:	ce06                	c.swsp	x1,28(x2)
      d0:	cc22                	c.swsp	x8,24(x2)
      d2:	ca26                	c.swsp	x9,20(x2)
             int reserved, tentative, nonstd, user, super;

    mxl = 0; reserved = 0; tentative = 0; nonstd = 0; user = 0; super = 0;

    /* inline assembly: read mvendorid and misa */
    __asm__ volatile("csrr %0, 0xF11" : "=r"(mvendorid_rval));
      d4:	f11025f3          	csrrs	x11,mvendorid,x0
    __asm__ volatile("csrr %0, 0x301" : "=r"(misa_rval));
      d8:	30102473          	csrrs	x8,misa,x0
    __asm__ volatile("csrr %0, 0xF12" : "=r"(marchid_rval));
      dc:	f12024f3          	csrrs	x9,marchid,x0
    __asm__ volatile("csrr %0, 0xF13" : "=r"(mimpid_rval));
      e0:	f13027f3          	csrrs	x15,mimpid,x0

    /* Check MVENDORID CSR: 0x602 is the value assigned by JEDEC to the OpenHW Group */
    if (mvendorid_rval != 0x00000602) {
      e4:	60200713          	addi	x14,x0,1538
      e8:	00e58763          	beq	x11,x14,f6 <main+0x2a>
      printf("\tERROR: CSR MVENDORID reads as 0x%x - should be 0x00000602 for the OpenHW Group.\n\n", mvendorid_rval);
      ec:	6549                	c.lui	x10,0x12
      ee:	c4050513          	addi	x10,x10,-960 # 11c40 <__clzsi2+0x88>
      return EXIT_FAILURE;
    }

    /* Check MARCHID CSR: 0x4 is the value assigned by the RISC-V Foundation to CV32E40P */
    if (marchid_rval != 0x00000004) {
      printf("\tERROR: CSR MARCHID reads as 0x%x - should be 0x00000004 for CV32E40P.\n\n", marchid_rval);
      f2:	2509                	c.jal	6f4 <printf>
      return EXIT_FAILURE;
      f4:	a821                	c.j	10c <main+0x40>
    if (misa_rval != EXP_MISA) {
      f6:	40001637          	lui	x12,0x40001
      fa:	10460613          	addi	x12,x12,260 # 40001104 <__heap_end+0x3fc01104>
      fe:	00c40d63          	beq	x8,x12,118 <main+0x4c>
      printf("\tERROR: CSR MISA reads as 0x%x - should be 0x%x for this release of CV32E40P!\n\n", misa_rval, EXP_MISA);
     102:	6549                	c.lui	x10,0x12
     104:	85a2                	c.mv	x11,x8
     106:	c9450513          	addi	x10,x10,-876 # 11c94 <__clzsi2+0xdc>
     10a:	23ed                	c.jal	6f4 <printf>
      return EXIT_FAILURE;
     10c:	4505                	c.li	x10,1
    }
    else {
      printf("\n");
      return EXIT_SUCCESS;
    }
}
     10e:	40f2                	c.lwsp	x1,28(x2)
     110:	4462                	c.lwsp	x8,24(x2)
     112:	44d2                	c.lwsp	x9,20(x2)
     114:	6105                	c.addi16sp	x2,32
     116:	8082                	c.jr	x1
    if (marchid_rval != 0x00000004) {
     118:	4711                	c.li	x14,4
     11a:	00e48763          	beq	x9,x14,128 <main+0x5c>
      printf("\tERROR: CSR MARCHID reads as 0x%x - should be 0x00000004 for CV32E40P.\n\n", marchid_rval);
     11e:	6549                	c.lui	x10,0x12
     120:	85a6                	c.mv	x11,x9
     122:	ce450513          	addi	x10,x10,-796 # 11ce4 <__clzsi2+0x12c>
     126:	b7f1                	c.j	f2 <main+0x26>
    if (mimpid_rval != 0x00000000) {
     128:	c791                	c.beqz	x15,134 <main+0x68>
      printf("\tERROR: CSR MIMPID reads as 0x%x - should be 0x00000000 for this release of CV32E40P.\n\n", mimpid_rval);
     12a:	6549                	c.lui	x10,0x12
     12c:	85be                	c.mv	x11,x15
     12e:	d3050513          	addi	x10,x10,-720 # 11d30 <__clzsi2+0x178>
     132:	b7c1                	c.j	f2 <main+0x26>
    printf("\nHELLO WORLD!!!\n");
     134:	6549                	c.lui	x10,0x12
     136:	d8850513          	addi	x10,x10,-632 # 11d88 <__clzsi2+0x1d0>
     13a:	c62e                	c.swsp	x11,12(x2)
     13c:	2dd1                	c.jal	810 <puts>
    printf("This is the OpenHW Group CV32E40P CORE-V processor core.\n");
     13e:	6549                	c.lui	x10,0x12
     140:	d9850513          	addi	x10,x10,-616 # 11d98 <__clzsi2+0x1e0>
     144:	25f1                	c.jal	810 <puts>
    printf("CV32E40P is a RISC-V ISA compliant core with the following attributes:\n");
     146:	6549                	c.lui	x10,0x12
     148:	dd450513          	addi	x10,x10,-556 # 11dd4 <__clzsi2+0x21c>
     14c:	25d1                	c.jal	810 <puts>
    printf("\tmvendorid = 0x%x\n", mvendorid_rval);
     14e:	45b2                	c.lwsp	x11,12(x2)
     150:	6549                	c.lui	x10,0x12
     152:	e1c50513          	addi	x10,x10,-484 # 11e1c <__clzsi2+0x264>
     156:	2b79                	c.jal	6f4 <printf>
    printf("\tmarchid   = 0x%x\n", marchid_rval);
     158:	6549                	c.lui	x10,0x12
     15a:	85a6                	c.mv	x11,x9
     15c:	e3050513          	addi	x10,x10,-464 # 11e30 <__clzsi2+0x278>
     160:	2b51                	c.jal	6f4 <printf>
    printf("\tmimpid    = 0x%x\n", mimpid_rval);
     162:	6549                	c.lui	x10,0x12
     164:	4581                	c.li	x11,0
     166:	e4450513          	addi	x10,x10,-444 # 11e44 <__clzsi2+0x28c>
     16a:	2369                	c.jal	6f4 <printf>
    printf("\tmisa      = 0x%x\n", misa_rval);
     16c:	6549                	c.lui	x10,0x12
     16e:	85a2                	c.mv	x11,x8
     170:	e5850513          	addi	x10,x10,-424 # 11e58 <__clzsi2+0x2a0>
     174:	2341                	c.jal	6f4 <printf>
      case 1:  printf("\tXLEN is 32-bits\n");
     176:	6549                	c.lui	x10,0x12
     178:	e6c50513          	addi	x10,x10,-404 # 11e6c <__clzsi2+0x2b4>
     17c:	2d51                	c.jal	810 <puts>
    printf("\tSupported Instructions Extensions: ");
     17e:	6549                	c.lui	x10,0x12
     180:	e8050513          	addi	x10,x10,-384 # 11e80 <__clzsi2+0x2c8>
     184:	2b85                	c.jal	6f4 <printf>
    if ((misa_rval >> 12) & 0x00000001) printf("M");
     186:	04d00513          	addi	x10,x0,77
     18a:	4ab010ef          	jal	x1,1e34 <putchar>
    if ((misa_rval >>  8) & 0x00000001) printf("I");
     18e:	04900513          	addi	x10,x0,73
     192:	4a3010ef          	jal	x1,1e34 <putchar>
    if ((misa_rval >>  2) & 0x00000001) printf("C");
     196:	04300513          	addi	x10,x0,67
     19a:	49b010ef          	jal	x1,1e34 <putchar>
    printf("\n");
     19e:	4529                	c.li	x10,10
     1a0:	495010ef          	jal	x1,1e34 <putchar>
      printf("\n");
     1a4:	4529                	c.li	x10,10
     1a6:	48f010ef          	jal	x1,1e34 <putchar>
      return EXIT_SUCCESS;
     1aa:	4501                	c.li	x10,0
     1ac:	b78d                	c.j	10e <main+0x42>
	...

000001b0 <register_fini>:
     1b0:	00000793          	addi	x15,x0,0
     1b4:	00078863          	beq	x15,x0,1c4 <register_fini+0x14>
     1b8:	00001517          	auipc	x10,0x1
     1bc:	7e850513          	addi	x10,x10,2024 # 19a0 <__libc_fini_array>
     1c0:	2050206f          	jal	x0,2bc4 <atexit>
     1c4:	00008067          	jalr	x0,0(x1)

000001c8 <__no_irq_handler>:
.weak m_fast15_irq_handler


/* exception handling */
__no_irq_handler:
	la a0, no_exception_handler_msg
     1c8:	00012517          	auipc	x10,0x12
     1cc:	eff50513          	addi	x10,x10,-257 # 120c7 <no_exception_handler_msg>
	jal ra, puts
     1d0:	640000ef          	jal	x1,810 <puts>
	j __no_irq_handler
     1d4:	bfd5                	c.j	1c8 <__no_irq_handler>

000001d6 <m_software_irq_handler>:

m_software_irq_handler:
	j __no_irq_handler
     1d6:	bfcd                	c.j	1c8 <__no_irq_handler>

000001d8 <m_timer_irq_handler>:

m_timer_irq_handler:
	j __no_irq_handler
     1d8:	bfc5                	c.j	1c8 <__no_irq_handler>

000001da <m_external_irq_handler>:

m_external_irq_handler:
	j __no_irq_handler
     1da:	b7fd                	c.j	1c8 <__no_irq_handler>

000001dc <m_fast0_irq_handler>:

m_fast0_irq_handler:
	j __no_irq_handler
     1dc:	b7f5                	c.j	1c8 <__no_irq_handler>

000001de <m_fast1_irq_handler>:

m_fast1_irq_handler:
	j __no_irq_handler
     1de:	b7ed                	c.j	1c8 <__no_irq_handler>

000001e0 <m_fast2_irq_handler>:

m_fast2_irq_handler:
	j __no_irq_handler
     1e0:	b7e5                	c.j	1c8 <__no_irq_handler>

000001e2 <m_fast3_irq_handler>:

m_fast3_irq_handler:
	j __no_irq_handler
     1e2:	b7dd                	c.j	1c8 <__no_irq_handler>

000001e4 <m_fast4_irq_handler>:

m_fast4_irq_handler:
	j __no_irq_handler
     1e4:	b7d5                	c.j	1c8 <__no_irq_handler>

000001e6 <m_fast5_irq_handler>:

m_fast5_irq_handler:
	j __no_irq_handler
     1e6:	b7cd                	c.j	1c8 <__no_irq_handler>

000001e8 <m_fast6_irq_handler>:

m_fast6_irq_handler:
	j __no_irq_handler
     1e8:	b7c5                	c.j	1c8 <__no_irq_handler>

000001ea <m_fast7_irq_handler>:

m_fast7_irq_handler:
	j __no_irq_handler
     1ea:	bff9                	c.j	1c8 <__no_irq_handler>

000001ec <m_fast8_irq_handler>:

m_fast8_irq_handler:
	j __no_irq_handler
     1ec:	bff1                	c.j	1c8 <__no_irq_handler>

000001ee <m_fast9_irq_handler>:

m_fast9_irq_handler:
	j __no_irq_handler
     1ee:	bfe9                	c.j	1c8 <__no_irq_handler>

000001f0 <m_fast10_irq_handler>:

m_fast10_irq_handler:
	j __no_irq_handler
     1f0:	bfe1                	c.j	1c8 <__no_irq_handler>

000001f2 <m_fast11_irq_handler>:

m_fast11_irq_handler:
	j __no_irq_handler
     1f2:	bfd9                	c.j	1c8 <__no_irq_handler>

000001f4 <m_fast12_irq_handler>:

m_fast12_irq_handler:
	j __no_irq_handler
     1f4:	bfd1                	c.j	1c8 <__no_irq_handler>

000001f6 <m_fast13_irq_handler>:

m_fast13_irq_handler:
	j __no_irq_handler
     1f6:	bfc9                	c.j	1c8 <__no_irq_handler>

000001f8 <m_fast14_irq_handler>:

m_fast14_irq_handler:
	j __no_irq_handler
     1f8:	bfc1                	c.j	1c8 <__no_irq_handler>

000001fa <m_fast15_irq_handler>:

m_fast15_irq_handler:
	j __no_irq_handler
     1fa:	b7f9                	c.j	1c8 <__no_irq_handler>

000001fc <u_sw_irq_handler>:

u_sw_irq_handler:
	/* While we are still using puts in handlers, save all caller saved
	   regs.  Eventually, some of these saves could be deferred.  */
	addi sp,sp,-64
     1fc:	7139                	c.addi16sp	x2,-64
	sw ra, 0(sp)
     1fe:	c006                	c.swsp	x1,0(x2)
	sw a0, 4(sp)
     200:	c22a                	c.swsp	x10,4(x2)
	sw a1, 8(sp)
     202:	c42e                	c.swsp	x11,8(x2)
	sw a2, 12(sp)
     204:	c632                	c.swsp	x12,12(x2)
	sw a3, 16(sp)
     206:	c836                	c.swsp	x13,16(x2)
	sw a4, 20(sp)
     208:	ca3a                	c.swsp	x14,20(x2)
	sw a5, 24(sp)
     20a:	cc3e                	c.swsp	x15,24(x2)
	sw a6, 28(sp)
     20c:	ce42                	c.swsp	x16,28(x2)
	sw a7, 32(sp)
     20e:	d046                	c.swsp	x17,32(x2)
	sw t0, 36(sp)
     210:	d216                	c.swsp	x5,36(x2)
	sw t1, 40(sp)
     212:	d41a                	c.swsp	x6,40(x2)
	sw t2, 44(sp)
     214:	d61e                	c.swsp	x7,44(x2)
	sw t3, 48(sp)
     216:	d872                	c.swsp	x28,48(x2)
	sw t4, 52(sp)
     218:	da76                	c.swsp	x29,52(x2)
	sw t5, 56(sp)
     21a:	dc7a                	c.swsp	x30,56(x2)
	sw t6, 60(sp)
     21c:	de7e                	c.swsp	x31,60(x2)
	csrr t0, mcause
     21e:	342022f3          	csrrs	x5,mcause,x0
	li t1, EXCEPTION_ILLEGAL_INSN
     222:	4309                	c.li	x6,2
	beq t0, t1, handle_illegal_insn
     224:	02628363          	beq	x5,x6,24a <handle_illegal_insn>
	li t1, EXCEPTION_ECALL_M
     228:	432d                	c.li	x6,11
	beq t0, t1, handle_ecall
     22a:	00628663          	beq	x5,x6,236 <handle_ecall>
	li t1, EXCEPTION_BREAKPOINT
     22e:	430d                	c.li	x6,3
	beq t0, t1, handle_ebreak
     230:	00628663          	beq	x5,x6,23c <handle_ebreak>
	j handle_unknown
     234:	a015                	c.j	258 <handle_unknown>

00000236 <handle_ecall>:

handle_ecall:
	jal ra, handle_syscall
     236:	204000ef          	jal	x1,43a <handle_syscall>
	j end_handler_incr_mepc
     23a:	a035                	c.j	266 <end_handler_incr_mepc>

0000023c <handle_ebreak>:

handle_ebreak:
	/* TODO support debug handling requirements.  */
	la a0, ebreak_msg
     23c:	00012517          	auipc	x10,0x12
     240:	e2a50513          	addi	x10,x10,-470 # 12066 <ebreak_msg>
	jal ra, puts
     244:	5cc000ef          	jal	x1,810 <puts>
	j end_handler_incr_mepc
     248:	a839                	c.j	266 <end_handler_incr_mepc>

0000024a <handle_illegal_insn>:

handle_illegal_insn:
	la a0, illegal_insn_msg
     24a:	00012517          	auipc	x10,0x12
     24e:	db050513          	addi	x10,x10,-592 # 11ffa <illegal_insn_msg>
	jal ra, puts
     252:	5be000ef          	jal	x1,810 <puts>
	j end_handler_incr_mepc
     256:	a801                	c.j	266 <end_handler_incr_mepc>

00000258 <handle_unknown>:

handle_unknown:
	la a0, unknown_msg
     258:	00012517          	auipc	x10,0x12
     25c:	e3e50513          	addi	x10,x10,-450 # 12096 <unknown_msg>
	jal ra, puts
     260:	5b0000ef          	jal	x1,810 <puts>
	/* We don't know what interrupt/exception is being handled, so don't
	   increment mepc.  */
	j end_handler_ret
     264:	a831                	c.j	280 <end_handler_ret>

00000266 <end_handler_incr_mepc>:

end_handler_incr_mepc:
	csrr t0, mepc
     266:	341022f3          	csrrs	x5,mepc,x0
	lb t1, 0(t0)
     26a:	00028303          	lb	x6,0(x5)
	li a0, 0x3
     26e:	450d                	c.li	x10,3
	and t1, t1, a0
     270:	00a37333          	and	x6,x6,x10
	/* Increment mepc by 2 or 4 depending on whether the instruction at mepc
	   is compressed or not.  */
	bne t1, a0, end_handler_incr_mepc2
     274:	00a31363          	bne	x6,x10,27a <end_handler_incr_mepc2>
	addi t0, t0, 2
     278:	0289                	c.addi	x5,2

0000027a <end_handler_incr_mepc2>:
end_handler_incr_mepc2:
	addi t0, t0, 2
     27a:	0289                	c.addi	x5,2
	csrw mepc, t0
     27c:	34129073          	csrrw	x0,mepc,x5

00000280 <end_handler_ret>:
end_handler_ret:
	lw ra, 0(sp)
     280:	4082                	c.lwsp	x1,0(x2)
	lw a0, 4(sp)
     282:	4512                	c.lwsp	x10,4(x2)
	lw a1, 8(sp)
     284:	45a2                	c.lwsp	x11,8(x2)
	lw a2, 12(sp)
     286:	4632                	c.lwsp	x12,12(x2)
	lw a3, 16(sp)
     288:	46c2                	c.lwsp	x13,16(x2)
	lw a4, 20(sp)
     28a:	4752                	c.lwsp	x14,20(x2)
	lw a5, 24(sp)
     28c:	47e2                	c.lwsp	x15,24(x2)
	lw a6, 28(sp)
     28e:	4872                	c.lwsp	x16,28(x2)
	lw a7, 32(sp)
     290:	5882                	c.lwsp	x17,32(x2)
	lw t0, 36(sp)
     292:	5292                	c.lwsp	x5,36(x2)
	lw t1, 40(sp)
     294:	5322                	c.lwsp	x6,40(x2)
	lw t2, 44(sp)
     296:	53b2                	c.lwsp	x7,44(x2)
	lw t3, 48(sp)
     298:	5e42                	c.lwsp	x28,48(x2)
	lw t4, 52(sp)
     29a:	5ed2                	c.lwsp	x29,52(x2)
	lw t5, 56(sp)
     29c:	5f62                	c.lwsp	x30,56(x2)
	lw t6, 60(sp)
     29e:	5ff2                	c.lwsp	x31,60(x2)
	addi sp,sp,64
     2a0:	6121                	c.addi16sp	x2,64
	mret
     2a2:	30200073          	mret

000002a6 <__syscall_error>:
#endif
/* Upstream newlib now defines this in libgloss/riscv/internal_syscall.h.  */
long
__syscall_error(long a0)
{
  errno = -a0;
     2a6:	40a00533          	sub	x10,x0,x10
     2aa:	f0a1ac23          	sw	x10,-232(x3) # 13028 <errno>
  return -1;
}
     2ae:	557d                	c.li	x10,-1
     2b0:	8082                	c.jr	x1

000002b2 <unimplemented_syscall>:

void unimplemented_syscall()
{
  const char *p = "BSP: Unimplemented system call called!\n";
     2b2:	67c9                	c.lui	x15,0x12
     2b4:	ea878793          	addi	x15,x15,-344 # 11ea8 <__clzsi2+0x2f0>
  while (*p)
    *(volatile int *)STDOUT_REG = *(p++);
     2b8:	100006b7          	lui	x13,0x10000
  while (*p)
     2bc:	0007c703          	lbu	x14,0(x15)
     2c0:	e311                	c.bnez	x14,2c4 <unimplemented_syscall+0x12>
}
     2c2:	8082                	c.jr	x1
    *(volatile int *)STDOUT_REG = *(p++);
     2c4:	0785                	c.addi	x15,1
     2c6:	c298                	c.sw	x14,0(x13)
     2c8:	bfd5                	c.j	2bc <unimplemented_syscall+0xa>

000002ca <nanosleep>:

int nanosleep(const struct timespec *rqtp, struct timespec *rmtp)
{
  errno = ENOSYS;
     2ca:	05800713          	addi	x14,x0,88
     2ce:	f0e1ac23          	sw	x14,-232(x3) # 13028 <errno>
  return -1;
}
     2d2:	557d                	c.li	x10,-1
     2d4:	8082                	c.jr	x1

000002d6 <_access>:

int _access(const char *file, int mode)
{
  errno = ENOSYS;
     2d6:	05800713          	addi	x14,x0,88
     2da:	f0e1ac23          	sw	x14,-232(x3) # 13028 <errno>
  return -1;
}
     2de:	557d                	c.li	x10,-1
     2e0:	8082                	c.jr	x1

000002e2 <_chdir>:

int _chdir(const char *path)
{
  errno = ENOSYS;
     2e2:	05800713          	addi	x14,x0,88
     2e6:	f0e1ac23          	sw	x14,-232(x3) # 13028 <errno>
  return -1;
}
     2ea:	557d                	c.li	x10,-1
     2ec:	8082                	c.jr	x1

000002ee <_chmod>:

int _chmod(const char *path, mode_t mode)
{
  errno = ENOSYS;
     2ee:	05800713          	addi	x14,x0,88
     2f2:	f0e1ac23          	sw	x14,-232(x3) # 13028 <errno>
  return -1;
}
     2f6:	557d                	c.li	x10,-1
     2f8:	8082                	c.jr	x1

000002fa <_chown>:

int _chown(const char *path, uid_t owner, gid_t group)
{
  errno = ENOSYS;
     2fa:	05800713          	addi	x14,x0,88
     2fe:	f0e1ac23          	sw	x14,-232(x3) # 13028 <errno>
  return -1;
}
     302:	557d                	c.li	x10,-1
     304:	8082                	c.jr	x1

00000306 <_close>:

int _close(int file)
{
  return -1;
}
     306:	557d                	c.li	x10,-1
     308:	8082                	c.jr	x1

0000030a <_execve>:

int _execve(const char *name, char *const argv[], char *const env[])
{
  errno = ENOMEM;
     30a:	4731                	c.li	x14,12
     30c:	f0e1ac23          	sw	x14,-232(x3) # 13028 <errno>
  return -1;
}
     310:	557d                	c.li	x10,-1
     312:	8082                	c.jr	x1

00000314 <_exit>:

void _exit(int exit_status)
{
  *(volatile int *)EXIT_REG = exit_status;
     314:	200007b7          	lui	x15,0x20000
     318:	c3c8                	c.sw	x10,4(x15)
  asm volatile("wfi");
     31a:	10500073          	wfi
  /* _exit should not return */
  while (1) {};
     31e:	a001                	c.j	31e <_exit+0xa>

00000320 <_faccessat>:
}

int _faccessat(int dirfd, const char *file, int mode, int flags)
{
  errno = ENOSYS;
     320:	05800713          	addi	x14,x0,88
     324:	f0e1ac23          	sw	x14,-232(x3) # 13028 <errno>
  return -1;
}
     328:	557d                	c.li	x10,-1
     32a:	8082                	c.jr	x1

0000032c <_fork>:

int _fork(void)
{
  errno = EAGAIN;
     32c:	472d                	c.li	x14,11
     32e:	f0e1ac23          	sw	x14,-232(x3) # 13028 <errno>
  return -1;
}
     332:	557d                	c.li	x10,-1
     334:	8082                	c.jr	x1

00000336 <_fstat>:

int _fstat(int file, struct stat *st)
{
  st->st_mode = S_IFCHR;
     336:	6789                	c.lui	x15,0x2
     338:	c1dc                	c.sw	x15,4(x11)
  return 0;
  // errno = -ENOSYS;
  // return -1;
}
     33a:	4501                	c.li	x10,0
     33c:	8082                	c.jr	x1

0000033e <_fstatat>:

int _fstatat(int dirfd, const char *file, struct stat *st, int flags)
{
  errno = ENOSYS;
     33e:	05800713          	addi	x14,x0,88
     342:	f0e1ac23          	sw	x14,-232(x3) # 13028 <errno>
  return -1;
}
     346:	557d                	c.li	x10,-1
     348:	8082                	c.jr	x1

0000034a <_ftime>:

int _ftime(struct timeb *tp)
     34a:	05800713          	addi	x14,x0,88
     34e:	f0e1ac23          	sw	x14,-232(x3) # 13028 <errno>
     352:	557d                	c.li	x10,-1
     354:	8082                	c.jr	x1

00000356 <_getcwd>:
  return -1;
}

char *_getcwd(char *buf, size_t size)
{
  errno = -ENOSYS;
     356:	fa800713          	addi	x14,x0,-88
     35a:	f0e1ac23          	sw	x14,-232(x3) # 13028 <errno>
  return NULL;
}
     35e:	4501                	c.li	x10,0
     360:	8082                	c.jr	x1

00000362 <_getpid>:

int _getpid()
{
  return 1;
}
     362:	4505                	c.li	x10,1
     364:	8082                	c.jr	x1

00000366 <_gettimeofday>:

int _gettimeofday(struct timeval *tp, void *tzp)
{
  errno = -ENOSYS;
     366:	fa800713          	addi	x14,x0,-88
     36a:	f0e1ac23          	sw	x14,-232(x3) # 13028 <errno>
  return -1;
}
     36e:	557d                	c.li	x10,-1
     370:	8082                	c.jr	x1

00000372 <_isatty>:

int _isatty(int file)
{
  return (file == STDOUT_FILENO);
     372:	157d                	c.addi	x10,-1
}
     374:	00153513          	sltiu	x10,x10,1
     378:	8082                	c.jr	x1

0000037a <_kill>:

int _kill(int pid, int sig)
{
  errno = EINVAL;
     37a:	4759                	c.li	x14,22
     37c:	f0e1ac23          	sw	x14,-232(x3) # 13028 <errno>
  return -1;
}
     380:	557d                	c.li	x10,-1
     382:	8082                	c.jr	x1

00000384 <_link>:

int _link(const char *old_name, const char *new_name)
{
  errno = EMLINK;
     384:	477d                	c.li	x14,31
     386:	f0e1ac23          	sw	x14,-232(x3) # 13028 <errno>
  return -1;
}
     38a:	557d                	c.li	x10,-1
     38c:	8082                	c.jr	x1

0000038e <_lseek>:

off_t _lseek(int file, off_t ptr, int dir)
{
  return 0;
}
     38e:	4501                	c.li	x10,0
     390:	8082                	c.jr	x1

00000392 <_lstat>:

int _lstat(const char *file, struct stat *st)
     392:	05800713          	addi	x14,x0,88
     396:	f0e1ac23          	sw	x14,-232(x3) # 13028 <errno>
     39a:	557d                	c.li	x10,-1
     39c:	8082                	c.jr	x1

0000039e <_open>:
}

int _open(const char *name, int flags, int mode)
{
  return -1;
}
     39e:	557d                	c.li	x10,-1
     3a0:	8082                	c.jr	x1

000003a2 <_openat>:

int _openat(int dirfd, const char *name, int flags, int mode)
     3a2:	05800713          	addi	x14,x0,88
     3a6:	f0e1ac23          	sw	x14,-232(x3) # 13028 <errno>
     3aa:	557d                	c.li	x10,-1
     3ac:	8082                	c.jr	x1

000003ae <_read>:
}

ssize_t _read(int file, void *ptr, size_t len)
{
  return 0;
}
     3ae:	4501                	c.li	x10,0
     3b0:	8082                	c.jr	x1

000003b2 <_stat>:

int _stat(const char *file, struct stat *st)
{
  st->st_mode = S_IFCHR;
     3b2:	6789                	c.lui	x15,0x2
     3b4:	c1dc                	c.sw	x15,4(x11)
  return 0;
  // errno = ENOSYS;
  // return -1;
}
     3b6:	4501                	c.li	x10,0
     3b8:	8082                	c.jr	x1

000003ba <_sysconf>:

long _sysconf(int name)
     3ba:	557d                	c.li	x10,-1
     3bc:	8082                	c.jr	x1

000003be <_times>:
}

clock_t _times(struct tms *buf)
{
  return -1;
}
     3be:	557d                	c.li	x10,-1
     3c0:	8082                	c.jr	x1

000003c2 <_unlink>:

int _unlink(const char *name)
{
  errno = ENOENT;
     3c2:	4709                	c.li	x14,2
     3c4:	f0e1ac23          	sw	x14,-232(x3) # 13028 <errno>
  return -1;
}
     3c8:	557d                	c.li	x10,-1
     3ca:	8082                	c.jr	x1

000003cc <_utime>:

int _utime(const char *path, const struct utimbuf *times)
     3cc:	05800713          	addi	x14,x0,88
     3d0:	f0e1ac23          	sw	x14,-232(x3) # 13028 <errno>
     3d4:	557d                	c.li	x10,-1
     3d6:	8082                	c.jr	x1

000003d8 <_wait>:
  return -1;
}

int _wait(int *status)
{
  errno = ECHILD;
     3d8:	4729                	c.li	x14,10
     3da:	f0e1ac23          	sw	x14,-232(x3) # 13028 <errno>
  return -1;
}
     3de:	557d                	c.li	x10,-1
     3e0:	8082                	c.jr	x1

000003e2 <_write>:

ssize_t _write(int file, const void *ptr, size_t len)
{
  const char *cptr = (char *)ptr;
  if (file != STDOUT_FILENO)
     3e2:	4685                	c.li	x13,1
    {
      errno = ENOSYS;
      return -1;
    }

  const void *eptr = cptr + len;
     3e4:	00c587b3          	add	x15,x11,x12
  while (cptr != eptr)
    *(volatile int *)STDOUT_REG = *cptr++;
     3e8:	10000737          	lui	x14,0x10000
  if (file != STDOUT_FILENO)
     3ec:	00d50c63          	beq	x10,x13,404 <_write+0x22>
      errno = ENOSYS;
     3f0:	05800713          	addi	x14,x0,88
     3f4:	f0e1ac23          	sw	x14,-232(x3) # 13028 <errno>
      return -1;
     3f8:	557d                	c.li	x10,-1
     3fa:	8082                	c.jr	x1
    *(volatile int *)STDOUT_REG = *cptr++;
     3fc:	0005c683          	lbu	x13,0(x11)
     400:	0585                	c.addi	x11,1
     402:	c314                	c.sw	x13,0(x14)
  while (cptr != eptr)
     404:	fef59ce3          	bne	x11,x15,3fc <_write+0x1a>
  return len;
     408:	8532                	c.mv	x10,x12
}
     40a:	8082                	c.jr	x1

0000040c <_brk>:
extern char __heap_end[];
static char *brk = __heap_start;

int _brk(void *addr)
{
  brk = addr;
     40c:	f0a1a423          	sw	x10,-248(x3) # 13018 <brk>
  return 0;
}
     410:	4501                	c.li	x10,0
     412:	8082                	c.jr	x1

00000414 <_sbrk>:

void *_sbrk(ptrdiff_t incr)
{
     414:	87aa                	c.mv	x15,x10
  char *old_brk = brk;
     416:	f081a503          	lw	x10,-248(x3) # 13018 <brk>
  register long sp asm("sp");

  char *new_brk = brk += incr;
     41a:	97aa                	c.add	x15,x10
     41c:	f0f1a423          	sw	x15,-248(x3) # 13018 <brk>
  if (new_brk < (char *) sp && new_brk < __heap_end)
     420:	0027f863          	bgeu	x15,x2,430 <_sbrk+0x1c>
     424:	00400737          	lui	x14,0x400
     428:	00070713          	addi	x14,x14,0 # 400000 <__heap_end>
     42c:	00e7e663          	bltu	x15,x14,438 <_sbrk+0x24>

      return old_brk;
    }
  else
    {
      errno = ENOMEM;
     430:	4731                	c.li	x14,12
     432:	f0e1ac23          	sw	x14,-232(x3) # 13028 <errno>
      return (void *) -1;
     436:	557d                	c.li	x10,-1
    }
}
     438:	8082                	c.jr	x1

0000043a <handle_syscall>:
    register long syscall_id asm("t0");
  #else
    long syscall_id = a7;
  #endif

  switch (syscall_id) {
     43a:	08100793          	addi	x15,x0,129
     43e:	0af88c63          	beq	x17,x15,4f6 <handle_syscall+0xbc>
     442:	0717c763          	blt	x15,x17,4b0 <handle_syscall+0x76>
     446:	04000793          	addi	x15,x0,64
     44a:	0517c663          	blt	x15,x17,496 <handle_syscall+0x5c>
     44e:	02f00793          	addi	x15,x0,47
     452:	0317c563          	blt	x15,x17,47c <handle_syscall+0x42>
     456:	47c5                	c.li	x15,17
     458:	04f89b63          	bne	x17,x15,4ae <handle_syscall+0x74>
  errno = -ENOSYS;
     45c:	fa800713          	addi	x14,x0,-88
     460:	a861                	c.j	4f8 <handle_syscall+0xbe>
  switch (syscall_id) {
     462:	c0088893          	addi	x17,x17,-1024
     466:	47bd                	c.li	x15,15
     468:	0517e363          	bltu	x15,x17,4ae <handle_syscall+0x74>
     46c:	67c9                	c.lui	x15,0x12
     46e:	0f878793          	addi	x15,x15,248 # 120f8 <no_exception_handler_msg+0x31>
     472:	088a                	c.slli	x17,0x2
     474:	98be                	c.add	x17,x15
     476:	0008a783          	lw	x15,0(x17)
     47a:	8782                	c.jr	x15
     47c:	fd088893          	addi	x17,x17,-48
     480:	47c1                	c.li	x15,16
     482:	0317e663          	bltu	x15,x17,4ae <handle_syscall+0x74>
     486:	67c9                	c.lui	x15,0x12
     488:	13878793          	addi	x15,x15,312 # 12138 <no_exception_handler_msg+0x71>
     48c:	088a                	c.slli	x17,0x2
     48e:	98be                	c.add	x17,x15
     490:	0008a783          	lw	x15,0(x17)
     494:	8782                	c.jr	x15
     496:	05000793          	addi	x15,x0,80
     49a:	06f88963          	beq	x17,x15,50c <handle_syscall+0xd2>
     49e:	05d00793          	addi	x15,x0,93
     4a2:	04f88363          	beq	x17,x15,4e8 <handle_syscall+0xae>
     4a6:	04f00793          	addi	x15,x0,79
     4aa:	04f88a63          	beq	x17,x15,4fe <handle_syscall+0xc4>
      break;
    case SYS_times:
      _times ((struct tms *) a0);
      break;
    default:
      unimplemented_syscall ();
     4ae:	b511                	c.j	2b2 <unimplemented_syscall>
  switch (syscall_id) {
     4b0:	40f00793          	addi	x15,x0,1039
     4b4:	ff17cde3          	blt	x15,x17,4ae <handle_syscall+0x74>
     4b8:	3ff00793          	addi	x15,x0,1023
     4bc:	fb17c3e3          	blt	x15,x17,462 <handle_syscall+0x28>
     4c0:	0ac00793          	addi	x15,x0,172
     4c4:	04f88763          	beq	x17,x15,512 <handle_syscall+0xd8>
     4c8:	0117c963          	blt	x15,x17,4da <handle_syscall+0xa0>
     4cc:	09900793          	addi	x15,x0,153
     4d0:	04f88163          	beq	x17,x15,512 <handle_syscall+0xd8>
     4d4:	0a900793          	addi	x15,x0,169
     4d8:	b741                	c.j	458 <handle_syscall+0x1e>
     4da:	0d600793          	addi	x15,x0,214
     4de:	fcf898e3          	bne	x17,x15,4ae <handle_syscall+0x74>
  brk = addr;
     4e2:	f0a1a423          	sw	x10,-248(x3) # 13018 <brk>
  return 0;
     4e6:	8082                	c.jr	x1
  *(volatile int *)EXIT_REG = exit_status;
     4e8:	200007b7          	lui	x15,0x20000
     4ec:	c3c8                	c.sw	x10,4(x15)
  asm volatile("wfi");
     4ee:	10500073          	wfi
  while (1) {};
     4f2:	a001                	c.j	4f2 <handle_syscall+0xb8>
      _write (a0, (const void *) a1, a2);
     4f4:	b5fd                	c.j	3e2 <_write>
  errno = EINVAL;
     4f6:	4759                	c.li	x14,22
  errno = ENOSYS;
     4f8:	f0e1ac23          	sw	x14,-232(x3) # 13028 <errno>
  return -1;
     4fc:	8082                	c.jr	x1
  errno = ENOSYS;
     4fe:	05800713          	addi	x14,x0,88
     502:	bfdd                	c.j	4f8 <handle_syscall+0xbe>
  errno = EMLINK;
     504:	477d                	c.li	x14,31
     506:	bfcd                	c.j	4f8 <handle_syscall+0xbe>
  errno = ENOENT;
     508:	4709                	c.li	x14,2
     50a:	b7fd                	c.j	4f8 <handle_syscall+0xbe>
  st->st_mode = S_IFCHR;
     50c:	6789                	c.lui	x15,0x2
     50e:	c1dc                	c.sw	x15,4(x11)
  return 0;
     510:	8082                	c.jr	x1
      break;
  }
}
     512:	8082                	c.jr	x1

00000514 <memset>:
     514:	00f00313          	addi	x6,x0,15
     518:	00050713          	addi	x14,x10,0
     51c:	02c37e63          	bgeu	x6,x12,558 <memset+0x44>
     520:	00f77793          	andi	x15,x14,15
     524:	0a079063          	bne	x15,x0,5c4 <memset+0xb0>
     528:	08059263          	bne	x11,x0,5ac <memset+0x98>
     52c:	ff067693          	andi	x13,x12,-16
     530:	00f67613          	andi	x12,x12,15
     534:	00e686b3          	add	x13,x13,x14
     538:	00b72023          	sw	x11,0(x14)
     53c:	00b72223          	sw	x11,4(x14)
     540:	00b72423          	sw	x11,8(x14)
     544:	00b72623          	sw	x11,12(x14)
     548:	01070713          	addi	x14,x14,16
     54c:	fed766e3          	bltu	x14,x13,538 <memset+0x24>
     550:	00061463          	bne	x12,x0,558 <memset+0x44>
     554:	00008067          	jalr	x0,0(x1)
     558:	40c306b3          	sub	x13,x6,x12
     55c:	00269693          	slli	x13,x13,0x2
     560:	00000297          	auipc	x5,0x0
     564:	005686b3          	add	x13,x13,x5
     568:	00c68067          	jalr	x0,12(x13) # 1000000c <__heap_end+0xfc0000c>
     56c:	00b70723          	sb	x11,14(x14)
     570:	00b706a3          	sb	x11,13(x14)
     574:	00b70623          	sb	x11,12(x14)
     578:	00b705a3          	sb	x11,11(x14)
     57c:	00b70523          	sb	x11,10(x14)
     580:	00b704a3          	sb	x11,9(x14)
     584:	00b70423          	sb	x11,8(x14)
     588:	00b703a3          	sb	x11,7(x14)
     58c:	00b70323          	sb	x11,6(x14)
     590:	00b702a3          	sb	x11,5(x14)
     594:	00b70223          	sb	x11,4(x14)
     598:	00b701a3          	sb	x11,3(x14)
     59c:	00b70123          	sb	x11,2(x14)
     5a0:	00b700a3          	sb	x11,1(x14)
     5a4:	00b70023          	sb	x11,0(x14)
     5a8:	00008067          	jalr	x0,0(x1)
     5ac:	0ff5f593          	andi	x11,x11,255
     5b0:	00859693          	slli	x13,x11,0x8
     5b4:	00d5e5b3          	or	x11,x11,x13
     5b8:	01059693          	slli	x13,x11,0x10
     5bc:	00d5e5b3          	or	x11,x11,x13
     5c0:	f6dff06f          	jal	x0,52c <memset+0x18>
     5c4:	00279693          	slli	x13,x15,0x2
     5c8:	00000297          	auipc	x5,0x0
     5cc:	005686b3          	add	x13,x13,x5
     5d0:	00008293          	addi	x5,x1,0
     5d4:	fa0680e7          	jalr	x1,-96(x13)
     5d8:	00028093          	addi	x1,x5,0 # 5c8 <memset+0xb4>
     5dc:	ff078793          	addi	x15,x15,-16 # 1ff0 <memchr+0x84>
     5e0:	40f70733          	sub	x14,x14,x15
     5e4:	00f60633          	add	x12,x12,x15
     5e8:	f6c378e3          	bgeu	x6,x12,558 <memset+0x44>
     5ec:	f3dff06f          	jal	x0,528 <memset+0x14>

000005f0 <_reclaim_reent>:
     5f0:	f141a783          	lw	x15,-236(x3) # 13024 <_impure_ptr>
     5f4:	0aa78e63          	beq	x15,x10,6b0 <_reclaim_reent+0xc0>
     5f8:	04452583          	lw	x11,68(x10)
     5fc:	fe010113          	addi	x2,x2,-32
     600:	00912a23          	sw	x9,20(x2)
     604:	00112e23          	sw	x1,28(x2)
     608:	00050493          	addi	x9,x10,0
     60c:	04058c63          	beq	x11,x0,664 <_reclaim_reent+0x74>
     610:	01212823          	sw	x18,16(x2)
     614:	01312623          	sw	x19,12(x2)
     618:	00812c23          	sw	x8,24(x2)
     61c:	00000913          	addi	x18,x0,0
     620:	08000993          	addi	x19,x0,128
     624:	012587b3          	add	x15,x11,x18
     628:	0007a403          	lw	x8,0(x15)
     62c:	00040e63          	beq	x8,x0,648 <_reclaim_reent+0x58>
     630:	00040593          	addi	x11,x8,0
     634:	00042403          	lw	x8,0(x8)
     638:	00048513          	addi	x10,x9,0
     63c:	4f8010ef          	jal	x1,1b34 <_free_r>
     640:	fe0418e3          	bne	x8,x0,630 <_reclaim_reent+0x40>
     644:	0444a583          	lw	x11,68(x9)
     648:	00490913          	addi	x18,x18,4
     64c:	fd391ce3          	bne	x18,x19,624 <_reclaim_reent+0x34>
     650:	00048513          	addi	x10,x9,0
     654:	4e0010ef          	jal	x1,1b34 <_free_r>
     658:	01812403          	lw	x8,24(x2)
     65c:	01012903          	lw	x18,16(x2)
     660:	00c12983          	lw	x19,12(x2)
     664:	0384a583          	lw	x11,56(x9)
     668:	00058663          	beq	x11,x0,674 <_reclaim_reent+0x84>
     66c:	00048513          	addi	x10,x9,0
     670:	4c4010ef          	jal	x1,1b34 <_free_r>
     674:	04c4a583          	lw	x11,76(x9)
     678:	00058663          	beq	x11,x0,684 <_reclaim_reent+0x94>
     67c:	00048513          	addi	x10,x9,0
     680:	4b4010ef          	jal	x1,1b34 <_free_r>
     684:	0344a783          	lw	x15,52(x9)
     688:	00078c63          	beq	x15,x0,6a0 <_reclaim_reent+0xb0>
     68c:	01c12083          	lw	x1,28(x2)
     690:	00048513          	addi	x10,x9,0
     694:	01412483          	lw	x9,20(x2)
     698:	02010113          	addi	x2,x2,32
     69c:	00078067          	jalr	x0,0(x15)
     6a0:	01c12083          	lw	x1,28(x2)
     6a4:	01412483          	lw	x9,20(x2)
     6a8:	02010113          	addi	x2,x2,32
     6ac:	00008067          	jalr	x0,0(x1)
     6b0:	00008067          	jalr	x0,0(x1)

000006b4 <_printf_r>:
     6b4:	fc010113          	addi	x2,x2,-64
     6b8:	02c12423          	sw	x12,40(x2)
     6bc:	02d12623          	sw	x13,44(x2)
     6c0:	02e12823          	sw	x14,48(x2)
     6c4:	02f12a23          	sw	x15,52(x2)
     6c8:	03012c23          	sw	x16,56(x2)
     6cc:	03112e23          	sw	x17,60(x2)
     6d0:	00058613          	addi	x12,x11,0
     6d4:	00852583          	lw	x11,8(x10)
     6d8:	02810693          	addi	x13,x2,40
     6dc:	00112e23          	sw	x1,28(x2)
     6e0:	00d12623          	sw	x13,12(x2)
     6e4:	01d020ef          	jal	x1,2f00 <_vfprintf_r>
     6e8:	01c12083          	lw	x1,28(x2)
     6ec:	04010113          	addi	x2,x2,64
     6f0:	00008067          	jalr	x0,0(x1)

000006f4 <printf>:
     6f4:	fc010113          	addi	x2,x2,-64
     6f8:	02c12423          	sw	x12,40(x2)
     6fc:	02d12623          	sw	x13,44(x2)
     700:	02f12a23          	sw	x15,52(x2)
     704:	02b12223          	sw	x11,36(x2)
     708:	02e12823          	sw	x14,48(x2)
     70c:	03012c23          	sw	x16,56(x2)
     710:	03112e23          	sw	x17,60(x2)
     714:	f141a783          	lw	x15,-236(x3) # 13024 <_impure_ptr>
     718:	0087a583          	lw	x11,8(x15)
     71c:	02410693          	addi	x13,x2,36
     720:	00050613          	addi	x12,x10,0
     724:	00078513          	addi	x10,x15,0
     728:	00112e23          	sw	x1,28(x2)
     72c:	00d12623          	sw	x13,12(x2)
     730:	7d0020ef          	jal	x1,2f00 <_vfprintf_r>
     734:	01c12083          	lw	x1,28(x2)
     738:	04010113          	addi	x2,x2,64
     73c:	00008067          	jalr	x0,0(x1)

00000740 <_puts_r>:
     740:	fc010113          	addi	x2,x2,-64
     744:	02812c23          	sw	x8,56(x2)
     748:	00050413          	addi	x8,x10,0
     74c:	00058513          	addi	x10,x11,0
     750:	02912a23          	sw	x9,52(x2)
     754:	02112e23          	sw	x1,60(x2)
     758:	00058493          	addi	x9,x11,0
     75c:	5c0020ef          	jal	x1,2d1c <strlen>
     760:	03442783          	lw	x15,52(x8)
     764:	00011597          	auipc	x11,0x11
     768:	76c58593          	addi	x11,x11,1900 # 11ed0 <__clzsi2+0x318>
     76c:	00150813          	addi	x16,x10,1
     770:	00100613          	addi	x12,x0,1
     774:	02010693          	addi	x13,x2,32
     778:	00200713          	addi	x14,x0,2
     77c:	02b12423          	sw	x11,40(x2)
     780:	02912023          	sw	x9,32(x2)
     784:	02a12223          	sw	x10,36(x2)
     788:	01012e23          	sw	x16,28(x2)
     78c:	02c12623          	sw	x12,44(x2)
     790:	00d12a23          	sw	x13,20(x2)
     794:	00e12c23          	sw	x14,24(x2)
     798:	00842583          	lw	x11,8(x8)
     79c:	06078063          	beq	x15,x0,7fc <_puts_r+0xbc>
     7a0:	00c59783          	lh	x15,12(x11)
     7a4:	00002637          	lui	x12,0x2
     7a8:	01279713          	slli	x14,x15,0x12
     7ac:	02074063          	blt	x14,x0,7cc <_puts_r+0x8c>
     7b0:	0645a703          	lw	x14,100(x11)
     7b4:	ffffe6b7          	lui	x13,0xffffe
     7b8:	fff68693          	addi	x13,x13,-1 # ffffdfff <__heap_end+0xffbfdfff>
     7bc:	00c7e7b3          	or	x15,x15,x12
     7c0:	00d77733          	and	x14,x14,x13
     7c4:	00f59623          	sh	x15,12(x11)
     7c8:	06e5a223          	sw	x14,100(x11)
     7cc:	00040513          	addi	x10,x8,0
     7d0:	01410613          	addi	x12,x2,20
     7d4:	3ac000ef          	jal	x1,b80 <__sfvwrite_r>
     7d8:	03c12083          	lw	x1,60(x2)
     7dc:	03812403          	lw	x8,56(x2)
     7e0:	00153513          	sltiu	x10,x10,1
     7e4:	40a00533          	sub	x10,x0,x10
     7e8:	00b57513          	andi	x10,x10,11
     7ec:	03412483          	lw	x9,52(x2)
     7f0:	fff50513          	addi	x10,x10,-1
     7f4:	04010113          	addi	x2,x2,64
     7f8:	00008067          	jalr	x0,0(x1)
     7fc:	00040513          	addi	x10,x8,0
     800:	00b12623          	sw	x11,12(x2)
     804:	320000ef          	jal	x1,b24 <__sinit>
     808:	00c12583          	lw	x11,12(x2)
     80c:	f95ff06f          	jal	x0,7a0 <_puts_r+0x60>

00000810 <puts>:
     810:	00050593          	addi	x11,x10,0
     814:	f141a503          	lw	x10,-236(x3) # 13024 <_impure_ptr>
     818:	f29ff06f          	jal	x0,740 <_puts_r>

0000081c <__fp_lock>:
     81c:	00000513          	addi	x10,x0,0
     820:	00008067          	jalr	x0,0(x1)

00000824 <stdio_exit_handler>:
     824:	00012617          	auipc	x12,0x12
     828:	0ec60613          	addi	x12,x12,236 # 12910 <__sglue>
     82c:	00001597          	auipc	x11,0x1
     830:	85058593          	addi	x11,x11,-1968 # 107c <_fclose_r>
     834:	c1818513          	addi	x10,x3,-1000 # 12d28 <_impure_data>
     838:	11d0106f          	jal	x0,2154 <_fwalk_sglue>

0000083c <cleanup_stdio>:
     83c:	00452583          	lw	x11,4(x10)
     840:	ff010113          	addi	x2,x2,-16
     844:	00812423          	sw	x8,8(x2)
     848:	00112623          	sw	x1,12(x2)
     84c:	f3418793          	addi	x15,x3,-204 # 13044 <__sf>
     850:	00050413          	addi	x8,x10,0
     854:	00f58463          	beq	x11,x15,85c <cleanup_stdio+0x20>
     858:	025000ef          	jal	x1,107c <_fclose_r>
     85c:	00842583          	lw	x11,8(x8)
     860:	f9c18793          	addi	x15,x3,-100 # 130ac <__sf+0x68>
     864:	00f58663          	beq	x11,x15,870 <cleanup_stdio+0x34>
     868:	00040513          	addi	x10,x8,0
     86c:	011000ef          	jal	x1,107c <_fclose_r>
     870:	00c42583          	lw	x11,12(x8)
     874:	00418793          	addi	x15,x3,4 # 13114 <__global_pointer$+0x4>
     878:	00f58c63          	beq	x11,x15,890 <cleanup_stdio+0x54>
     87c:	00040513          	addi	x10,x8,0
     880:	00812403          	lw	x8,8(x2)
     884:	00c12083          	lw	x1,12(x2)
     888:	01010113          	addi	x2,x2,16
     88c:	7f00006f          	jal	x0,107c <_fclose_r>
     890:	00c12083          	lw	x1,12(x2)
     894:	00812403          	lw	x8,8(x2)
     898:	01010113          	addi	x2,x2,16
     89c:	00008067          	jalr	x0,0(x1)

000008a0 <__fp_unlock>:
     8a0:	00000513          	addi	x10,x0,0
     8a4:	00008067          	jalr	x0,0(x1)

000008a8 <global_stdio_init.part.0>:
     8a8:	fe010113          	addi	x2,x2,-32
     8ac:	00112e23          	sw	x1,28(x2)
     8b0:	00812c23          	sw	x8,24(x2)
     8b4:	00912a23          	sw	x9,20(x2)
     8b8:	f3418413          	addi	x8,x3,-204 # 13044 <__sf>
     8bc:	01212823          	sw	x18,16(x2)
     8c0:	01312623          	sw	x19,12(x2)
     8c4:	01412423          	sw	x20,8(x2)
     8c8:	00000717          	auipc	x14,0x0
     8cc:	f5c70713          	addi	x14,x14,-164 # 824 <stdio_exit_handler>
     8d0:	00400793          	addi	x15,x0,4
     8d4:	00800613          	addi	x12,x0,8
     8d8:	00000593          	addi	x11,x0,0
     8dc:	f9018513          	addi	x10,x3,-112 # 130a0 <__sf+0x5c>
     8e0:	f0e1ae23          	sw	x14,-228(x3) # 1302c <__stdio_exit_handler>
     8e4:	00f42623          	sw	x15,12(x8)
     8e8:	00042023          	sw	x0,0(x8)
     8ec:	00042223          	sw	x0,4(x8)
     8f0:	00042423          	sw	x0,8(x8)
     8f4:	06042223          	sw	x0,100(x8)
     8f8:	00042823          	sw	x0,16(x8)
     8fc:	00042a23          	sw	x0,20(x8)
     900:	00042c23          	sw	x0,24(x8)
     904:	c11ff0ef          	jal	x1,514 <memset>
     908:	000107b7          	lui	x15,0x10
     90c:	00002a17          	auipc	x20,0x2
     910:	49ca0a13          	addi	x20,x20,1180 # 2da8 <__sread>
     914:	00002997          	auipc	x19,0x2
     918:	4f898993          	addi	x19,x19,1272 # 2e0c <__swrite>
     91c:	00002917          	auipc	x18,0x2
     920:	57890913          	addi	x18,x18,1400 # 2e94 <__sseek>
     924:	00002497          	auipc	x9,0x2
     928:	5d448493          	addi	x9,x9,1492 # 2ef8 <__sclose>
     92c:	00978793          	addi	x15,x15,9 # 10009 <__subtf3+0xe1>
     930:	00800613          	addi	x12,x0,8
     934:	00000593          	addi	x11,x0,0
     938:	ff818513          	addi	x10,x3,-8 # 13108 <__sf+0xc4>
     93c:	06f42a23          	sw	x15,116(x8)
     940:	03442023          	sw	x20,32(x8)
     944:	03342223          	sw	x19,36(x8)
     948:	03242423          	sw	x18,40(x8)
     94c:	02942623          	sw	x9,44(x8)
     950:	00842e23          	sw	x8,28(x8)
     954:	06042423          	sw	x0,104(x8)
     958:	06042623          	sw	x0,108(x8)
     95c:	06042823          	sw	x0,112(x8)
     960:	0c042623          	sw	x0,204(x8)
     964:	06042c23          	sw	x0,120(x8)
     968:	06042e23          	sw	x0,124(x8)
     96c:	08042023          	sw	x0,128(x8)
     970:	ba5ff0ef          	jal	x1,514 <memset>
     974:	000207b7          	lui	x15,0x20
     978:	01278793          	addi	x15,x15,18 # 20012 <__heap_start+0xccd2>
     97c:	f9c18713          	addi	x14,x3,-100 # 130ac <__sf+0x68>
     980:	00800613          	addi	x12,x0,8
     984:	00000593          	addi	x11,x0,0
     988:	06018513          	addi	x10,x3,96 # 13170 <__global_pointer$+0x60>
     98c:	09442423          	sw	x20,136(x8)
     990:	09342623          	sw	x19,140(x8)
     994:	09242823          	sw	x18,144(x8)
     998:	08942a23          	sw	x9,148(x8)
     99c:	0cf42e23          	sw	x15,220(x8)
     9a0:	0c042823          	sw	x0,208(x8)
     9a4:	0c042a23          	sw	x0,212(x8)
     9a8:	0c042c23          	sw	x0,216(x8)
     9ac:	12042a23          	sw	x0,308(x8)
     9b0:	0e042023          	sw	x0,224(x8)
     9b4:	0e042223          	sw	x0,228(x8)
     9b8:	0e042423          	sw	x0,232(x8)
     9bc:	08e42223          	sw	x14,132(x8)
     9c0:	b55ff0ef          	jal	x1,514 <memset>
     9c4:	00418793          	addi	x15,x3,4 # 13114 <__global_pointer$+0x4>
     9c8:	0f442823          	sw	x20,240(x8)
     9cc:	0f342a23          	sw	x19,244(x8)
     9d0:	0f242c23          	sw	x18,248(x8)
     9d4:	0e942e23          	sw	x9,252(x8)
     9d8:	01c12083          	lw	x1,28(x2)
     9dc:	0ef42623          	sw	x15,236(x8)
     9e0:	01812403          	lw	x8,24(x2)
     9e4:	01412483          	lw	x9,20(x2)
     9e8:	01012903          	lw	x18,16(x2)
     9ec:	00c12983          	lw	x19,12(x2)
     9f0:	00812a03          	lw	x20,8(x2)
     9f4:	02010113          	addi	x2,x2,32
     9f8:	00008067          	jalr	x0,0(x1)

000009fc <__sfp>:
     9fc:	fe010113          	addi	x2,x2,-32
     a00:	01312623          	sw	x19,12(x2)
     a04:	00112e23          	sw	x1,28(x2)
     a08:	00812c23          	sw	x8,24(x2)
     a0c:	00912a23          	sw	x9,20(x2)
     a10:	01212823          	sw	x18,16(x2)
     a14:	f1c1a783          	lw	x15,-228(x3) # 1302c <__stdio_exit_handler>
     a18:	00050993          	addi	x19,x10,0
     a1c:	0e078863          	beq	x15,x0,b0c <__sfp+0x110>
     a20:	00012917          	auipc	x18,0x12
     a24:	ef090913          	addi	x18,x18,-272 # 12910 <__sglue>
     a28:	fff00493          	addi	x9,x0,-1
     a2c:	00492783          	lw	x15,4(x18)
     a30:	00892403          	lw	x8,8(x18)
     a34:	fff78793          	addi	x15,x15,-1
     a38:	0007d863          	bge	x15,x0,a48 <__sfp+0x4c>
     a3c:	0800006f          	jal	x0,abc <__sfp+0xc0>
     a40:	06840413          	addi	x8,x8,104
     a44:	06978c63          	beq	x15,x9,abc <__sfp+0xc0>
     a48:	00c41703          	lh	x14,12(x8)
     a4c:	fff78793          	addi	x15,x15,-1
     a50:	fe0718e3          	bne	x14,x0,a40 <__sfp+0x44>
     a54:	ffff07b7          	lui	x15,0xffff0
     a58:	00178793          	addi	x15,x15,1 # ffff0001 <__heap_end+0xffbf0001>
     a5c:	06042223          	sw	x0,100(x8)
     a60:	00042023          	sw	x0,0(x8)
     a64:	00042423          	sw	x0,8(x8)
     a68:	00042223          	sw	x0,4(x8)
     a6c:	00042823          	sw	x0,16(x8)
     a70:	00042a23          	sw	x0,20(x8)
     a74:	00042c23          	sw	x0,24(x8)
     a78:	00f42623          	sw	x15,12(x8)
     a7c:	00800613          	addi	x12,x0,8
     a80:	00000593          	addi	x11,x0,0
     a84:	05c40513          	addi	x10,x8,92
     a88:	a8dff0ef          	jal	x1,514 <memset>
     a8c:	02042823          	sw	x0,48(x8)
     a90:	02042a23          	sw	x0,52(x8)
     a94:	04042223          	sw	x0,68(x8)
     a98:	04042423          	sw	x0,72(x8)
     a9c:	01c12083          	lw	x1,28(x2)
     aa0:	00040513          	addi	x10,x8,0
     aa4:	01812403          	lw	x8,24(x2)
     aa8:	01412483          	lw	x9,20(x2)
     aac:	01012903          	lw	x18,16(x2)
     ab0:	00c12983          	lw	x19,12(x2)
     ab4:	02010113          	addi	x2,x2,32
     ab8:	00008067          	jalr	x0,0(x1)
     abc:	00092403          	lw	x8,0(x18)
     ac0:	00040663          	beq	x8,x0,acc <__sfp+0xd0>
     ac4:	00040913          	addi	x18,x8,0
     ac8:	f65ff06f          	jal	x0,a2c <__sfp+0x30>
     acc:	1ac00593          	addi	x11,x0,428
     ad0:	00098513          	addi	x10,x19,0
     ad4:	6bc000ef          	jal	x1,1190 <_malloc_r>
     ad8:	00050413          	addi	x8,x10,0
     adc:	02050c63          	beq	x10,x0,b14 <__sfp+0x118>
     ae0:	00400793          	addi	x15,x0,4
     ae4:	00c50513          	addi	x10,x10,12
     ae8:	00042023          	sw	x0,0(x8)
     aec:	00f42223          	sw	x15,4(x8)
     af0:	00a42423          	sw	x10,8(x8)
     af4:	1a000613          	addi	x12,x0,416
     af8:	00000593          	addi	x11,x0,0
     afc:	a19ff0ef          	jal	x1,514 <memset>
     b00:	00892023          	sw	x8,0(x18)
     b04:	00040913          	addi	x18,x8,0
     b08:	f25ff06f          	jal	x0,a2c <__sfp+0x30>
     b0c:	d9dff0ef          	jal	x1,8a8 <global_stdio_init.part.0>
     b10:	f11ff06f          	jal	x0,a20 <__sfp+0x24>
     b14:	00092023          	sw	x0,0(x18)
     b18:	00c00793          	addi	x15,x0,12
     b1c:	00f9a023          	sw	x15,0(x19)
     b20:	f7dff06f          	jal	x0,a9c <__sfp+0xa0>

00000b24 <__sinit>:
     b24:	03452783          	lw	x15,52(x10)
     b28:	00078463          	beq	x15,x0,b30 <__sinit+0xc>
     b2c:	00008067          	jalr	x0,0(x1)
     b30:	00000797          	auipc	x15,0x0
     b34:	d0c78793          	addi	x15,x15,-756 # 83c <cleanup_stdio>
     b38:	02f52a23          	sw	x15,52(x10)
     b3c:	f1c1a783          	lw	x15,-228(x3) # 1302c <__stdio_exit_handler>
     b40:	fe0796e3          	bne	x15,x0,b2c <__sinit+0x8>
     b44:	d65ff06f          	jal	x0,8a8 <global_stdio_init.part.0>

00000b48 <__sfp_lock_acquire>:
     b48:	00008067          	jalr	x0,0(x1)

00000b4c <__sfp_lock_release>:
     b4c:	00008067          	jalr	x0,0(x1)

00000b50 <__fp_lock_all>:
     b50:	00012617          	auipc	x12,0x12
     b54:	dc060613          	addi	x12,x12,-576 # 12910 <__sglue>
     b58:	00000597          	auipc	x11,0x0
     b5c:	cc458593          	addi	x11,x11,-828 # 81c <__fp_lock>
     b60:	00000513          	addi	x10,x0,0
     b64:	5f00106f          	jal	x0,2154 <_fwalk_sglue>

00000b68 <__fp_unlock_all>:
     b68:	00012617          	auipc	x12,0x12
     b6c:	da860613          	addi	x12,x12,-600 # 12910 <__sglue>
     b70:	00000597          	auipc	x11,0x0
     b74:	d3058593          	addi	x11,x11,-720 # 8a0 <__fp_unlock>
     b78:	00000513          	addi	x10,x0,0
     b7c:	5d80106f          	jal	x0,2154 <_fwalk_sglue>

00000b80 <__sfvwrite_r>:
     b80:	00862783          	lw	x15,8(x12)
     b84:	24078063          	beq	x15,x0,dc4 <__sfvwrite_r+0x244>
     b88:	00c59703          	lh	x14,12(x11)
     b8c:	fd010113          	addi	x2,x2,-48
     b90:	02812423          	sw	x8,40(x2)
     b94:	01412c23          	sw	x20,24(x2)
     b98:	01512a23          	sw	x21,20(x2)
     b9c:	02112623          	sw	x1,44(x2)
     ba0:	00877793          	andi	x15,x14,8
     ba4:	00060a13          	addi	x20,x12,0
     ba8:	00050a93          	addi	x21,x10,0
     bac:	00058413          	addi	x8,x11,0
     bb0:	0a078263          	beq	x15,x0,c54 <__sfvwrite_r+0xd4>
     bb4:	0105a783          	lw	x15,16(x11)
     bb8:	08078e63          	beq	x15,x0,c54 <__sfvwrite_r+0xd4>
     bbc:	02912223          	sw	x9,36(x2)
     bc0:	03212023          	sw	x18,32(x2)
     bc4:	01312e23          	sw	x19,28(x2)
     bc8:	01612823          	sw	x22,16(x2)
     bcc:	00277793          	andi	x15,x14,2
     bd0:	000a2483          	lw	x9,0(x20)
     bd4:	0a078863          	beq	x15,x0,c84 <__sfvwrite_r+0x104>
     bd8:	80000b37          	lui	x22,0x80000
     bdc:	c00b0b13          	addi	x22,x22,-1024 # 7ffffc00 <__heap_end+0x7fbffc00>
     be0:	00000993          	addi	x19,x0,0
     be4:	00000913          	addi	x18,x0,0
     be8:	00098613          	addi	x12,x19,0
     bec:	000a8513          	addi	x10,x21,0
     bf0:	1c090263          	beq	x18,x0,db4 <__sfvwrite_r+0x234>
     bf4:	00090693          	addi	x13,x18,0
     bf8:	012b7463          	bgeu	x22,x18,c00 <__sfvwrite_r+0x80>
     bfc:	000b0693          	addi	x13,x22,0
     c00:	02442783          	lw	x15,36(x8)
     c04:	01c42583          	lw	x11,28(x8)
     c08:	000780e7          	jalr	x1,0(x15)
     c0c:	44a05663          	bge	x0,x10,1058 <__sfvwrite_r+0x4d8>
     c10:	008a2783          	lw	x15,8(x20)
     c14:	00a989b3          	add	x19,x19,x10
     c18:	40a90933          	sub	x18,x18,x10
     c1c:	40a787b3          	sub	x15,x15,x10
     c20:	00fa2423          	sw	x15,8(x20)
     c24:	fc0792e3          	bne	x15,x0,be8 <__sfvwrite_r+0x68>
     c28:	02412483          	lw	x9,36(x2)
     c2c:	02012903          	lw	x18,32(x2)
     c30:	01c12983          	lw	x19,28(x2)
     c34:	01012b03          	lw	x22,16(x2)
     c38:	00000513          	addi	x10,x0,0
     c3c:	02c12083          	lw	x1,44(x2)
     c40:	02812403          	lw	x8,40(x2)
     c44:	01812a03          	lw	x20,24(x2)
     c48:	01412a83          	lw	x21,20(x2)
     c4c:	03010113          	addi	x2,x2,48
     c50:	00008067          	jalr	x0,0(x1)
     c54:	00040593          	addi	x11,x8,0
     c58:	000a8513          	addi	x10,x21,0
     c5c:	77d010ef          	jal	x1,2bd8 <__swsetup_r>
     c60:	28051e63          	bne	x10,x0,efc <__sfvwrite_r+0x37c>
     c64:	00c41703          	lh	x14,12(x8)
     c68:	02912223          	sw	x9,36(x2)
     c6c:	03212023          	sw	x18,32(x2)
     c70:	01312e23          	sw	x19,28(x2)
     c74:	01612823          	sw	x22,16(x2)
     c78:	00277793          	andi	x15,x14,2
     c7c:	000a2483          	lw	x9,0(x20)
     c80:	f4079ce3          	bne	x15,x0,bd8 <__sfvwrite_r+0x58>
     c84:	01712623          	sw	x23,12(x2)
     c88:	01812423          	sw	x24,8(x2)
     c8c:	01912223          	sw	x25,4(x2)
     c90:	00177793          	andi	x15,x14,1
     c94:	12079c63          	bne	x15,x0,dcc <__sfvwrite_r+0x24c>
     c98:	80000bb7          	lui	x23,0x80000
     c9c:	fffb8b93          	addi	x23,x23,-1 # 7fffffff <__heap_end+0x7fbfffff>
     ca0:	00000b13          	addi	x22,x0,0
     ca4:	00000913          	addi	x18,x0,0
     ca8:	0e090e63          	beq	x18,x0,da4 <__sfvwrite_r+0x224>
     cac:	20077793          	andi	x15,x14,512
     cb0:	00042503          	lw	x10,0(x8)
     cb4:	00842c03          	lw	x24,8(x8)
     cb8:	24078663          	beq	x15,x0,f04 <__sfvwrite_r+0x384>
     cbc:	000c0c93          	addi	x25,x24,0
     cc0:	31896263          	bltu	x18,x24,fc4 <__sfvwrite_r+0x444>
     cc4:	48077793          	andi	x15,x14,1152
     cc8:	08078a63          	beq	x15,x0,d5c <__sfvwrite_r+0x1dc>
     ccc:	01442683          	lw	x13,20(x8)
     cd0:	01042583          	lw	x11,16(x8)
     cd4:	00169793          	slli	x15,x13,0x1
     cd8:	00d787b3          	add	x15,x15,x13
     cdc:	01f7d993          	srli	x19,x15,0x1f
     ce0:	40b50c33          	sub	x24,x10,x11
     ce4:	00f989b3          	add	x19,x19,x15
     ce8:	001c0793          	addi	x15,x24,1
     cec:	4019d993          	srai	x19,x19,0x1
     cf0:	012787b3          	add	x15,x15,x18
     cf4:	00098613          	addi	x12,x19,0
     cf8:	00f9f663          	bgeu	x19,x15,d04 <__sfvwrite_r+0x184>
     cfc:	00078993          	addi	x19,x15,0
     d00:	00078613          	addi	x12,x15,0
     d04:	40077713          	andi	x14,x14,1024
     d08:	30070463          	beq	x14,x0,1010 <__sfvwrite_r+0x490>
     d0c:	00060593          	addi	x11,x12,0
     d10:	000a8513          	addi	x10,x21,0
     d14:	47c000ef          	jal	x1,1190 <_malloc_r>
     d18:	00050c93          	addi	x25,x10,0
     d1c:	34050263          	beq	x10,x0,1060 <__sfvwrite_r+0x4e0>
     d20:	01042583          	lw	x11,16(x8)
     d24:	000c0613          	addi	x12,x24,0
     d28:	120010ef          	jal	x1,1e48 <memcpy>
     d2c:	00c45783          	lhu	x15,12(x8)
     d30:	b7f7f793          	andi	x15,x15,-1153
     d34:	0807e793          	ori	x15,x15,128
     d38:	00f41623          	sh	x15,12(x8)
     d3c:	018c8533          	add	x10,x25,x24
     d40:	41898c33          	sub	x24,x19,x24
     d44:	01942823          	sw	x25,16(x8)
     d48:	01842423          	sw	x24,8(x8)
     d4c:	00a42023          	sw	x10,0(x8)
     d50:	01342a23          	sw	x19,20(x8)
     d54:	00090c13          	addi	x24,x18,0
     d58:	00090c93          	addi	x25,x18,0
     d5c:	000b0593          	addi	x11,x22,0
     d60:	000c8613          	addi	x12,x25,0
     d64:	2d4010ef          	jal	x1,2038 <memmove>
     d68:	00042783          	lw	x15,0(x8)
     d6c:	00842703          	lw	x14,8(x8)
     d70:	00090993          	addi	x19,x18,0
     d74:	019787b3          	add	x15,x15,x25
     d78:	00f42023          	sw	x15,0(x8)
     d7c:	008a2783          	lw	x15,8(x20)
     d80:	41870733          	sub	x14,x14,x24
     d84:	00e42423          	sw	x14,8(x8)
     d88:	413787b3          	sub	x15,x15,x19
     d8c:	00fa2423          	sw	x15,8(x20)
     d90:	00000913          	addi	x18,x0,0
     d94:	013b0b33          	add	x22,x22,x19
     d98:	1c078263          	beq	x15,x0,f5c <__sfvwrite_r+0x3dc>
     d9c:	00c41703          	lh	x14,12(x8)
     da0:	f00916e3          	bne	x18,x0,cac <__sfvwrite_r+0x12c>
     da4:	0004ab03          	lw	x22,0(x9)
     da8:	0044a903          	lw	x18,4(x9)
     dac:	00848493          	addi	x9,x9,8
     db0:	ef9ff06f          	jal	x0,ca8 <__sfvwrite_r+0x128>
     db4:	0004a983          	lw	x19,0(x9)
     db8:	0044a903          	lw	x18,4(x9)
     dbc:	00848493          	addi	x9,x9,8
     dc0:	e29ff06f          	jal	x0,be8 <__sfvwrite_r+0x68>
     dc4:	00000513          	addi	x10,x0,0
     dc8:	00008067          	jalr	x0,0(x1)
     dcc:	01a12023          	sw	x26,0(x2)
     dd0:	00000b13          	addi	x22,x0,0
     dd4:	00000513          	addi	x10,x0,0
     dd8:	00000d13          	addi	x26,x0,0
     ddc:	00000993          	addi	x19,x0,0
     de0:	00a00c13          	addi	x24,x0,10
     de4:	00100b93          	addi	x23,x0,1
     de8:	08098663          	beq	x19,x0,e74 <__sfvwrite_r+0x2f4>
     dec:	08050e63          	beq	x10,x0,e88 <__sfvwrite_r+0x308>
     df0:	000b0793          	addi	x15,x22,0
     df4:	00098c93          	addi	x25,x19,0
     df8:	0137f463          	bgeu	x15,x19,e00 <__sfvwrite_r+0x280>
     dfc:	00078c93          	addi	x25,x15,0
     e00:	00042503          	lw	x10,0(x8)
     e04:	01042783          	lw	x15,16(x8)
     e08:	01442683          	lw	x13,20(x8)
     e0c:	00a7f863          	bgeu	x15,x10,e1c <__sfvwrite_r+0x29c>
     e10:	00842903          	lw	x18,8(x8)
     e14:	01268933          	add	x18,x13,x18
     e18:	09994863          	blt	x18,x25,ea8 <__sfvwrite_r+0x328>
     e1c:	1cdcc463          	blt	x25,x13,fe4 <__sfvwrite_r+0x464>
     e20:	02442783          	lw	x15,36(x8)
     e24:	01c42583          	lw	x11,28(x8)
     e28:	000d0613          	addi	x12,x26,0
     e2c:	000a8513          	addi	x10,x21,0
     e30:	000780e7          	jalr	x1,0(x15)
     e34:	00050913          	addi	x18,x10,0
     e38:	08a05c63          	bge	x0,x10,ed0 <__sfvwrite_r+0x350>
     e3c:	412b0b33          	sub	x22,x22,x18
     e40:	000b8513          	addi	x10,x23,0
     e44:	180b0663          	beq	x22,x0,fd0 <__sfvwrite_r+0x450>
     e48:	008a2783          	lw	x15,8(x20)
     e4c:	012d0d33          	add	x26,x26,x18
     e50:	412989b3          	sub	x19,x19,x18
     e54:	412787b3          	sub	x15,x15,x18
     e58:	00fa2423          	sw	x15,8(x20)
     e5c:	f80796e3          	bne	x15,x0,de8 <__sfvwrite_r+0x268>
     e60:	00c12b83          	lw	x23,12(x2)
     e64:	00812c03          	lw	x24,8(x2)
     e68:	00412c83          	lw	x25,4(x2)
     e6c:	00012d03          	lw	x26,0(x2)
     e70:	db9ff06f          	jal	x0,c28 <__sfvwrite_r+0xa8>
     e74:	0044a983          	lw	x19,4(x9)
     e78:	00048793          	addi	x15,x9,0
     e7c:	00848493          	addi	x9,x9,8
     e80:	fe098ae3          	beq	x19,x0,e74 <__sfvwrite_r+0x2f4>
     e84:	0007ad03          	lw	x26,0(x15)
     e88:	00098613          	addi	x12,x19,0
     e8c:	000c0593          	addi	x11,x24,0
     e90:	000d0513          	addi	x10,x26,0
     e94:	0d8010ef          	jal	x1,1f6c <memchr>
     e98:	1a050a63          	beq	x10,x0,104c <__sfvwrite_r+0x4cc>
     e9c:	00150513          	addi	x10,x10,1
     ea0:	41a50b33          	sub	x22,x10,x26
     ea4:	f4dff06f          	jal	x0,df0 <__sfvwrite_r+0x270>
     ea8:	000d0593          	addi	x11,x26,0
     eac:	00090613          	addi	x12,x18,0
     eb0:	188010ef          	jal	x1,2038 <memmove>
     eb4:	00042783          	lw	x15,0(x8)
     eb8:	00040593          	addi	x11,x8,0
     ebc:	000a8513          	addi	x10,x21,0
     ec0:	012787b3          	add	x15,x15,x18
     ec4:	00f42023          	sw	x15,0(x8)
     ec8:	355010ef          	jal	x1,2a1c <_fflush_r>
     ecc:	f60508e3          	beq	x10,x0,e3c <__sfvwrite_r+0x2bc>
     ed0:	00c41783          	lh	x15,12(x8)
     ed4:	00c12b83          	lw	x23,12(x2)
     ed8:	00812c03          	lw	x24,8(x2)
     edc:	00412c83          	lw	x25,4(x2)
     ee0:	00012d03          	lw	x26,0(x2)
     ee4:	02412483          	lw	x9,36(x2)
     ee8:	02012903          	lw	x18,32(x2)
     eec:	01c12983          	lw	x19,28(x2)
     ef0:	01012b03          	lw	x22,16(x2)
     ef4:	0407e793          	ori	x15,x15,64
     ef8:	00f41623          	sh	x15,12(x8)
     efc:	fff00513          	addi	x10,x0,-1
     f00:	d3dff06f          	jal	x0,c3c <__sfvwrite_r+0xbc>
     f04:	01042783          	lw	x15,16(x8)
     f08:	06a7e263          	bltu	x15,x10,f6c <__sfvwrite_r+0x3ec>
     f0c:	01442783          	lw	x15,20(x8)
     f10:	04f96e63          	bltu	x18,x15,f6c <__sfvwrite_r+0x3ec>
     f14:	00090693          	addi	x13,x18,0
     f18:	012bf463          	bgeu	x23,x18,f20 <__sfvwrite_r+0x3a0>
     f1c:	000b8693          	addi	x13,x23,0
     f20:	02f6e7b3          	rem	x15,x13,x15
     f24:	02442703          	lw	x14,36(x8)
     f28:	01c42583          	lw	x11,28(x8)
     f2c:	000b0613          	addi	x12,x22,0
     f30:	000a8513          	addi	x10,x21,0
     f34:	40f686b3          	sub	x13,x13,x15
     f38:	000700e7          	jalr	x1,0(x14)
     f3c:	00050993          	addi	x19,x10,0
     f40:	06a05863          	bge	x0,x10,fb0 <__sfvwrite_r+0x430>
     f44:	008a2783          	lw	x15,8(x20)
     f48:	41390933          	sub	x18,x18,x19
     f4c:	013b0b33          	add	x22,x22,x19
     f50:	413787b3          	sub	x15,x15,x19
     f54:	00fa2423          	sw	x15,8(x20)
     f58:	e40792e3          	bne	x15,x0,d9c <__sfvwrite_r+0x21c>
     f5c:	00c12b83          	lw	x23,12(x2)
     f60:	00812c03          	lw	x24,8(x2)
     f64:	00412c83          	lw	x25,4(x2)
     f68:	cc1ff06f          	jal	x0,c28 <__sfvwrite_r+0xa8>
     f6c:	000c0993          	addi	x19,x24,0
     f70:	01897463          	bgeu	x18,x24,f78 <__sfvwrite_r+0x3f8>
     f74:	00090993          	addi	x19,x18,0
     f78:	00098613          	addi	x12,x19,0
     f7c:	000b0593          	addi	x11,x22,0
     f80:	0b8010ef          	jal	x1,2038 <memmove>
     f84:	00042703          	lw	x14,0(x8)
     f88:	00842783          	lw	x15,8(x8)
     f8c:	01370733          	add	x14,x14,x19
     f90:	413787b3          	sub	x15,x15,x19
     f94:	00e42023          	sw	x14,0(x8)
     f98:	00f42423          	sw	x15,8(x8)
     f9c:	fa0794e3          	bne	x15,x0,f44 <__sfvwrite_r+0x3c4>
     fa0:	00040593          	addi	x11,x8,0
     fa4:	000a8513          	addi	x10,x21,0
     fa8:	275010ef          	jal	x1,2a1c <_fflush_r>
     fac:	f8050ce3          	beq	x10,x0,f44 <__sfvwrite_r+0x3c4>
     fb0:	00c41783          	lh	x15,12(x8)
     fb4:	00c12b83          	lw	x23,12(x2)
     fb8:	00812c03          	lw	x24,8(x2)
     fbc:	00412c83          	lw	x25,4(x2)
     fc0:	f25ff06f          	jal	x0,ee4 <__sfvwrite_r+0x364>
     fc4:	00090c13          	addi	x24,x18,0
     fc8:	00090c93          	addi	x25,x18,0
     fcc:	d91ff06f          	jal	x0,d5c <__sfvwrite_r+0x1dc>
     fd0:	00040593          	addi	x11,x8,0
     fd4:	000a8513          	addi	x10,x21,0
     fd8:	245010ef          	jal	x1,2a1c <_fflush_r>
     fdc:	e60506e3          	beq	x10,x0,e48 <__sfvwrite_r+0x2c8>
     fe0:	ef1ff06f          	jal	x0,ed0 <__sfvwrite_r+0x350>
     fe4:	000c8613          	addi	x12,x25,0
     fe8:	000d0593          	addi	x11,x26,0
     fec:	04c010ef          	jal	x1,2038 <memmove>
     ff0:	00842703          	lw	x14,8(x8)
     ff4:	00042783          	lw	x15,0(x8)
     ff8:	000c8913          	addi	x18,x25,0
     ffc:	41970733          	sub	x14,x14,x25
    1000:	019787b3          	add	x15,x15,x25
    1004:	00e42423          	sw	x14,8(x8)
    1008:	00f42023          	sw	x15,0(x8)
    100c:	e31ff06f          	jal	x0,e3c <__sfvwrite_r+0x2bc>
    1010:	000a8513          	addi	x10,x21,0
    1014:	1f4010ef          	jal	x1,2208 <_realloc_r>
    1018:	00050c93          	addi	x25,x10,0
    101c:	d20510e3          	bne	x10,x0,d3c <__sfvwrite_r+0x1bc>
    1020:	01042583          	lw	x11,16(x8)
    1024:	000a8513          	addi	x10,x21,0
    1028:	30d000ef          	jal	x1,1b34 <_free_r>
    102c:	00c41783          	lh	x15,12(x8)
    1030:	00c00713          	addi	x14,x0,12
    1034:	00c12b83          	lw	x23,12(x2)
    1038:	00812c03          	lw	x24,8(x2)
    103c:	00412c83          	lw	x25,4(x2)
    1040:	00eaa023          	sw	x14,0(x21)
    1044:	f7f7f793          	andi	x15,x15,-129
    1048:	e9dff06f          	jal	x0,ee4 <__sfvwrite_r+0x364>
    104c:	00198793          	addi	x15,x19,1
    1050:	00078b13          	addi	x22,x15,0
    1054:	da1ff06f          	jal	x0,df4 <__sfvwrite_r+0x274>
    1058:	00c41783          	lh	x15,12(x8)
    105c:	e89ff06f          	jal	x0,ee4 <__sfvwrite_r+0x364>
    1060:	00c00793          	addi	x15,x0,12
    1064:	00faa023          	sw	x15,0(x21)
    1068:	00c12b83          	lw	x23,12(x2)
    106c:	00c41783          	lh	x15,12(x8)
    1070:	00812c03          	lw	x24,8(x2)
    1074:	00412c83          	lw	x25,4(x2)
    1078:	e6dff06f          	jal	x0,ee4 <__sfvwrite_r+0x364>

0000107c <_fclose_r>:
    107c:	ff010113          	addi	x2,x2,-16
    1080:	00112623          	sw	x1,12(x2)
    1084:	01212023          	sw	x18,0(x2)
    1088:	02058863          	beq	x11,x0,10b8 <_fclose_r+0x3c>
    108c:	00812423          	sw	x8,8(x2)
    1090:	00912223          	sw	x9,4(x2)
    1094:	00058413          	addi	x8,x11,0
    1098:	00050493          	addi	x9,x10,0
    109c:	00050663          	beq	x10,x0,10a8 <_fclose_r+0x2c>
    10a0:	03452783          	lw	x15,52(x10)
    10a4:	0c078c63          	beq	x15,x0,117c <_fclose_r+0x100>
    10a8:	00c41783          	lh	x15,12(x8)
    10ac:	02079263          	bne	x15,x0,10d0 <_fclose_r+0x54>
    10b0:	00812403          	lw	x8,8(x2)
    10b4:	00412483          	lw	x9,4(x2)
    10b8:	00c12083          	lw	x1,12(x2)
    10bc:	00000913          	addi	x18,x0,0
    10c0:	00090513          	addi	x10,x18,0
    10c4:	00012903          	lw	x18,0(x2)
    10c8:	01010113          	addi	x2,x2,16
    10cc:	00008067          	jalr	x0,0(x1)
    10d0:	00040593          	addi	x11,x8,0
    10d4:	00048513          	addi	x10,x9,0
    10d8:	6ec010ef          	jal	x1,27c4 <__sflush_r>
    10dc:	02c42783          	lw	x15,44(x8)
    10e0:	00050913          	addi	x18,x10,0
    10e4:	00078a63          	beq	x15,x0,10f8 <_fclose_r+0x7c>
    10e8:	01c42583          	lw	x11,28(x8)
    10ec:	00048513          	addi	x10,x9,0
    10f0:	000780e7          	jalr	x1,0(x15)
    10f4:	06054463          	blt	x10,x0,115c <_fclose_r+0xe0>
    10f8:	00c45783          	lhu	x15,12(x8)
    10fc:	0807f793          	andi	x15,x15,128
    1100:	06079663          	bne	x15,x0,116c <_fclose_r+0xf0>
    1104:	03042583          	lw	x11,48(x8)
    1108:	00058c63          	beq	x11,x0,1120 <_fclose_r+0xa4>
    110c:	04040793          	addi	x15,x8,64
    1110:	00f58663          	beq	x11,x15,111c <_fclose_r+0xa0>
    1114:	00048513          	addi	x10,x9,0
    1118:	21d000ef          	jal	x1,1b34 <_free_r>
    111c:	02042823          	sw	x0,48(x8)
    1120:	04442583          	lw	x11,68(x8)
    1124:	00058863          	beq	x11,x0,1134 <_fclose_r+0xb8>
    1128:	00048513          	addi	x10,x9,0
    112c:	209000ef          	jal	x1,1b34 <_free_r>
    1130:	04042223          	sw	x0,68(x8)
    1134:	a15ff0ef          	jal	x1,b48 <__sfp_lock_acquire>
    1138:	00041623          	sh	x0,12(x8)
    113c:	a11ff0ef          	jal	x1,b4c <__sfp_lock_release>
    1140:	00c12083          	lw	x1,12(x2)
    1144:	00812403          	lw	x8,8(x2)
    1148:	00412483          	lw	x9,4(x2)
    114c:	00090513          	addi	x10,x18,0
    1150:	00012903          	lw	x18,0(x2)
    1154:	01010113          	addi	x2,x2,16
    1158:	00008067          	jalr	x0,0(x1)
    115c:	00c45783          	lhu	x15,12(x8)
    1160:	fff00913          	addi	x18,x0,-1
    1164:	0807f793          	andi	x15,x15,128
    1168:	f8078ee3          	beq	x15,x0,1104 <_fclose_r+0x88>
    116c:	01042583          	lw	x11,16(x8)
    1170:	00048513          	addi	x10,x9,0
    1174:	1c1000ef          	jal	x1,1b34 <_free_r>
    1178:	f8dff06f          	jal	x0,1104 <_fclose_r+0x88>
    117c:	9a9ff0ef          	jal	x1,b24 <__sinit>
    1180:	f29ff06f          	jal	x0,10a8 <_fclose_r+0x2c>

00001184 <fclose>:
    1184:	00050593          	addi	x11,x10,0
    1188:	f141a503          	lw	x10,-236(x3) # 13024 <_impure_ptr>
    118c:	ef1ff06f          	jal	x0,107c <_fclose_r>

00001190 <_malloc_r>:
    1190:	fd010113          	addi	x2,x2,-48
    1194:	03212023          	sw	x18,32(x2)
    1198:	02112623          	sw	x1,44(x2)
    119c:	02812423          	sw	x8,40(x2)
    11a0:	02912223          	sw	x9,36(x2)
    11a4:	01312e23          	sw	x19,28(x2)
    11a8:	00b58793          	addi	x15,x11,11
    11ac:	01600713          	addi	x14,x0,22
    11b0:	00050913          	addi	x18,x10,0
    11b4:	08f76063          	bltu	x14,x15,1234 <_malloc_r+0xa4>
    11b8:	01000493          	addi	x9,x0,16
    11bc:	20b4e263          	bltu	x9,x11,13c0 <_malloc_r+0x230>
    11c0:	13d010ef          	jal	x1,2afc <__malloc_lock>
    11c4:	01800793          	addi	x15,x0,24
    11c8:	00200593          	addi	x11,x0,2
    11cc:	00011997          	auipc	x19,0x11
    11d0:	75098993          	addi	x19,x19,1872 # 1291c <__malloc_av_>
    11d4:	00f987b3          	add	x15,x19,x15
    11d8:	0047a403          	lw	x8,4(x15)
    11dc:	ff878713          	addi	x14,x15,-8
    11e0:	44e40a63          	beq	x8,x14,1634 <_malloc_r+0x4a4>
    11e4:	00442783          	lw	x15,4(x8)
    11e8:	00c42683          	lw	x13,12(x8)
    11ec:	00842603          	lw	x12,8(x8)
    11f0:	ffc7f793          	andi	x15,x15,-4
    11f4:	00f407b3          	add	x15,x8,x15
    11f8:	0047a703          	lw	x14,4(x15)
    11fc:	00d62623          	sw	x13,12(x12)
    1200:	00c6a423          	sw	x12,8(x13)
    1204:	00176713          	ori	x14,x14,1
    1208:	00090513          	addi	x10,x18,0
    120c:	00e7a223          	sw	x14,4(x15)
    1210:	0f1010ef          	jal	x1,2b00 <__malloc_unlock>
    1214:	02c12083          	lw	x1,44(x2)
    1218:	00840513          	addi	x10,x8,8
    121c:	02812403          	lw	x8,40(x2)
    1220:	02412483          	lw	x9,36(x2)
    1224:	02012903          	lw	x18,32(x2)
    1228:	01c12983          	lw	x19,28(x2)
    122c:	03010113          	addi	x2,x2,48
    1230:	00008067          	jalr	x0,0(x1)
    1234:	ff87f493          	andi	x9,x15,-8
    1238:	1807c463          	blt	x15,x0,13c0 <_malloc_r+0x230>
    123c:	18b4e263          	bltu	x9,x11,13c0 <_malloc_r+0x230>
    1240:	0bd010ef          	jal	x1,2afc <__malloc_lock>
    1244:	1f700793          	addi	x15,x0,503
    1248:	5097f063          	bgeu	x15,x9,1748 <_malloc_r+0x5b8>
    124c:	0094d793          	srli	x15,x9,0x9
    1250:	18078c63          	beq	x15,x0,13e8 <_malloc_r+0x258>
    1254:	00400713          	addi	x14,x0,4
    1258:	44f76663          	bltu	x14,x15,16a4 <_malloc_r+0x514>
    125c:	0064d793          	srli	x15,x9,0x6
    1260:	03978593          	addi	x11,x15,57
    1264:	03878813          	addi	x16,x15,56
    1268:	00359613          	slli	x12,x11,0x3
    126c:	00011997          	auipc	x19,0x11
    1270:	6b098993          	addi	x19,x19,1712 # 1291c <__malloc_av_>
    1274:	00c98633          	add	x12,x19,x12
    1278:	00462403          	lw	x8,4(x12)
    127c:	ff860613          	addi	x12,x12,-8
    1280:	02860863          	beq	x12,x8,12b0 <_malloc_r+0x120>
    1284:	00f00513          	addi	x10,x0,15
    1288:	0140006f          	jal	x0,129c <_malloc_r+0x10c>
    128c:	00c42683          	lw	x13,12(x8)
    1290:	36075063          	bge	x14,x0,15f0 <_malloc_r+0x460>
    1294:	00d60e63          	beq	x12,x13,12b0 <_malloc_r+0x120>
    1298:	00068413          	addi	x8,x13,0
    129c:	00442783          	lw	x15,4(x8)
    12a0:	ffc7f793          	andi	x15,x15,-4
    12a4:	40978733          	sub	x14,x15,x9
    12a8:	fee552e3          	bge	x10,x14,128c <_malloc_r+0xfc>
    12ac:	00080593          	addi	x11,x16,0
    12b0:	0109a403          	lw	x8,16(x19)
    12b4:	81418893          	addi	x17,x3,-2028 # 12924 <__malloc_av_+0x8>
    12b8:	2b140c63          	beq	x8,x17,1570 <_malloc_r+0x3e0>
    12bc:	00442783          	lw	x15,4(x8)
    12c0:	00f00693          	addi	x13,x0,15
    12c4:	ffc7f793          	andi	x15,x15,-4
    12c8:	40978733          	sub	x14,x15,x9
    12cc:	48e6c463          	blt	x13,x14,1754 <_malloc_r+0x5c4>
    12d0:	0119aa23          	sw	x17,20(x19)
    12d4:	0119a823          	sw	x17,16(x19)
    12d8:	44075863          	bge	x14,x0,1728 <_malloc_r+0x598>
    12dc:	1ff00713          	addi	x14,x0,511
    12e0:	0049a503          	lw	x10,4(x19)
    12e4:	36f76063          	bltu	x14,x15,1644 <_malloc_r+0x4b4>
    12e8:	ff87f713          	andi	x14,x15,-8
    12ec:	00870713          	addi	x14,x14,8
    12f0:	00e98733          	add	x14,x19,x14
    12f4:	00072683          	lw	x13,0(x14)
    12f8:	0057d613          	srli	x12,x15,0x5
    12fc:	00100793          	addi	x15,x0,1
    1300:	00c797b3          	sll	x15,x15,x12
    1304:	00f56533          	or	x10,x10,x15
    1308:	ff870793          	addi	x15,x14,-8
    130c:	00d42423          	sw	x13,8(x8)
    1310:	00f42623          	sw	x15,12(x8)
    1314:	00a9a223          	sw	x10,4(x19)
    1318:	00872023          	sw	x8,0(x14)
    131c:	0086a623          	sw	x8,12(x13)
    1320:	4025d793          	srai	x15,x11,0x2
    1324:	00100613          	addi	x12,x0,1
    1328:	00f61633          	sll	x12,x12,x15
    132c:	0cc56663          	bltu	x10,x12,13f8 <_malloc_r+0x268>
    1330:	00a677b3          	and	x15,x12,x10
    1334:	02079463          	bne	x15,x0,135c <_malloc_r+0x1cc>
    1338:	00161613          	slli	x12,x12,0x1
    133c:	ffc5f593          	andi	x11,x11,-4
    1340:	00a677b3          	and	x15,x12,x10
    1344:	00458593          	addi	x11,x11,4
    1348:	00079a63          	bne	x15,x0,135c <_malloc_r+0x1cc>
    134c:	00161613          	slli	x12,x12,0x1
    1350:	00a677b3          	and	x15,x12,x10
    1354:	00458593          	addi	x11,x11,4
    1358:	fe078ae3          	beq	x15,x0,134c <_malloc_r+0x1bc>
    135c:	00f00813          	addi	x16,x0,15
    1360:	00359313          	slli	x6,x11,0x3
    1364:	00698333          	add	x6,x19,x6
    1368:	00030513          	addi	x10,x6,0
    136c:	00c52783          	lw	x15,12(x10)
    1370:	00058e13          	addi	x28,x11,0
    1374:	34f50a63          	beq	x10,x15,16c8 <_malloc_r+0x538>
    1378:	0047a703          	lw	x14,4(x15)
    137c:	00078413          	addi	x8,x15,0
    1380:	00c7a783          	lw	x15,12(x15)
    1384:	ffc77713          	andi	x14,x14,-4
    1388:	409706b3          	sub	x13,x14,x9
    138c:	34d84a63          	blt	x16,x13,16e0 <_malloc_r+0x550>
    1390:	fe06c2e3          	blt	x13,x0,1374 <_malloc_r+0x1e4>
    1394:	00e40733          	add	x14,x8,x14
    1398:	00472683          	lw	x13,4(x14)
    139c:	00842603          	lw	x12,8(x8)
    13a0:	00090513          	addi	x10,x18,0
    13a4:	0016e693          	ori	x13,x13,1
    13a8:	00d72223          	sw	x13,4(x14)
    13ac:	00f62623          	sw	x15,12(x12)
    13b0:	00c7a423          	sw	x12,8(x15)
    13b4:	74c010ef          	jal	x1,2b00 <__malloc_unlock>
    13b8:	00840513          	addi	x10,x8,8
    13bc:	0100006f          	jal	x0,13cc <_malloc_r+0x23c>
    13c0:	00c00793          	addi	x15,x0,12
    13c4:	00f92023          	sw	x15,0(x18)
    13c8:	00000513          	addi	x10,x0,0
    13cc:	02c12083          	lw	x1,44(x2)
    13d0:	02812403          	lw	x8,40(x2)
    13d4:	02412483          	lw	x9,36(x2)
    13d8:	02012903          	lw	x18,32(x2)
    13dc:	01c12983          	lw	x19,28(x2)
    13e0:	03010113          	addi	x2,x2,48
    13e4:	00008067          	jalr	x0,0(x1)
    13e8:	20000613          	addi	x12,x0,512
    13ec:	04000593          	addi	x11,x0,64
    13f0:	03f00813          	addi	x16,x0,63
    13f4:	e79ff06f          	jal	x0,126c <_malloc_r+0xdc>
    13f8:	0089a403          	lw	x8,8(x19)
    13fc:	01612823          	sw	x22,16(x2)
    1400:	00442783          	lw	x15,4(x8)
    1404:	ffc7fb13          	andi	x22,x15,-4
    1408:	009b6863          	bltu	x22,x9,1418 <_malloc_r+0x288>
    140c:	409b0733          	sub	x14,x22,x9
    1410:	00f00793          	addi	x15,x0,15
    1414:	18e7cc63          	blt	x15,x14,15ac <_malloc_r+0x41c>
    1418:	01912223          	sw	x25,4(x2)
    141c:	f0c18c93          	addi	x25,x3,-244 # 1301c <__malloc_sbrk_base>
    1420:	000ca703          	lw	x14,0(x25)
    1424:	01412c23          	sw	x20,24(x2)
    1428:	01512a23          	sw	x21,20(x2)
    142c:	01712623          	sw	x23,12(x2)
    1430:	f281aa83          	lw	x21,-216(x3) # 13038 <__malloc_top_pad>
    1434:	fff00793          	addi	x15,x0,-1
    1438:	01548ab3          	add	x21,x9,x21
    143c:	01640a33          	add	x20,x8,x22
    1440:	3ef70063          	beq	x14,x15,1820 <_malloc_r+0x690>
    1444:	000017b7          	lui	x15,0x1
    1448:	00f78793          	addi	x15,x15,15 # 100f <__sfvwrite_r+0x48f>
    144c:	00fa8ab3          	add	x21,x21,x15
    1450:	fffff7b7          	lui	x15,0xfffff
    1454:	00fafab3          	and	x21,x21,x15
    1458:	000a8593          	addi	x11,x21,0
    145c:	00090513          	addi	x10,x18,0
    1460:	2e4060ef          	jal	x1,7744 <_sbrk_r>
    1464:	fff00793          	addi	x15,x0,-1
    1468:	00050b93          	addi	x23,x10,0
    146c:	46f50c63          	beq	x10,x15,18e4 <_malloc_r+0x754>
    1470:	01812423          	sw	x24,8(x2)
    1474:	11456263          	bltu	x10,x20,1578 <_malloc_r+0x3e8>
    1478:	06c18c13          	addi	x24,x3,108 # 1317c <__malloc_current_mallinfo>
    147c:	000c2583          	lw	x11,0(x24)
    1480:	00ba85b3          	add	x11,x21,x11
    1484:	00bc2023          	sw	x11,0(x24)
    1488:	00058713          	addi	x14,x11,0
    148c:	46aa0263          	beq	x20,x10,18f0 <_malloc_r+0x760>
    1490:	000ca683          	lw	x13,0(x25)
    1494:	fff00793          	addi	x15,x0,-1
    1498:	46f68a63          	beq	x13,x15,190c <_malloc_r+0x77c>
    149c:	414b87b3          	sub	x15,x23,x20
    14a0:	00e787b3          	add	x15,x15,x14
    14a4:	00fc2023          	sw	x15,0(x24)
    14a8:	007bfc93          	andi	x25,x23,7
    14ac:	380c8a63          	beq	x25,x0,1840 <_malloc_r+0x6b0>
    14b0:	419b8bb3          	sub	x23,x23,x25
    14b4:	000015b7          	lui	x11,0x1
    14b8:	008b8b93          	addi	x23,x23,8
    14bc:	00858593          	addi	x11,x11,8 # 1008 <__sfvwrite_r+0x488>
    14c0:	015b8ab3          	add	x21,x23,x21
    14c4:	419585b3          	sub	x11,x11,x25
    14c8:	415585b3          	sub	x11,x11,x21
    14cc:	01459593          	slli	x11,x11,0x14
    14d0:	0145da13          	srli	x20,x11,0x14
    14d4:	000a0593          	addi	x11,x20,0
    14d8:	00090513          	addi	x10,x18,0
    14dc:	268060ef          	jal	x1,7744 <_sbrk_r>
    14e0:	fff00793          	addi	x15,x0,-1
    14e4:	46f50463          	beq	x10,x15,194c <_malloc_r+0x7bc>
    14e8:	41750533          	sub	x10,x10,x23
    14ec:	01450ab3          	add	x21,x10,x20
    14f0:	000c2703          	lw	x14,0(x24)
    14f4:	0179a423          	sw	x23,8(x19)
    14f8:	001ae793          	ori	x15,x21,1
    14fc:	00ea05b3          	add	x11,x20,x14
    1500:	00fba223          	sw	x15,4(x23)
    1504:	00bc2023          	sw	x11,0(x24)
    1508:	03340e63          	beq	x8,x19,1544 <_malloc_r+0x3b4>
    150c:	00f00693          	addi	x13,x0,15
    1510:	3566fe63          	bgeu	x13,x22,186c <_malloc_r+0x6dc>
    1514:	00442703          	lw	x14,4(x8)
    1518:	ff4b0793          	addi	x15,x22,-12
    151c:	ff87f793          	andi	x15,x15,-8
    1520:	00177713          	andi	x14,x14,1
    1524:	00f76733          	or	x14,x14,x15
    1528:	00e42223          	sw	x14,4(x8)
    152c:	00500613          	addi	x12,x0,5
    1530:	00f40733          	add	x14,x8,x15
    1534:	00c72223          	sw	x12,4(x14)
    1538:	00c72423          	sw	x12,8(x14)
    153c:	2cf6e663          	bltu	x13,x15,1808 <_malloc_r+0x678>
    1540:	004ba783          	lw	x15,4(x23)
    1544:	f2418713          	addi	x14,x3,-220 # 13034 <__malloc_max_sbrked_mem>
    1548:	00072683          	lw	x13,0(x14)
    154c:	00b6f463          	bgeu	x13,x11,1554 <_malloc_r+0x3c4>
    1550:	00b72023          	sw	x11,0(x14)
    1554:	f2018713          	addi	x14,x3,-224 # 13030 <__malloc_max_total_mem>
    1558:	00072683          	lw	x13,0(x14)
    155c:	00b6f463          	bgeu	x13,x11,1564 <_malloc_r+0x3d4>
    1560:	00b72023          	sw	x11,0(x14)
    1564:	00812c03          	lw	x24,8(x2)
    1568:	000b8413          	addi	x8,x23,0
    156c:	01c0006f          	jal	x0,1588 <_malloc_r+0x3f8>
    1570:	0049a503          	lw	x10,4(x19)
    1574:	dadff06f          	jal	x0,1320 <_malloc_r+0x190>
    1578:	35340c63          	beq	x8,x19,18d0 <_malloc_r+0x740>
    157c:	0089a403          	lw	x8,8(x19)
    1580:	00812c03          	lw	x24,8(x2)
    1584:	00442783          	lw	x15,4(x8)
    1588:	ffc7f793          	andi	x15,x15,-4
    158c:	40978733          	sub	x14,x15,x9
    1590:	2e97e463          	bltu	x15,x9,1878 <_malloc_r+0x6e8>
    1594:	00f00793          	addi	x15,x0,15
    1598:	2ee7d063          	bge	x15,x14,1878 <_malloc_r+0x6e8>
    159c:	01812a03          	lw	x20,24(x2)
    15a0:	01412a83          	lw	x21,20(x2)
    15a4:	00c12b83          	lw	x23,12(x2)
    15a8:	00412c83          	lw	x25,4(x2)
    15ac:	0014e793          	ori	x15,x9,1
    15b0:	00f42223          	sw	x15,4(x8)
    15b4:	009404b3          	add	x9,x8,x9
    15b8:	0099a423          	sw	x9,8(x19)
    15bc:	00176713          	ori	x14,x14,1
    15c0:	00090513          	addi	x10,x18,0
    15c4:	00e4a223          	sw	x14,4(x9)
    15c8:	538010ef          	jal	x1,2b00 <__malloc_unlock>
    15cc:	02c12083          	lw	x1,44(x2)
    15d0:	00840513          	addi	x10,x8,8
    15d4:	02812403          	lw	x8,40(x2)
    15d8:	01012b03          	lw	x22,16(x2)
    15dc:	02412483          	lw	x9,36(x2)
    15e0:	02012903          	lw	x18,32(x2)
    15e4:	01c12983          	lw	x19,28(x2)
    15e8:	03010113          	addi	x2,x2,48
    15ec:	00008067          	jalr	x0,0(x1)
    15f0:	00842603          	lw	x12,8(x8)
    15f4:	00f407b3          	add	x15,x8,x15
    15f8:	0047a703          	lw	x14,4(x15) # fffff004 <__heap_end+0xffbff004>
    15fc:	00d62623          	sw	x13,12(x12)
    1600:	00c6a423          	sw	x12,8(x13)
    1604:	00176713          	ori	x14,x14,1
    1608:	00090513          	addi	x10,x18,0
    160c:	00e7a223          	sw	x14,4(x15)
    1610:	4f0010ef          	jal	x1,2b00 <__malloc_unlock>
    1614:	02c12083          	lw	x1,44(x2)
    1618:	00840513          	addi	x10,x8,8
    161c:	02812403          	lw	x8,40(x2)
    1620:	02412483          	lw	x9,36(x2)
    1624:	02012903          	lw	x18,32(x2)
    1628:	01c12983          	lw	x19,28(x2)
    162c:	03010113          	addi	x2,x2,48
    1630:	00008067          	jalr	x0,0(x1)
    1634:	00c7a403          	lw	x8,12(x15)
    1638:	00258593          	addi	x11,x11,2
    163c:	c6878ae3          	beq	x15,x8,12b0 <_malloc_r+0x120>
    1640:	ba5ff06f          	jal	x0,11e4 <_malloc_r+0x54>
    1644:	0097d713          	srli	x14,x15,0x9
    1648:	00400693          	addi	x13,x0,4
    164c:	14e6f263          	bgeu	x13,x14,1790 <_malloc_r+0x600>
    1650:	01400693          	addi	x13,x0,20
    1654:	24e6e263          	bltu	x13,x14,1898 <_malloc_r+0x708>
    1658:	05c70613          	addi	x12,x14,92
    165c:	00361613          	slli	x12,x12,0x3
    1660:	05b70693          	addi	x13,x14,91
    1664:	00c98633          	add	x12,x19,x12
    1668:	00062703          	lw	x14,0(x12)
    166c:	ff860613          	addi	x12,x12,-8
    1670:	00e61863          	bne	x12,x14,1680 <_malloc_r+0x4f0>
    1674:	1b40006f          	jal	x0,1828 <_malloc_r+0x698>
    1678:	00872703          	lw	x14,8(x14)
    167c:	00e60863          	beq	x12,x14,168c <_malloc_r+0x4fc>
    1680:	00472683          	lw	x13,4(x14)
    1684:	ffc6f693          	andi	x13,x13,-4
    1688:	fed7e8e3          	bltu	x15,x13,1678 <_malloc_r+0x4e8>
    168c:	00c72603          	lw	x12,12(x14)
    1690:	00c42623          	sw	x12,12(x8)
    1694:	00e42423          	sw	x14,8(x8)
    1698:	00862423          	sw	x8,8(x12)
    169c:	00872623          	sw	x8,12(x14)
    16a0:	c81ff06f          	jal	x0,1320 <_malloc_r+0x190>
    16a4:	01400713          	addi	x14,x0,20
    16a8:	0ef77e63          	bgeu	x14,x15,17a4 <_malloc_r+0x614>
    16ac:	05400713          	addi	x14,x0,84
    16b0:	20f76263          	bltu	x14,x15,18b4 <_malloc_r+0x724>
    16b4:	00c4d793          	srli	x15,x9,0xc
    16b8:	06f78593          	addi	x11,x15,111
    16bc:	06e78813          	addi	x16,x15,110
    16c0:	00359613          	slli	x12,x11,0x3
    16c4:	ba9ff06f          	jal	x0,126c <_malloc_r+0xdc>
    16c8:	001e0e13          	addi	x28,x28,1
    16cc:	003e7793          	andi	x15,x28,3
    16d0:	00850513          	addi	x10,x10,8
    16d4:	0e078663          	beq	x15,x0,17c0 <_malloc_r+0x630>
    16d8:	00c52783          	lw	x15,12(x10)
    16dc:	c99ff06f          	jal	x0,1374 <_malloc_r+0x1e4>
    16e0:	00842603          	lw	x12,8(x8)
    16e4:	0014e593          	ori	x11,x9,1
    16e8:	00b42223          	sw	x11,4(x8)
    16ec:	00f62623          	sw	x15,12(x12)
    16f0:	00c7a423          	sw	x12,8(x15)
    16f4:	009404b3          	add	x9,x8,x9
    16f8:	0099aa23          	sw	x9,20(x19)
    16fc:	0099a823          	sw	x9,16(x19)
    1700:	0016e793          	ori	x15,x13,1
    1704:	00e40733          	add	x14,x8,x14
    1708:	0114a623          	sw	x17,12(x9)
    170c:	0114a423          	sw	x17,8(x9)
    1710:	00f4a223          	sw	x15,4(x9)
    1714:	00090513          	addi	x10,x18,0
    1718:	00d72023          	sw	x13,0(x14)
    171c:	3e4010ef          	jal	x1,2b00 <__malloc_unlock>
    1720:	00840513          	addi	x10,x8,8
    1724:	ca9ff06f          	jal	x0,13cc <_malloc_r+0x23c>
    1728:	00f407b3          	add	x15,x8,x15
    172c:	0047a703          	lw	x14,4(x15)
    1730:	00090513          	addi	x10,x18,0
    1734:	00176713          	ori	x14,x14,1
    1738:	00e7a223          	sw	x14,4(x15)
    173c:	3c4010ef          	jal	x1,2b00 <__malloc_unlock>
    1740:	00840513          	addi	x10,x8,8
    1744:	c89ff06f          	jal	x0,13cc <_malloc_r+0x23c>
    1748:	0034d593          	srli	x11,x9,0x3
    174c:	00848793          	addi	x15,x9,8
    1750:	a7dff06f          	jal	x0,11cc <_malloc_r+0x3c>
    1754:	0014e693          	ori	x13,x9,1
    1758:	00d42223          	sw	x13,4(x8)
    175c:	009404b3          	add	x9,x8,x9
    1760:	0099aa23          	sw	x9,20(x19)
    1764:	0099a823          	sw	x9,16(x19)
    1768:	00176693          	ori	x13,x14,1
    176c:	00f407b3          	add	x15,x8,x15
    1770:	0114a623          	sw	x17,12(x9)
    1774:	0114a423          	sw	x17,8(x9)
    1778:	00d4a223          	sw	x13,4(x9)
    177c:	00090513          	addi	x10,x18,0
    1780:	00e7a023          	sw	x14,0(x15)
    1784:	37c010ef          	jal	x1,2b00 <__malloc_unlock>
    1788:	00840513          	addi	x10,x8,8
    178c:	c41ff06f          	jal	x0,13cc <_malloc_r+0x23c>
    1790:	0067d713          	srli	x14,x15,0x6
    1794:	03970613          	addi	x12,x14,57
    1798:	00361613          	slli	x12,x12,0x3
    179c:	03870693          	addi	x13,x14,56
    17a0:	ec5ff06f          	jal	x0,1664 <_malloc_r+0x4d4>
    17a4:	05c78593          	addi	x11,x15,92
    17a8:	05b78813          	addi	x16,x15,91
    17ac:	00359613          	slli	x12,x11,0x3
    17b0:	abdff06f          	jal	x0,126c <_malloc_r+0xdc>
    17b4:	00832783          	lw	x15,8(x6)
    17b8:	fff58593          	addi	x11,x11,-1
    17bc:	1c679e63          	bne	x15,x6,1998 <_malloc_r+0x808>
    17c0:	0035f793          	andi	x15,x11,3
    17c4:	ff830313          	addi	x6,x6,-8
    17c8:	fe0796e3          	bne	x15,x0,17b4 <_malloc_r+0x624>
    17cc:	0049a703          	lw	x14,4(x19)
    17d0:	fff64793          	xori	x15,x12,-1
    17d4:	00e7f7b3          	and	x15,x15,x14
    17d8:	00f9a223          	sw	x15,4(x19)
    17dc:	00161613          	slli	x12,x12,0x1
    17e0:	c0c7ece3          	bltu	x15,x12,13f8 <_malloc_r+0x268>
    17e4:	c0060ae3          	beq	x12,x0,13f8 <_malloc_r+0x268>
    17e8:	00f67733          	and	x14,x12,x15
    17ec:	00071a63          	bne	x14,x0,1800 <_malloc_r+0x670>
    17f0:	00161613          	slli	x12,x12,0x1
    17f4:	00f67733          	and	x14,x12,x15
    17f8:	004e0e13          	addi	x28,x28,4
    17fc:	fe070ae3          	beq	x14,x0,17f0 <_malloc_r+0x660>
    1800:	000e0593          	addi	x11,x28,0
    1804:	b5dff06f          	jal	x0,1360 <_malloc_r+0x1d0>
    1808:	00840593          	addi	x11,x8,8
    180c:	00090513          	addi	x10,x18,0
    1810:	324000ef          	jal	x1,1b34 <_free_r>
    1814:	000c2583          	lw	x11,0(x24)
    1818:	0089ab83          	lw	x23,8(x19)
    181c:	d25ff06f          	jal	x0,1540 <_malloc_r+0x3b0>
    1820:	010a8a93          	addi	x21,x21,16
    1824:	c35ff06f          	jal	x0,1458 <_malloc_r+0x2c8>
    1828:	4026d693          	srai	x13,x13,0x2
    182c:	00100793          	addi	x15,x0,1
    1830:	00d797b3          	sll	x15,x15,x13
    1834:	00f56533          	or	x10,x10,x15
    1838:	00a9a223          	sw	x10,4(x19)
    183c:	e55ff06f          	jal	x0,1690 <_malloc_r+0x500>
    1840:	015b85b3          	add	x11,x23,x21
    1844:	40b005b3          	sub	x11,x0,x11
    1848:	01459593          	slli	x11,x11,0x14
    184c:	0145da13          	srli	x20,x11,0x14
    1850:	000a0593          	addi	x11,x20,0
    1854:	00090513          	addi	x10,x18,0
    1858:	6ed050ef          	jal	x1,7744 <_sbrk_r>
    185c:	fff00793          	addi	x15,x0,-1
    1860:	c8f514e3          	bne	x10,x15,14e8 <_malloc_r+0x358>
    1864:	00000a13          	addi	x20,x0,0
    1868:	c89ff06f          	jal	x0,14f0 <_malloc_r+0x360>
    186c:	00812c03          	lw	x24,8(x2)
    1870:	00100793          	addi	x15,x0,1
    1874:	00fba223          	sw	x15,4(x23)
    1878:	00090513          	addi	x10,x18,0
    187c:	284010ef          	jal	x1,2b00 <__malloc_unlock>
    1880:	01812a03          	lw	x20,24(x2)
    1884:	01412a83          	lw	x21,20(x2)
    1888:	01012b03          	lw	x22,16(x2)
    188c:	00c12b83          	lw	x23,12(x2)
    1890:	00412c83          	lw	x25,4(x2)
    1894:	b35ff06f          	jal	x0,13c8 <_malloc_r+0x238>
    1898:	05400693          	addi	x13,x0,84
    189c:	06e6ec63          	bltu	x13,x14,1914 <_malloc_r+0x784>
    18a0:	00c7d713          	srli	x14,x15,0xc
    18a4:	06f70613          	addi	x12,x14,111
    18a8:	00361613          	slli	x12,x12,0x3
    18ac:	06e70693          	addi	x13,x14,110
    18b0:	db5ff06f          	jal	x0,1664 <_malloc_r+0x4d4>
    18b4:	15400713          	addi	x14,x0,340
    18b8:	06f76c63          	bltu	x14,x15,1930 <_malloc_r+0x7a0>
    18bc:	00f4d793          	srli	x15,x9,0xf
    18c0:	07878593          	addi	x11,x15,120
    18c4:	07778813          	addi	x16,x15,119
    18c8:	00359613          	slli	x12,x11,0x3
    18cc:	9a1ff06f          	jal	x0,126c <_malloc_r+0xdc>
    18d0:	06c18c13          	addi	x24,x3,108 # 1317c <__malloc_current_mallinfo>
    18d4:	000c2703          	lw	x14,0(x24)
    18d8:	00ea8733          	add	x14,x21,x14
    18dc:	00ec2023          	sw	x14,0(x24)
    18e0:	bb1ff06f          	jal	x0,1490 <_malloc_r+0x300>
    18e4:	0089a403          	lw	x8,8(x19)
    18e8:	00442783          	lw	x15,4(x8)
    18ec:	c9dff06f          	jal	x0,1588 <_malloc_r+0x3f8>
    18f0:	01451793          	slli	x15,x10,0x14
    18f4:	b8079ee3          	bne	x15,x0,1490 <_malloc_r+0x300>
    18f8:	0089ab83          	lw	x23,8(x19)
    18fc:	015b07b3          	add	x15,x22,x21
    1900:	0017e793          	ori	x15,x15,1
    1904:	00fba223          	sw	x15,4(x23)
    1908:	c3dff06f          	jal	x0,1544 <_malloc_r+0x3b4>
    190c:	017ca023          	sw	x23,0(x25)
    1910:	b99ff06f          	jal	x0,14a8 <_malloc_r+0x318>
    1914:	15400693          	addi	x13,x0,340
    1918:	04e6e463          	bltu	x13,x14,1960 <_malloc_r+0x7d0>
    191c:	00f7d713          	srli	x14,x15,0xf
    1920:	07870613          	addi	x12,x14,120
    1924:	00361613          	slli	x12,x12,0x3
    1928:	07770693          	addi	x13,x14,119
    192c:	d39ff06f          	jal	x0,1664 <_malloc_r+0x4d4>
    1930:	55400713          	addi	x14,x0,1364
    1934:	04f76463          	bltu	x14,x15,197c <_malloc_r+0x7ec>
    1938:	0124d793          	srli	x15,x9,0x12
    193c:	07d78593          	addi	x11,x15,125
    1940:	07c78813          	addi	x16,x15,124
    1944:	00359613          	slli	x12,x11,0x3
    1948:	925ff06f          	jal	x0,126c <_malloc_r+0xdc>
    194c:	ff8c8c93          	addi	x25,x25,-8
    1950:	019a8ab3          	add	x21,x21,x25
    1954:	417a8ab3          	sub	x21,x21,x23
    1958:	00000a13          	addi	x20,x0,0
    195c:	b95ff06f          	jal	x0,14f0 <_malloc_r+0x360>
    1960:	55400693          	addi	x13,x0,1364
    1964:	02e6e463          	bltu	x13,x14,198c <_malloc_r+0x7fc>
    1968:	0127d713          	srli	x14,x15,0x12
    196c:	07d70613          	addi	x12,x14,125
    1970:	00361613          	slli	x12,x12,0x3
    1974:	07c70693          	addi	x13,x14,124
    1978:	cedff06f          	jal	x0,1664 <_malloc_r+0x4d4>
    197c:	3f800613          	addi	x12,x0,1016
    1980:	07f00593          	addi	x11,x0,127
    1984:	07e00813          	addi	x16,x0,126
    1988:	8e5ff06f          	jal	x0,126c <_malloc_r+0xdc>
    198c:	3f800613          	addi	x12,x0,1016
    1990:	07e00693          	addi	x13,x0,126
    1994:	cd1ff06f          	jal	x0,1664 <_malloc_r+0x4d4>
    1998:	0049a783          	lw	x15,4(x19)
    199c:	e41ff06f          	jal	x0,17dc <_malloc_r+0x64c>

000019a0 <__libc_fini_array>:
    19a0:	ff010113          	addi	x2,x2,-16
    19a4:	00812423          	sw	x8,8(x2)
    19a8:	00011797          	auipc	x15,0x11
    19ac:	f6878793          	addi	x15,x15,-152 # 12910 <__sglue>
    19b0:	00011417          	auipc	x8,0x11
    19b4:	f6040413          	addi	x8,x8,-160 # 12910 <__sglue>
    19b8:	40f40433          	sub	x8,x8,x15
    19bc:	00912223          	sw	x9,4(x2)
    19c0:	00112623          	sw	x1,12(x2)
    19c4:	40245493          	srai	x9,x8,0x2
    19c8:	02048063          	beq	x9,x0,19e8 <__libc_fini_array+0x48>
    19cc:	ffc40413          	addi	x8,x8,-4
    19d0:	00f40433          	add	x8,x8,x15
    19d4:	00042783          	lw	x15,0(x8)
    19d8:	fff48493          	addi	x9,x9,-1
    19dc:	ffc40413          	addi	x8,x8,-4
    19e0:	000780e7          	jalr	x1,0(x15)
    19e4:	fe0498e3          	bne	x9,x0,19d4 <__libc_fini_array+0x34>
    19e8:	00c12083          	lw	x1,12(x2)
    19ec:	00812403          	lw	x8,8(x2)
    19f0:	00412483          	lw	x9,4(x2)
    19f4:	01010113          	addi	x2,x2,16
    19f8:	00008067          	jalr	x0,0(x1)

000019fc <_malloc_trim_r>:
    19fc:	fe010113          	addi	x2,x2,-32
    1a00:	00812c23          	sw	x8,24(x2)
    1a04:	00912a23          	sw	x9,20(x2)
    1a08:	01212823          	sw	x18,16(x2)
    1a0c:	01312623          	sw	x19,12(x2)
    1a10:	01412423          	sw	x20,8(x2)
    1a14:	00058993          	addi	x19,x11,0
    1a18:	00112e23          	sw	x1,28(x2)
    1a1c:	00050913          	addi	x18,x10,0
    1a20:	00011a17          	auipc	x20,0x11
    1a24:	efca0a13          	addi	x20,x20,-260 # 1291c <__malloc_av_>
    1a28:	0d4010ef          	jal	x1,2afc <__malloc_lock>
    1a2c:	008a2783          	lw	x15,8(x20)
    1a30:	00001437          	lui	x8,0x1
    1a34:	fef40413          	addi	x8,x8,-17 # fef <__sfvwrite_r+0x46f>
    1a38:	0047a483          	lw	x9,4(x15)
    1a3c:	000017b7          	lui	x15,0x1
    1a40:	ffc4f493          	andi	x9,x9,-4
    1a44:	00848433          	add	x8,x9,x8
    1a48:	41340433          	sub	x8,x8,x19
    1a4c:	00c45413          	srli	x8,x8,0xc
    1a50:	fff40413          	addi	x8,x8,-1
    1a54:	00c41413          	slli	x8,x8,0xc
    1a58:	00f44e63          	blt	x8,x15,1a74 <_malloc_trim_r+0x78>
    1a5c:	00000593          	addi	x11,x0,0
    1a60:	00090513          	addi	x10,x18,0
    1a64:	4e1050ef          	jal	x1,7744 <_sbrk_r>
    1a68:	008a2783          	lw	x15,8(x20)
    1a6c:	009787b3          	add	x15,x15,x9
    1a70:	02f50863          	beq	x10,x15,1aa0 <_malloc_trim_r+0xa4>
    1a74:	00090513          	addi	x10,x18,0
    1a78:	088010ef          	jal	x1,2b00 <__malloc_unlock>
    1a7c:	01c12083          	lw	x1,28(x2)
    1a80:	01812403          	lw	x8,24(x2)
    1a84:	01412483          	lw	x9,20(x2)
    1a88:	01012903          	lw	x18,16(x2)
    1a8c:	00c12983          	lw	x19,12(x2)
    1a90:	00812a03          	lw	x20,8(x2)
    1a94:	00000513          	addi	x10,x0,0
    1a98:	02010113          	addi	x2,x2,32
    1a9c:	00008067          	jalr	x0,0(x1)
    1aa0:	408005b3          	sub	x11,x0,x8
    1aa4:	00090513          	addi	x10,x18,0
    1aa8:	49d050ef          	jal	x1,7744 <_sbrk_r>
    1aac:	fff00793          	addi	x15,x0,-1
    1ab0:	04f50863          	beq	x10,x15,1b00 <_malloc_trim_r+0x104>
    1ab4:	06c18713          	addi	x14,x3,108 # 1317c <__malloc_current_mallinfo>
    1ab8:	008a2683          	lw	x13,8(x20)
    1abc:	00072783          	lw	x15,0(x14)
    1ac0:	408484b3          	sub	x9,x9,x8
    1ac4:	0014e493          	ori	x9,x9,1
    1ac8:	00090513          	addi	x10,x18,0
    1acc:	408787b3          	sub	x15,x15,x8
    1ad0:	0096a223          	sw	x9,4(x13)
    1ad4:	00f72023          	sw	x15,0(x14)
    1ad8:	028010ef          	jal	x1,2b00 <__malloc_unlock>
    1adc:	01c12083          	lw	x1,28(x2)
    1ae0:	01812403          	lw	x8,24(x2)
    1ae4:	01412483          	lw	x9,20(x2)
    1ae8:	01012903          	lw	x18,16(x2)
    1aec:	00c12983          	lw	x19,12(x2)
    1af0:	00812a03          	lw	x20,8(x2)
    1af4:	00100513          	addi	x10,x0,1
    1af8:	02010113          	addi	x2,x2,32
    1afc:	00008067          	jalr	x0,0(x1)
    1b00:	00000593          	addi	x11,x0,0
    1b04:	00090513          	addi	x10,x18,0
    1b08:	43d050ef          	jal	x1,7744 <_sbrk_r>
    1b0c:	008a2703          	lw	x14,8(x20)
    1b10:	00f00693          	addi	x13,x0,15
    1b14:	40e507b3          	sub	x15,x10,x14
    1b18:	f4f6dee3          	bge	x13,x15,1a74 <_malloc_trim_r+0x78>
    1b1c:	f0c1a683          	lw	x13,-244(x3) # 1301c <__malloc_sbrk_base>
    1b20:	0017e793          	ori	x15,x15,1
    1b24:	40d50533          	sub	x10,x10,x13
    1b28:	00f72223          	sw	x15,4(x14)
    1b2c:	06a1a623          	sw	x10,108(x3) # 1317c <__malloc_current_mallinfo>
    1b30:	f45ff06f          	jal	x0,1a74 <_malloc_trim_r+0x78>

00001b34 <_free_r>:
    1b34:	16058e63          	beq	x11,x0,1cb0 <_free_r+0x17c>
    1b38:	ff010113          	addi	x2,x2,-16
    1b3c:	00812423          	sw	x8,8(x2)
    1b40:	00912223          	sw	x9,4(x2)
    1b44:	00058413          	addi	x8,x11,0
    1b48:	00050493          	addi	x9,x10,0
    1b4c:	00112623          	sw	x1,12(x2)
    1b50:	7ad000ef          	jal	x1,2afc <__malloc_lock>
    1b54:	ffc42583          	lw	x11,-4(x8)
    1b58:	ff840713          	addi	x14,x8,-8
    1b5c:	00011817          	auipc	x16,0x11
    1b60:	dc080813          	addi	x16,x16,-576 # 1291c <__malloc_av_>
    1b64:	ffe5f793          	andi	x15,x11,-2
    1b68:	00f70633          	add	x12,x14,x15
    1b6c:	00462683          	lw	x13,4(x12)
    1b70:	00882503          	lw	x10,8(x16)
    1b74:	0015f893          	andi	x17,x11,1
    1b78:	ffc6f693          	andi	x13,x13,-4
    1b7c:	18c50c63          	beq	x10,x12,1d14 <_free_r+0x1e0>
    1b80:	00d62223          	sw	x13,4(x12)
    1b84:	00d60533          	add	x10,x12,x13
    1b88:	00452503          	lw	x10,4(x10)
    1b8c:	00157513          	andi	x10,x10,1
    1b90:	08089c63          	bne	x17,x0,1c28 <_free_r+0xf4>
    1b94:	ff842303          	lw	x6,-8(x8)
    1b98:	00011897          	auipc	x17,0x11
    1b9c:	d8c88893          	addi	x17,x17,-628 # 12924 <__malloc_av_+0x8>
    1ba0:	40670733          	sub	x14,x14,x6
    1ba4:	00872583          	lw	x11,8(x14)
    1ba8:	006787b3          	add	x15,x15,x6
    1bac:	13158e63          	beq	x11,x17,1ce8 <_free_r+0x1b4>
    1bb0:	00c72303          	lw	x6,12(x14)
    1bb4:	0065a623          	sw	x6,12(x11)
    1bb8:	00b32423          	sw	x11,8(x6)
    1bbc:	1a050063          	beq	x10,x0,1d5c <_free_r+0x228>
    1bc0:	0017e693          	ori	x13,x15,1
    1bc4:	00d72223          	sw	x13,4(x14)
    1bc8:	00f62023          	sw	x15,0(x12)
    1bcc:	1ff00693          	addi	x13,x0,511
    1bd0:	06f6e863          	bltu	x13,x15,1c40 <_free_r+0x10c>
    1bd4:	ff87f693          	andi	x13,x15,-8
    1bd8:	00868693          	addi	x13,x13,8
    1bdc:	00482583          	lw	x11,4(x16)
    1be0:	00d806b3          	add	x13,x16,x13
    1be4:	0006a603          	lw	x12,0(x13)
    1be8:	0057d513          	srli	x10,x15,0x5
    1bec:	00100793          	addi	x15,x0,1
    1bf0:	00a797b3          	sll	x15,x15,x10
    1bf4:	00b7e7b3          	or	x15,x15,x11
    1bf8:	ff868593          	addi	x11,x13,-8
    1bfc:	00c72423          	sw	x12,8(x14)
    1c00:	00b72623          	sw	x11,12(x14)
    1c04:	00f82223          	sw	x15,4(x16)
    1c08:	00e6a023          	sw	x14,0(x13)
    1c0c:	00e62623          	sw	x14,12(x12)
    1c10:	00812403          	lw	x8,8(x2)
    1c14:	00c12083          	lw	x1,12(x2)
    1c18:	00048513          	addi	x10,x9,0
    1c1c:	00412483          	lw	x9,4(x2)
    1c20:	01010113          	addi	x2,x2,16
    1c24:	6dd0006f          	jal	x0,2b00 <__malloc_unlock>
    1c28:	08050663          	beq	x10,x0,1cb4 <_free_r+0x180>
    1c2c:	0015e593          	ori	x11,x11,1
    1c30:	feb42e23          	sw	x11,-4(x8)
    1c34:	00f62023          	sw	x15,0(x12)
    1c38:	1ff00693          	addi	x13,x0,511
    1c3c:	f8f6fce3          	bgeu	x13,x15,1bd4 <_free_r+0xa0>
    1c40:	0097d693          	srli	x13,x15,0x9
    1c44:	00400613          	addi	x12,x0,4
    1c48:	10d66e63          	bltu	x12,x13,1d64 <_free_r+0x230>
    1c4c:	0067d693          	srli	x13,x15,0x6
    1c50:	03968593          	addi	x11,x13,57
    1c54:	00359593          	slli	x11,x11,0x3
    1c58:	03868613          	addi	x12,x13,56
    1c5c:	00b805b3          	add	x11,x16,x11
    1c60:	0005a683          	lw	x13,0(x11)
    1c64:	ff858593          	addi	x11,x11,-8
    1c68:	00d59863          	bne	x11,x13,1c78 <_free_r+0x144>
    1c6c:	1500006f          	jal	x0,1dbc <_free_r+0x288>
    1c70:	0086a683          	lw	x13,8(x13)
    1c74:	00d58863          	beq	x11,x13,1c84 <_free_r+0x150>
    1c78:	0046a603          	lw	x12,4(x13)
    1c7c:	ffc67613          	andi	x12,x12,-4
    1c80:	fec7e8e3          	bltu	x15,x12,1c70 <_free_r+0x13c>
    1c84:	00c6a583          	lw	x11,12(x13)
    1c88:	00b72623          	sw	x11,12(x14)
    1c8c:	00d72423          	sw	x13,8(x14)
    1c90:	00812403          	lw	x8,8(x2)
    1c94:	00c12083          	lw	x1,12(x2)
    1c98:	00e5a423          	sw	x14,8(x11)
    1c9c:	00048513          	addi	x10,x9,0
    1ca0:	00412483          	lw	x9,4(x2)
    1ca4:	00e6a623          	sw	x14,12(x13)
    1ca8:	01010113          	addi	x2,x2,16
    1cac:	6550006f          	jal	x0,2b00 <__malloc_unlock>
    1cb0:	00008067          	jalr	x0,0(x1)
    1cb4:	00d787b3          	add	x15,x15,x13
    1cb8:	00011897          	auipc	x17,0x11
    1cbc:	c6c88893          	addi	x17,x17,-916 # 12924 <__malloc_av_+0x8>
    1cc0:	00862683          	lw	x13,8(x12)
    1cc4:	0d168a63          	beq	x13,x17,1d98 <_free_r+0x264>
    1cc8:	00c62503          	lw	x10,12(x12)
    1ccc:	0017e593          	ori	x11,x15,1
    1cd0:	00f70633          	add	x12,x14,x15
    1cd4:	00a6a623          	sw	x10,12(x13)
    1cd8:	00d52423          	sw	x13,8(x10)
    1cdc:	00b72223          	sw	x11,4(x14)
    1ce0:	00f62023          	sw	x15,0(x12)
    1ce4:	ee9ff06f          	jal	x0,1bcc <_free_r+0x98>
    1ce8:	12051a63          	bne	x10,x0,1e1c <_free_r+0x2e8>
    1cec:	00862583          	lw	x11,8(x12)
    1cf0:	00c62603          	lw	x12,12(x12)
    1cf4:	00f686b3          	add	x13,x13,x15
    1cf8:	0016e793          	ori	x15,x13,1
    1cfc:	00c5a623          	sw	x12,12(x11)
    1d00:	00b62423          	sw	x11,8(x12)
    1d04:	00f72223          	sw	x15,4(x14)
    1d08:	00d70733          	add	x14,x14,x13
    1d0c:	00d72023          	sw	x13,0(x14)
    1d10:	f01ff06f          	jal	x0,1c10 <_free_r+0xdc>
    1d14:	00d786b3          	add	x13,x15,x13
    1d18:	02089063          	bne	x17,x0,1d38 <_free_r+0x204>
    1d1c:	ff842583          	lw	x11,-8(x8)
    1d20:	40b70733          	sub	x14,x14,x11
    1d24:	00c72783          	lw	x15,12(x14)
    1d28:	00872603          	lw	x12,8(x14)
    1d2c:	00b686b3          	add	x13,x13,x11
    1d30:	00f62623          	sw	x15,12(x12)
    1d34:	00c7a423          	sw	x12,8(x15) # 1008 <__sfvwrite_r+0x488>
    1d38:	0016e793          	ori	x15,x13,1
    1d3c:	00f72223          	sw	x15,4(x14)
    1d40:	00e82423          	sw	x14,8(x16)
    1d44:	f101a783          	lw	x15,-240(x3) # 13020 <__malloc_trim_threshold>
    1d48:	ecf6e4e3          	bltu	x13,x15,1c10 <_free_r+0xdc>
    1d4c:	f281a583          	lw	x11,-216(x3) # 13038 <__malloc_top_pad>
    1d50:	00048513          	addi	x10,x9,0
    1d54:	ca9ff0ef          	jal	x1,19fc <_malloc_trim_r>
    1d58:	eb9ff06f          	jal	x0,1c10 <_free_r+0xdc>
    1d5c:	00d787b3          	add	x15,x15,x13
    1d60:	f61ff06f          	jal	x0,1cc0 <_free_r+0x18c>
    1d64:	01400613          	addi	x12,x0,20
    1d68:	02d67063          	bgeu	x12,x13,1d88 <_free_r+0x254>
    1d6c:	05400613          	addi	x12,x0,84
    1d70:	06d66463          	bltu	x12,x13,1dd8 <_free_r+0x2a4>
    1d74:	00c7d693          	srli	x13,x15,0xc
    1d78:	06f68593          	addi	x11,x13,111
    1d7c:	00359593          	slli	x11,x11,0x3
    1d80:	06e68613          	addi	x12,x13,110
    1d84:	ed9ff06f          	jal	x0,1c5c <_free_r+0x128>
    1d88:	05c68593          	addi	x11,x13,92
    1d8c:	00359593          	slli	x11,x11,0x3
    1d90:	05b68613          	addi	x12,x13,91
    1d94:	ec9ff06f          	jal	x0,1c5c <_free_r+0x128>
    1d98:	00e82a23          	sw	x14,20(x16)
    1d9c:	00e82823          	sw	x14,16(x16)
    1da0:	0017e693          	ori	x13,x15,1
    1da4:	01172623          	sw	x17,12(x14)
    1da8:	01172423          	sw	x17,8(x14)
    1dac:	00d72223          	sw	x13,4(x14)
    1db0:	00f70733          	add	x14,x14,x15
    1db4:	00f72023          	sw	x15,0(x14)
    1db8:	e59ff06f          	jal	x0,1c10 <_free_r+0xdc>
    1dbc:	00482503          	lw	x10,4(x16)
    1dc0:	40265613          	srai	x12,x12,0x2
    1dc4:	00100793          	addi	x15,x0,1
    1dc8:	00c797b3          	sll	x15,x15,x12
    1dcc:	00a7e7b3          	or	x15,x15,x10
    1dd0:	00f82223          	sw	x15,4(x16)
    1dd4:	eb5ff06f          	jal	x0,1c88 <_free_r+0x154>
    1dd8:	15400613          	addi	x12,x0,340
    1ddc:	00d66c63          	bltu	x12,x13,1df4 <_free_r+0x2c0>
    1de0:	00f7d693          	srli	x13,x15,0xf
    1de4:	07868593          	addi	x11,x13,120
    1de8:	00359593          	slli	x11,x11,0x3
    1dec:	07768613          	addi	x12,x13,119
    1df0:	e6dff06f          	jal	x0,1c5c <_free_r+0x128>
    1df4:	55400613          	addi	x12,x0,1364
    1df8:	00d66c63          	bltu	x12,x13,1e10 <_free_r+0x2dc>
    1dfc:	0127d693          	srli	x13,x15,0x12
    1e00:	07d68593          	addi	x11,x13,125
    1e04:	00359593          	slli	x11,x11,0x3
    1e08:	07c68613          	addi	x12,x13,124
    1e0c:	e51ff06f          	jal	x0,1c5c <_free_r+0x128>
    1e10:	3f800593          	addi	x11,x0,1016
    1e14:	07e00613          	addi	x12,x0,126
    1e18:	e45ff06f          	jal	x0,1c5c <_free_r+0x128>
    1e1c:	0017e693          	ori	x13,x15,1
    1e20:	00d72223          	sw	x13,4(x14)
    1e24:	00f62023          	sw	x15,0(x12)
    1e28:	de9ff06f          	jal	x0,1c10 <_free_r+0xdc>

00001e2c <_putchar_r>:
    1e2c:	00852603          	lw	x12,8(x10)
    1e30:	7e00506f          	jal	x0,7610 <_putc_r>

00001e34 <putchar>:
    1e34:	f141a783          	lw	x15,-236(x3) # 13024 <_impure_ptr>
    1e38:	0087a603          	lw	x12,8(x15)
    1e3c:	00050593          	addi	x11,x10,0
    1e40:	00078513          	addi	x10,x15,0
    1e44:	7cc0506f          	jal	x0,7610 <_putc_r>

00001e48 <memcpy>:
    1e48:	00a5c7b3          	xor	x15,x11,x10
    1e4c:	0037f793          	andi	x15,x15,3
    1e50:	00c508b3          	add	x17,x10,x12
    1e54:	06079463          	bne	x15,x0,1ebc <memcpy+0x74>
    1e58:	00300793          	addi	x15,x0,3
    1e5c:	06c7f063          	bgeu	x15,x12,1ebc <memcpy+0x74>
    1e60:	00357793          	andi	x15,x10,3
    1e64:	00050713          	addi	x14,x10,0
    1e68:	0c079863          	bne	x15,x0,1f38 <memcpy+0xf0>
    1e6c:	ffc8f613          	andi	x12,x17,-4
    1e70:	40e606b3          	sub	x13,x12,x14
    1e74:	02000793          	addi	x15,x0,32
    1e78:	06d7c263          	blt	x15,x13,1edc <memcpy+0x94>
    1e7c:	00058693          	addi	x13,x11,0
    1e80:	00070793          	addi	x15,x14,0
    1e84:	02c77863          	bgeu	x14,x12,1eb4 <memcpy+0x6c>
    1e88:	0006a803          	lw	x16,0(x13)
    1e8c:	00478793          	addi	x15,x15,4
    1e90:	00468693          	addi	x13,x13,4
    1e94:	ff07ae23          	sw	x16,-4(x15)
    1e98:	fec7e8e3          	bltu	x15,x12,1e88 <memcpy+0x40>
    1e9c:	fff60793          	addi	x15,x12,-1
    1ea0:	40e787b3          	sub	x15,x15,x14
    1ea4:	ffc7f793          	andi	x15,x15,-4
    1ea8:	00478793          	addi	x15,x15,4
    1eac:	00f70733          	add	x14,x14,x15
    1eb0:	00f585b3          	add	x11,x11,x15
    1eb4:	01176863          	bltu	x14,x17,1ec4 <memcpy+0x7c>
    1eb8:	00008067          	jalr	x0,0(x1)
    1ebc:	00050713          	addi	x14,x10,0
    1ec0:	ff157ce3          	bgeu	x10,x17,1eb8 <memcpy+0x70>
    1ec4:	0005c783          	lbu	x15,0(x11)
    1ec8:	00170713          	addi	x14,x14,1
    1ecc:	00158593          	addi	x11,x11,1
    1ed0:	fef70fa3          	sb	x15,-1(x14)
    1ed4:	fee898e3          	bne	x17,x14,1ec4 <memcpy+0x7c>
    1ed8:	00008067          	jalr	x0,0(x1)
    1edc:	0205a683          	lw	x13,32(x11)
    1ee0:	0005a383          	lw	x7,0(x11)
    1ee4:	0045a283          	lw	x5,4(x11)
    1ee8:	0085af83          	lw	x31,8(x11)
    1eec:	00c5af03          	lw	x30,12(x11)
    1ef0:	0105ae83          	lw	x29,16(x11)
    1ef4:	0145ae03          	lw	x28,20(x11)
    1ef8:	0185a303          	lw	x6,24(x11)
    1efc:	01c5a803          	lw	x16,28(x11)
    1f00:	02470713          	addi	x14,x14,36
    1f04:	fed72e23          	sw	x13,-4(x14)
    1f08:	fc772e23          	sw	x7,-36(x14)
    1f0c:	40e606b3          	sub	x13,x12,x14
    1f10:	fe572023          	sw	x5,-32(x14)
    1f14:	fff72223          	sw	x31,-28(x14)
    1f18:	ffe72423          	sw	x30,-24(x14)
    1f1c:	ffd72623          	sw	x29,-20(x14)
    1f20:	ffc72823          	sw	x28,-16(x14)
    1f24:	fe672a23          	sw	x6,-12(x14)
    1f28:	ff072c23          	sw	x16,-8(x14)
    1f2c:	02458593          	addi	x11,x11,36
    1f30:	fad7c6e3          	blt	x15,x13,1edc <memcpy+0x94>
    1f34:	f49ff06f          	jal	x0,1e7c <memcpy+0x34>
    1f38:	0005c683          	lbu	x13,0(x11)
    1f3c:	00170713          	addi	x14,x14,1
    1f40:	00377793          	andi	x15,x14,3
    1f44:	fed70fa3          	sb	x13,-1(x14)
    1f48:	00158593          	addi	x11,x11,1
    1f4c:	f20780e3          	beq	x15,x0,1e6c <memcpy+0x24>
    1f50:	0005c683          	lbu	x13,0(x11)
    1f54:	00170713          	addi	x14,x14,1
    1f58:	00377793          	andi	x15,x14,3
    1f5c:	fed70fa3          	sb	x13,-1(x14)
    1f60:	00158593          	addi	x11,x11,1
    1f64:	fc079ae3          	bne	x15,x0,1f38 <memcpy+0xf0>
    1f68:	f05ff06f          	jal	x0,1e6c <memcpy+0x24>

00001f6c <memchr>:
    1f6c:	00357713          	andi	x14,x10,3
    1f70:	00050793          	addi	x15,x10,0
    1f74:	0ff5f813          	andi	x16,x11,255
    1f78:	00050313          	addi	x6,x10,0
    1f7c:	02070e63          	beq	x14,x0,1fb8 <memchr+0x4c>
    1f80:	00c508b3          	add	x17,x10,x12
    1f84:	0140006f          	jal	x0,1f98 <memchr+0x2c>
    1f88:	0007c683          	lbu	x13,0(x15)
    1f8c:	0b068263          	beq	x13,x16,2030 <memchr+0xc4>
    1f90:	00070e63          	beq	x14,x0,1fac <memchr+0x40>
    1f94:	00050793          	addi	x15,x10,0
    1f98:	00178513          	addi	x10,x15,1
    1f9c:	00357713          	andi	x14,x10,3
    1fa0:	fef894e3          	bne	x17,x15,1f88 <memchr+0x1c>
    1fa4:	00000513          	addi	x10,x0,0
    1fa8:	00008067          	jalr	x0,0(x1)
    1fac:	fff60613          	addi	x12,x12,-1
    1fb0:	00660633          	add	x12,x12,x6
    1fb4:	40f60633          	sub	x12,x12,x15
    1fb8:	00300793          	addi	x15,x0,3
    1fbc:	04c7fa63          	bgeu	x15,x12,2010 <memchr+0xa4>
    1fc0:	0ff5f593          	andi	x11,x11,255
    1fc4:	00859693          	slli	x13,x11,0x8
    1fc8:	00b686b3          	add	x13,x13,x11
    1fcc:	01069713          	slli	x14,x13,0x10
    1fd0:	feff0337          	lui	x6,0xfeff0
    1fd4:	808088b7          	lui	x17,0x80808
    1fd8:	00078593          	addi	x11,x15,0
    1fdc:	00e686b3          	add	x13,x13,x14
    1fe0:	eff30313          	addi	x6,x6,-257 # fefefeff <__heap_end+0xfebefeff>
    1fe4:	08088893          	addi	x17,x17,128 # 80808080 <__heap_end+0x80408080>
    1fe8:	00052783          	lw	x15,0(x10)
    1fec:	00f6c7b3          	xor	x15,x13,x15
    1ff0:	00678733          	add	x14,x15,x6
    1ff4:	fff7c793          	xori	x15,x15,-1
    1ff8:	00f777b3          	and	x15,x14,x15
    1ffc:	0117f7b3          	and	x15,x15,x17
    2000:	00079a63          	bne	x15,x0,2014 <memchr+0xa8>
    2004:	ffc60613          	addi	x12,x12,-4
    2008:	00450513          	addi	x10,x10,4
    200c:	fcc5eee3          	bltu	x11,x12,1fe8 <memchr+0x7c>
    2010:	f8060ae3          	beq	x12,x0,1fa4 <memchr+0x38>
    2014:	00c50633          	add	x12,x10,x12
    2018:	00c0006f          	jal	x0,2024 <memchr+0xb8>
    201c:	00150513          	addi	x10,x10,1
    2020:	f8a602e3          	beq	x12,x10,1fa4 <memchr+0x38>
    2024:	00054783          	lbu	x15,0(x10)
    2028:	ff079ae3          	bne	x15,x16,201c <memchr+0xb0>
    202c:	00008067          	jalr	x0,0(x1)
    2030:	00078513          	addi	x10,x15,0
    2034:	00008067          	jalr	x0,0(x1)

00002038 <memmove>:
    2038:	02a5f663          	bgeu	x11,x10,2064 <memmove+0x2c>
    203c:	00c58733          	add	x14,x11,x12
    2040:	02e57263          	bgeu	x10,x14,2064 <memmove+0x2c>
    2044:	00c507b3          	add	x15,x10,x12
    2048:	04060663          	beq	x12,x0,2094 <memmove+0x5c>
    204c:	fff74683          	lbu	x13,-1(x14)
    2050:	fff78793          	addi	x15,x15,-1
    2054:	fff70713          	addi	x14,x14,-1
    2058:	00d78023          	sb	x13,0(x15)
    205c:	fef518e3          	bne	x10,x15,204c <memmove+0x14>
    2060:	00008067          	jalr	x0,0(x1)
    2064:	00f00793          	addi	x15,x0,15
    2068:	02c7e863          	bltu	x15,x12,2098 <memmove+0x60>
    206c:	00050793          	addi	x15,x10,0
    2070:	fff60693          	addi	x13,x12,-1
    2074:	0c060a63          	beq	x12,x0,2148 <memmove+0x110>
    2078:	00168693          	addi	x13,x13,1
    207c:	00d786b3          	add	x13,x15,x13
    2080:	0005c703          	lbu	x14,0(x11)
    2084:	00178793          	addi	x15,x15,1
    2088:	00158593          	addi	x11,x11,1
    208c:	fee78fa3          	sb	x14,-1(x15)
    2090:	fed798e3          	bne	x15,x13,2080 <memmove+0x48>
    2094:	00008067          	jalr	x0,0(x1)
    2098:	00b567b3          	or	x15,x10,x11
    209c:	0037f793          	andi	x15,x15,3
    20a0:	08079e63          	bne	x15,x0,213c <memmove+0x104>
    20a4:	ff060893          	addi	x17,x12,-16
    20a8:	ff08f893          	andi	x17,x17,-16
    20ac:	01088893          	addi	x17,x17,16
    20b0:	011507b3          	add	x15,x10,x17
    20b4:	00058693          	addi	x13,x11,0
    20b8:	00050713          	addi	x14,x10,0
    20bc:	0006a803          	lw	x16,0(x13)
    20c0:	01068693          	addi	x13,x13,16
    20c4:	01070713          	addi	x14,x14,16
    20c8:	ff072823          	sw	x16,-16(x14)
    20cc:	ff46a803          	lw	x16,-12(x13)
    20d0:	ff072a23          	sw	x16,-12(x14)
    20d4:	ff86a803          	lw	x16,-8(x13)
    20d8:	ff072c23          	sw	x16,-8(x14)
    20dc:	ffc6a803          	lw	x16,-4(x13)
    20e0:	ff072e23          	sw	x16,-4(x14)
    20e4:	fcf71ce3          	bne	x14,x15,20bc <memmove+0x84>
    20e8:	00c67713          	andi	x14,x12,12
    20ec:	011585b3          	add	x11,x11,x17
    20f0:	00f67813          	andi	x16,x12,15
    20f4:	04070c63          	beq	x14,x0,214c <memmove+0x114>
    20f8:	00058693          	addi	x13,x11,0
    20fc:	00078713          	addi	x14,x15,0
    2100:	01078eb3          	add	x29,x15,x16
    2104:	00300e13          	addi	x28,x0,3
    2108:	0006a303          	lw	x6,0(x13)
    210c:	00470713          	addi	x14,x14,4
    2110:	40ee88b3          	sub	x17,x29,x14
    2114:	fe672e23          	sw	x6,-4(x14)
    2118:	00468693          	addi	x13,x13,4
    211c:	ff1e66e3          	bltu	x28,x17,2108 <memmove+0xd0>
    2120:	ffc80713          	addi	x14,x16,-4
    2124:	ffc77713          	andi	x14,x14,-4
    2128:	00470713          	addi	x14,x14,4
    212c:	00e787b3          	add	x15,x15,x14
    2130:	00e585b3          	add	x11,x11,x14
    2134:	00367613          	andi	x12,x12,3
    2138:	f39ff06f          	jal	x0,2070 <memmove+0x38>
    213c:	fff60693          	addi	x13,x12,-1
    2140:	00050793          	addi	x15,x10,0
    2144:	f35ff06f          	jal	x0,2078 <memmove+0x40>
    2148:	00008067          	jalr	x0,0(x1)
    214c:	00080613          	addi	x12,x16,0
    2150:	f21ff06f          	jal	x0,2070 <memmove+0x38>

00002154 <_fwalk_sglue>:
    2154:	fd010113          	addi	x2,x2,-48
    2158:	03212023          	sw	x18,32(x2)
    215c:	01312e23          	sw	x19,28(x2)
    2160:	01412c23          	sw	x20,24(x2)
    2164:	01512a23          	sw	x21,20(x2)
    2168:	01612823          	sw	x22,16(x2)
    216c:	01712623          	sw	x23,12(x2)
    2170:	02112623          	sw	x1,44(x2)
    2174:	02812423          	sw	x8,40(x2)
    2178:	02912223          	sw	x9,36(x2)
    217c:	00050b13          	addi	x22,x10,0
    2180:	00058b93          	addi	x23,x11,0
    2184:	00060a93          	addi	x21,x12,0
    2188:	00000a13          	addi	x20,x0,0
    218c:	00100993          	addi	x19,x0,1
    2190:	fff00913          	addi	x18,x0,-1
    2194:	004aa483          	lw	x9,4(x21)
    2198:	008aa403          	lw	x8,8(x21)
    219c:	fff48493          	addi	x9,x9,-1
    21a0:	0204c863          	blt	x9,x0,21d0 <_fwalk_sglue+0x7c>
    21a4:	00c45783          	lhu	x15,12(x8)
    21a8:	00f9fe63          	bgeu	x19,x15,21c4 <_fwalk_sglue+0x70>
    21ac:	00e41783          	lh	x15,14(x8)
    21b0:	00040593          	addi	x11,x8,0
    21b4:	000b0513          	addi	x10,x22,0
    21b8:	01278663          	beq	x15,x18,21c4 <_fwalk_sglue+0x70>
    21bc:	000b80e7          	jalr	x1,0(x23)
    21c0:	00aa6a33          	or	x20,x20,x10
    21c4:	fff48493          	addi	x9,x9,-1
    21c8:	06840413          	addi	x8,x8,104
    21cc:	fd249ce3          	bne	x9,x18,21a4 <_fwalk_sglue+0x50>
    21d0:	000aaa83          	lw	x21,0(x21)
    21d4:	fc0a90e3          	bne	x21,x0,2194 <_fwalk_sglue+0x40>
    21d8:	02c12083          	lw	x1,44(x2)
    21dc:	02812403          	lw	x8,40(x2)
    21e0:	02412483          	lw	x9,36(x2)
    21e4:	02012903          	lw	x18,32(x2)
    21e8:	01c12983          	lw	x19,28(x2)
    21ec:	01412a83          	lw	x21,20(x2)
    21f0:	01012b03          	lw	x22,16(x2)
    21f4:	00c12b83          	lw	x23,12(x2)
    21f8:	000a0513          	addi	x10,x20,0
    21fc:	01812a03          	lw	x20,24(x2)
    2200:	03010113          	addi	x2,x2,48
    2204:	00008067          	jalr	x0,0(x1)

00002208 <_realloc_r>:
    2208:	fd010113          	addi	x2,x2,-48
    220c:	02912223          	sw	x9,36(x2)
    2210:	02112623          	sw	x1,44(x2)
    2214:	00060493          	addi	x9,x12,0
    2218:	1e058863          	beq	x11,x0,2408 <_realloc_r+0x200>
    221c:	02812423          	sw	x8,40(x2)
    2220:	03212023          	sw	x18,32(x2)
    2224:	00058413          	addi	x8,x11,0
    2228:	01312e23          	sw	x19,28(x2)
    222c:	01512a23          	sw	x21,20(x2)
    2230:	01412c23          	sw	x20,24(x2)
    2234:	00050913          	addi	x18,x10,0
    2238:	0c5000ef          	jal	x1,2afc <__malloc_lock>
    223c:	ffc42703          	lw	x14,-4(x8)
    2240:	00b48793          	addi	x15,x9,11
    2244:	01600693          	addi	x13,x0,22
    2248:	ffc77993          	andi	x19,x14,-4
    224c:	ff840a93          	addi	x21,x8,-8
    2250:	10f6f263          	bgeu	x13,x15,2354 <_realloc_r+0x14c>
    2254:	ff87fa13          	andi	x20,x15,-8
    2258:	1007c263          	blt	x15,x0,235c <_realloc_r+0x154>
    225c:	109a6063          	bltu	x20,x9,235c <_realloc_r+0x154>
    2260:	1349d263          	bge	x19,x20,2384 <_realloc_r+0x17c>
    2264:	01812423          	sw	x24,8(x2)
    2268:	00010c17          	auipc	x24,0x10
    226c:	6b4c0c13          	addi	x24,x24,1716 # 1291c <__malloc_av_>
    2270:	008c2603          	lw	x12,8(x24)
    2274:	013a86b3          	add	x13,x21,x19
    2278:	0046a783          	lw	x15,4(x13)
    227c:	1cd60863          	beq	x12,x13,244c <_realloc_r+0x244>
    2280:	ffe7f613          	andi	x12,x15,-2
    2284:	00c68633          	add	x12,x13,x12
    2288:	00462603          	lw	x12,4(x12)
    228c:	00167613          	andi	x12,x12,1
    2290:	14061a63          	bne	x12,x0,23e4 <_realloc_r+0x1dc>
    2294:	ffc7f793          	andi	x15,x15,-4
    2298:	00f98633          	add	x12,x19,x15
    229c:	0d465863          	bge	x12,x20,236c <_realloc_r+0x164>
    22a0:	00177713          	andi	x14,x14,1
    22a4:	02071c63          	bne	x14,x0,22dc <_realloc_r+0xd4>
    22a8:	01712623          	sw	x23,12(x2)
    22ac:	ff842b83          	lw	x23,-8(x8)
    22b0:	01612823          	sw	x22,16(x2)
    22b4:	417a8bb3          	sub	x23,x21,x23
    22b8:	004ba703          	lw	x14,4(x23)
    22bc:	ffc77713          	andi	x14,x14,-4
    22c0:	00e787b3          	add	x15,x15,x14
    22c4:	01378b33          	add	x22,x15,x19
    22c8:	334b5263          	bge	x22,x20,25ec <_realloc_r+0x3e4>
    22cc:	00e98b33          	add	x22,x19,x14
    22d0:	294b5863          	bge	x22,x20,2560 <_realloc_r+0x358>
    22d4:	01012b03          	lw	x22,16(x2)
    22d8:	00c12b83          	lw	x23,12(x2)
    22dc:	00048593          	addi	x11,x9,0
    22e0:	00090513          	addi	x10,x18,0
    22e4:	eadfe0ef          	jal	x1,1190 <_malloc_r>
    22e8:	00050493          	addi	x9,x10,0
    22ec:	40050063          	beq	x10,x0,26ec <_realloc_r+0x4e4>
    22f0:	ffc42783          	lw	x15,-4(x8)
    22f4:	ff850713          	addi	x14,x10,-8
    22f8:	ffe7f793          	andi	x15,x15,-2
    22fc:	00fa87b3          	add	x15,x21,x15
    2300:	24e78663          	beq	x15,x14,254c <_realloc_r+0x344>
    2304:	ffc98613          	addi	x12,x19,-4
    2308:	02400793          	addi	x15,x0,36
    230c:	2cc7ea63          	bltu	x15,x12,25e0 <_realloc_r+0x3d8>
    2310:	01300713          	addi	x14,x0,19
    2314:	20c76a63          	bltu	x14,x12,2528 <_realloc_r+0x320>
    2318:	00050793          	addi	x15,x10,0
    231c:	00040713          	addi	x14,x8,0
    2320:	00072683          	lw	x13,0(x14)
    2324:	00d7a023          	sw	x13,0(x15)
    2328:	00472683          	lw	x13,4(x14)
    232c:	00d7a223          	sw	x13,4(x15)
    2330:	00872703          	lw	x14,8(x14)
    2334:	00e7a423          	sw	x14,8(x15)
    2338:	00040593          	addi	x11,x8,0
    233c:	00090513          	addi	x10,x18,0
    2340:	ff4ff0ef          	jal	x1,1b34 <_free_r>
    2344:	00090513          	addi	x10,x18,0
    2348:	7b8000ef          	jal	x1,2b00 <__malloc_unlock>
    234c:	00812c03          	lw	x24,8(x2)
    2350:	06c0006f          	jal	x0,23bc <_realloc_r+0x1b4>
    2354:	01000a13          	addi	x20,x0,16
    2358:	f09a74e3          	bgeu	x20,x9,2260 <_realloc_r+0x58>
    235c:	00c00793          	addi	x15,x0,12
    2360:	00f92023          	sw	x15,0(x18)
    2364:	00000493          	addi	x9,x0,0
    2368:	0540006f          	jal	x0,23bc <_realloc_r+0x1b4>
    236c:	00c6a783          	lw	x15,12(x13)
    2370:	0086a703          	lw	x14,8(x13)
    2374:	00812c03          	lw	x24,8(x2)
    2378:	00060993          	addi	x19,x12,0
    237c:	00f72623          	sw	x15,12(x14)
    2380:	00e7a423          	sw	x14,8(x15)
    2384:	004aa783          	lw	x15,4(x21)
    2388:	414986b3          	sub	x13,x19,x20
    238c:	00f00613          	addi	x12,x0,15
    2390:	0017f793          	andi	x15,x15,1
    2394:	013a8733          	add	x14,x21,x19
    2398:	08d66263          	bltu	x12,x13,241c <_realloc_r+0x214>
    239c:	0137e7b3          	or	x15,x15,x19
    23a0:	00faa223          	sw	x15,4(x21)
    23a4:	00472783          	lw	x15,4(x14)
    23a8:	0017e793          	ori	x15,x15,1
    23ac:	00f72223          	sw	x15,4(x14)
    23b0:	00090513          	addi	x10,x18,0
    23b4:	74c000ef          	jal	x1,2b00 <__malloc_unlock>
    23b8:	00040493          	addi	x9,x8,0
    23bc:	02812403          	lw	x8,40(x2)
    23c0:	02c12083          	lw	x1,44(x2)
    23c4:	02012903          	lw	x18,32(x2)
    23c8:	01c12983          	lw	x19,28(x2)
    23cc:	01812a03          	lw	x20,24(x2)
    23d0:	01412a83          	lw	x21,20(x2)
    23d4:	00048513          	addi	x10,x9,0
    23d8:	02412483          	lw	x9,36(x2)
    23dc:	03010113          	addi	x2,x2,48
    23e0:	00008067          	jalr	x0,0(x1)
    23e4:	00177713          	andi	x14,x14,1
    23e8:	ee071ae3          	bne	x14,x0,22dc <_realloc_r+0xd4>
    23ec:	01712623          	sw	x23,12(x2)
    23f0:	ff842b83          	lw	x23,-8(x8)
    23f4:	01612823          	sw	x22,16(x2)
    23f8:	417a8bb3          	sub	x23,x21,x23
    23fc:	004ba703          	lw	x14,4(x23)
    2400:	ffc77713          	andi	x14,x14,-4
    2404:	ec9ff06f          	jal	x0,22cc <_realloc_r+0xc4>
    2408:	02c12083          	lw	x1,44(x2)
    240c:	02412483          	lw	x9,36(x2)
    2410:	00060593          	addi	x11,x12,0
    2414:	03010113          	addi	x2,x2,48
    2418:	d79fe06f          	jal	x0,1190 <_malloc_r>
    241c:	0147e7b3          	or	x15,x15,x20
    2420:	00faa223          	sw	x15,4(x21)
    2424:	014a85b3          	add	x11,x21,x20
    2428:	0016e693          	ori	x13,x13,1
    242c:	00d5a223          	sw	x13,4(x11)
    2430:	00472783          	lw	x15,4(x14)
    2434:	00858593          	addi	x11,x11,8
    2438:	00090513          	addi	x10,x18,0
    243c:	0017e793          	ori	x15,x15,1
    2440:	00f72223          	sw	x15,4(x14)
    2444:	ef0ff0ef          	jal	x1,1b34 <_free_r>
    2448:	f69ff06f          	jal	x0,23b0 <_realloc_r+0x1a8>
    244c:	ffc7f793          	andi	x15,x15,-4
    2450:	013786b3          	add	x13,x15,x19
    2454:	010a0613          	addi	x12,x20,16
    2458:	22c6de63          	bge	x13,x12,2694 <_realloc_r+0x48c>
    245c:	00177713          	andi	x14,x14,1
    2460:	e6071ee3          	bne	x14,x0,22dc <_realloc_r+0xd4>
    2464:	01712623          	sw	x23,12(x2)
    2468:	ff842b83          	lw	x23,-8(x8)
    246c:	01612823          	sw	x22,16(x2)
    2470:	417a8bb3          	sub	x23,x21,x23
    2474:	004ba703          	lw	x14,4(x23)
    2478:	ffc77713          	andi	x14,x14,-4
    247c:	00e787b3          	add	x15,x15,x14
    2480:	01378b33          	add	x22,x15,x19
    2484:	e4cb44e3          	blt	x22,x12,22cc <_realloc_r+0xc4>
    2488:	00cba783          	lw	x15,12(x23)
    248c:	008ba703          	lw	x14,8(x23)
    2490:	ffc98613          	addi	x12,x19,-4
    2494:	02400693          	addi	x13,x0,36
    2498:	00f72623          	sw	x15,12(x14)
    249c:	00e7a423          	sw	x14,8(x15)
    24a0:	008b8493          	addi	x9,x23,8
    24a4:	28c6ee63          	bltu	x13,x12,2740 <_realloc_r+0x538>
    24a8:	01300713          	addi	x14,x0,19
    24ac:	00048793          	addi	x15,x9,0
    24b0:	02c77263          	bgeu	x14,x12,24d4 <_realloc_r+0x2cc>
    24b4:	00042703          	lw	x14,0(x8)
    24b8:	01b00793          	addi	x15,x0,27
    24bc:	00eba423          	sw	x14,8(x23)
    24c0:	00442703          	lw	x14,4(x8)
    24c4:	00eba623          	sw	x14,12(x23)
    24c8:	2ac7e263          	bltu	x15,x12,276c <_realloc_r+0x564>
    24cc:	00840413          	addi	x8,x8,8
    24d0:	010b8793          	addi	x15,x23,16
    24d4:	00042703          	lw	x14,0(x8)
    24d8:	00e7a023          	sw	x14,0(x15)
    24dc:	00442703          	lw	x14,4(x8)
    24e0:	00e7a223          	sw	x14,4(x15)
    24e4:	00842703          	lw	x14,8(x8)
    24e8:	00e7a423          	sw	x14,8(x15)
    24ec:	014b8733          	add	x14,x23,x20
    24f0:	414b07b3          	sub	x15,x22,x20
    24f4:	00ec2423          	sw	x14,8(x24)
    24f8:	0017e793          	ori	x15,x15,1
    24fc:	00f72223          	sw	x15,4(x14)
    2500:	004ba783          	lw	x15,4(x23)
    2504:	00090513          	addi	x10,x18,0
    2508:	0017f793          	andi	x15,x15,1
    250c:	0147e7b3          	or	x15,x15,x20
    2510:	00fba223          	sw	x15,4(x23)
    2514:	5ec000ef          	jal	x1,2b00 <__malloc_unlock>
    2518:	01012b03          	lw	x22,16(x2)
    251c:	00c12b83          	lw	x23,12(x2)
    2520:	00812c03          	lw	x24,8(x2)
    2524:	e99ff06f          	jal	x0,23bc <_realloc_r+0x1b4>
    2528:	00042683          	lw	x13,0(x8)
    252c:	01b00713          	addi	x14,x0,27
    2530:	00d52023          	sw	x13,0(x10)
    2534:	00442683          	lw	x13,4(x8)
    2538:	00d52223          	sw	x13,4(x10)
    253c:	12c76c63          	bltu	x14,x12,2674 <_realloc_r+0x46c>
    2540:	00840713          	addi	x14,x8,8
    2544:	00850793          	addi	x15,x10,8
    2548:	dd9ff06f          	jal	x0,2320 <_realloc_r+0x118>
    254c:	ffc52783          	lw	x15,-4(x10)
    2550:	00812c03          	lw	x24,8(x2)
    2554:	ffc7f793          	andi	x15,x15,-4
    2558:	00f989b3          	add	x19,x19,x15
    255c:	e29ff06f          	jal	x0,2384 <_realloc_r+0x17c>
    2560:	00cba783          	lw	x15,12(x23)
    2564:	008ba683          	lw	x13,8(x23)
    2568:	ffc98613          	addi	x12,x19,-4
    256c:	02400593          	addi	x11,x0,36
    2570:	00f6a623          	sw	x15,12(x13)
    2574:	00d7a423          	sw	x13,8(x15)
    2578:	008b8493          	addi	x9,x23,8
    257c:	0ec5e463          	bltu	x11,x12,2664 <_realloc_r+0x45c>
    2580:	01300693          	addi	x13,x0,19
    2584:	00048793          	addi	x15,x9,0
    2588:	02c6f263          	bgeu	x13,x12,25ac <_realloc_r+0x3a4>
    258c:	00042703          	lw	x14,0(x8)
    2590:	01b00793          	addi	x15,x0,27
    2594:	00eba423          	sw	x14,8(x23)
    2598:	00442703          	lw	x14,4(x8)
    259c:	00eba623          	sw	x14,12(x23)
    25a0:	12c7e663          	bltu	x15,x12,26cc <_realloc_r+0x4c4>
    25a4:	00840413          	addi	x8,x8,8
    25a8:	010b8793          	addi	x15,x23,16
    25ac:	00042683          	lw	x13,0(x8)
    25b0:	00d7a023          	sw	x13,0(x15)
    25b4:	00442683          	lw	x13,4(x8)
    25b8:	00d7a223          	sw	x13,4(x15)
    25bc:	00842683          	lw	x13,8(x8)
    25c0:	00d7a423          	sw	x13,8(x15)
    25c4:	000b0993          	addi	x19,x22,0
    25c8:	000b8a93          	addi	x21,x23,0
    25cc:	01012b03          	lw	x22,16(x2)
    25d0:	00c12b83          	lw	x23,12(x2)
    25d4:	00812c03          	lw	x24,8(x2)
    25d8:	00048413          	addi	x8,x9,0
    25dc:	da9ff06f          	jal	x0,2384 <_realloc_r+0x17c>
    25e0:	00040593          	addi	x11,x8,0
    25e4:	a55ff0ef          	jal	x1,2038 <memmove>
    25e8:	d51ff06f          	jal	x0,2338 <_realloc_r+0x130>
    25ec:	00c6a783          	lw	x15,12(x13)
    25f0:	0086a703          	lw	x14,8(x13)
    25f4:	ffc98613          	addi	x12,x19,-4
    25f8:	02400693          	addi	x13,x0,36
    25fc:	00f72623          	sw	x15,12(x14)
    2600:	00e7a423          	sw	x14,8(x15)
    2604:	008ba703          	lw	x14,8(x23)
    2608:	00cba783          	lw	x15,12(x23)
    260c:	008b8493          	addi	x9,x23,8
    2610:	00f72623          	sw	x15,12(x14)
    2614:	00e7a423          	sw	x14,8(x15)
    2618:	04c6e663          	bltu	x13,x12,2664 <_realloc_r+0x45c>
    261c:	01300713          	addi	x14,x0,19
    2620:	00048793          	addi	x15,x9,0
    2624:	02c77263          	bgeu	x14,x12,2648 <_realloc_r+0x440>
    2628:	00042703          	lw	x14,0(x8)
    262c:	01b00793          	addi	x15,x0,27
    2630:	00eba423          	sw	x14,8(x23)
    2634:	00442703          	lw	x14,4(x8)
    2638:	00eba623          	sw	x14,12(x23)
    263c:	0ec7e063          	bltu	x15,x12,271c <_realloc_r+0x514>
    2640:	00840413          	addi	x8,x8,8
    2644:	010b8793          	addi	x15,x23,16
    2648:	00042703          	lw	x14,0(x8)
    264c:	00e7a023          	sw	x14,0(x15)
    2650:	00442703          	lw	x14,4(x8)
    2654:	00e7a223          	sw	x14,4(x15)
    2658:	00842703          	lw	x14,8(x8)
    265c:	00e7a423          	sw	x14,8(x15)
    2660:	f65ff06f          	jal	x0,25c4 <_realloc_r+0x3bc>
    2664:	00040593          	addi	x11,x8,0
    2668:	00048513          	addi	x10,x9,0
    266c:	9cdff0ef          	jal	x1,2038 <memmove>
    2670:	f55ff06f          	jal	x0,25c4 <_realloc_r+0x3bc>
    2674:	00842703          	lw	x14,8(x8)
    2678:	00e52423          	sw	x14,8(x10)
    267c:	00c42703          	lw	x14,12(x8)
    2680:	00e52623          	sw	x14,12(x10)
    2684:	06f60e63          	beq	x12,x15,2700 <_realloc_r+0x4f8>
    2688:	01040713          	addi	x14,x8,16
    268c:	01050793          	addi	x15,x10,16
    2690:	c91ff06f          	jal	x0,2320 <_realloc_r+0x118>
    2694:	014a8ab3          	add	x21,x21,x20
    2698:	414687b3          	sub	x15,x13,x20
    269c:	015c2423          	sw	x21,8(x24)
    26a0:	0017e793          	ori	x15,x15,1
    26a4:	00faa223          	sw	x15,4(x21)
    26a8:	ffc42783          	lw	x15,-4(x8)
    26ac:	00090513          	addi	x10,x18,0
    26b0:	00040493          	addi	x9,x8,0
    26b4:	0017f793          	andi	x15,x15,1
    26b8:	0147e7b3          	or	x15,x15,x20
    26bc:	fef42e23          	sw	x15,-4(x8)
    26c0:	440000ef          	jal	x1,2b00 <__malloc_unlock>
    26c4:	00812c03          	lw	x24,8(x2)
    26c8:	cf5ff06f          	jal	x0,23bc <_realloc_r+0x1b4>
    26cc:	00842783          	lw	x15,8(x8)
    26d0:	00fba823          	sw	x15,16(x23)
    26d4:	00c42783          	lw	x15,12(x8)
    26d8:	00fbaa23          	sw	x15,20(x23)
    26dc:	06b60a63          	beq	x12,x11,2750 <_realloc_r+0x548>
    26e0:	01040413          	addi	x8,x8,16
    26e4:	018b8793          	addi	x15,x23,24
    26e8:	ec5ff06f          	jal	x0,25ac <_realloc_r+0x3a4>
    26ec:	00090513          	addi	x10,x18,0
    26f0:	410000ef          	jal	x1,2b00 <__malloc_unlock>
    26f4:	00000493          	addi	x9,x0,0
    26f8:	00812c03          	lw	x24,8(x2)
    26fc:	cc1ff06f          	jal	x0,23bc <_realloc_r+0x1b4>
    2700:	01042683          	lw	x13,16(x8)
    2704:	01840713          	addi	x14,x8,24
    2708:	01850793          	addi	x15,x10,24
    270c:	00d52823          	sw	x13,16(x10)
    2710:	01442683          	lw	x13,20(x8)
    2714:	00d52a23          	sw	x13,20(x10)
    2718:	c09ff06f          	jal	x0,2320 <_realloc_r+0x118>
    271c:	00842703          	lw	x14,8(x8)
    2720:	02400793          	addi	x15,x0,36
    2724:	00eba823          	sw	x14,16(x23)
    2728:	00c42703          	lw	x14,12(x8)
    272c:	00ebaa23          	sw	x14,20(x23)
    2730:	04f60e63          	beq	x12,x15,278c <_realloc_r+0x584>
    2734:	01040413          	addi	x8,x8,16
    2738:	018b8793          	addi	x15,x23,24
    273c:	f0dff06f          	jal	x0,2648 <_realloc_r+0x440>
    2740:	00040593          	addi	x11,x8,0
    2744:	00048513          	addi	x10,x9,0
    2748:	8f1ff0ef          	jal	x1,2038 <memmove>
    274c:	da1ff06f          	jal	x0,24ec <_realloc_r+0x2e4>
    2750:	01042703          	lw	x14,16(x8)
    2754:	020b8793          	addi	x15,x23,32
    2758:	01840413          	addi	x8,x8,24
    275c:	00ebac23          	sw	x14,24(x23)
    2760:	ffc42703          	lw	x14,-4(x8)
    2764:	00ebae23          	sw	x14,28(x23)
    2768:	e45ff06f          	jal	x0,25ac <_realloc_r+0x3a4>
    276c:	00842783          	lw	x15,8(x8)
    2770:	00fba823          	sw	x15,16(x23)
    2774:	00c42783          	lw	x15,12(x8)
    2778:	00fbaa23          	sw	x15,20(x23)
    277c:	02d60663          	beq	x12,x13,27a8 <_realloc_r+0x5a0>
    2780:	01040413          	addi	x8,x8,16
    2784:	018b8793          	addi	x15,x23,24
    2788:	d4dff06f          	jal	x0,24d4 <_realloc_r+0x2cc>
    278c:	01042703          	lw	x14,16(x8)
    2790:	020b8793          	addi	x15,x23,32
    2794:	01840413          	addi	x8,x8,24
    2798:	00ebac23          	sw	x14,24(x23)
    279c:	ffc42703          	lw	x14,-4(x8)
    27a0:	00ebae23          	sw	x14,28(x23)
    27a4:	ea5ff06f          	jal	x0,2648 <_realloc_r+0x440>
    27a8:	01042703          	lw	x14,16(x8)
    27ac:	020b8793          	addi	x15,x23,32
    27b0:	01840413          	addi	x8,x8,24
    27b4:	00ebac23          	sw	x14,24(x23)
    27b8:	ffc42703          	lw	x14,-4(x8)
    27bc:	00ebae23          	sw	x14,28(x23)
    27c0:	d15ff06f          	jal	x0,24d4 <_realloc_r+0x2cc>

000027c4 <__sflush_r>:
    27c4:	00c59703          	lh	x14,12(x11)
    27c8:	fe010113          	addi	x2,x2,-32
    27cc:	00812c23          	sw	x8,24(x2)
    27d0:	01312623          	sw	x19,12(x2)
    27d4:	00112e23          	sw	x1,28(x2)
    27d8:	00877793          	andi	x15,x14,8
    27dc:	00058413          	addi	x8,x11,0
    27e0:	00050993          	addi	x19,x10,0
    27e4:	12079063          	bne	x15,x0,2904 <__sflush_r+0x140>
    27e8:	000017b7          	lui	x15,0x1
    27ec:	80078793          	addi	x15,x15,-2048 # 800 <_puts_r+0xc0>
    27f0:	0045a683          	lw	x13,4(x11)
    27f4:	00f767b3          	or	x15,x14,x15
    27f8:	00f59623          	sh	x15,12(x11)
    27fc:	18d05a63          	bge	x0,x13,2990 <__sflush_r+0x1cc>
    2800:	02842803          	lw	x16,40(x8)
    2804:	0e080463          	beq	x16,x0,28ec <__sflush_r+0x128>
    2808:	00912a23          	sw	x9,20(x2)
    280c:	01371693          	slli	x13,x14,0x13
    2810:	0009a483          	lw	x9,0(x19)
    2814:	0009a023          	sw	x0,0(x19)
    2818:	1806c863          	blt	x13,x0,29a8 <__sflush_r+0x1e4>
    281c:	01c42583          	lw	x11,28(x8)
    2820:	00000613          	addi	x12,x0,0
    2824:	00100693          	addi	x13,x0,1
    2828:	00098513          	addi	x10,x19,0
    282c:	000800e7          	jalr	x1,0(x16)
    2830:	fff00793          	addi	x15,x0,-1
    2834:	00050613          	addi	x12,x10,0
    2838:	1af50a63          	beq	x10,x15,29ec <__sflush_r+0x228>
    283c:	00c41783          	lh	x15,12(x8)
    2840:	02842803          	lw	x16,40(x8)
    2844:	0047f793          	andi	x15,x15,4
    2848:	00078e63          	beq	x15,x0,2864 <__sflush_r+0xa0>
    284c:	00442703          	lw	x14,4(x8)
    2850:	03042783          	lw	x15,48(x8)
    2854:	40e60633          	sub	x12,x12,x14
    2858:	00078663          	beq	x15,x0,2864 <__sflush_r+0xa0>
    285c:	03c42783          	lw	x15,60(x8)
    2860:	40f60633          	sub	x12,x12,x15
    2864:	01c42583          	lw	x11,28(x8)
    2868:	00000693          	addi	x13,x0,0
    286c:	00098513          	addi	x10,x19,0
    2870:	000800e7          	jalr	x1,0(x16)
    2874:	fff00713          	addi	x14,x0,-1
    2878:	00c41783          	lh	x15,12(x8)
    287c:	12e51a63          	bne	x10,x14,29b0 <__sflush_r+0x1ec>
    2880:	0009a683          	lw	x13,0(x19)
    2884:	01d00713          	addi	x14,x0,29
    2888:	18d76063          	bltu	x14,x13,2a08 <__sflush_r+0x244>
    288c:	20400737          	lui	x14,0x20400
    2890:	00170713          	addi	x14,x14,1 # 20400001 <__heap_end+0x20000001>
    2894:	00d75733          	srl	x14,x14,x13
    2898:	00177713          	andi	x14,x14,1
    289c:	16070663          	beq	x14,x0,2a08 <__sflush_r+0x244>
    28a0:	01042603          	lw	x12,16(x8)
    28a4:	fffff737          	lui	x14,0xfffff
    28a8:	7ff70713          	addi	x14,x14,2047 # fffff7ff <__heap_end+0xffbff7ff>
    28ac:	00e7f733          	and	x14,x15,x14
    28b0:	00e41623          	sh	x14,12(x8)
    28b4:	00042223          	sw	x0,4(x8)
    28b8:	00c42023          	sw	x12,0(x8)
    28bc:	01379713          	slli	x14,x15,0x13
    28c0:	00075463          	bge	x14,x0,28c8 <__sflush_r+0x104>
    28c4:	10068863          	beq	x13,x0,29d4 <__sflush_r+0x210>
    28c8:	03042583          	lw	x11,48(x8)
    28cc:	0099a023          	sw	x9,0(x19)
    28d0:	10058a63          	beq	x11,x0,29e4 <__sflush_r+0x220>
    28d4:	04040793          	addi	x15,x8,64
    28d8:	00f58663          	beq	x11,x15,28e4 <__sflush_r+0x120>
    28dc:	00098513          	addi	x10,x19,0
    28e0:	a54ff0ef          	jal	x1,1b34 <_free_r>
    28e4:	01412483          	lw	x9,20(x2)
    28e8:	02042823          	sw	x0,48(x8)
    28ec:	01c12083          	lw	x1,28(x2)
    28f0:	01812403          	lw	x8,24(x2)
    28f4:	00c12983          	lw	x19,12(x2)
    28f8:	00000513          	addi	x10,x0,0
    28fc:	02010113          	addi	x2,x2,32
    2900:	00008067          	jalr	x0,0(x1)
    2904:	01212823          	sw	x18,16(x2)
    2908:	0105a903          	lw	x18,16(x11)
    290c:	08090a63          	beq	x18,x0,29a0 <__sflush_r+0x1dc>
    2910:	00912a23          	sw	x9,20(x2)
    2914:	0005a483          	lw	x9,0(x11)
    2918:	00377713          	andi	x14,x14,3
    291c:	0125a023          	sw	x18,0(x11)
    2920:	412484b3          	sub	x9,x9,x18
    2924:	00000793          	addi	x15,x0,0
    2928:	00071463          	bne	x14,x0,2930 <__sflush_r+0x16c>
    292c:	0145a783          	lw	x15,20(x11)
    2930:	00f42423          	sw	x15,8(x8)
    2934:	00904863          	blt	x0,x9,2944 <__sflush_r+0x180>
    2938:	0640006f          	jal	x0,299c <__sflush_r+0x1d8>
    293c:	00a90933          	add	x18,x18,x10
    2940:	04905e63          	bge	x0,x9,299c <__sflush_r+0x1d8>
    2944:	02442783          	lw	x15,36(x8)
    2948:	01c42583          	lw	x11,28(x8)
    294c:	00048693          	addi	x13,x9,0
    2950:	00090613          	addi	x12,x18,0
    2954:	00098513          	addi	x10,x19,0
    2958:	000780e7          	jalr	x1,0(x15)
    295c:	40a484b3          	sub	x9,x9,x10
    2960:	fca04ee3          	blt	x0,x10,293c <__sflush_r+0x178>
    2964:	00c41783          	lh	x15,12(x8)
    2968:	01012903          	lw	x18,16(x2)
    296c:	0407e793          	ori	x15,x15,64
    2970:	01c12083          	lw	x1,28(x2)
    2974:	00f41623          	sh	x15,12(x8)
    2978:	01812403          	lw	x8,24(x2)
    297c:	01412483          	lw	x9,20(x2)
    2980:	00c12983          	lw	x19,12(x2)
    2984:	fff00513          	addi	x10,x0,-1
    2988:	02010113          	addi	x2,x2,32
    298c:	00008067          	jalr	x0,0(x1)
    2990:	03c5a683          	lw	x13,60(x11)
    2994:	e6d046e3          	blt	x0,x13,2800 <__sflush_r+0x3c>
    2998:	f55ff06f          	jal	x0,28ec <__sflush_r+0x128>
    299c:	01412483          	lw	x9,20(x2)
    29a0:	01012903          	lw	x18,16(x2)
    29a4:	f49ff06f          	jal	x0,28ec <__sflush_r+0x128>
    29a8:	05042603          	lw	x12,80(x8)
    29ac:	e99ff06f          	jal	x0,2844 <__sflush_r+0x80>
    29b0:	01042683          	lw	x13,16(x8)
    29b4:	fffff737          	lui	x14,0xfffff
    29b8:	7ff70713          	addi	x14,x14,2047 # fffff7ff <__heap_end+0xffbff7ff>
    29bc:	00e7f733          	and	x14,x15,x14
    29c0:	00e41623          	sh	x14,12(x8)
    29c4:	00042223          	sw	x0,4(x8)
    29c8:	00d42023          	sw	x13,0(x8)
    29cc:	01379713          	slli	x14,x15,0x13
    29d0:	ee075ce3          	bge	x14,x0,28c8 <__sflush_r+0x104>
    29d4:	03042583          	lw	x11,48(x8)
    29d8:	04a42823          	sw	x10,80(x8)
    29dc:	0099a023          	sw	x9,0(x19)
    29e0:	ee059ae3          	bne	x11,x0,28d4 <__sflush_r+0x110>
    29e4:	01412483          	lw	x9,20(x2)
    29e8:	f05ff06f          	jal	x0,28ec <__sflush_r+0x128>
    29ec:	0009a783          	lw	x15,0(x19)
    29f0:	e40786e3          	beq	x15,x0,283c <__sflush_r+0x78>
    29f4:	01d00713          	addi	x14,x0,29
    29f8:	00e78c63          	beq	x15,x14,2a10 <__sflush_r+0x24c>
    29fc:	01600713          	addi	x14,x0,22
    2a00:	00e78863          	beq	x15,x14,2a10 <__sflush_r+0x24c>
    2a04:	00c41783          	lh	x15,12(x8)
    2a08:	0407e793          	ori	x15,x15,64
    2a0c:	f65ff06f          	jal	x0,2970 <__sflush_r+0x1ac>
    2a10:	0099a023          	sw	x9,0(x19)
    2a14:	01412483          	lw	x9,20(x2)
    2a18:	ed5ff06f          	jal	x0,28ec <__sflush_r+0x128>

00002a1c <_fflush_r>:
    2a1c:	fe010113          	addi	x2,x2,-32
    2a20:	00812c23          	sw	x8,24(x2)
    2a24:	00112e23          	sw	x1,28(x2)
    2a28:	00050413          	addi	x8,x10,0
    2a2c:	00050663          	beq	x10,x0,2a38 <_fflush_r+0x1c>
    2a30:	03452783          	lw	x15,52(x10)
    2a34:	02078a63          	beq	x15,x0,2a68 <_fflush_r+0x4c>
    2a38:	00c59783          	lh	x15,12(x11)
    2a3c:	00079c63          	bne	x15,x0,2a54 <_fflush_r+0x38>
    2a40:	01c12083          	lw	x1,28(x2)
    2a44:	01812403          	lw	x8,24(x2)
    2a48:	00000513          	addi	x10,x0,0
    2a4c:	02010113          	addi	x2,x2,32
    2a50:	00008067          	jalr	x0,0(x1)
    2a54:	00040513          	addi	x10,x8,0
    2a58:	01812403          	lw	x8,24(x2)
    2a5c:	01c12083          	lw	x1,28(x2)
    2a60:	02010113          	addi	x2,x2,32
    2a64:	d61ff06f          	jal	x0,27c4 <__sflush_r>
    2a68:	00b12623          	sw	x11,12(x2)
    2a6c:	8b8fe0ef          	jal	x1,b24 <__sinit>
    2a70:	00c12583          	lw	x11,12(x2)
    2a74:	fc5ff06f          	jal	x0,2a38 <_fflush_r+0x1c>

00002a78 <fflush>:
    2a78:	06050063          	beq	x10,x0,2ad8 <fflush+0x60>
    2a7c:	00050593          	addi	x11,x10,0
    2a80:	f141a503          	lw	x10,-236(x3) # 13024 <_impure_ptr>
    2a84:	00050663          	beq	x10,x0,2a90 <fflush+0x18>
    2a88:	03452783          	lw	x15,52(x10)
    2a8c:	00078c63          	beq	x15,x0,2aa4 <fflush+0x2c>
    2a90:	00c59783          	lh	x15,12(x11)
    2a94:	00079663          	bne	x15,x0,2aa0 <fflush+0x28>
    2a98:	00000513          	addi	x10,x0,0
    2a9c:	00008067          	jalr	x0,0(x1)
    2aa0:	d25ff06f          	jal	x0,27c4 <__sflush_r>
    2aa4:	fe010113          	addi	x2,x2,-32
    2aa8:	00b12623          	sw	x11,12(x2)
    2aac:	00a12423          	sw	x10,8(x2)
    2ab0:	00112e23          	sw	x1,28(x2)
    2ab4:	870fe0ef          	jal	x1,b24 <__sinit>
    2ab8:	00c12583          	lw	x11,12(x2)
    2abc:	00812503          	lw	x10,8(x2)
    2ac0:	00c59783          	lh	x15,12(x11)
    2ac4:	02079663          	bne	x15,x0,2af0 <fflush+0x78>
    2ac8:	01c12083          	lw	x1,28(x2)
    2acc:	00000513          	addi	x10,x0,0
    2ad0:	02010113          	addi	x2,x2,32
    2ad4:	00008067          	jalr	x0,0(x1)
    2ad8:	00010617          	auipc	x12,0x10
    2adc:	e3860613          	addi	x12,x12,-456 # 12910 <__sglue>
    2ae0:	00000597          	auipc	x11,0x0
    2ae4:	f3c58593          	addi	x11,x11,-196 # 2a1c <_fflush_r>
    2ae8:	c1818513          	addi	x10,x3,-1000 # 12d28 <_impure_data>
    2aec:	e68ff06f          	jal	x0,2154 <_fwalk_sglue>
    2af0:	01c12083          	lw	x1,28(x2)
    2af4:	02010113          	addi	x2,x2,32
    2af8:	ccdff06f          	jal	x0,27c4 <__sflush_r>

00002afc <__malloc_lock>:
    2afc:	00008067          	jalr	x0,0(x1)

00002b00 <__malloc_unlock>:
    2b00:	00008067          	jalr	x0,0(x1)

00002b04 <__libc_init_array>:
    2b04:	ff010113          	addi	x2,x2,-16
    2b08:	00812423          	sw	x8,8(x2)
    2b0c:	01212023          	sw	x18,0(x2)
    2b10:	00010797          	auipc	x15,0x10
    2b14:	dfc78793          	addi	x15,x15,-516 # 1290c <__init_array_start>
    2b18:	00010417          	auipc	x8,0x10
    2b1c:	df440413          	addi	x8,x8,-524 # 1290c <__init_array_start>
    2b20:	00112623          	sw	x1,12(x2)
    2b24:	00912223          	sw	x9,4(x2)
    2b28:	40878933          	sub	x18,x15,x8
    2b2c:	02878063          	beq	x15,x8,2b4c <__libc_init_array+0x48>
    2b30:	40295913          	srai	x18,x18,0x2
    2b34:	00000493          	addi	x9,x0,0
    2b38:	00042783          	lw	x15,0(x8)
    2b3c:	00148493          	addi	x9,x9,1
    2b40:	00440413          	addi	x8,x8,4
    2b44:	000780e7          	jalr	x1,0(x15)
    2b48:	ff24e8e3          	bltu	x9,x18,2b38 <__libc_init_array+0x34>
    2b4c:	00010797          	auipc	x15,0x10
    2b50:	dc478793          	addi	x15,x15,-572 # 12910 <__sglue>
    2b54:	00010417          	auipc	x8,0x10
    2b58:	db840413          	addi	x8,x8,-584 # 1290c <__init_array_start>
    2b5c:	40878933          	sub	x18,x15,x8
    2b60:	40295913          	srai	x18,x18,0x2
    2b64:	00878e63          	beq	x15,x8,2b80 <__libc_init_array+0x7c>
    2b68:	00000493          	addi	x9,x0,0
    2b6c:	00042783          	lw	x15,0(x8)
    2b70:	00148493          	addi	x9,x9,1
    2b74:	00440413          	addi	x8,x8,4
    2b78:	000780e7          	jalr	x1,0(x15)
    2b7c:	ff24e8e3          	bltu	x9,x18,2b6c <__libc_init_array+0x68>
    2b80:	00c12083          	lw	x1,12(x2)
    2b84:	00812403          	lw	x8,8(x2)
    2b88:	00412483          	lw	x9,4(x2)
    2b8c:	00012903          	lw	x18,0(x2)
    2b90:	01010113          	addi	x2,x2,16
    2b94:	00008067          	jalr	x0,0(x1)

00002b98 <exit>:
    2b98:	ff010113          	addi	x2,x2,-16
    2b9c:	00000593          	addi	x11,x0,0
    2ba0:	00812423          	sw	x8,8(x2)
    2ba4:	00112623          	sw	x1,12(x2)
    2ba8:	00050413          	addi	x8,x10,0
    2bac:	2ad060ef          	jal	x1,9658 <__call_exitprocs>
    2bb0:	f1c1a783          	lw	x15,-228(x3) # 1302c <__stdio_exit_handler>
    2bb4:	00078463          	beq	x15,x0,2bbc <exit+0x24>
    2bb8:	000780e7          	jalr	x1,0(x15)
    2bbc:	00040513          	addi	x10,x8,0
    2bc0:	f54fd0ef          	jal	x1,314 <_exit>

00002bc4 <atexit>:
    2bc4:	00050593          	addi	x11,x10,0
    2bc8:	00000693          	addi	x13,x0,0
    2bcc:	00000613          	addi	x12,x0,0
    2bd0:	00000513          	addi	x10,x0,0
    2bd4:	4b50606f          	jal	x0,9888 <__register_exitproc>

00002bd8 <__swsetup_r>:
    2bd8:	ff010113          	addi	x2,x2,-16
    2bdc:	00812423          	sw	x8,8(x2)
    2be0:	00912223          	sw	x9,4(x2)
    2be4:	00112623          	sw	x1,12(x2)
    2be8:	f141a783          	lw	x15,-236(x3) # 13024 <_impure_ptr>
    2bec:	00050493          	addi	x9,x10,0
    2bf0:	00058413          	addi	x8,x11,0
    2bf4:	00078663          	beq	x15,x0,2c00 <__swsetup_r+0x28>
    2bf8:	0347a703          	lw	x14,52(x15)
    2bfc:	0e070e63          	beq	x14,x0,2cf8 <__swsetup_r+0x120>
    2c00:	00c41783          	lh	x15,12(x8)
    2c04:	0087f713          	andi	x14,x15,8
    2c08:	04070063          	beq	x14,x0,2c48 <__swsetup_r+0x70>
    2c0c:	01042703          	lw	x14,16(x8)
    2c10:	04070c63          	beq	x14,x0,2c68 <__swsetup_r+0x90>
    2c14:	0017f693          	andi	x13,x15,1
    2c18:	06068c63          	beq	x13,x0,2c90 <__swsetup_r+0xb8>
    2c1c:	01442683          	lw	x13,20(x8)
    2c20:	00042423          	sw	x0,8(x8)
    2c24:	00000513          	addi	x10,x0,0
    2c28:	40d006b3          	sub	x13,x0,x13
    2c2c:	00d42c23          	sw	x13,24(x8)
    2c30:	06070e63          	beq	x14,x0,2cac <__swsetup_r+0xd4>
    2c34:	00c12083          	lw	x1,12(x2)
    2c38:	00812403          	lw	x8,8(x2)
    2c3c:	00412483          	lw	x9,4(x2)
    2c40:	01010113          	addi	x2,x2,16
    2c44:	00008067          	jalr	x0,0(x1)
    2c48:	0107f713          	andi	x14,x15,16
    2c4c:	0a070c63          	beq	x14,x0,2d04 <__swsetup_r+0x12c>
    2c50:	0047f713          	andi	x14,x15,4
    2c54:	06071863          	bne	x14,x0,2cc4 <__swsetup_r+0xec>
    2c58:	01042703          	lw	x14,16(x8)
    2c5c:	0087e793          	ori	x15,x15,8
    2c60:	00f41623          	sh	x15,12(x8)
    2c64:	fa0718e3          	bne	x14,x0,2c14 <__swsetup_r+0x3c>
    2c68:	2807f693          	andi	x13,x15,640
    2c6c:	20000613          	addi	x12,x0,512
    2c70:	fac682e3          	beq	x13,x12,2c14 <__swsetup_r+0x3c>
    2c74:	00048513          	addi	x10,x9,0
    2c78:	00040593          	addi	x11,x8,0
    2c7c:	7d9060ef          	jal	x1,9c54 <__smakebuf_r>
    2c80:	00c41783          	lh	x15,12(x8)
    2c84:	01042703          	lw	x14,16(x8)
    2c88:	0017f693          	andi	x13,x15,1
    2c8c:	f80698e3          	bne	x13,x0,2c1c <__swsetup_r+0x44>
    2c90:	0027f693          	andi	x13,x15,2
    2c94:	00000613          	addi	x12,x0,0
    2c98:	00069463          	bne	x13,x0,2ca0 <__swsetup_r+0xc8>
    2c9c:	01442603          	lw	x12,20(x8)
    2ca0:	00c42423          	sw	x12,8(x8)
    2ca4:	00000513          	addi	x10,x0,0
    2ca8:	f80716e3          	bne	x14,x0,2c34 <__swsetup_r+0x5c>
    2cac:	0807f713          	andi	x14,x15,128
    2cb0:	f80702e3          	beq	x14,x0,2c34 <__swsetup_r+0x5c>
    2cb4:	0407e793          	ori	x15,x15,64
    2cb8:	00f41623          	sh	x15,12(x8)
    2cbc:	fff00513          	addi	x10,x0,-1
    2cc0:	f75ff06f          	jal	x0,2c34 <__swsetup_r+0x5c>
    2cc4:	03042583          	lw	x11,48(x8)
    2cc8:	00058e63          	beq	x11,x0,2ce4 <__swsetup_r+0x10c>
    2ccc:	04040713          	addi	x14,x8,64
    2cd0:	00e58863          	beq	x11,x14,2ce0 <__swsetup_r+0x108>
    2cd4:	00048513          	addi	x10,x9,0
    2cd8:	e5dfe0ef          	jal	x1,1b34 <_free_r>
    2cdc:	00c41783          	lh	x15,12(x8)
    2ce0:	02042823          	sw	x0,48(x8)
    2ce4:	01042703          	lw	x14,16(x8)
    2ce8:	fdb7f793          	andi	x15,x15,-37
    2cec:	00042223          	sw	x0,4(x8)
    2cf0:	00e42023          	sw	x14,0(x8)
    2cf4:	f69ff06f          	jal	x0,2c5c <__swsetup_r+0x84>
    2cf8:	00078513          	addi	x10,x15,0
    2cfc:	e29fd0ef          	jal	x1,b24 <__sinit>
    2d00:	f01ff06f          	jal	x0,2c00 <__swsetup_r+0x28>
    2d04:	00900713          	addi	x14,x0,9
    2d08:	0407e793          	ori	x15,x15,64
    2d0c:	00e4a023          	sw	x14,0(x9)
    2d10:	00f41623          	sh	x15,12(x8)
    2d14:	fff00513          	addi	x10,x0,-1
    2d18:	f1dff06f          	jal	x0,2c34 <__swsetup_r+0x5c>

00002d1c <strlen>:
    2d1c:	00357793          	andi	x15,x10,3
    2d20:	00050713          	addi	x14,x10,0
    2d24:	04079c63          	bne	x15,x0,2d7c <strlen+0x60>
    2d28:	7f7f86b7          	lui	x13,0x7f7f8
    2d2c:	f7f68693          	addi	x13,x13,-129 # 7f7f7f7f <__heap_end+0x7f3f7f7f>
    2d30:	fff00593          	addi	x11,x0,-1
    2d34:	00072603          	lw	x12,0(x14)
    2d38:	00470713          	addi	x14,x14,4
    2d3c:	00d677b3          	and	x15,x12,x13
    2d40:	00d787b3          	add	x15,x15,x13
    2d44:	00c7e7b3          	or	x15,x15,x12
    2d48:	00d7e7b3          	or	x15,x15,x13
    2d4c:	feb784e3          	beq	x15,x11,2d34 <strlen+0x18>
    2d50:	ffc74683          	lbu	x13,-4(x14)
    2d54:	40a707b3          	sub	x15,x14,x10
    2d58:	04068463          	beq	x13,x0,2da0 <strlen+0x84>
    2d5c:	ffd74683          	lbu	x13,-3(x14)
    2d60:	02068c63          	beq	x13,x0,2d98 <strlen+0x7c>
    2d64:	ffe74503          	lbu	x10,-2(x14)
    2d68:	00a03533          	sltu	x10,x0,x10
    2d6c:	00f50533          	add	x10,x10,x15
    2d70:	ffe50513          	addi	x10,x10,-2
    2d74:	00008067          	jalr	x0,0(x1)
    2d78:	fa0688e3          	beq	x13,x0,2d28 <strlen+0xc>
    2d7c:	00074783          	lbu	x15,0(x14)
    2d80:	00170713          	addi	x14,x14,1
    2d84:	00377693          	andi	x13,x14,3
    2d88:	fe0798e3          	bne	x15,x0,2d78 <strlen+0x5c>
    2d8c:	40a70733          	sub	x14,x14,x10
    2d90:	fff70513          	addi	x10,x14,-1
    2d94:	00008067          	jalr	x0,0(x1)
    2d98:	ffd78513          	addi	x10,x15,-3
    2d9c:	00008067          	jalr	x0,0(x1)
    2da0:	ffc78513          	addi	x10,x15,-4
    2da4:	00008067          	jalr	x0,0(x1)

00002da8 <__sread>:
    2da8:	ff010113          	addi	x2,x2,-16
    2dac:	00812423          	sw	x8,8(x2)
    2db0:	00058413          	addi	x8,x11,0
    2db4:	00e59583          	lh	x11,14(x11)
    2db8:	00112623          	sw	x1,12(x2)
    2dbc:	61d060ef          	jal	x1,9bd8 <_read_r>
    2dc0:	02054063          	blt	x10,x0,2de0 <__sread+0x38>
    2dc4:	05042783          	lw	x15,80(x8)
    2dc8:	00c12083          	lw	x1,12(x2)
    2dcc:	00a787b3          	add	x15,x15,x10
    2dd0:	04f42823          	sw	x15,80(x8)
    2dd4:	00812403          	lw	x8,8(x2)
    2dd8:	01010113          	addi	x2,x2,16
    2ddc:	00008067          	jalr	x0,0(x1)
    2de0:	00c45783          	lhu	x15,12(x8)
    2de4:	fffff737          	lui	x14,0xfffff
    2de8:	fff70713          	addi	x14,x14,-1 # ffffefff <__heap_end+0xffbfefff>
    2dec:	00e7f7b3          	and	x15,x15,x14
    2df0:	00c12083          	lw	x1,12(x2)
    2df4:	00f41623          	sh	x15,12(x8)
    2df8:	00812403          	lw	x8,8(x2)
    2dfc:	01010113          	addi	x2,x2,16
    2e00:	00008067          	jalr	x0,0(x1)

00002e04 <__seofread>:
    2e04:	00000513          	addi	x10,x0,0
    2e08:	00008067          	jalr	x0,0(x1)

00002e0c <__swrite>:
    2e0c:	00c59783          	lh	x15,12(x11)
    2e10:	fe010113          	addi	x2,x2,-32
    2e14:	00812c23          	sw	x8,24(x2)
    2e18:	00912a23          	sw	x9,20(x2)
    2e1c:	01212823          	sw	x18,16(x2)
    2e20:	01312623          	sw	x19,12(x2)
    2e24:	00112e23          	sw	x1,28(x2)
    2e28:	1007f713          	andi	x14,x15,256
    2e2c:	00058413          	addi	x8,x11,0
    2e30:	00060913          	addi	x18,x12,0
    2e34:	00068993          	addi	x19,x13,0
    2e38:	00050493          	addi	x9,x10,0
    2e3c:	04071063          	bne	x14,x0,2e7c <__swrite+0x70>
    2e40:	fffff737          	lui	x14,0xfffff
    2e44:	fff70713          	addi	x14,x14,-1 # ffffefff <__heap_end+0xffbfefff>
    2e48:	00e7f7b3          	and	x15,x15,x14
    2e4c:	00e41583          	lh	x11,14(x8)
    2e50:	00f41623          	sh	x15,12(x8)
    2e54:	01812403          	lw	x8,24(x2)
    2e58:	01c12083          	lw	x1,28(x2)
    2e5c:	00098693          	addi	x13,x19,0
    2e60:	00090613          	addi	x12,x18,0
    2e64:	00c12983          	lw	x19,12(x2)
    2e68:	01012903          	lw	x18,16(x2)
    2e6c:	00048513          	addi	x10,x9,0
    2e70:	01412483          	lw	x9,20(x2)
    2e74:	02010113          	addi	x2,x2,32
    2e78:	1950606f          	jal	x0,980c <_write_r>
    2e7c:	00e59583          	lh	x11,14(x11)
    2e80:	00200693          	addi	x13,x0,2
    2e84:	00000613          	addi	x12,x0,0
    2e88:	109060ef          	jal	x1,9790 <_lseek_r>
    2e8c:	00c41783          	lh	x15,12(x8)
    2e90:	fb1ff06f          	jal	x0,2e40 <__swrite+0x34>

00002e94 <__sseek>:
    2e94:	ff010113          	addi	x2,x2,-16
    2e98:	00812423          	sw	x8,8(x2)
    2e9c:	00058413          	addi	x8,x11,0
    2ea0:	00e59583          	lh	x11,14(x11)
    2ea4:	00112623          	sw	x1,12(x2)
    2ea8:	0e9060ef          	jal	x1,9790 <_lseek_r>
    2eac:	fff00713          	addi	x14,x0,-1
    2eb0:	00c41783          	lh	x15,12(x8)
    2eb4:	02e50263          	beq	x10,x14,2ed8 <__sseek+0x44>
    2eb8:	00001737          	lui	x14,0x1
    2ebc:	00e7e7b3          	or	x15,x15,x14
    2ec0:	00c12083          	lw	x1,12(x2)
    2ec4:	04a42823          	sw	x10,80(x8)
    2ec8:	00f41623          	sh	x15,12(x8)
    2ecc:	00812403          	lw	x8,8(x2)
    2ed0:	01010113          	addi	x2,x2,16
    2ed4:	00008067          	jalr	x0,0(x1)
    2ed8:	fffff737          	lui	x14,0xfffff
    2edc:	fff70713          	addi	x14,x14,-1 # ffffefff <__heap_end+0xffbfefff>
    2ee0:	00e7f7b3          	and	x15,x15,x14
    2ee4:	00c12083          	lw	x1,12(x2)
    2ee8:	00f41623          	sh	x15,12(x8)
    2eec:	00812403          	lw	x8,8(x2)
    2ef0:	01010113          	addi	x2,x2,16
    2ef4:	00008067          	jalr	x0,0(x1)

00002ef8 <__sclose>:
    2ef8:	00e59583          	lh	x11,14(x11)
    2efc:	2250606f          	jal	x0,9920 <_close_r>

00002f00 <_vfprintf_r>:
    2f00:	e2010113          	addi	x2,x2,-480
    2f04:	1c112e23          	sw	x1,476(x2)
    2f08:	1c812c23          	sw	x8,472(x2)
    2f0c:	00b12423          	sw	x11,8(x2)
    2f10:	00c12823          	sw	x12,16(x2)
    2f14:	00d12c23          	sw	x13,24(x2)
    2f18:	00050413          	addi	x8,x10,0
    2f1c:	00a12623          	sw	x10,12(x2)
    2f20:	6a0070ef          	jal	x1,a5c0 <_localeconv_r>
    2f24:	00052783          	lw	x15,0(x10)
    2f28:	00078513          	addi	x10,x15,0
    2f2c:	02f12823          	sw	x15,48(x2)
    2f30:	dedff0ef          	jal	x1,2d1c <strlen>
    2f34:	02a12623          	sw	x10,44(x2)
    2f38:	0e012023          	sw	x0,224(x2)
    2f3c:	0e012223          	sw	x0,228(x2)
    2f40:	0e012423          	sw	x0,232(x2)
    2f44:	0e012623          	sw	x0,236(x2)
    2f48:	01012783          	lw	x15,16(x2)
    2f4c:	00040863          	beq	x8,x0,2f5c <_vfprintf_r+0x5c>
    2f50:	03442703          	lw	x14,52(x8)
    2f54:	00071463          	bne	x14,x0,2f5c <_vfprintf_r+0x5c>
    2f58:	0a10106f          	jal	x0,47f8 <_vfprintf_r+0x18f8>
    2f5c:	00812503          	lw	x10,8(x2)
    2f60:	000025b7          	lui	x11,0x2
    2f64:	00c51703          	lh	x14,12(x10)
    2f68:	01271693          	slli	x13,x14,0x12
    2f6c:	0206c063          	blt	x13,x0,2f8c <_vfprintf_r+0x8c>
    2f70:	06452683          	lw	x13,100(x10)
    2f74:	ffffe637          	lui	x12,0xffffe
    2f78:	fff60613          	addi	x12,x12,-1 # ffffdfff <__heap_end+0xffbfdfff>
    2f7c:	00b76733          	or	x14,x14,x11
    2f80:	00c6f6b3          	and	x13,x13,x12
    2f84:	00e51623          	sh	x14,12(x10)
    2f88:	06d52223          	sw	x13,100(x10)
    2f8c:	00877693          	andi	x13,x14,8
    2f90:	30068863          	beq	x13,x0,32a0 <_vfprintf_r+0x3a0>
    2f94:	00812683          	lw	x13,8(x2)
    2f98:	0106a683          	lw	x13,16(x13)
    2f9c:	30068263          	beq	x13,x0,32a0 <_vfprintf_r+0x3a0>
    2fa0:	01a77713          	andi	x14,x14,26
    2fa4:	00a00693          	addi	x13,x0,10
    2fa8:	32d70463          	beq	x14,x13,32d0 <_vfprintf_r+0x3d0>
    2fac:	1c912a23          	sw	x9,468(x2)
    2fb0:	1d212823          	sw	x18,464(x2)
    2fb4:	1d312623          	sw	x19,460(x2)
    2fb8:	1d512223          	sw	x21,452(x2)
    2fbc:	1b912a23          	sw	x25,436(x2)
    2fc0:	1d412423          	sw	x20,456(x2)
    2fc4:	1d612023          	sw	x22,448(x2)
    2fc8:	1b712e23          	sw	x23,444(x2)
    2fcc:	1b812c23          	sw	x24,440(x2)
    2fd0:	1ba12823          	sw	x26,432(x2)
    2fd4:	1bb12623          	sw	x27,428(x2)
    2fd8:	00078a93          	addi	x21,x15,0
    2fdc:	000ac783          	lbu	x15,0(x21)
    2fe0:	0fc10993          	addi	x19,x2,252
    2fe4:	0c012e23          	sw	x0,220(x2)
    2fe8:	0c012c23          	sw	x0,216(x2)
    2fec:	0d312a23          	sw	x19,212(x2)
    2ff0:	02012023          	sw	x0,32(x2)
    2ff4:	02012a23          	sw	x0,52(x2)
    2ff8:	02012e23          	sw	x0,60(x2)
    2ffc:	04012223          	sw	x0,68(x2)
    3000:	04012423          	sw	x0,72(x2)
    3004:	04012023          	sw	x0,64(x2)
    3008:	00012823          	sw	x0,16(x2)
    300c:	02500413          	addi	x8,x0,37
    3010:	00700c93          	addi	x25,x0,7
    3014:	01000493          	addi	x9,x0,16
    3018:	00098913          	addi	x18,x19,0
    301c:	22078263          	beq	x15,x0,3240 <_vfprintf_r+0x340>
    3020:	000a8a13          	addi	x20,x21,0
    3024:	2e878463          	beq	x15,x8,330c <_vfprintf_r+0x40c>
    3028:	001a4783          	lbu	x15,1(x20)
    302c:	001a0a13          	addi	x20,x20,1
    3030:	fe079ae3          	bne	x15,x0,3024 <_vfprintf_r+0x124>
    3034:	415a0b33          	sub	x22,x20,x21
    3038:	215a0463          	beq	x20,x21,3240 <_vfprintf_r+0x340>
    303c:	0dc12703          	lw	x14,220(x2)
    3040:	0d812783          	lw	x15,216(x2)
    3044:	01592023          	sw	x21,0(x18)
    3048:	01670733          	add	x14,x14,x22
    304c:	00178793          	addi	x15,x15,1
    3050:	01692223          	sw	x22,4(x18)
    3054:	0ce12e23          	sw	x14,220(x2)
    3058:	0cf12c23          	sw	x15,216(x2)
    305c:	00890913          	addi	x18,x18,8
    3060:	2afcce63          	blt	x25,x15,331c <_vfprintf_r+0x41c>
    3064:	01012703          	lw	x14,16(x2)
    3068:	000a4783          	lbu	x15,0(x20)
    306c:	01670733          	add	x14,x14,x22
    3070:	00e12823          	sw	x14,16(x2)
    3074:	1c078663          	beq	x15,x0,3240 <_vfprintf_r+0x340>
    3078:	001a0e13          	addi	x28,x20,1
    307c:	001a4b03          	lbu	x22,1(x20)
    3080:	0a010ba3          	sb	x0,183(x2)
    3084:	fff00a13          	addi	x20,x0,-1
    3088:	00000d13          	addi	x26,x0,0
    308c:	00000c13          	addi	x24,x0,0
    3090:	05a00d93          	addi	x27,x0,90
    3094:	000e0b93          	addi	x23,x28,0
    3098:	001b8b93          	addi	x23,x23,1
    309c:	fe0b0793          	addi	x15,x22,-32
    30a0:	04fdea63          	bltu	x27,x15,30f4 <_vfprintf_r+0x1f4>
    30a4:	0000f717          	auipc	x14,0xf
    30a8:	0d870713          	addi	x14,x14,216 # 1217c <no_exception_handler_msg+0xb5>
    30ac:	00279793          	slli	x15,x15,0x2
    30b0:	00e787b3          	add	x15,x15,x14
    30b4:	0007a783          	lw	x15,0(x15)
    30b8:	00e787b3          	add	x15,x15,x14
    30bc:	00078067          	jalr	x0,0(x15)
    30c0:	fd0b0713          	addi	x14,x22,-48
    30c4:	00000d13          	addi	x26,x0,0
    30c8:	00900693          	addi	x13,x0,9
    30cc:	002d1793          	slli	x15,x26,0x2
    30d0:	000bcb03          	lbu	x22,0(x23)
    30d4:	01a787b3          	add	x15,x15,x26
    30d8:	00179793          	slli	x15,x15,0x1
    30dc:	00f70d33          	add	x26,x14,x15
    30e0:	fd0b0713          	addi	x14,x22,-48
    30e4:	001b8b93          	addi	x23,x23,1
    30e8:	fee6f2e3          	bgeu	x13,x14,30cc <_vfprintf_r+0x1cc>
    30ec:	fe0b0793          	addi	x15,x22,-32
    30f0:	fafdfae3          	bgeu	x27,x15,30a4 <_vfprintf_r+0x1a4>
    30f4:	000b8e13          	addi	x28,x23,0
    30f8:	140b0463          	beq	x22,x0,3240 <_vfprintf_r+0x340>
    30fc:	00100d93          	addi	x27,x0,1
    3100:	13610e23          	sb	x22,316(x2)
    3104:	0a010ba3          	sb	x0,183(x2)
    3108:	000d8713          	addi	x14,x27,0
    310c:	13c10a93          	addi	x21,x2,316
    3110:	00012a23          	sw	x0,20(x2)
    3114:	00000a13          	addi	x20,x0,0
    3118:	02012223          	sw	x0,36(x2)
    311c:	02012423          	sw	x0,40(x2)
    3120:	00012e23          	sw	x0,28(x2)
    3124:	002c7f13          	andi	x30,x24,2
    3128:	000f0463          	beq	x30,x0,3130 <_vfprintf_r+0x230>
    312c:	002d8d93          	addi	x27,x27,2
    3130:	084c7e93          	andi	x29,x24,132
    3134:	0dc12603          	lw	x12,220(x2)
    3138:	000e9663          	bne	x29,x0,3144 <_vfprintf_r+0x244>
    313c:	41bd07b3          	sub	x15,x26,x27
    3140:	58f048e3          	blt	x0,x15,3ed0 <_vfprintf_r+0xfd0>
    3144:	0b714783          	lbu	x15,183(x2)
    3148:	02078863          	beq	x15,x0,3178 <_vfprintf_r+0x278>
    314c:	0d812783          	lw	x15,216(x2)
    3150:	00160613          	addi	x12,x12,1
    3154:	0b710593          	addi	x11,x2,183
    3158:	00178793          	addi	x15,x15,1
    315c:	00100513          	addi	x10,x0,1
    3160:	00b92023          	sw	x11,0(x18)
    3164:	00a92223          	sw	x10,4(x18)
    3168:	0cc12e23          	sw	x12,220(x2)
    316c:	0cf12c23          	sw	x15,216(x2)
    3170:	00890913          	addi	x18,x18,8
    3174:	2efcc063          	blt	x25,x15,3454 <_vfprintf_r+0x554>
    3178:	020f0863          	beq	x30,x0,31a8 <_vfprintf_r+0x2a8>
    317c:	0d812783          	lw	x15,216(x2)
    3180:	00260613          	addi	x12,x12,2
    3184:	0b810513          	addi	x10,x2,184
    3188:	00178793          	addi	x15,x15,1
    318c:	00200593          	addi	x11,x0,2
    3190:	00a92023          	sw	x10,0(x18)
    3194:	00b92223          	sw	x11,4(x18)
    3198:	0cc12e23          	sw	x12,220(x2)
    319c:	0cf12c23          	sw	x15,216(x2)
    31a0:	00890913          	addi	x18,x18,8
    31a4:	64fcc6e3          	blt	x25,x15,3ff0 <_vfprintf_r+0x10f0>
    31a8:	08000793          	addi	x15,x0,128
    31ac:	30fe80e3          	beq	x29,x15,3cac <_vfprintf_r+0xdac>
    31b0:	40ea0a33          	sub	x20,x20,x14
    31b4:	414040e3          	blt	x0,x20,3db4 <_vfprintf_r+0xeb4>
    31b8:	100c7793          	andi	x15,x24,256
    31bc:	18079ee3          	bne	x15,x0,3b58 <_vfprintf_r+0xc58>
    31c0:	0d812783          	lw	x15,216(x2)
    31c4:	00e60633          	add	x12,x12,x14
    31c8:	0cc12e23          	sw	x12,220(x2)
    31cc:	00178793          	addi	x15,x15,1
    31d0:	01592023          	sw	x21,0(x18)
    31d4:	00e92223          	sw	x14,4(x18)
    31d8:	0cf12c23          	sw	x15,216(x2)
    31dc:	3cfcc863          	blt	x25,x15,35ac <_vfprintf_r+0x6ac>
    31e0:	00890913          	addi	x18,x18,8
    31e4:	004c7313          	andi	x6,x24,4
    31e8:	00030663          	beq	x6,x0,31f4 <_vfprintf_r+0x2f4>
    31ec:	41bd0a33          	sub	x20,x26,x27
    31f0:	63404ce3          	blt	x0,x20,4028 <_vfprintf_r+0x1128>
    31f4:	000d0893          	addi	x17,x26,0
    31f8:	01bd5463          	bge	x26,x27,3200 <_vfprintf_r+0x300>
    31fc:	000d8893          	addi	x17,x27,0
    3200:	01012783          	lw	x15,16(x2)
    3204:	011787b3          	add	x15,x15,x17
    3208:	00f12823          	sw	x15,16(x2)
    320c:	480614e3          	bne	x12,x0,3e94 <_vfprintf_r+0xf94>
    3210:	01412783          	lw	x15,20(x2)
    3214:	0c012c23          	sw	x0,216(x2)
    3218:	00078c63          	beq	x15,x0,3230 <_vfprintf_r+0x330>
    321c:	01412583          	lw	x11,20(x2)
    3220:	00c12503          	lw	x10,12(x2)
    3224:	01c12e23          	sw	x28,28(x2)
    3228:	90dfe0ef          	jal	x1,1b34 <_free_r>
    322c:	01c12e03          	lw	x28,28(x2)
    3230:	00098913          	addi	x18,x19,0
    3234:	000e0a93          	addi	x21,x28,0
    3238:	000ac783          	lbu	x15,0(x21)
    323c:	de0792e3          	bne	x15,x0,3020 <_vfprintf_r+0x120>
    3240:	0dc12783          	lw	x15,220(x2)
    3244:	00078463          	beq	x15,x0,324c <_vfprintf_r+0x34c>
    3248:	60d0106f          	jal	x0,5054 <_vfprintf_r+0x2154>
    324c:	00812783          	lw	x15,8(x2)
    3250:	1d412483          	lw	x9,468(x2)
    3254:	1d012903          	lw	x18,464(x2)
    3258:	00c7d783          	lhu	x15,12(x15)
    325c:	1cc12983          	lw	x19,460(x2)
    3260:	1c812a03          	lw	x20,456(x2)
    3264:	0407f793          	andi	x15,x15,64
    3268:	1c412a83          	lw	x21,452(x2)
    326c:	1c012b03          	lw	x22,448(x2)
    3270:	1bc12b83          	lw	x23,444(x2)
    3274:	1b812c03          	lw	x24,440(x2)
    3278:	1b412c83          	lw	x25,436(x2)
    327c:	1b012d03          	lw	x26,432(x2)
    3280:	1ac12d83          	lw	x27,428(x2)
    3284:	00078463          	beq	x15,x0,328c <_vfprintf_r+0x38c>
    3288:	4600206f          	jal	x0,56e8 <_vfprintf_r+0x27e8>
    328c:	1dc12083          	lw	x1,476(x2)
    3290:	1d812403          	lw	x8,472(x2)
    3294:	01012503          	lw	x10,16(x2)
    3298:	1e010113          	addi	x2,x2,480
    329c:	00008067          	jalr	x0,0(x1)
    32a0:	00812583          	lw	x11,8(x2)
    32a4:	00c12503          	lw	x10,12(x2)
    32a8:	00f12823          	sw	x15,16(x2)
    32ac:	92dff0ef          	jal	x1,2bd8 <__swsetup_r>
    32b0:	01012783          	lw	x15,16(x2)
    32b4:	00050463          	beq	x10,x0,32bc <_vfprintf_r+0x3bc>
    32b8:	4300206f          	jal	x0,56e8 <_vfprintf_r+0x27e8>
    32bc:	00812703          	lw	x14,8(x2)
    32c0:	00a00693          	addi	x13,x0,10
    32c4:	00c71703          	lh	x14,12(x14)
    32c8:	01a77713          	andi	x14,x14,26
    32cc:	ced710e3          	bne	x14,x13,2fac <_vfprintf_r+0xac>
    32d0:	00812703          	lw	x14,8(x2)
    32d4:	00e71703          	lh	x14,14(x14)
    32d8:	cc074ae3          	blt	x14,x0,2fac <_vfprintf_r+0xac>
    32dc:	01812683          	lw	x13,24(x2)
    32e0:	00812583          	lw	x11,8(x2)
    32e4:	00c12503          	lw	x10,12(x2)
    32e8:	00078613          	addi	x12,x15,0
    32ec:	7e4020ef          	jal	x1,5ad0 <__sbprintf>
    32f0:	00a12823          	sw	x10,16(x2)
    32f4:	f99ff06f          	jal	x0,328c <_vfprintf_r+0x38c>
    32f8:	000bcb03          	lbu	x22,0(x23)
    32fc:	d9dff06f          	jal	x0,3098 <_vfprintf_r+0x198>
    3300:	000bcb03          	lbu	x22,0(x23)
    3304:	020c6c13          	ori	x24,x24,32
    3308:	d91ff06f          	jal	x0,3098 <_vfprintf_r+0x198>
    330c:	415a0b33          	sub	x22,x20,x21
    3310:	d35a16e3          	bne	x20,x21,303c <_vfprintf_r+0x13c>
    3314:	000a4783          	lbu	x15,0(x20)
    3318:	d5dff06f          	jal	x0,3074 <_vfprintf_r+0x174>
    331c:	00812583          	lw	x11,8(x2)
    3320:	00c12503          	lw	x10,12(x2)
    3324:	0d410613          	addi	x12,x2,212
    3328:	591020ef          	jal	x1,60b8 <__sprint_r>
    332c:	f20510e3          	bne	x10,x0,324c <_vfprintf_r+0x34c>
    3330:	00098913          	addi	x18,x19,0
    3334:	d31ff06f          	jal	x0,3064 <_vfprintf_r+0x164>
    3338:	008c7793          	andi	x15,x24,8
    333c:	000b8e13          	addi	x28,x23,0
    3340:	00078463          	beq	x15,x0,3348 <_vfprintf_r+0x448>
    3344:	0140106f          	jal	x0,4358 <_vfprintf_r+0x1458>
    3348:	01812783          	lw	x15,24(x2)
    334c:	0a010513          	addi	x10,x2,160
    3350:	01712a23          	sw	x23,20(x2)
    3354:	00778793          	addi	x15,x15,7
    3358:	ff87f793          	andi	x15,x15,-8
    335c:	0047a603          	lw	x12,4(x15)
    3360:	0007a583          	lw	x11,0(x15)
    3364:	00878793          	addi	x15,x15,8
    3368:	00f12c23          	sw	x15,24(x2)
    336c:	6000e0ef          	jal	x1,1196c <__extenddftf2>
    3370:	0a012603          	lw	x12,160(x2)
    3374:	0a412683          	lw	x13,164(x2)
    3378:	0a812703          	lw	x14,168(x2)
    337c:	0ac12783          	lw	x15,172(x2)
    3380:	01412e03          	lw	x28,20(x2)
    3384:	0e010513          	addi	x10,x2,224
    3388:	01c12a23          	sw	x28,20(x2)
    338c:	0ef12623          	sw	x15,236(x2)
    3390:	0ec12023          	sw	x12,224(x2)
    3394:	0ed12223          	sw	x13,228(x2)
    3398:	0ee12423          	sw	x14,232(x2)
    339c:	2d9020ef          	jal	x1,5e74 <_ldcheck>
    33a0:	0aa12e23          	sw	x10,188(x2)
    33a4:	00200793          	addi	x15,x0,2
    33a8:	01412e03          	lw	x28,20(x2)
    33ac:	00f51463          	bne	x10,x15,33b4 <_vfprintf_r+0x4b4>
    33b0:	4b80106f          	jal	x0,4868 <_vfprintf_r+0x1968>
    33b4:	00100793          	addi	x15,x0,1
    33b8:	00f51463          	bne	x10,x15,33c0 <_vfprintf_r+0x4c0>
    33bc:	6700106f          	jal	x0,4a2c <_vfprintf_r+0x1b2c>
    33c0:	06100713          	addi	x14,x0,97
    33c4:	00eb1463          	bne	x22,x14,33cc <_vfprintf_r+0x4cc>
    33c8:	2780206f          	jal	x0,5640 <_vfprintf_r+0x2740>
    33cc:	04100713          	addi	x14,x0,65
    33d0:	00eb1463          	bne	x22,x14,33d8 <_vfprintf_r+0x4d8>
    33d4:	4d50106f          	jal	x0,50a8 <_vfprintf_r+0x21a8>
    33d8:	fff00713          	addi	x14,x0,-1
    33dc:	00ea1463          	bne	x20,x14,33e4 <_vfprintf_r+0x4e4>
    33e0:	4b80206f          	jal	x0,5898 <_vfprintf_r+0x2998>
    33e4:	fdfb7713          	andi	x14,x22,-33
    33e8:	04700693          	addi	x13,x0,71
    33ec:	00012a23          	sw	x0,20(x2)
    33f0:	00d71463          	bne	x14,x13,33f8 <_vfprintf_r+0x4f8>
    33f4:	4bc0206f          	jal	x0,58b0 <_vfprintf_r+0x29b0>
    33f8:	0ec12e83          	lw	x29,236(x2)
    33fc:	100c6793          	ori	x15,x24,256
    3400:	02012c23          	sw	x0,56(x2)
    3404:	0e012283          	lw	x5,224(x2)
    3408:	0e412f83          	lw	x31,228(x2)
    340c:	0e812f03          	lw	x30,232(x2)
    3410:	00078b93          	addi	x23,x15,0
    3414:	000eda63          	bge	x29,x0,3428 <_vfprintf_r+0x528>
    3418:	800007b7          	lui	x15,0x80000
    341c:	00feceb3          	xor	x29,x29,x15
    3420:	02d00793          	addi	x15,x0,45
    3424:	02f12c23          	sw	x15,56(x2)
    3428:	fbfb0793          	addi	x15,x22,-65
    342c:	02500713          	addi	x14,x0,37
    3430:	00f77463          	bgeu	x14,x15,3438 <_vfprintf_r+0x538>
    3434:	1890106f          	jal	x0,4dbc <_vfprintf_r+0x1ebc>
    3438:	0000f717          	auipc	x14,0xf
    343c:	eb070713          	addi	x14,x14,-336 # 122e8 <no_exception_handler_msg+0x221>
    3440:	00279793          	slli	x15,x15,0x2
    3444:	00e787b3          	add	x15,x15,x14
    3448:	0007a783          	lw	x15,0(x15) # 80000000 <__heap_end+0x7fc00000>
    344c:	00e787b3          	add	x15,x15,x14
    3450:	00078067          	jalr	x0,0(x15)
    3454:	00812583          	lw	x11,8(x2)
    3458:	00c12503          	lw	x10,12(x2)
    345c:	0d410613          	addi	x12,x2,212
    3460:	05c12a23          	sw	x28,84(x2)
    3464:	04e12823          	sw	x14,80(x2)
    3468:	05d12623          	sw	x29,76(x2)
    346c:	03e12c23          	sw	x30,56(x2)
    3470:	449020ef          	jal	x1,60b8 <__sprint_r>
    3474:	22051ee3          	bne	x10,x0,3eb0 <_vfprintf_r+0xfb0>
    3478:	0dc12603          	lw	x12,220(x2)
    347c:	05412e03          	lw	x28,84(x2)
    3480:	05012703          	lw	x14,80(x2)
    3484:	04c12e83          	lw	x29,76(x2)
    3488:	03812f03          	lw	x30,56(x2)
    348c:	00098913          	addi	x18,x19,0
    3490:	ce9ff06f          	jal	x0,3178 <_vfprintf_r+0x278>
    3494:	0d812783          	lw	x15,216(x2)
    3498:	00100713          	addi	x14,x0,1
    349c:	00e60633          	add	x12,x12,x14
    34a0:	00e78a33          	add	x20,x15,x14
    34a4:	02012783          	lw	x15,32(x2)
    34a8:	00890b13          	addi	x22,x18,8
    34ac:	5af758e3          	bge	x14,x15,425c <_vfprintf_r+0x135c>
    34b0:	00100793          	addi	x15,x0,1
    34b4:	00f92223          	sw	x15,4(x18)
    34b8:	01592023          	sw	x21,0(x18)
    34bc:	0cc12e23          	sw	x12,220(x2)
    34c0:	0d412c23          	sw	x20,216(x2)
    34c4:	00700793          	addi	x15,x0,7
    34c8:	0147d463          	bge	x15,x20,34d0 <_vfprintf_r+0x5d0>
    34cc:	1380106f          	jal	x0,4604 <_vfprintf_r+0x1704>
    34d0:	02c12783          	lw	x15,44(x2)
    34d4:	03012703          	lw	x14,48(x2)
    34d8:	001a0a13          	addi	x20,x20,1
    34dc:	00f60633          	add	x12,x12,x15
    34e0:	00fb2223          	sw	x15,4(x22)
    34e4:	00eb2023          	sw	x14,0(x22)
    34e8:	0cc12e23          	sw	x12,220(x2)
    34ec:	0d412c23          	sw	x20,216(x2)
    34f0:	00700793          	addi	x15,x0,7
    34f4:	008b0b13          	addi	x22,x22,8
    34f8:	0147d463          	bge	x15,x20,3500 <_vfprintf_r+0x600>
    34fc:	1340106f          	jal	x0,4630 <_vfprintf_r+0x1730>
    3500:	0ec12783          	lw	x15,236(x2)
    3504:	0e012503          	lw	x10,224(x2)
    3508:	0e412583          	lw	x11,228(x2)
    350c:	0e812703          	lw	x14,232(x2)
    3510:	0af12623          	sw	x15,172(x2)
    3514:	02012783          	lw	x15,32(x2)
    3518:	0aa12023          	sw	x10,160(x2)
    351c:	0ab12223          	sw	x11,164(x2)
    3520:	0a010513          	addi	x10,x2,160
    3524:	09010593          	addi	x11,x2,144
    3528:	03c12223          	sw	x28,36(x2)
    352c:	00c12e23          	sw	x12,28(x2)
    3530:	08012823          	sw	x0,144(x2)
    3534:	08012a23          	sw	x0,148(x2)
    3538:	08012c23          	sw	x0,152(x2)
    353c:	08012e23          	sw	x0,156(x2)
    3540:	0ae12423          	sw	x14,168(x2)
    3544:	fff78913          	addi	x18,x15,-1
    3548:	5040b0ef          	jal	x1,ea4c <__eqtf2>
    354c:	01c12603          	lw	x12,28(x2)
    3550:	02412e03          	lw	x28,36(x2)
    3554:	54050ae3          	beq	x10,x0,42a8 <_vfprintf_r+0x13a8>
    3558:	001a0a13          	addi	x20,x20,1
    355c:	01260633          	add	x12,x12,x18
    3560:	001a8a93          	addi	x21,x21,1
    3564:	0d412c23          	sw	x20,216(x2)
    3568:	0cc12e23          	sw	x12,220(x2)
    356c:	015b2023          	sw	x21,0(x22)
    3570:	012b2223          	sw	x18,4(x22)
    3574:	00700793          	addi	x15,x0,7
    3578:	5147c2e3          	blt	x15,x20,427c <_vfprintf_r+0x137c>
    357c:	008b0b13          	addi	x22,x22,8
    3580:	03c12683          	lw	x13,60(x2)
    3584:	0c410713          	addi	x14,x2,196
    3588:	001a0793          	addi	x15,x20,1
    358c:	00c68633          	add	x12,x13,x12
    3590:	00eb2023          	sw	x14,0(x22)
    3594:	0cc12e23          	sw	x12,220(x2)
    3598:	0cf12c23          	sw	x15,216(x2)
    359c:	00db2223          	sw	x13,4(x22)
    35a0:	00700713          	addi	x14,x0,7
    35a4:	008b0913          	addi	x18,x22,8
    35a8:	c2f75ee3          	bge	x14,x15,31e4 <_vfprintf_r+0x2e4>
    35ac:	00812583          	lw	x11,8(x2)
    35b0:	00c12503          	lw	x10,12(x2)
    35b4:	0d410613          	addi	x12,x2,212
    35b8:	01c12e23          	sw	x28,28(x2)
    35bc:	2fd020ef          	jal	x1,60b8 <__sprint_r>
    35c0:	0e0518e3          	bne	x10,x0,3eb0 <_vfprintf_r+0xfb0>
    35c4:	0dc12603          	lw	x12,220(x2)
    35c8:	01c12e03          	lw	x28,28(x2)
    35cc:	00098913          	addi	x18,x19,0
    35d0:	c15ff06f          	jal	x0,31e4 <_vfprintf_r+0x2e4>
    35d4:	01812703          	lw	x14,24(x2)
    35d8:	00100d93          	addi	x27,x0,1
    35dc:	000b8e13          	addi	x28,x23,0
    35e0:	00072783          	lw	x15,0(x14)
    35e4:	0a010ba3          	sb	x0,183(x2)
    35e8:	13c10a93          	addi	x21,x2,316
    35ec:	12f10e23          	sb	x15,316(x2)
    35f0:	00470793          	addi	x15,x14,4
    35f4:	00f12c23          	sw	x15,24(x2)
    35f8:	000d8713          	addi	x14,x27,0
    35fc:	b15ff06f          	jal	x0,3110 <_vfprintf_r+0x210>
    3600:	01812783          	lw	x15,24(x2)
    3604:	0a010ba3          	sb	x0,183(x2)
    3608:	000b8e13          	addi	x28,x23,0
    360c:	0007aa83          	lw	x21,0(x15)
    3610:	00478b93          	addi	x23,x15,4
    3614:	6a0a8ce3          	beq	x21,x0,44cc <_vfprintf_r+0x15cc>
    3618:	000a5463          	bge	x20,x0,3620 <_vfprintf_r+0x720>
    361c:	3340106f          	jal	x0,4950 <_vfprintf_r+0x1a50>
    3620:	000a0613          	addi	x12,x20,0
    3624:	00000593          	addi	x11,x0,0
    3628:	000a8513          	addi	x10,x21,0
    362c:	01c12c23          	sw	x28,24(x2)
    3630:	93dfe0ef          	jal	x1,1f6c <memchr>
    3634:	00a12a23          	sw	x10,20(x2)
    3638:	0b714783          	lbu	x15,183(x2)
    363c:	01812e03          	lw	x28,24(x2)
    3640:	00051463          	bne	x10,x0,3648 <_vfprintf_r+0x748>
    3644:	02c0206f          	jal	x0,5670 <_vfprintf_r+0x2770>
    3648:	41550733          	sub	x14,x10,x21
    364c:	fff74693          	xori	x13,x14,-1
    3650:	41f6d693          	srai	x13,x13,0x1f
    3654:	01712c23          	sw	x23,24(x2)
    3658:	00d77db3          	and	x27,x14,x13
    365c:	00012a23          	sw	x0,20(x2)
    3660:	02012223          	sw	x0,36(x2)
    3664:	02012423          	sw	x0,40(x2)
    3668:	00012e23          	sw	x0,28(x2)
    366c:	00000a13          	addi	x20,x0,0
    3670:	aa078ae3          	beq	x15,x0,3124 <_vfprintf_r+0x224>
    3674:	001d8d93          	addi	x27,x27,1
    3678:	aadff06f          	jal	x0,3124 <_vfprintf_r+0x224>
    367c:	020c7793          	andi	x15,x24,32
    3680:	000b8e13          	addi	x28,x23,0
    3684:	2e079c63          	bne	x15,x0,397c <_vfprintf_r+0xa7c>
    3688:	01812703          	lw	x14,24(x2)
    368c:	010c7793          	andi	x15,x24,16
    3690:	00072d83          	lw	x27,0(x14)
    3694:	00470693          	addi	x13,x14,4
    3698:	00078463          	beq	x15,x0,36a0 <_vfprintf_r+0x7a0>
    369c:	1bc0206f          	jal	x0,5858 <_vfprintf_r+0x2958>
    36a0:	040c7793          	andi	x15,x24,64
    36a4:	00079463          	bne	x15,x0,36ac <_vfprintf_r+0x7ac>
    36a8:	3240106f          	jal	x0,49cc <_vfprintf_r+0x1acc>
    36ac:	010d9d93          	slli	x27,x27,0x10
    36b0:	410ddd93          	srai	x27,x27,0x10
    36b4:	41fdd793          	srai	x15,x27,0x1f
    36b8:	00d12c23          	sw	x13,24(x2)
    36bc:	000c0713          	addi	x14,x24,0
    36c0:	00078693          	addi	x13,x15,0
    36c4:	2206c663          	blt	x13,x0,38f0 <_vfprintf_r+0x9f0>
    36c8:	2c0a4e63          	blt	x20,x0,39a4 <_vfprintf_r+0xaa4>
    36cc:	00fde6b3          	or	x13,x27,x15
    36d0:	f7f77713          	andi	x14,x14,-129
    36d4:	2c069863          	bne	x13,x0,39a4 <_vfprintf_r+0xaa4>
    36d8:	2c0a1c63          	bne	x20,x0,39b0 <_vfprintf_r+0xab0>
    36dc:	00070c13          	addi	x24,x14,0
    36e0:	1a010a93          	addi	x21,x2,416
    36e4:	00000713          	addi	x14,x0,0
    36e8:	0b714783          	lbu	x15,183(x2)
    36ec:	000a0d93          	addi	x27,x20,0
    36f0:	00ea5463          	bge	x20,x14,36f8 <_vfprintf_r+0x7f8>
    36f4:	00070d93          	addi	x27,x14,0
    36f8:	00012a23          	sw	x0,20(x2)
    36fc:	02012223          	sw	x0,36(x2)
    3700:	02012423          	sw	x0,40(x2)
    3704:	00012e23          	sw	x0,28(x2)
    3708:	f60796e3          	bne	x15,x0,3674 <_vfprintf_r+0x774>
    370c:	a19ff06f          	jal	x0,3124 <_vfprintf_r+0x224>
    3710:	01812783          	lw	x15,24(x2)
    3714:	0007ad03          	lw	x26,0(x15)
    3718:	00478793          	addi	x15,x15,4
    371c:	420d58e3          	bge	x26,x0,434c <_vfprintf_r+0x144c>
    3720:	41a00d33          	sub	x26,x0,x26
    3724:	00f12c23          	sw	x15,24(x2)
    3728:	000bcb03          	lbu	x22,0(x23)
    372c:	004c6c13          	ori	x24,x24,4
    3730:	969ff06f          	jal	x0,3098 <_vfprintf_r+0x198>
    3734:	02b00793          	addi	x15,x0,43
    3738:	000bcb03          	lbu	x22,0(x23)
    373c:	0af10ba3          	sb	x15,183(x2)
    3740:	959ff06f          	jal	x0,3098 <_vfprintf_r+0x198>
    3744:	000bcb03          	lbu	x22,0(x23)
    3748:	080c6c13          	ori	x24,x24,128
    374c:	94dff06f          	jal	x0,3098 <_vfprintf_r+0x198>
    3750:	000bcb03          	lbu	x22,0(x23)
    3754:	02a00793          	addi	x15,x0,42
    3758:	001b8693          	addi	x13,x23,1
    375c:	00fb1463          	bne	x22,x15,3764 <_vfprintf_r+0x864>
    3760:	2fc0206f          	jal	x0,5a5c <_vfprintf_r+0x2b5c>
    3764:	00900613          	addi	x12,x0,9
    3768:	fd0b0713          	addi	x14,x22,-48
    376c:	00000a13          	addi	x20,x0,0
    3770:	02e66463          	bltu	x12,x14,3798 <_vfprintf_r+0x898>
    3774:	002a1793          	slli	x15,x20,0x2
    3778:	0006cb03          	lbu	x22,0(x13)
    377c:	014787b3          	add	x15,x15,x20
    3780:	00179793          	slli	x15,x15,0x1
    3784:	00e78a33          	add	x20,x15,x14
    3788:	fd0b0713          	addi	x14,x22,-48
    378c:	00168693          	addi	x13,x13,1
    3790:	fee672e3          	bgeu	x12,x14,3774 <_vfprintf_r+0x874>
    3794:	460a48e3          	blt	x20,x0,4404 <_vfprintf_r+0x1504>
    3798:	00068b93          	addi	x23,x13,0
    379c:	901ff06f          	jal	x0,309c <_vfprintf_r+0x19c>
    37a0:	00c12b03          	lw	x22,12(x2)
    37a4:	000b0513          	addi	x10,x22,0
    37a8:	619060ef          	jal	x1,a5c0 <_localeconv_r>
    37ac:	00452783          	lw	x15,4(x10)
    37b0:	00078513          	addi	x10,x15,0
    37b4:	04f12023          	sw	x15,64(x2)
    37b8:	d64ff0ef          	jal	x1,2d1c <strlen>
    37bc:	00050793          	addi	x15,x10,0
    37c0:	000b0513          	addi	x10,x22,0
    37c4:	04f12423          	sw	x15,72(x2)
    37c8:	5f9060ef          	jal	x1,a5c0 <_localeconv_r>
    37cc:	00852703          	lw	x14,8(x10)
    37d0:	04812783          	lw	x15,72(x2)
    37d4:	000bcb03          	lbu	x22,0(x23)
    37d8:	04e12223          	sw	x14,68(x2)
    37dc:	8a078ee3          	beq	x15,x0,3098 <_vfprintf_r+0x198>
    37e0:	8a070ce3          	beq	x14,x0,3098 <_vfprintf_r+0x198>
    37e4:	00074783          	lbu	x15,0(x14)
    37e8:	8a0788e3          	beq	x15,x0,3098 <_vfprintf_r+0x198>
    37ec:	400c6c13          	ori	x24,x24,1024
    37f0:	8a9ff06f          	jal	x0,3098 <_vfprintf_r+0x198>
    37f4:	000bcb03          	lbu	x22,0(x23)
    37f8:	001c6c13          	ori	x24,x24,1
    37fc:	89dff06f          	jal	x0,3098 <_vfprintf_r+0x198>
    3800:	0b714783          	lbu	x15,183(x2)
    3804:	000bcb03          	lbu	x22,0(x23)
    3808:	880798e3          	bne	x15,x0,3098 <_vfprintf_r+0x198>
    380c:	02000793          	addi	x15,x0,32
    3810:	0af10ba3          	sb	x15,183(x2)
    3814:	885ff06f          	jal	x0,3098 <_vfprintf_r+0x198>
    3818:	020c7793          	andi	x15,x24,32
    381c:	000b8e13          	addi	x28,x23,0
    3820:	010c6713          	ori	x14,x24,16
    3824:	06079663          	bne	x15,x0,3890 <_vfprintf_r+0x990>
    3828:	01812783          	lw	x15,24(x2)
    382c:	00478693          	addi	x13,x15,4
    3830:	01812783          	lw	x15,24(x2)
    3834:	00d12c23          	sw	x13,24(x2)
    3838:	00100693          	addi	x13,x0,1
    383c:	0007ad83          	lw	x27,0(x15)
    3840:	00000793          	addi	x15,x0,0
    3844:	00000613          	addi	x12,x0,0
    3848:	0ac10ba3          	sb	x12,183(x2)
    384c:	0c0a4263          	blt	x20,x0,3910 <_vfprintf_r+0xa10>
    3850:	00fde633          	or	x12,x27,x15
    3854:	f7f77c13          	andi	x24,x14,-129
    3858:	66061863          	bne	x12,x0,3ec8 <_vfprintf_r+0xfc8>
    385c:	280a1e63          	bne	x20,x0,3af8 <_vfprintf_r+0xbf8>
    3860:	2c0698e3          	bne	x13,x0,4330 <_vfprintf_r+0x1430>
    3864:	00177713          	andi	x14,x14,1
    3868:	1a010a93          	addi	x21,x2,416
    386c:	e6070ee3          	beq	x14,x0,36e8 <_vfprintf_r+0x7e8>
    3870:	03000793          	addi	x15,x0,48
    3874:	18f10fa3          	sb	x15,415(x2)
    3878:	19f10a93          	addi	x21,x2,415
    387c:	e6dff06f          	jal	x0,36e8 <_vfprintf_r+0x7e8>
    3880:	020c7793          	andi	x15,x24,32
    3884:	000b8e13          	addi	x28,x23,0
    3888:	320786e3          	beq	x15,x0,43b4 <_vfprintf_r+0x14b4>
    388c:	000c0713          	addi	x14,x24,0
    3890:	01812783          	lw	x15,24(x2)
    3894:	00778793          	addi	x15,x15,7
    3898:	ff87f793          	andi	x15,x15,-8
    389c:	00878693          	addi	x13,x15,8
    38a0:	0007ad83          	lw	x27,0(x15)
    38a4:	00d12c23          	sw	x13,24(x2)
    38a8:	0047a783          	lw	x15,4(x15)
    38ac:	00100693          	addi	x13,x0,1
    38b0:	f95ff06f          	jal	x0,3844 <_vfprintf_r+0x944>
    38b4:	000bcb03          	lbu	x22,0(x23)
    38b8:	008c6c13          	ori	x24,x24,8
    38bc:	fdcff06f          	jal	x0,3098 <_vfprintf_r+0x198>
    38c0:	020c7793          	andi	x15,x24,32
    38c4:	000b8e13          	addi	x28,x23,0
    38c8:	010c6713          	ori	x14,x24,16
    38cc:	0a079a63          	bne	x15,x0,3980 <_vfprintf_r+0xa80>
    38d0:	01812783          	lw	x15,24(x2)
    38d4:	00478693          	addi	x13,x15,4
    38d8:	01812783          	lw	x15,24(x2)
    38dc:	00d12c23          	sw	x13,24(x2)
    38e0:	0007ad83          	lw	x27,0(x15)
    38e4:	41fdd793          	srai	x15,x27,0x1f
    38e8:	00078693          	addi	x13,x15,0
    38ec:	dc06dee3          	bge	x13,x0,36c8 <_vfprintf_r+0x7c8>
    38f0:	02d00613          	addi	x12,x0,45
    38f4:	01b036b3          	sltu	x13,x0,x27
    38f8:	40f007b3          	sub	x15,x0,x15
    38fc:	0ac10ba3          	sb	x12,183(x2)
    3900:	40d787b3          	sub	x15,x15,x13
    3904:	41b00db3          	sub	x27,x0,x27
    3908:	00100693          	addi	x13,x0,1
    390c:	f40a52e3          	bge	x20,x0,3850 <_vfprintf_r+0x950>
    3910:	00100613          	addi	x12,x0,1
    3914:	08c68863          	beq	x13,x12,39a4 <_vfprintf_r+0xaa4>
    3918:	00200613          	addi	x12,x0,2
    391c:	1ec68c63          	beq	x13,x12,3b14 <_vfprintf_r+0xc14>
    3920:	1a010a93          	addi	x21,x2,416
    3924:	01d79613          	slli	x12,x15,0x1d
    3928:	007df693          	andi	x13,x27,7
    392c:	003ddd93          	srli	x27,x27,0x3
    3930:	000a8593          	addi	x11,x21,0
    3934:	03068693          	addi	x13,x13,48
    3938:	01b66db3          	or	x27,x12,x27
    393c:	0037d793          	srli	x15,x15,0x3
    3940:	00fde633          	or	x12,x27,x15
    3944:	feda8fa3          	sb	x13,-1(x21)
    3948:	fffa8a93          	addi	x21,x21,-1
    394c:	fc061ce3          	bne	x12,x0,3924 <_vfprintf_r+0xa24>
    3950:	00177793          	andi	x15,x14,1
    3954:	1e078a63          	beq	x15,x0,3b48 <_vfprintf_r+0xc48>
    3958:	03000793          	addi	x15,x0,48
    395c:	1ef68663          	beq	x13,x15,3b48 <_vfprintf_r+0xc48>
    3960:	ffe58593          	addi	x11,x11,-2 # 1ffe <memchr+0x92>
    3964:	fefa8fa3          	sb	x15,-1(x21)
    3968:	1a010793          	addi	x15,x2,416
    396c:	00070c13          	addi	x24,x14,0
    3970:	00058a93          	addi	x21,x11,0
    3974:	40b78733          	sub	x14,x15,x11
    3978:	d71ff06f          	jal	x0,36e8 <_vfprintf_r+0x7e8>
    397c:	000c0713          	addi	x14,x24,0
    3980:	01812783          	lw	x15,24(x2)
    3984:	00778793          	addi	x15,x15,7
    3988:	ff87f793          	andi	x15,x15,-8
    398c:	0047a683          	lw	x13,4(x15)
    3990:	00878613          	addi	x12,x15,8
    3994:	0007ad83          	lw	x27,0(x15)
    3998:	00c12c23          	sw	x12,24(x2)
    399c:	00068793          	addi	x15,x13,0
    39a0:	d25ff06f          	jal	x0,36c4 <_vfprintf_r+0x7c4>
    39a4:	4c0794e3          	bne	x15,x0,466c <_vfprintf_r+0x176c>
    39a8:	00900693          	addi	x13,x0,9
    39ac:	4db6e0e3          	bltu	x13,x27,466c <_vfprintf_r+0x176c>
    39b0:	030d8d93          	addi	x27,x27,48
    39b4:	00070c13          	addi	x24,x14,0
    39b8:	19b10fa3          	sb	x27,415(x2)
    39bc:	00100713          	addi	x14,x0,1
    39c0:	19f10a93          	addi	x21,x2,415
    39c4:	d25ff06f          	jal	x0,36e8 <_vfprintf_r+0x7e8>
    39c8:	020c7793          	andi	x15,x24,32
    39cc:	000b8e13          	addi	x28,x23,0
    39d0:	010c6713          	ori	x14,x24,16
    39d4:	1c0782e3          	beq	x15,x0,4398 <_vfprintf_r+0x1498>
    39d8:	01812783          	lw	x15,24(x2)
    39dc:	00778793          	addi	x15,x15,7
    39e0:	ff87f793          	andi	x15,x15,-8
    39e4:	00878693          	addi	x13,x15,8
    39e8:	0007ad83          	lw	x27,0(x15)
    39ec:	0047a783          	lw	x15,4(x15)
    39f0:	00d12c23          	sw	x13,24(x2)
    39f4:	bff77713          	andi	x14,x14,-1025
    39f8:	00000693          	addi	x13,x0,0
    39fc:	e49ff06f          	jal	x0,3844 <_vfprintf_r+0x944>
    3a00:	000bcb03          	lbu	x22,0(x23)
    3a04:	06800793          	addi	x15,x0,104
    3a08:	2afb0ae3          	beq	x22,x15,44bc <_vfprintf_r+0x15bc>
    3a0c:	040c6c13          	ori	x24,x24,64
    3a10:	e88ff06f          	jal	x0,3098 <_vfprintf_r+0x198>
    3a14:	01812683          	lw	x13,24(x2)
    3a18:	020c7793          	andi	x15,x24,32
    3a1c:	000b8e13          	addi	x28,x23,0
    3a20:	00468713          	addi	x14,x13,4
    3a24:	14079ce3          	bne	x15,x0,437c <_vfprintf_r+0x147c>
    3a28:	010c7793          	andi	x15,x24,16
    3a2c:	6a0796e3          	bne	x15,x0,48d8 <_vfprintf_r+0x19d8>
    3a30:	040c7793          	andi	x15,x24,64
    3a34:	00078463          	beq	x15,x0,3a3c <_vfprintf_r+0xb3c>
    3a38:	5c00106f          	jal	x0,4ff8 <_vfprintf_r+0x20f8>
    3a3c:	200c7313          	andi	x6,x24,512
    3a40:	68030ce3          	beq	x6,x0,48d8 <_vfprintf_r+0x19d8>
    3a44:	01812783          	lw	x15,24(x2)
    3a48:	01012683          	lw	x13,16(x2)
    3a4c:	00e12c23          	sw	x14,24(x2)
    3a50:	0007a783          	lw	x15,0(x15)
    3a54:	00d78023          	sb	x13,0(x15)
    3a58:	000e0a93          	addi	x21,x28,0
    3a5c:	fdcff06f          	jal	x0,3238 <_vfprintf_r+0x338>
    3a60:	000bcb03          	lbu	x22,0(x23)
    3a64:	06c00793          	addi	x15,x0,108
    3a68:	24fb02e3          	beq	x22,x15,44ac <_vfprintf_r+0x15ac>
    3a6c:	010c6c13          	ori	x24,x24,16
    3a70:	e28ff06f          	jal	x0,3098 <_vfprintf_r+0x198>
    3a74:	01812683          	lw	x13,24(x2)
    3a78:	000087b7          	lui	x15,0x8
    3a7c:	83078793          	addi	x15,x15,-2000 # 7830 <__gdtoa+0x7c>
    3a80:	0006ad83          	lw	x27,0(x13)
    3a84:	00468693          	addi	x13,x13,4
    3a88:	00d12c23          	sw	x13,24(x2)
    3a8c:	0000e697          	auipc	x13,0xe
    3a90:	45868693          	addi	x13,x13,1112 # 11ee4 <__clzsi2+0x32c>
    3a94:	0af11c23          	sh	x15,184(x2)
    3a98:	02d12a23          	sw	x13,52(x2)
    3a9c:	000b8e13          	addi	x28,x23,0
    3aa0:	002c6713          	ori	x14,x24,2
    3aa4:	00000793          	addi	x15,x0,0
    3aa8:	00200693          	addi	x13,x0,2
    3aac:	07800b13          	addi	x22,x0,120
    3ab0:	d95ff06f          	jal	x0,3844 <_vfprintf_r+0x944>
    3ab4:	020c7793          	andi	x15,x24,32
    3ab8:	000b8e13          	addi	x28,x23,0
    3abc:	12079ae3          	bne	x15,x0,43f0 <_vfprintf_r+0x14f0>
    3ac0:	01812703          	lw	x14,24(x2)
    3ac4:	010c7793          	andi	x15,x24,16
    3ac8:	00072d83          	lw	x27,0(x14)
    3acc:	00470693          	addi	x13,x14,4
    3ad0:	00078463          	beq	x15,x0,3ad8 <_vfprintf_r+0xbd8>
    3ad4:	40d0106f          	jal	x0,56e0 <_vfprintf_r+0x27e0>
    3ad8:	040c7793          	andi	x15,x24,64
    3adc:	72078ae3          	beq	x15,x0,4a10 <_vfprintf_r+0x1b10>
    3ae0:	010d9d93          	slli	x27,x27,0x10
    3ae4:	010ddd93          	srli	x27,x27,0x10
    3ae8:	00d12c23          	sw	x13,24(x2)
    3aec:	000c0713          	addi	x14,x24,0
    3af0:	00000793          	addi	x15,x0,0
    3af4:	f01ff06f          	jal	x0,39f4 <_vfprintf_r+0xaf4>
    3af8:	00100713          	addi	x14,x0,1
    3afc:	00e69463          	bne	x13,x14,3b04 <_vfprintf_r+0xc04>
    3b00:	5910106f          	jal	x0,5890 <_vfprintf_r+0x2990>
    3b04:	00200713          	addi	x14,x0,2
    3b08:	00e68463          	beq	x13,x14,3b10 <_vfprintf_r+0xc10>
    3b0c:	4e40106f          	jal	x0,4ff0 <_vfprintf_r+0x20f0>
    3b10:	000c0713          	addi	x14,x24,0
    3b14:	03412583          	lw	x11,52(x2)
    3b18:	1a010a93          	addi	x21,x2,416
    3b1c:	00fdf693          	andi	x13,x27,15
    3b20:	00d586b3          	add	x13,x11,x13
    3b24:	0006c683          	lbu	x13,0(x13)
    3b28:	01c79613          	slli	x12,x15,0x1c
    3b2c:	004ddd93          	srli	x27,x27,0x4
    3b30:	01b66db3          	or	x27,x12,x27
    3b34:	0047d793          	srli	x15,x15,0x4
    3b38:	feda8fa3          	sb	x13,-1(x21)
    3b3c:	00fde6b3          	or	x13,x27,x15
    3b40:	fffa8a93          	addi	x21,x21,-1
    3b44:	fc069ce3          	bne	x13,x0,3b1c <_vfprintf_r+0xc1c>
    3b48:	1a010793          	addi	x15,x2,416
    3b4c:	00070c13          	addi	x24,x14,0
    3b50:	41578733          	sub	x14,x15,x21
    3b54:	b95ff06f          	jal	x0,36e8 <_vfprintf_r+0x7e8>
    3b58:	06500793          	addi	x15,x0,101
    3b5c:	9367dce3          	bge	x15,x22,3494 <_vfprintf_r+0x594>
    3b60:	0e012503          	lw	x10,224(x2)
    3b64:	0e412583          	lw	x11,228(x2)
    3b68:	0e812703          	lw	x14,232(x2)
    3b6c:	0ec12783          	lw	x15,236(x2)
    3b70:	0aa12023          	sw	x10,160(x2)
    3b74:	0ab12223          	sw	x11,164(x2)
    3b78:	0a010513          	addi	x10,x2,160
    3b7c:	09010593          	addi	x11,x2,144
    3b80:	04c12623          	sw	x12,76(x2)
    3b84:	03c12c23          	sw	x28,56(x2)
    3b88:	08012823          	sw	x0,144(x2)
    3b8c:	08012a23          	sw	x0,148(x2)
    3b90:	08012c23          	sw	x0,152(x2)
    3b94:	08012e23          	sw	x0,156(x2)
    3b98:	0ae12423          	sw	x14,168(x2)
    3b9c:	0af12623          	sw	x15,172(x2)
    3ba0:	6ad0a0ef          	jal	x1,ea4c <__eqtf2>
    3ba4:	03812e03          	lw	x28,56(x2)
    3ba8:	04c12603          	lw	x12,76(x2)
    3bac:	54051863          	bne	x10,x0,40fc <_vfprintf_r+0x11fc>
    3bb0:	0d812783          	lw	x15,216(x2)
    3bb4:	00100713          	addi	x14,x0,1
    3bb8:	00160613          	addi	x12,x12,1
    3bbc:	0000e597          	auipc	x11,0xe
    3bc0:	35858593          	addi	x11,x11,856 # 11f14 <__clzsi2+0x35c>
    3bc4:	00178793          	addi	x15,x15,1
    3bc8:	00e92223          	sw	x14,4(x18)
    3bcc:	00b92023          	sw	x11,0(x18)
    3bd0:	0cc12e23          	sw	x12,220(x2)
    3bd4:	0cf12c23          	sw	x15,216(x2)
    3bd8:	00700713          	addi	x14,x0,7
    3bdc:	00890913          	addi	x18,x18,8
    3be0:	42f744e3          	blt	x14,x15,4808 <_vfprintf_r+0x1908>
    3be4:	0bc12783          	lw	x15,188(x2)
    3be8:	02012703          	lw	x14,32(x2)
    3bec:	74e7d863          	bge	x15,x14,433c <_vfprintf_r+0x143c>
    3bf0:	02c12703          	lw	x14,44(x2)
    3bf4:	0d812783          	lw	x15,216(x2)
    3bf8:	03012683          	lw	x13,48(x2)
    3bfc:	00e60633          	add	x12,x12,x14
    3c00:	00178793          	addi	x15,x15,1
    3c04:	00e92223          	sw	x14,4(x18)
    3c08:	00d92023          	sw	x13,0(x18)
    3c0c:	0cc12e23          	sw	x12,220(x2)
    3c10:	0cf12c23          	sw	x15,216(x2)
    3c14:	00700713          	addi	x14,x0,7
    3c18:	00890913          	addi	x18,x18,8
    3c1c:	06f744e3          	blt	x14,x15,4484 <_vfprintf_r+0x1584>
    3c20:	02012783          	lw	x15,32(x2)
    3c24:	fff78a13          	addi	x20,x15,-1
    3c28:	db405e63          	bge	x0,x20,31e4 <_vfprintf_r+0x2e4>
    3c2c:	01000a93          	addi	x21,x0,16
    3c30:	0d812703          	lw	x14,216(x2)
    3c34:	0000e797          	auipc	x15,0xe
    3c38:	75c78793          	addi	x15,x15,1884 # 12390 <zeroes.0>
    3c3c:	414ad2e3          	bge	x21,x20,4840 <_vfprintf_r+0x1940>
    3c40:	00090693          	addi	x13,x18,0
    3c44:	000a8813          	addi	x16,x21,0
    3c48:	000a0913          	addi	x18,x20,0
    3c4c:	00700b13          	addi	x22,x0,7
    3c50:	000e0a13          	addi	x20,x28,0
    3c54:	00078b93          	addi	x23,x15,0
    3c58:	00c0006f          	jal	x0,3c64 <_vfprintf_r+0xd64>
    3c5c:	ff090913          	addi	x18,x18,-16
    3c60:	3d2858e3          	bge	x16,x18,4830 <_vfprintf_r+0x1930>
    3c64:	01060613          	addi	x12,x12,16
    3c68:	00170713          	addi	x14,x14,1
    3c6c:	0176a023          	sw	x23,0(x13)
    3c70:	0156a223          	sw	x21,4(x13)
    3c74:	0cc12e23          	sw	x12,220(x2)
    3c78:	0ce12c23          	sw	x14,216(x2)
    3c7c:	00868693          	addi	x13,x13,8
    3c80:	fceb5ee3          	bge	x22,x14,3c5c <_vfprintf_r+0xd5c>
    3c84:	00812583          	lw	x11,8(x2)
    3c88:	00c12503          	lw	x10,12(x2)
    3c8c:	0d410613          	addi	x12,x2,212
    3c90:	428020ef          	jal	x1,60b8 <__sprint_r>
    3c94:	20051e63          	bne	x10,x0,3eb0 <_vfprintf_r+0xfb0>
    3c98:	0dc12603          	lw	x12,220(x2)
    3c9c:	0d812703          	lw	x14,216(x2)
    3ca0:	00098693          	addi	x13,x19,0
    3ca4:	01000813          	addi	x16,x0,16
    3ca8:	fb5ff06f          	jal	x0,3c5c <_vfprintf_r+0xd5c>
    3cac:	41bd0833          	sub	x16,x26,x27
    3cb0:	d1005063          	bge	x0,x16,31b0 <_vfprintf_r+0x2b0>
    3cb4:	01000e93          	addi	x29,x0,16
    3cb8:	0d812583          	lw	x11,216(x2)
    3cbc:	0000e797          	auipc	x15,0xe
    3cc0:	6d478793          	addi	x15,x15,1748 # 12390 <zeroes.0>
    3cc4:	090ede63          	bge	x29,x16,3d60 <_vfprintf_r+0xe60>
    3cc8:	00070b93          	addi	x23,x14,0
    3ccc:	05412623          	sw	x20,76(x2)
    3cd0:	00090713          	addi	x14,x18,0
    3cd4:	000e8f93          	addi	x31,x29,0
    3cd8:	00700f13          	addi	x30,x0,7
    3cdc:	03c12c23          	sw	x28,56(x2)
    3ce0:	00080913          	addi	x18,x16,0
    3ce4:	00078a13          	addi	x20,x15,0
    3ce8:	00c0006f          	jal	x0,3cf4 <_vfprintf_r+0xdf4>
    3cec:	ff090913          	addi	x18,x18,-16
    3cf0:	052fdc63          	bge	x31,x18,3d48 <_vfprintf_r+0xe48>
    3cf4:	01060613          	addi	x12,x12,16
    3cf8:	00158593          	addi	x11,x11,1
    3cfc:	01472023          	sw	x20,0(x14)
    3d00:	01d72223          	sw	x29,4(x14)
    3d04:	0cc12e23          	sw	x12,220(x2)
    3d08:	0cb12c23          	sw	x11,216(x2)
    3d0c:	00870713          	addi	x14,x14,8
    3d10:	fcbf5ee3          	bge	x30,x11,3cec <_vfprintf_r+0xdec>
    3d14:	00812583          	lw	x11,8(x2)
    3d18:	00c12503          	lw	x10,12(x2)
    3d1c:	0d410613          	addi	x12,x2,212
    3d20:	398020ef          	jal	x1,60b8 <__sprint_r>
    3d24:	18051663          	bne	x10,x0,3eb0 <_vfprintf_r+0xfb0>
    3d28:	01000f93          	addi	x31,x0,16
    3d2c:	ff090913          	addi	x18,x18,-16
    3d30:	0dc12603          	lw	x12,220(x2)
    3d34:	0d812583          	lw	x11,216(x2)
    3d38:	00098713          	addi	x14,x19,0
    3d3c:	00700f13          	addi	x30,x0,7
    3d40:	000f8e93          	addi	x29,x31,0
    3d44:	fb2fc8e3          	blt	x31,x18,3cf4 <_vfprintf_r+0xdf4>
    3d48:	000a0793          	addi	x15,x20,0
    3d4c:	03812e03          	lw	x28,56(x2)
    3d50:	04c12a03          	lw	x20,76(x2)
    3d54:	00090813          	addi	x16,x18,0
    3d58:	00070913          	addi	x18,x14,0
    3d5c:	000b8713          	addi	x14,x23,0
    3d60:	01060633          	add	x12,x12,x16
    3d64:	00158593          	addi	x11,x11,1
    3d68:	00f92023          	sw	x15,0(x18)
    3d6c:	01092223          	sw	x16,4(x18)
    3d70:	0cc12e23          	sw	x12,220(x2)
    3d74:	0cb12c23          	sw	x11,216(x2)
    3d78:	00700793          	addi	x15,x0,7
    3d7c:	00890913          	addi	x18,x18,8
    3d80:	c2b7d863          	bge	x15,x11,31b0 <_vfprintf_r+0x2b0>
    3d84:	00812583          	lw	x11,8(x2)
    3d88:	00c12503          	lw	x10,12(x2)
    3d8c:	0d410613          	addi	x12,x2,212
    3d90:	05c12623          	sw	x28,76(x2)
    3d94:	02e12c23          	sw	x14,56(x2)
    3d98:	320020ef          	jal	x1,60b8 <__sprint_r>
    3d9c:	10051a63          	bne	x10,x0,3eb0 <_vfprintf_r+0xfb0>
    3da0:	0dc12603          	lw	x12,220(x2)
    3da4:	04c12e03          	lw	x28,76(x2)
    3da8:	03812703          	lw	x14,56(x2)
    3dac:	00098913          	addi	x18,x19,0
    3db0:	c00ff06f          	jal	x0,31b0 <_vfprintf_r+0x2b0>
    3db4:	0d812583          	lw	x11,216(x2)
    3db8:	0000e797          	auipc	x15,0xe
    3dbc:	5d878793          	addi	x15,x15,1496 # 12390 <zeroes.0>
    3dc0:	0944d063          	bge	x9,x20,3e40 <_vfprintf_r+0xf40>
    3dc4:	02e12c23          	sw	x14,56(x2)
    3dc8:	000a0b93          	addi	x23,x20,0
    3dcc:	00090713          	addi	x14,x18,0
    3dd0:	000e0a13          	addi	x20,x28,0
    3dd4:	00078913          	addi	x18,x15,0
    3dd8:	00c0006f          	jal	x0,3de4 <_vfprintf_r+0xee4>
    3ddc:	ff0b8b93          	addi	x23,x23,-16
    3de0:	0574d663          	bge	x9,x23,3e2c <_vfprintf_r+0xf2c>
    3de4:	01060613          	addi	x12,x12,16
    3de8:	00158593          	addi	x11,x11,1
    3dec:	01272023          	sw	x18,0(x14)
    3df0:	00972223          	sw	x9,4(x14)
    3df4:	0cc12e23          	sw	x12,220(x2)
    3df8:	0cb12c23          	sw	x11,216(x2)
    3dfc:	00870713          	addi	x14,x14,8
    3e00:	fcbcdee3          	bge	x25,x11,3ddc <_vfprintf_r+0xedc>
    3e04:	00812583          	lw	x11,8(x2)
    3e08:	00c12503          	lw	x10,12(x2)
    3e0c:	0d410613          	addi	x12,x2,212
    3e10:	2a8020ef          	jal	x1,60b8 <__sprint_r>
    3e14:	08051e63          	bne	x10,x0,3eb0 <_vfprintf_r+0xfb0>
    3e18:	ff0b8b93          	addi	x23,x23,-16
    3e1c:	0dc12603          	lw	x12,220(x2)
    3e20:	0d812583          	lw	x11,216(x2)
    3e24:	00098713          	addi	x14,x19,0
    3e28:	fb74cee3          	blt	x9,x23,3de4 <_vfprintf_r+0xee4>
    3e2c:	00090793          	addi	x15,x18,0
    3e30:	00070913          	addi	x18,x14,0
    3e34:	03812703          	lw	x14,56(x2)
    3e38:	000a0e13          	addi	x28,x20,0
    3e3c:	000b8a13          	addi	x20,x23,0
    3e40:	01460633          	add	x12,x12,x20
    3e44:	00158593          	addi	x11,x11,1
    3e48:	00f92023          	sw	x15,0(x18)
    3e4c:	01492223          	sw	x20,4(x18)
    3e50:	0cc12e23          	sw	x12,220(x2)
    3e54:	0cb12c23          	sw	x11,216(x2)
    3e58:	00700793          	addi	x15,x0,7
    3e5c:	00890913          	addi	x18,x18,8
    3e60:	b4b7dc63          	bge	x15,x11,31b8 <_vfprintf_r+0x2b8>
    3e64:	00812583          	lw	x11,8(x2)
    3e68:	00c12503          	lw	x10,12(x2)
    3e6c:	0d410613          	addi	x12,x2,212
    3e70:	05c12623          	sw	x28,76(x2)
    3e74:	02e12c23          	sw	x14,56(x2)
    3e78:	240020ef          	jal	x1,60b8 <__sprint_r>
    3e7c:	02051a63          	bne	x10,x0,3eb0 <_vfprintf_r+0xfb0>
    3e80:	0dc12603          	lw	x12,220(x2)
    3e84:	04c12e03          	lw	x28,76(x2)
    3e88:	03812703          	lw	x14,56(x2)
    3e8c:	00098913          	addi	x18,x19,0
    3e90:	b28ff06f          	jal	x0,31b8 <_vfprintf_r+0x2b8>
    3e94:	00812583          	lw	x11,8(x2)
    3e98:	00c12503          	lw	x10,12(x2)
    3e9c:	0d410613          	addi	x12,x2,212
    3ea0:	01c12e23          	sw	x28,28(x2)
    3ea4:	214020ef          	jal	x1,60b8 <__sprint_r>
    3ea8:	01c12e03          	lw	x28,28(x2)
    3eac:	b6050263          	beq	x10,x0,3210 <_vfprintf_r+0x310>
    3eb0:	01412383          	lw	x7,20(x2)
    3eb4:	b8038c63          	beq	x7,x0,324c <_vfprintf_r+0x34c>
    3eb8:	00c12503          	lw	x10,12(x2)
    3ebc:	00038593          	addi	x11,x7,0
    3ec0:	c75fd0ef          	jal	x1,1b34 <_free_r>
    3ec4:	b88ff06f          	jal	x0,324c <_vfprintf_r+0x34c>
    3ec8:	000c0713          	addi	x14,x24,0
    3ecc:	a45ff06f          	jal	x0,3910 <_vfprintf_r+0xa10>
    3ed0:	01000f93          	addi	x31,x0,16
    3ed4:	0d812583          	lw	x11,216(x2)
    3ed8:	0000e817          	auipc	x16,0xe
    3edc:	4a880813          	addi	x16,x16,1192 # 12380 <blanks.1>
    3ee0:	0affd663          	bge	x31,x15,3f8c <_vfprintf_r+0x108c>
    3ee4:	00070b93          	addi	x23,x14,0
    3ee8:	05412a23          	sw	x20,84(x2)
    3eec:	00090713          	addi	x14,x18,0
    3ef0:	000f8393          	addi	x7,x31,0
    3ef4:	00700293          	addi	x5,x0,7
    3ef8:	03e12c23          	sw	x30,56(x2)
    3efc:	05d12623          	sw	x29,76(x2)
    3f00:	05c12823          	sw	x28,80(x2)
    3f04:	00078913          	addi	x18,x15,0
    3f08:	00080a13          	addi	x20,x16,0
    3f0c:	00c0006f          	jal	x0,3f18 <_vfprintf_r+0x1018>
    3f10:	ff090913          	addi	x18,x18,-16
    3f14:	0523dc63          	bge	x7,x18,3f6c <_vfprintf_r+0x106c>
    3f18:	01060613          	addi	x12,x12,16
    3f1c:	00158593          	addi	x11,x11,1
    3f20:	01472023          	sw	x20,0(x14)
    3f24:	01f72223          	sw	x31,4(x14)
    3f28:	0cc12e23          	sw	x12,220(x2)
    3f2c:	0cb12c23          	sw	x11,216(x2)
    3f30:	00870713          	addi	x14,x14,8
    3f34:	fcb2dee3          	bge	x5,x11,3f10 <_vfprintf_r+0x1010>
    3f38:	00812583          	lw	x11,8(x2)
    3f3c:	00c12503          	lw	x10,12(x2)
    3f40:	0d410613          	addi	x12,x2,212
    3f44:	174020ef          	jal	x1,60b8 <__sprint_r>
    3f48:	f60514e3          	bne	x10,x0,3eb0 <_vfprintf_r+0xfb0>
    3f4c:	01000393          	addi	x7,x0,16
    3f50:	ff090913          	addi	x18,x18,-16
    3f54:	0dc12603          	lw	x12,220(x2)
    3f58:	0d812583          	lw	x11,216(x2)
    3f5c:	00098713          	addi	x14,x19,0
    3f60:	00700293          	addi	x5,x0,7
    3f64:	00038f93          	addi	x31,x7,0
    3f68:	fb23c8e3          	blt	x7,x18,3f18 <_vfprintf_r+0x1018>
    3f6c:	000a0813          	addi	x16,x20,0
    3f70:	03812f03          	lw	x30,56(x2)
    3f74:	04c12e83          	lw	x29,76(x2)
    3f78:	05012e03          	lw	x28,80(x2)
    3f7c:	05412a03          	lw	x20,84(x2)
    3f80:	00090793          	addi	x15,x18,0
    3f84:	00070913          	addi	x18,x14,0
    3f88:	000b8713          	addi	x14,x23,0
    3f8c:	00f60633          	add	x12,x12,x15
    3f90:	00158593          	addi	x11,x11,1
    3f94:	00f92223          	sw	x15,4(x18)
    3f98:	01092023          	sw	x16,0(x18)
    3f9c:	0cc12e23          	sw	x12,220(x2)
    3fa0:	0cb12c23          	sw	x11,216(x2)
    3fa4:	00700793          	addi	x15,x0,7
    3fa8:	00890913          	addi	x18,x18,8
    3fac:	98b7dc63          	bge	x15,x11,3144 <_vfprintf_r+0x244>
    3fb0:	00812583          	lw	x11,8(x2)
    3fb4:	00c12503          	lw	x10,12(x2)
    3fb8:	0d410613          	addi	x12,x2,212
    3fbc:	05c12a23          	sw	x28,84(x2)
    3fc0:	04e12823          	sw	x14,80(x2)
    3fc4:	05d12623          	sw	x29,76(x2)
    3fc8:	03e12c23          	sw	x30,56(x2)
    3fcc:	0ec020ef          	jal	x1,60b8 <__sprint_r>
    3fd0:	ee0510e3          	bne	x10,x0,3eb0 <_vfprintf_r+0xfb0>
    3fd4:	0dc12603          	lw	x12,220(x2)
    3fd8:	05412e03          	lw	x28,84(x2)
    3fdc:	05012703          	lw	x14,80(x2)
    3fe0:	04c12e83          	lw	x29,76(x2)
    3fe4:	03812f03          	lw	x30,56(x2)
    3fe8:	00098913          	addi	x18,x19,0
    3fec:	958ff06f          	jal	x0,3144 <_vfprintf_r+0x244>
    3ff0:	00812583          	lw	x11,8(x2)
    3ff4:	00c12503          	lw	x10,12(x2)
    3ff8:	0d410613          	addi	x12,x2,212
    3ffc:	05c12823          	sw	x28,80(x2)
    4000:	04e12623          	sw	x14,76(x2)
    4004:	03d12c23          	sw	x29,56(x2)
    4008:	0b0020ef          	jal	x1,60b8 <__sprint_r>
    400c:	ea0512e3          	bne	x10,x0,3eb0 <_vfprintf_r+0xfb0>
    4010:	0dc12603          	lw	x12,220(x2)
    4014:	05012e03          	lw	x28,80(x2)
    4018:	04c12703          	lw	x14,76(x2)
    401c:	03812e83          	lw	x29,56(x2)
    4020:	00098913          	addi	x18,x19,0
    4024:	984ff06f          	jal	x0,31a8 <_vfprintf_r+0x2a8>
    4028:	01000a93          	addi	x21,x0,16
    402c:	0d812783          	lw	x15,216(x2)
    4030:	0000e817          	auipc	x16,0xe
    4034:	35080813          	addi	x16,x16,848 # 12380 <blanks.1>
    4038:	094ad063          	bge	x21,x20,40b8 <_vfprintf_r+0x11b8>
    403c:	00090713          	addi	x14,x18,0
    4040:	000a8c13          	addi	x24,x21,0
    4044:	000a0913          	addi	x18,x20,0
    4048:	00700b13          	addi	x22,x0,7
    404c:	000e0a13          	addi	x20,x28,0
    4050:	00080b93          	addi	x23,x16,0
    4054:	00c0006f          	jal	x0,4060 <_vfprintf_r+0x1160>
    4058:	ff090913          	addi	x18,x18,-16
    405c:	052c5663          	bge	x24,x18,40a8 <_vfprintf_r+0x11a8>
    4060:	01060613          	addi	x12,x12,16
    4064:	00178793          	addi	x15,x15,1
    4068:	01772023          	sw	x23,0(x14)
    406c:	01572223          	sw	x21,4(x14)
    4070:	0cc12e23          	sw	x12,220(x2)
    4074:	0cf12c23          	sw	x15,216(x2)
    4078:	00870713          	addi	x14,x14,8
    407c:	fcfb5ee3          	bge	x22,x15,4058 <_vfprintf_r+0x1158>
    4080:	00812583          	lw	x11,8(x2)
    4084:	00c12503          	lw	x10,12(x2)
    4088:	0d410613          	addi	x12,x2,212
    408c:	02c020ef          	jal	x1,60b8 <__sprint_r>
    4090:	e20510e3          	bne	x10,x0,3eb0 <_vfprintf_r+0xfb0>
    4094:	ff090913          	addi	x18,x18,-16
    4098:	0dc12603          	lw	x12,220(x2)
    409c:	0d812783          	lw	x15,216(x2)
    40a0:	00098713          	addi	x14,x19,0
    40a4:	fb2c4ee3          	blt	x24,x18,4060 <_vfprintf_r+0x1160>
    40a8:	000a0e13          	addi	x28,x20,0
    40ac:	000b8813          	addi	x16,x23,0
    40b0:	00090a13          	addi	x20,x18,0
    40b4:	00070913          	addi	x18,x14,0
    40b8:	01460633          	add	x12,x12,x20
    40bc:	00178793          	addi	x15,x15,1
    40c0:	0cc12e23          	sw	x12,220(x2)
    40c4:	0cf12c23          	sw	x15,216(x2)
    40c8:	01092023          	sw	x16,0(x18)
    40cc:	01492223          	sw	x20,4(x18)
    40d0:	00700713          	addi	x14,x0,7
    40d4:	92f75063          	bge	x14,x15,31f4 <_vfprintf_r+0x2f4>
    40d8:	00812583          	lw	x11,8(x2)
    40dc:	00c12503          	lw	x10,12(x2)
    40e0:	0d410613          	addi	x12,x2,212
    40e4:	01c12e23          	sw	x28,28(x2)
    40e8:	7d1010ef          	jal	x1,60b8 <__sprint_r>
    40ec:	dc0512e3          	bne	x10,x0,3eb0 <_vfprintf_r+0xfb0>
    40f0:	0dc12603          	lw	x12,220(x2)
    40f4:	01c12e03          	lw	x28,28(x2)
    40f8:	8fcff06f          	jal	x0,31f4 <_vfprintf_r+0x2f4>
    40fc:	0bc12583          	lw	x11,188(x2)
    4100:	66b05c63          	bge	x0,x11,4778 <_vfprintf_r+0x1878>
    4104:	01c12783          	lw	x15,28(x2)
    4108:	02012703          	lw	x14,32(x2)
    410c:	00078a13          	addi	x20,x15,0
    4110:	2ef74463          	blt	x14,x15,43f8 <_vfprintf_r+0x14f8>
    4114:	03405663          	bge	x0,x20,4140 <_vfprintf_r+0x1240>
    4118:	0d812783          	lw	x15,216(x2)
    411c:	01460633          	add	x12,x12,x20
    4120:	01592023          	sw	x21,0(x18)
    4124:	00178793          	addi	x15,x15,1
    4128:	01492223          	sw	x20,4(x18)
    412c:	0cc12e23          	sw	x12,220(x2)
    4130:	0cf12c23          	sw	x15,216(x2)
    4134:	00700713          	addi	x14,x0,7
    4138:	00890913          	addi	x18,x18,8
    413c:	68f740e3          	blt	x14,x15,4fbc <_vfprintf_r+0x20bc>
    4140:	fffa4793          	xori	x15,x20,-1
    4144:	41f7d793          	srai	x15,x15,0x1f
    4148:	00fa7a33          	and	x20,x20,x15
    414c:	01c12783          	lw	x15,28(x2)
    4150:	41478a33          	sub	x20,x15,x20
    4154:	39404c63          	blt	x0,x20,44ec <_vfprintf_r+0x15ec>
    4158:	01c12703          	lw	x14,28(x2)
    415c:	400c7793          	andi	x15,x24,1024
    4160:	00ea8eb3          	add	x29,x21,x14
    4164:	140796e3          	bne	x15,x0,4ab0 <_vfprintf_r+0x1bb0>
    4168:	0bc12a03          	lw	x20,188(x2)
    416c:	02012783          	lw	x15,32(x2)
    4170:	40fa4063          	blt	x20,x15,4570 <_vfprintf_r+0x1670>
    4174:	001c7793          	andi	x15,x24,1
    4178:	3e079c63          	bne	x15,x0,4570 <_vfprintf_r+0x1670>
    417c:	02012783          	lw	x15,32(x2)
    4180:	00fa8ab3          	add	x21,x21,x15
    4184:	41da8ab3          	sub	x21,x21,x29
    4188:	41478a33          	sub	x20,x15,x20
    418c:	015a5463          	bge	x20,x21,4194 <_vfprintf_r+0x1294>
    4190:	000a0a93          	addi	x21,x20,0
    4194:	03505863          	bge	x0,x21,41c4 <_vfprintf_r+0x12c4>
    4198:	0d812783          	lw	x15,216(x2)
    419c:	01560633          	add	x12,x12,x21
    41a0:	01d92023          	sw	x29,0(x18)
    41a4:	00178793          	addi	x15,x15,1
    41a8:	01592223          	sw	x21,4(x18)
    41ac:	0cc12e23          	sw	x12,220(x2)
    41b0:	0cf12c23          	sw	x15,216(x2)
    41b4:	00700713          	addi	x14,x0,7
    41b8:	00890913          	addi	x18,x18,8
    41bc:	00f75463          	bge	x14,x15,41c4 <_vfprintf_r+0x12c4>
    41c0:	4e80106f          	jal	x0,56a8 <_vfprintf_r+0x27a8>
    41c4:	fffac793          	xori	x15,x21,-1
    41c8:	41f7d793          	srai	x15,x15,0x1f
    41cc:	00fafab3          	and	x21,x21,x15
    41d0:	415a0a33          	sub	x20,x20,x21
    41d4:	01404463          	blt	x0,x20,41dc <_vfprintf_r+0x12dc>
    41d8:	80cff06f          	jal	x0,31e4 <_vfprintf_r+0x2e4>
    41dc:	01000a93          	addi	x21,x0,16
    41e0:	0d812703          	lw	x14,216(x2)
    41e4:	0000e797          	auipc	x15,0xe
    41e8:	1ac78793          	addi	x15,x15,428 # 12390 <zeroes.0>
    41ec:	654ada63          	bge	x21,x20,4840 <_vfprintf_r+0x1940>
    41f0:	00090693          	addi	x13,x18,0
    41f4:	000a8813          	addi	x16,x21,0
    41f8:	000a0913          	addi	x18,x20,0
    41fc:	00700b13          	addi	x22,x0,7
    4200:	000e0a13          	addi	x20,x28,0
    4204:	00078b93          	addi	x23,x15,0
    4208:	00c0006f          	jal	x0,4214 <_vfprintf_r+0x1314>
    420c:	ff090913          	addi	x18,x18,-16
    4210:	63285063          	bge	x16,x18,4830 <_vfprintf_r+0x1930>
    4214:	01060613          	addi	x12,x12,16
    4218:	00170713          	addi	x14,x14,1
    421c:	0176a023          	sw	x23,0(x13)
    4220:	0156a223          	sw	x21,4(x13)
    4224:	0cc12e23          	sw	x12,220(x2)
    4228:	0ce12c23          	sw	x14,216(x2)
    422c:	00868693          	addi	x13,x13,8
    4230:	fceb5ee3          	bge	x22,x14,420c <_vfprintf_r+0x130c>
    4234:	00812583          	lw	x11,8(x2)
    4238:	00c12503          	lw	x10,12(x2)
    423c:	0d410613          	addi	x12,x2,212
    4240:	679010ef          	jal	x1,60b8 <__sprint_r>
    4244:	c60516e3          	bne	x10,x0,3eb0 <_vfprintf_r+0xfb0>
    4248:	0dc12603          	lw	x12,220(x2)
    424c:	0d812703          	lw	x14,216(x2)
    4250:	00098693          	addi	x13,x19,0
    4254:	01000813          	addi	x16,x0,16
    4258:	fb5ff06f          	jal	x0,420c <_vfprintf_r+0x130c>
    425c:	00ec77b3          	and	x15,x24,x14
    4260:	a4079863          	bne	x15,x0,34b0 <_vfprintf_r+0x5b0>
    4264:	01592023          	sw	x21,0(x18)
    4268:	00e92223          	sw	x14,4(x18)
    426c:	0cc12e23          	sw	x12,220(x2)
    4270:	0d412c23          	sw	x20,216(x2)
    4274:	00700793          	addi	x15,x0,7
    4278:	b147d463          	bge	x15,x20,3580 <_vfprintf_r+0x680>
    427c:	00812583          	lw	x11,8(x2)
    4280:	00c12503          	lw	x10,12(x2)
    4284:	0d410613          	addi	x12,x2,212
    4288:	01c12e23          	sw	x28,28(x2)
    428c:	62d010ef          	jal	x1,60b8 <__sprint_r>
    4290:	c20510e3          	bne	x10,x0,3eb0 <_vfprintf_r+0xfb0>
    4294:	0dc12603          	lw	x12,220(x2)
    4298:	0d812a03          	lw	x20,216(x2)
    429c:	01c12e03          	lw	x28,28(x2)
    42a0:	00098b13          	addi	x22,x19,0
    42a4:	adcff06f          	jal	x0,3580 <_vfprintf_r+0x680>
    42a8:	02012703          	lw	x14,32(x2)
    42ac:	00100793          	addi	x15,x0,1
    42b0:	ace7d863          	bge	x15,x14,3580 <_vfprintf_r+0x680>
    42b4:	01100793          	addi	x15,x0,17
    42b8:	00e7c463          	blt	x15,x14,42c0 <_vfprintf_r+0x13c0>
    42bc:	7600106f          	jal	x0,5a1c <_vfprintf_r+0x2b1c>
    42c0:	0000e797          	auipc	x15,0xe
    42c4:	0d078793          	addi	x15,x15,208 # 12390 <zeroes.0>
    42c8:	000b0693          	addi	x13,x22,0
    42cc:	01000a93          	addi	x21,x0,16
    42d0:	00700713          	addi	x14,x0,7
    42d4:	000e0b13          	addi	x22,x28,0
    42d8:	00078b93          	addi	x23,x15,0
    42dc:	00c0006f          	jal	x0,42e8 <_vfprintf_r+0x13e8>
    42e0:	ff090913          	addi	x18,x18,-16
    42e4:	6b2ada63          	bge	x21,x18,4998 <_vfprintf_r+0x1a98>
    42e8:	01060613          	addi	x12,x12,16
    42ec:	001a0a13          	addi	x20,x20,1
    42f0:	0176a023          	sw	x23,0(x13)
    42f4:	0156a223          	sw	x21,4(x13)
    42f8:	0cc12e23          	sw	x12,220(x2)
    42fc:	0d412c23          	sw	x20,216(x2)
    4300:	00868693          	addi	x13,x13,8
    4304:	fd475ee3          	bge	x14,x20,42e0 <_vfprintf_r+0x13e0>
    4308:	00812583          	lw	x11,8(x2)
    430c:	00c12503          	lw	x10,12(x2)
    4310:	0d410613          	addi	x12,x2,212
    4314:	5a5010ef          	jal	x1,60b8 <__sprint_r>
    4318:	b8051ce3          	bne	x10,x0,3eb0 <_vfprintf_r+0xfb0>
    431c:	0dc12603          	lw	x12,220(x2)
    4320:	0d812a03          	lw	x20,216(x2)
    4324:	00098693          	addi	x13,x19,0
    4328:	00700713          	addi	x14,x0,7
    432c:	fb5ff06f          	jal	x0,42e0 <_vfprintf_r+0x13e0>
    4330:	00000713          	addi	x14,x0,0
    4334:	1a010a93          	addi	x21,x2,416
    4338:	bb0ff06f          	jal	x0,36e8 <_vfprintf_r+0x7e8>
    433c:	001c7793          	andi	x15,x24,1
    4340:	00079463          	bne	x15,x0,4348 <_vfprintf_r+0x1448>
    4344:	ea1fe06f          	jal	x0,31e4 <_vfprintf_r+0x2e4>
    4348:	8a9ff06f          	jal	x0,3bf0 <_vfprintf_r+0xcf0>
    434c:	000bcb03          	lbu	x22,0(x23)
    4350:	00f12c23          	sw	x15,24(x2)
    4354:	d45fe06f          	jal	x0,3098 <_vfprintf_r+0x198>
    4358:	01812703          	lw	x14,24(x2)
    435c:	00072783          	lw	x15,0(x14)
    4360:	00470713          	addi	x14,x14,4
    4364:	00e12c23          	sw	x14,24(x2)
    4368:	0007a603          	lw	x12,0(x15)
    436c:	0047a683          	lw	x13,4(x15)
    4370:	0087a703          	lw	x14,8(x15)
    4374:	00c7a783          	lw	x15,12(x15)
    4378:	80cff06f          	jal	x0,3384 <_vfprintf_r+0x484>
    437c:	01012603          	lw	x12,16(x2)
    4380:	0006a783          	lw	x15,0(x13)
    4384:	00e12c23          	sw	x14,24(x2)
    4388:	41f65693          	srai	x13,x12,0x1f
    438c:	00c7a023          	sw	x12,0(x15)
    4390:	00d7a223          	sw	x13,4(x15)
    4394:	ec4ff06f          	jal	x0,3a58 <_vfprintf_r+0xb58>
    4398:	01812783          	lw	x15,24(x2)
    439c:	00478693          	addi	x13,x15,4
    43a0:	01812783          	lw	x15,24(x2)
    43a4:	00d12c23          	sw	x13,24(x2)
    43a8:	0007ad83          	lw	x27,0(x15)
    43ac:	00000793          	addi	x15,x0,0
    43b0:	e44ff06f          	jal	x0,39f4 <_vfprintf_r+0xaf4>
    43b4:	01812703          	lw	x14,24(x2)
    43b8:	010c7793          	andi	x15,x24,16
    43bc:	00072d83          	lw	x27,0(x14)
    43c0:	00470693          	addi	x13,x14,4
    43c4:	00078463          	beq	x15,x0,43cc <_vfprintf_r+0x14cc>
    43c8:	4880106f          	jal	x0,5850 <_vfprintf_r+0x2950>
    43cc:	040c7793          	andi	x15,x24,64
    43d0:	62078063          	beq	x15,x0,49f0 <_vfprintf_r+0x1af0>
    43d4:	010d9d93          	slli	x27,x27,0x10
    43d8:	00d12c23          	sw	x13,24(x2)
    43dc:	010ddd93          	srli	x27,x27,0x10
    43e0:	000c0713          	addi	x14,x24,0
    43e4:	00000793          	addi	x15,x0,0
    43e8:	00100693          	addi	x13,x0,1
    43ec:	c58ff06f          	jal	x0,3844 <_vfprintf_r+0x944>
    43f0:	000c0713          	addi	x14,x24,0
    43f4:	de4ff06f          	jal	x0,39d8 <_vfprintf_r+0xad8>
    43f8:	00070a13          	addi	x20,x14,0
    43fc:	d1404ee3          	blt	x0,x20,4118 <_vfprintf_r+0x1218>
    4400:	d41ff06f          	jal	x0,4140 <_vfprintf_r+0x1240>
    4404:	fff00a13          	addi	x20,x0,-1
    4408:	00068b93          	addi	x23,x13,0
    440c:	c91fe06f          	jal	x0,309c <_vfprintf_r+0x19c>
    4410:	0000e797          	auipc	x15,0xe
    4414:	ae878793          	addi	x15,x15,-1304 # 11ef8 <__clzsi2+0x340>
    4418:	000b8e13          	addi	x28,x23,0
    441c:	02f12a23          	sw	x15,52(x2)
    4420:	020c7793          	andi	x15,x24,32
    4424:	1a078863          	beq	x15,x0,45d4 <_vfprintf_r+0x16d4>
    4428:	01812783          	lw	x15,24(x2)
    442c:	00778793          	addi	x15,x15,7
    4430:	ff87f793          	andi	x15,x15,-8
    4434:	00878713          	addi	x14,x15,8
    4438:	0007ad83          	lw	x27,0(x15)
    443c:	0047a783          	lw	x15,4(x15)
    4440:	00e12c23          	sw	x14,24(x2)
    4444:	001c7713          	andi	x14,x24,1
    4448:	00070e63          	beq	x14,x0,4464 <_vfprintf_r+0x1564>
    444c:	00fde733          	or	x14,x27,x15
    4450:	00070a63          	beq	x14,x0,4464 <_vfprintf_r+0x1564>
    4454:	03000713          	addi	x14,x0,48
    4458:	0b610ca3          	sb	x22,185(x2)
    445c:	002c6c13          	ori	x24,x24,2
    4460:	0ae10c23          	sb	x14,184(x2)
    4464:	bffc7713          	andi	x14,x24,-1025
    4468:	00200693          	addi	x13,x0,2
    446c:	bd8ff06f          	jal	x0,3844 <_vfprintf_r+0x944>
    4470:	0000e797          	auipc	x15,0xe
    4474:	a7478793          	addi	x15,x15,-1420 # 11ee4 <__clzsi2+0x32c>
    4478:	000b8e13          	addi	x28,x23,0
    447c:	02f12a23          	sw	x15,52(x2)
    4480:	fa1ff06f          	jal	x0,4420 <_vfprintf_r+0x1520>
    4484:	00812583          	lw	x11,8(x2)
    4488:	00c12503          	lw	x10,12(x2)
    448c:	0d410613          	addi	x12,x2,212
    4490:	01c12e23          	sw	x28,28(x2)
    4494:	425010ef          	jal	x1,60b8 <__sprint_r>
    4498:	a0051ce3          	bne	x10,x0,3eb0 <_vfprintf_r+0xfb0>
    449c:	0dc12603          	lw	x12,220(x2)
    44a0:	01c12e03          	lw	x28,28(x2)
    44a4:	00098913          	addi	x18,x19,0
    44a8:	f78ff06f          	jal	x0,3c20 <_vfprintf_r+0xd20>
    44ac:	001bcb03          	lbu	x22,1(x23)
    44b0:	020c6c13          	ori	x24,x24,32
    44b4:	001b8b93          	addi	x23,x23,1
    44b8:	be1fe06f          	jal	x0,3098 <_vfprintf_r+0x198>
    44bc:	001bcb03          	lbu	x22,1(x23)
    44c0:	200c6c13          	ori	x24,x24,512
    44c4:	001b8b93          	addi	x23,x23,1
    44c8:	bd1fe06f          	jal	x0,3098 <_vfprintf_r+0x198>
    44cc:	00600793          	addi	x15,x0,6
    44d0:	000a0713          	addi	x14,x20,0
    44d4:	3147eae3          	bltu	x15,x20,4fe8 <_vfprintf_r+0x20e8>
    44d8:	01712c23          	sw	x23,24(x2)
    44dc:	00070d93          	addi	x27,x14,0
    44e0:	0000ea97          	auipc	x21,0xe
    44e4:	a2ca8a93          	addi	x21,x21,-1492 # 11f0c <__clzsi2+0x354>
    44e8:	c29fe06f          	jal	x0,3110 <_vfprintf_r+0x210>
    44ec:	01000b13          	addi	x22,x0,16
    44f0:	0d812583          	lw	x11,216(x2)
    44f4:	0000e797          	auipc	x15,0xe
    44f8:	e9c78793          	addi	x15,x15,-356 # 12390 <zeroes.0>
    44fc:	574b5463          	bge	x22,x20,4a64 <_vfprintf_r+0x1b64>
    4500:	00090693          	addi	x13,x18,0
    4504:	000b0813          	addi	x16,x22,0
    4508:	000a0913          	addi	x18,x20,0
    450c:	00700713          	addi	x14,x0,7
    4510:	000e0a13          	addi	x20,x28,0
    4514:	00078b93          	addi	x23,x15,0
    4518:	00c0006f          	jal	x0,4524 <_vfprintf_r+0x1624>
    451c:	ff090913          	addi	x18,x18,-16
    4520:	53285a63          	bge	x16,x18,4a54 <_vfprintf_r+0x1b54>
    4524:	01060613          	addi	x12,x12,16
    4528:	00158593          	addi	x11,x11,1
    452c:	0176a023          	sw	x23,0(x13)
    4530:	0166a223          	sw	x22,4(x13)
    4534:	0cc12e23          	sw	x12,220(x2)
    4538:	0cb12c23          	sw	x11,216(x2)
    453c:	00868693          	addi	x13,x13,8
    4540:	fcb75ee3          	bge	x14,x11,451c <_vfprintf_r+0x161c>
    4544:	00812583          	lw	x11,8(x2)
    4548:	00c12503          	lw	x10,12(x2)
    454c:	0d410613          	addi	x12,x2,212
    4550:	369010ef          	jal	x1,60b8 <__sprint_r>
    4554:	94051ee3          	bne	x10,x0,3eb0 <_vfprintf_r+0xfb0>
    4558:	0dc12603          	lw	x12,220(x2)
    455c:	0d812583          	lw	x11,216(x2)
    4560:	00098693          	addi	x13,x19,0
    4564:	00700713          	addi	x14,x0,7
    4568:	01000813          	addi	x16,x0,16
    456c:	fb1ff06f          	jal	x0,451c <_vfprintf_r+0x161c>
    4570:	02c12703          	lw	x14,44(x2)
    4574:	0d812783          	lw	x15,216(x2)
    4578:	03012683          	lw	x13,48(x2)
    457c:	00e60633          	add	x12,x12,x14
    4580:	00178793          	addi	x15,x15,1
    4584:	00e92223          	sw	x14,4(x18)
    4588:	00d92023          	sw	x13,0(x18)
    458c:	0cc12e23          	sw	x12,220(x2)
    4590:	0cf12c23          	sw	x15,216(x2)
    4594:	00700713          	addi	x14,x0,7
    4598:	00890913          	addi	x18,x18,8
    459c:	bef750e3          	bge	x14,x15,417c <_vfprintf_r+0x127c>
    45a0:	00812583          	lw	x11,8(x2)
    45a4:	00c12503          	lw	x10,12(x2)
    45a8:	0d410613          	addi	x12,x2,212
    45ac:	03d12223          	sw	x29,36(x2)
    45b0:	01c12e23          	sw	x28,28(x2)
    45b4:	305010ef          	jal	x1,60b8 <__sprint_r>
    45b8:	8e051ce3          	bne	x10,x0,3eb0 <_vfprintf_r+0xfb0>
    45bc:	0bc12a03          	lw	x20,188(x2)
    45c0:	0dc12603          	lw	x12,220(x2)
    45c4:	02412e83          	lw	x29,36(x2)
    45c8:	01c12e03          	lw	x28,28(x2)
    45cc:	00098913          	addi	x18,x19,0
    45d0:	badff06f          	jal	x0,417c <_vfprintf_r+0x127c>
    45d4:	01812703          	lw	x14,24(x2)
    45d8:	010c7793          	andi	x15,x24,16
    45dc:	00072d83          	lw	x27,0(x14)
    45e0:	00470713          	addi	x14,x14,4
    45e4:	00e12c23          	sw	x14,24(x2)
    45e8:	06079e63          	bne	x15,x0,4664 <_vfprintf_r+0x1764>
    45ec:	040c7793          	andi	x15,x24,64
    45f0:	06078663          	beq	x15,x0,465c <_vfprintf_r+0x175c>
    45f4:	010d9d93          	slli	x27,x27,0x10
    45f8:	010ddd93          	srli	x27,x27,0x10
    45fc:	00000793          	addi	x15,x0,0
    4600:	e45ff06f          	jal	x0,4444 <_vfprintf_r+0x1544>
    4604:	00812583          	lw	x11,8(x2)
    4608:	00c12503          	lw	x10,12(x2)
    460c:	0d410613          	addi	x12,x2,212
    4610:	01c12e23          	sw	x28,28(x2)
    4614:	2a5010ef          	jal	x1,60b8 <__sprint_r>
    4618:	88051ce3          	bne	x10,x0,3eb0 <_vfprintf_r+0xfb0>
    461c:	0dc12603          	lw	x12,220(x2)
    4620:	0d812a03          	lw	x20,216(x2)
    4624:	01c12e03          	lw	x28,28(x2)
    4628:	00098b13          	addi	x22,x19,0
    462c:	ea5fe06f          	jal	x0,34d0 <_vfprintf_r+0x5d0>
    4630:	00812583          	lw	x11,8(x2)
    4634:	00c12503          	lw	x10,12(x2)
    4638:	0d410613          	addi	x12,x2,212
    463c:	01c12e23          	sw	x28,28(x2)
    4640:	279010ef          	jal	x1,60b8 <__sprint_r>
    4644:	860516e3          	bne	x10,x0,3eb0 <_vfprintf_r+0xfb0>
    4648:	0dc12603          	lw	x12,220(x2)
    464c:	0d812a03          	lw	x20,216(x2)
    4650:	01c12e03          	lw	x28,28(x2)
    4654:	00098b13          	addi	x22,x19,0
    4658:	ea9fe06f          	jal	x0,3500 <_vfprintf_r+0x600>
    465c:	200c7793          	andi	x15,x24,512
    4660:	1c079ae3          	bne	x15,x0,5034 <_vfprintf_r+0x2134>
    4664:	00000793          	addi	x15,x0,0
    4668:	dddff06f          	jal	x0,4444 <_vfprintf_r+0x1544>
    466c:	ccccd837          	lui	x16,0xccccd
    4670:	00080e93          	addi	x29,x16,0 # ccccd000 <__heap_end+0xcc8cd000>
    4674:	04412a83          	lw	x21,68(x2)
    4678:	ccd80813          	addi	x16,x16,-819
    467c:	ccce8e93          	addi	x29,x29,-820
    4680:	40077f13          	andi	x30,x14,1024
    4684:	00000613          	addi	x12,x0,0
    4688:	1a010513          	addi	x10,x2,416
    468c:	00500313          	addi	x6,x0,5
    4690:	0ff00c13          	addi	x24,x0,255
    4694:	0540006f          	jal	x0,46e8 <_vfprintf_r+0x17e8>
    4698:	01bbb6b3          	sltu	x13,x23,x27
    469c:	00db86b3          	add	x13,x23,x13
    46a0:	0266f6b3          	remu	x13,x13,x6
    46a4:	40dd86b3          	sub	x13,x27,x13
    46a8:	00ddb5b3          	sltu	x11,x27,x13
    46ac:	40b785b3          	sub	x11,x15,x11
    46b0:	03d68fb3          	mul	x31,x13,x29
    46b4:	030585b3          	mul	x11,x11,x16
    46b8:	0306b533          	mulhu	x10,x13,x16
    46bc:	01f585b3          	add	x11,x11,x31
    46c0:	030686b3          	mul	x13,x13,x16
    46c4:	00a585b3          	add	x11,x11,x10
    46c8:	01f59513          	slli	x10,x11,0x1f
    46cc:	0015d593          	srli	x11,x11,0x1
    46d0:	0016d693          	srli	x13,x13,0x1
    46d4:	00d566b3          	or	x13,x10,x13
    46d8:	6a078663          	beq	x15,x0,4d84 <_vfprintf_r+0x1e84>
    46dc:	00068d93          	addi	x27,x13,0
    46e0:	00058793          	addi	x15,x11,0
    46e4:	00088513          	addi	x10,x17,0
    46e8:	00fd8bb3          	add	x23,x27,x15
    46ec:	01bbb6b3          	sltu	x13,x23,x27
    46f0:	00db86b3          	add	x13,x23,x13
    46f4:	0266f6b3          	remu	x13,x13,x6
    46f8:	00160613          	addi	x12,x12,1
    46fc:	fff50893          	addi	x17,x10,-1
    4700:	40dd86b3          	sub	x13,x27,x13
    4704:	00ddb5b3          	sltu	x11,x27,x13
    4708:	40b785b3          	sub	x11,x15,x11
    470c:	0306bfb3          	mulhu	x31,x13,x16
    4710:	030585b3          	mul	x11,x11,x16
    4714:	030686b3          	mul	x13,x13,x16
    4718:	01f585b3          	add	x11,x11,x31
    471c:	01f59593          	slli	x11,x11,0x1f
    4720:	0016d693          	srli	x13,x13,0x1
    4724:	00d5e6b3          	or	x13,x11,x13
    4728:	00269593          	slli	x11,x13,0x2
    472c:	00d586b3          	add	x13,x11,x13
    4730:	00169693          	slli	x13,x13,0x1
    4734:	40dd86b3          	sub	x13,x27,x13
    4738:	03068693          	addi	x13,x13,48
    473c:	fed50fa3          	sb	x13,-1(x10)
    4740:	f40f0ce3          	beq	x30,x0,4698 <_vfprintf_r+0x1798>
    4744:	000ac683          	lbu	x13,0(x21)
    4748:	f4d618e3          	bne	x12,x13,4698 <_vfprintf_r+0x1798>
    474c:	f58606e3          	beq	x12,x24,4698 <_vfprintf_r+0x1798>
    4750:	58079063          	bne	x15,x0,4cd0 <_vfprintf_r+0x1dd0>
    4754:	00900693          	addi	x13,x0,9
    4758:	57b6ec63          	bltu	x13,x27,4cd0 <_vfprintf_r+0x1dd0>
    475c:	05512223          	sw	x21,68(x2)
    4760:	1a010793          	addi	x15,x2,416
    4764:	00088a93          	addi	x21,x17,0
    4768:	00070c13          	addi	x24,x14,0
    476c:	02c12023          	sw	x12,32(x2)
    4770:	41578733          	sub	x14,x15,x21
    4774:	f75fe06f          	jal	x0,36e8 <_vfprintf_r+0x7e8>
    4778:	0d812783          	lw	x15,216(x2)
    477c:	00100713          	addi	x14,x0,1
    4780:	00160613          	addi	x12,x12,1
    4784:	0000d517          	auipc	x10,0xd
    4788:	79050513          	addi	x10,x10,1936 # 11f14 <__clzsi2+0x35c>
    478c:	00178793          	addi	x15,x15,1
    4790:	00e92223          	sw	x14,4(x18)
    4794:	00a92023          	sw	x10,0(x18)
    4798:	0cc12e23          	sw	x12,220(x2)
    479c:	0cf12c23          	sw	x15,216(x2)
    47a0:	00700713          	addi	x14,x0,7
    47a4:	00890913          	addi	x18,x18,8
    47a8:	5ef74463          	blt	x14,x15,4d90 <_vfprintf_r+0x1e90>
    47ac:	14059263          	bne	x11,x0,48f0 <_vfprintf_r+0x19f0>
    47b0:	02012703          	lw	x14,32(x2)
    47b4:	001c7793          	andi	x15,x24,1
    47b8:	00e7e7b3          	or	x15,x15,x14
    47bc:	00079463          	bne	x15,x0,47c4 <_vfprintf_r+0x18c4>
    47c0:	a25fe06f          	jal	x0,31e4 <_vfprintf_r+0x2e4>
    47c4:	02c12783          	lw	x15,44(x2)
    47c8:	0d812703          	lw	x14,216(x2)
    47cc:	03012683          	lw	x13,48(x2)
    47d0:	00c78633          	add	x12,x15,x12
    47d4:	00170713          	addi	x14,x14,1
    47d8:	00f92223          	sw	x15,4(x18)
    47dc:	0cc12e23          	sw	x12,220(x2)
    47e0:	00d92023          	sw	x13,0(x18)
    47e4:	0ce12c23          	sw	x14,216(x2)
    47e8:	00700793          	addi	x15,x0,7
    47ec:	08e7c4e3          	blt	x15,x14,5074 <_vfprintf_r+0x2174>
    47f0:	00890913          	addi	x18,x18,8
    47f4:	1300006f          	jal	x0,4924 <_vfprintf_r+0x1a24>
    47f8:	00c12503          	lw	x10,12(x2)
    47fc:	b28fc0ef          	jal	x1,b24 <__sinit>
    4800:	01012783          	lw	x15,16(x2)
    4804:	f58fe06f          	jal	x0,2f5c <_vfprintf_r+0x5c>
    4808:	00812583          	lw	x11,8(x2)
    480c:	00c12503          	lw	x10,12(x2)
    4810:	0d410613          	addi	x12,x2,212
    4814:	01c12e23          	sw	x28,28(x2)
    4818:	0a1010ef          	jal	x1,60b8 <__sprint_r>
    481c:	e8051a63          	bne	x10,x0,3eb0 <_vfprintf_r+0xfb0>
    4820:	0dc12603          	lw	x12,220(x2)
    4824:	01c12e03          	lw	x28,28(x2)
    4828:	00098913          	addi	x18,x19,0
    482c:	bb8ff06f          	jal	x0,3be4 <_vfprintf_r+0xce4>
    4830:	000a0e13          	addi	x28,x20,0
    4834:	000b8793          	addi	x15,x23,0
    4838:	00090a13          	addi	x20,x18,0
    483c:	00068913          	addi	x18,x13,0
    4840:	01460633          	add	x12,x12,x20
    4844:	00170713          	addi	x14,x14,1
    4848:	0cc12e23          	sw	x12,220(x2)
    484c:	0ce12c23          	sw	x14,216(x2)
    4850:	00f92023          	sw	x15,0(x18)
    4854:	01492223          	sw	x20,4(x18)
    4858:	00700793          	addi	x15,x0,7
    485c:	00e7c463          	blt	x15,x14,4864 <_vfprintf_r+0x1964>
    4860:	981fe06f          	jal	x0,31e0 <_vfprintf_r+0x2e0>
    4864:	d49fe06f          	jal	x0,35ac <_vfprintf_r+0x6ac>
    4868:	0e012603          	lw	x12,224(x2)
    486c:	0e412683          	lw	x13,228(x2)
    4870:	0e812703          	lw	x14,232(x2)
    4874:	0ec12783          	lw	x15,236(x2)
    4878:	09010593          	addi	x11,x2,144
    487c:	0a010513          	addi	x10,x2,160
    4880:	08012823          	sw	x0,144(x2)
    4884:	08012a23          	sw	x0,148(x2)
    4888:	08012c23          	sw	x0,152(x2)
    488c:	08012e23          	sw	x0,156(x2)
    4890:	0ac12023          	sw	x12,160(x2)
    4894:	0ad12223          	sw	x13,164(x2)
    4898:	0ae12423          	sw	x14,168(x2)
    489c:	0af12623          	sw	x15,172(x2)
    48a0:	3e00a0ef          	jal	x1,ec80 <__letf2>
    48a4:	01412e03          	lw	x28,20(x2)
    48a8:	5a0540e3          	blt	x10,x0,5648 <_vfprintf_r+0x2748>
    48ac:	0b714783          	lbu	x15,183(x2)
    48b0:	04700713          	addi	x14,x0,71
    48b4:	0000da97          	auipc	x21,0xd
    48b8:	624a8a93          	addi	x21,x21,1572 # 11ed8 <__clzsi2+0x320>
    48bc:	01674663          	blt	x14,x22,48c8 <_vfprintf_r+0x19c8>
    48c0:	0000da97          	auipc	x21,0xd
    48c4:	614a8a93          	addi	x21,x21,1556 # 11ed4 <__clzsi2+0x31c>
    48c8:	00300d93          	addi	x27,x0,3
    48cc:	f7fc7c13          	andi	x24,x24,-129
    48d0:	000d8713          	addi	x14,x27,0
    48d4:	d89fe06f          	jal	x0,365c <_vfprintf_r+0x75c>
    48d8:	01812783          	lw	x15,24(x2)
    48dc:	01012683          	lw	x13,16(x2)
    48e0:	0007a783          	lw	x15,0(x15)
    48e4:	00d7a023          	sw	x13,0(x15)
    48e8:	00e12c23          	sw	x14,24(x2)
    48ec:	96cff06f          	jal	x0,3a58 <_vfprintf_r+0xb58>
    48f0:	02c12783          	lw	x15,44(x2)
    48f4:	0d812703          	lw	x14,216(x2)
    48f8:	03012683          	lw	x13,48(x2)
    48fc:	00c78633          	add	x12,x15,x12
    4900:	00170713          	addi	x14,x14,1
    4904:	00f92223          	sw	x15,4(x18)
    4908:	00d92023          	sw	x13,0(x18)
    490c:	0cc12e23          	sw	x12,220(x2)
    4910:	0ce12c23          	sw	x14,216(x2)
    4914:	00700793          	addi	x15,x0,7
    4918:	00890913          	addi	x18,x18,8
    491c:	74e7cc63          	blt	x15,x14,5074 <_vfprintf_r+0x2174>
    4920:	5c05cae3          	blt	x11,x0,56f4 <_vfprintf_r+0x27f4>
    4924:	02012783          	lw	x15,32(x2)
    4928:	00170713          	addi	x14,x14,1
    492c:	0ce12c23          	sw	x14,216(x2)
    4930:	00c78633          	add	x12,x15,x12
    4934:	00f92223          	sw	x15,4(x18)
    4938:	0cc12e23          	sw	x12,220(x2)
    493c:	01592023          	sw	x21,0(x18)
    4940:	00700793          	addi	x15,x0,7
    4944:	00e7c463          	blt	x15,x14,494c <_vfprintf_r+0x1a4c>
    4948:	899fe06f          	jal	x0,31e0 <_vfprintf_r+0x2e0>
    494c:	c61fe06f          	jal	x0,35ac <_vfprintf_r+0x6ac>
    4950:	000a8513          	addi	x10,x21,0
    4954:	03c12c23          	sw	x28,56(x2)
    4958:	bc4fe0ef          	jal	x1,2d1c <strlen>
    495c:	0b714783          	lbu	x15,183(x2)
    4960:	fff54693          	xori	x13,x10,-1
    4964:	41f6d693          	srai	x13,x13,0x1f
    4968:	01712c23          	sw	x23,24(x2)
    496c:	00012a23          	sw	x0,20(x2)
    4970:	02012223          	sw	x0,36(x2)
    4974:	02012423          	sw	x0,40(x2)
    4978:	00012e23          	sw	x0,28(x2)
    497c:	03812e03          	lw	x28,56(x2)
    4980:	00050713          	addi	x14,x10,0
    4984:	00d57db3          	and	x27,x10,x13
    4988:	00000a13          	addi	x20,x0,0
    498c:	00078463          	beq	x15,x0,4994 <_vfprintf_r+0x1a94>
    4990:	ce5fe06f          	jal	x0,3674 <_vfprintf_r+0x774>
    4994:	f90fe06f          	jal	x0,3124 <_vfprintf_r+0x224>
    4998:	000b0e13          	addi	x28,x22,0
    499c:	000b8793          	addi	x15,x23,0
    49a0:	00068b13          	addi	x22,x13,0
    49a4:	01260633          	add	x12,x12,x18
    49a8:	001a0a13          	addi	x20,x20,1
    49ac:	0cc12e23          	sw	x12,220(x2)
    49b0:	0d412c23          	sw	x20,216(x2)
    49b4:	00fb2023          	sw	x15,0(x22)
    49b8:	012b2223          	sw	x18,4(x22)
    49bc:	00700793          	addi	x15,x0,7
    49c0:	0147c463          	blt	x15,x20,49c8 <_vfprintf_r+0x1ac8>
    49c4:	bb9fe06f          	jal	x0,357c <_vfprintf_r+0x67c>
    49c8:	8b5ff06f          	jal	x0,427c <_vfprintf_r+0x137c>
    49cc:	200c7793          	andi	x15,x24,512
    49d0:	66078863          	beq	x15,x0,5040 <_vfprintf_r+0x2140>
    49d4:	018d9d93          	slli	x27,x27,0x18
    49d8:	418ddd93          	srai	x27,x27,0x18
    49dc:	41fdd793          	srai	x15,x27,0x1f
    49e0:	00d12c23          	sw	x13,24(x2)
    49e4:	000c0713          	addi	x14,x24,0
    49e8:	00078693          	addi	x13,x15,0
    49ec:	cd9fe06f          	jal	x0,36c4 <_vfprintf_r+0x7c4>
    49f0:	200c7793          	andi	x15,x24,512
    49f4:	62078663          	beq	x15,x0,5020 <_vfprintf_r+0x2120>
    49f8:	00d12c23          	sw	x13,24(x2)
    49fc:	0ffdfd93          	andi	x27,x27,255
    4a00:	000c0713          	addi	x14,x24,0
    4a04:	00000793          	addi	x15,x0,0
    4a08:	00100693          	addi	x13,x0,1
    4a0c:	e39fe06f          	jal	x0,3844 <_vfprintf_r+0x944>
    4a10:	200c7793          	andi	x15,x24,512
    4a14:	5e078e63          	beq	x15,x0,5010 <_vfprintf_r+0x2110>
    4a18:	0ffdfd93          	andi	x27,x27,255
    4a1c:	00d12c23          	sw	x13,24(x2)
    4a20:	000c0713          	addi	x14,x24,0
    4a24:	00000793          	addi	x15,x0,0
    4a28:	fcdfe06f          	jal	x0,39f4 <_vfprintf_r+0xaf4>
    4a2c:	0ec12783          	lw	x15,236(x2)
    4a30:	6207cc63          	blt	x15,x0,5068 <_vfprintf_r+0x2168>
    4a34:	0b714783          	lbu	x15,183(x2)
    4a38:	04700713          	addi	x14,x0,71
    4a3c:	0000da97          	auipc	x21,0xd
    4a40:	4a4a8a93          	addi	x21,x21,1188 # 11ee0 <__clzsi2+0x328>
    4a44:	e96742e3          	blt	x14,x22,48c8 <_vfprintf_r+0x19c8>
    4a48:	0000da97          	auipc	x21,0xd
    4a4c:	494a8a93          	addi	x21,x21,1172 # 11edc <__clzsi2+0x324>
    4a50:	e79ff06f          	jal	x0,48c8 <_vfprintf_r+0x19c8>
    4a54:	000a0e13          	addi	x28,x20,0
    4a58:	000b8793          	addi	x15,x23,0
    4a5c:	00090a13          	addi	x20,x18,0
    4a60:	00068913          	addi	x18,x13,0
    4a64:	01460633          	add	x12,x12,x20
    4a68:	00158593          	addi	x11,x11,1
    4a6c:	00f92023          	sw	x15,0(x18)
    4a70:	01492223          	sw	x20,4(x18)
    4a74:	0cc12e23          	sw	x12,220(x2)
    4a78:	0cb12c23          	sw	x11,216(x2)
    4a7c:	00700793          	addi	x15,x0,7
    4a80:	00890913          	addi	x18,x18,8
    4a84:	ecb7da63          	bge	x15,x11,4158 <_vfprintf_r+0x1258>
    4a88:	00812583          	lw	x11,8(x2)
    4a8c:	00c12503          	lw	x10,12(x2)
    4a90:	0d410613          	addi	x12,x2,212
    4a94:	03c12c23          	sw	x28,56(x2)
    4a98:	620010ef          	jal	x1,60b8 <__sprint_r>
    4a9c:	c0051a63          	bne	x10,x0,3eb0 <_vfprintf_r+0xfb0>
    4aa0:	0dc12603          	lw	x12,220(x2)
    4aa4:	03812e03          	lw	x28,56(x2)
    4aa8:	00098913          	addi	x18,x19,0
    4aac:	eacff06f          	jal	x0,4158 <_vfprintf_r+0x1258>
    4ab0:	02012783          	lw	x15,32(x2)
    4ab4:	05a12823          	sw	x26,80(x2)
    4ab8:	02812d03          	lw	x26,40(x2)
    4abc:	05512a23          	sw	x21,84(x2)
    4ac0:	03b12423          	sw	x27,40(x2)
    4ac4:	03812c23          	sw	x24,56(x2)
    4ac8:	05c12623          	sw	x28,76(x2)
    4acc:	00fa8bb3          	add	x23,x21,x15
    4ad0:	00090513          	addi	x10,x18,0
    4ad4:	04412b03          	lw	x22,68(x2)
    4ad8:	04812d83          	lw	x27,72(x2)
    4adc:	02412a83          	lw	x21,36(x2)
    4ae0:	00700713          	addi	x14,x0,7
    4ae4:	01000793          	addi	x15,x0,16
    4ae8:	0000ea17          	auipc	x20,0xe
    4aec:	8a8a0a13          	addi	x20,x20,-1880 # 12390 <zeroes.0>
    4af0:	000e8913          	addi	x18,x29,0
    4af4:	09a05663          	bge	x0,x26,4b80 <_vfprintf_r+0x1c80>
    4af8:	17505c63          	bge	x0,x21,4c70 <_vfprintf_r+0x1d70>
    4afc:	fffa8a93          	addi	x21,x21,-1
    4b00:	0d812683          	lw	x13,216(x2)
    4b04:	04012583          	lw	x11,64(x2)
    4b08:	01b60633          	add	x12,x12,x27
    4b0c:	00168693          	addi	x13,x13,1
    4b10:	00b52023          	sw	x11,0(x10)
    4b14:	01b52223          	sw	x27,4(x10)
    4b18:	0cc12e23          	sw	x12,220(x2)
    4b1c:	0cd12c23          	sw	x13,216(x2)
    4b20:	00850513          	addi	x10,x10,8
    4b24:	14d74c63          	blt	x14,x13,4c7c <_vfprintf_r+0x1d7c>
    4b28:	000b4583          	lbu	x11,0(x22)
    4b2c:	412b8c33          	sub	x24,x23,x18
    4b30:	0185d463          	bge	x11,x24,4b38 <_vfprintf_r+0x1c38>
    4b34:	00058c13          	addi	x24,x11,0
    4b38:	03805663          	bge	x0,x24,4b64 <_vfprintf_r+0x1c64>
    4b3c:	0d812583          	lw	x11,216(x2)
    4b40:	01860633          	add	x12,x12,x24
    4b44:	0cc12e23          	sw	x12,220(x2)
    4b48:	00158593          	addi	x11,x11,1
    4b4c:	01252023          	sw	x18,0(x10)
    4b50:	01852223          	sw	x24,4(x10)
    4b54:	0cb12c23          	sw	x11,216(x2)
    4b58:	14b74663          	blt	x14,x11,4ca4 <_vfprintf_r+0x1da4>
    4b5c:	000b4583          	lbu	x11,0(x22)
    4b60:	00850513          	addi	x10,x10,8
    4b64:	fffc4e13          	xori	x28,x24,-1
    4b68:	41fe5e13          	srai	x28,x28,0x1f
    4b6c:	01cc76b3          	and	x13,x24,x28
    4b70:	40d58c33          	sub	x24,x11,x13
    4b74:	05804263          	blt	x0,x24,4bb8 <_vfprintf_r+0x1cb8>
    4b78:	00b90933          	add	x18,x18,x11
    4b7c:	f7a04ee3          	blt	x0,x26,4af8 <_vfprintf_r+0x1bf8>
    4b80:	f7504ee3          	blt	x0,x21,4afc <_vfprintf_r+0x1bfc>
    4b84:	05412a83          	lw	x21,84(x2)
    4b88:	02012783          	lw	x15,32(x2)
    4b8c:	00090e93          	addi	x29,x18,0
    4b90:	05612223          	sw	x22,68(x2)
    4b94:	00fa87b3          	add	x15,x21,x15
    4b98:	03812c03          	lw	x24,56(x2)
    4b9c:	04c12e03          	lw	x28,76(x2)
    4ba0:	05012d03          	lw	x26,80(x2)
    4ba4:	02812d83          	lw	x27,40(x2)
    4ba8:	00050913          	addi	x18,x10,0
    4bac:	dbd7fe63          	bgeu	x15,x29,4168 <_vfprintf_r+0x1268>
    4bb0:	00078e93          	addi	x29,x15,0
    4bb4:	db4ff06f          	jal	x0,4168 <_vfprintf_r+0x1268>
    4bb8:	0d812583          	lw	x11,216(x2)
    4bbc:	0000de17          	auipc	x28,0xd
    4bc0:	7d4e0e13          	addi	x28,x28,2004 # 12390 <zeroes.0>
    4bc4:	0987d063          	bge	x15,x24,4c44 <_vfprintf_r+0x1d44>
    4bc8:	01212e23          	sw	x18,28(x2)
    4bcc:	000c0913          	addi	x18,x24,0
    4bd0:	000b8c13          	addi	x24,x23,0
    4bd4:	000a0b93          	addi	x23,x20,0
    4bd8:	00c0006f          	jal	x0,4be4 <_vfprintf_r+0x1ce4>
    4bdc:	ff090913          	addi	x18,x18,-16
    4be0:	0527da63          	bge	x15,x18,4c34 <_vfprintf_r+0x1d34>
    4be4:	01060613          	addi	x12,x12,16
    4be8:	00158593          	addi	x11,x11,1
    4bec:	01452023          	sw	x20,0(x10)
    4bf0:	00f52223          	sw	x15,4(x10)
    4bf4:	0cc12e23          	sw	x12,220(x2)
    4bf8:	0cb12c23          	sw	x11,216(x2)
    4bfc:	00850513          	addi	x10,x10,8
    4c00:	fcb75ee3          	bge	x14,x11,4bdc <_vfprintf_r+0x1cdc>
    4c04:	00812583          	lw	x11,8(x2)
    4c08:	00c12503          	lw	x10,12(x2)
    4c0c:	0d410613          	addi	x12,x2,212
    4c10:	4a8010ef          	jal	x1,60b8 <__sprint_r>
    4c14:	a8051e63          	bne	x10,x0,3eb0 <_vfprintf_r+0xfb0>
    4c18:	01000793          	addi	x15,x0,16
    4c1c:	ff090913          	addi	x18,x18,-16
    4c20:	0dc12603          	lw	x12,220(x2)
    4c24:	0d812583          	lw	x11,216(x2)
    4c28:	00098513          	addi	x10,x19,0
    4c2c:	00700713          	addi	x14,x0,7
    4c30:	fb27cae3          	blt	x15,x18,4be4 <_vfprintf_r+0x1ce4>
    4c34:	000b8e13          	addi	x28,x23,0
    4c38:	000c0b93          	addi	x23,x24,0
    4c3c:	00090c13          	addi	x24,x18,0
    4c40:	01c12903          	lw	x18,28(x2)
    4c44:	01860633          	add	x12,x12,x24
    4c48:	00158593          	addi	x11,x11,1
    4c4c:	0cc12e23          	sw	x12,220(x2)
    4c50:	0cb12c23          	sw	x11,216(x2)
    4c54:	01c52023          	sw	x28,0(x10)
    4c58:	01852223          	sw	x24,4(x10)
    4c5c:	1ab748e3          	blt	x14,x11,560c <_vfprintf_r+0x270c>
    4c60:	000b4583          	lbu	x11,0(x22)
    4c64:	00850513          	addi	x10,x10,8
    4c68:	00b90933          	add	x18,x18,x11
    4c6c:	f11ff06f          	jal	x0,4b7c <_vfprintf_r+0x1c7c>
    4c70:	fffb0b13          	addi	x22,x22,-1
    4c74:	fffd0d13          	addi	x26,x26,-1
    4c78:	e89ff06f          	jal	x0,4b00 <_vfprintf_r+0x1c00>
    4c7c:	00812583          	lw	x11,8(x2)
    4c80:	00c12503          	lw	x10,12(x2)
    4c84:	0d410613          	addi	x12,x2,212
    4c88:	430010ef          	jal	x1,60b8 <__sprint_r>
    4c8c:	a2051263          	bne	x10,x0,3eb0 <_vfprintf_r+0xfb0>
    4c90:	0dc12603          	lw	x12,220(x2)
    4c94:	00098513          	addi	x10,x19,0
    4c98:	01000793          	addi	x15,x0,16
    4c9c:	00700713          	addi	x14,x0,7
    4ca0:	e89ff06f          	jal	x0,4b28 <_vfprintf_r+0x1c28>
    4ca4:	00812583          	lw	x11,8(x2)
    4ca8:	00c12503          	lw	x10,12(x2)
    4cac:	0d410613          	addi	x12,x2,212
    4cb0:	408010ef          	jal	x1,60b8 <__sprint_r>
    4cb4:	9e051e63          	bne	x10,x0,3eb0 <_vfprintf_r+0xfb0>
    4cb8:	000b4583          	lbu	x11,0(x22)
    4cbc:	0dc12603          	lw	x12,220(x2)
    4cc0:	00098513          	addi	x10,x19,0
    4cc4:	01000793          	addi	x15,x0,16
    4cc8:	00700713          	addi	x14,x0,7
    4ccc:	e99ff06f          	jal	x0,4b64 <_vfprintf_r+0x1c64>
    4cd0:	04812603          	lw	x12,72(x2)
    4cd4:	04012583          	lw	x11,64(x2)
    4cd8:	02f12423          	sw	x15,40(x2)
    4cdc:	40c888b3          	sub	x17,x17,x12
    4ce0:	00088513          	addi	x10,x17,0
    4ce4:	03e12223          	sw	x30,36(x2)
    4ce8:	02e12023          	sw	x14,32(x2)
    4cec:	01c12e23          	sw	x28,28(x2)
    4cf0:	01112a23          	sw	x17,20(x2)
    4cf4:	641040ef          	jal	x1,9b34 <strncpy>
    4cf8:	01bbb6b3          	sltu	x13,x23,x27
    4cfc:	00500613          	addi	x12,x0,5
    4d00:	00db86b3          	add	x13,x23,x13
    4d04:	02c6f6b3          	remu	x13,x13,x12
    4d08:	001ac583          	lbu	x11,1(x21)
    4d0c:	02812783          	lw	x15,40(x2)
    4d10:	ccccd537          	lui	x10,0xccccd
    4d14:	00b035b3          	sltu	x11,x0,x11
    4d18:	00050f93          	addi	x31,x10,0 # ccccd000 <__heap_end+0xcc8cd000>
    4d1c:	00ba8ab3          	add	x21,x21,x11
    4d20:	ccd50513          	addi	x10,x10,-819
    4d24:	cccf8f93          	addi	x31,x31,-820
    4d28:	01412883          	lw	x17,20(x2)
    4d2c:	01c12e03          	lw	x28,28(x2)
    4d30:	02012703          	lw	x14,32(x2)
    4d34:	02412f03          	lw	x30,36(x2)
    4d38:	00000613          	addi	x12,x0,0
    4d3c:	00500313          	addi	x6,x0,5
    4d40:	00050813          	addi	x16,x10,0
    4d44:	40dd86b3          	sub	x13,x27,x13
    4d48:	00ddb5b3          	sltu	x11,x27,x13
    4d4c:	40b785b3          	sub	x11,x15,x11
    4d50:	02a585b3          	mul	x11,x11,x10
    4d54:	03f687b3          	mul	x15,x13,x31
    4d58:	02a6bfb3          	mulhu	x31,x13,x10
    4d5c:	00f585b3          	add	x11,x11,x15
    4d60:	02a687b3          	mul	x15,x13,x10
    4d64:	01f585b3          	add	x11,x11,x31
    4d68:	01f59693          	slli	x13,x11,0x1f
    4d6c:	0015d593          	srli	x11,x11,0x1
    4d70:	0017d793          	srli	x15,x15,0x1
    4d74:	00f6e6b3          	or	x13,x13,x15
    4d78:	ccccd7b7          	lui	x15,0xccccd
    4d7c:	ccc78e93          	addi	x29,x15,-820 # cccccccc <__heap_end+0xcc8ccccc>
    4d80:	95dff06f          	jal	x0,46dc <_vfprintf_r+0x17dc>
    4d84:	00900793          	addi	x15,x0,9
    4d88:	95b7eae3          	bltu	x15,x27,46dc <_vfprintf_r+0x17dc>
    4d8c:	9d1ff06f          	jal	x0,475c <_vfprintf_r+0x185c>
    4d90:	00812583          	lw	x11,8(x2)
    4d94:	00c12503          	lw	x10,12(x2)
    4d98:	0d410613          	addi	x12,x2,212
    4d9c:	01c12e23          	sw	x28,28(x2)
    4da0:	318010ef          	jal	x1,60b8 <__sprint_r>
    4da4:	90051663          	bne	x10,x0,3eb0 <_vfprintf_r+0xfb0>
    4da8:	0bc12583          	lw	x11,188(x2)
    4dac:	0dc12603          	lw	x12,220(x2)
    4db0:	01c12e03          	lw	x28,28(x2)
    4db4:	00098913          	addi	x18,x19,0
    4db8:	9f5ff06f          	jal	x0,47ac <_vfprintf_r+0x18ac>
    4dbc:	00c12503          	lw	x10,12(x2)
    4dc0:	0a010793          	addi	x15,x2,160
    4dc4:	00f12e23          	sw	x15,28(x2)
    4dc8:	00078593          	addi	x11,x15,0
    4dcc:	0cc10813          	addi	x16,x2,204
    4dd0:	0c010793          	addi	x15,x2,192
    4dd4:	0bc10713          	addi	x14,x2,188
    4dd8:	000a0693          	addi	x13,x20,0
    4ddc:	00200613          	addi	x12,x0,2
    4de0:	05c12823          	sw	x28,80(x2)
    4de4:	0a512023          	sw	x5,160(x2)
    4de8:	04512623          	sw	x5,76(x2)
    4dec:	0bf12223          	sw	x31,164(x2)
    4df0:	03f12423          	sw	x31,40(x2)
    4df4:	0be12423          	sw	x30,168(x2)
    4df8:	03e12223          	sw	x30,36(x2)
    4dfc:	0bd12623          	sw	x29,172(x2)
    4e00:	03d12023          	sw	x29,32(x2)
    4e04:	599000ef          	jal	x1,5b9c <_ldtoa_r>
    4e08:	001c7793          	andi	x15,x24,1
    4e0c:	02012e83          	lw	x29,32(x2)
    4e10:	02412f03          	lw	x30,36(x2)
    4e14:	02812f83          	lw	x31,40(x2)
    4e18:	04c12283          	lw	x5,76(x2)
    4e1c:	05012e03          	lw	x28,80(x2)
    4e20:	00050a93          	addi	x21,x10,0
    4e24:	74078663          	beq	x15,x0,5570 <_vfprintf_r+0x2670>
    4e28:	014507b3          	add	x15,x10,x20
    4e2c:	04700713          	addi	x14,x0,71
    4e30:	09010593          	addi	x11,x2,144
    4e34:	01c12503          	lw	x10,28(x2)
    4e38:	02e12423          	sw	x14,40(x2)
    4e3c:	02f12223          	sw	x15,36(x2)
    4e40:	03c12023          	sw	x28,32(x2)
    4e44:	0a512023          	sw	x5,160(x2)
    4e48:	0bf12223          	sw	x31,164(x2)
    4e4c:	0be12423          	sw	x30,168(x2)
    4e50:	0bd12623          	sw	x29,172(x2)
    4e54:	08012823          	sw	x0,144(x2)
    4e58:	08012a23          	sw	x0,148(x2)
    4e5c:	08012c23          	sw	x0,152(x2)
    4e60:	08012e23          	sw	x0,156(x2)
    4e64:	3e9090ef          	jal	x1,ea4c <__eqtf2>
    4e68:	02012e03          	lw	x28,32(x2)
    4e6c:	02412783          	lw	x15,36(x2)
    4e70:	02812703          	lw	x14,40(x2)
    4e74:	020502e3          	beq	x10,x0,5698 <_vfprintf_r+0x2798>
    4e78:	0cc12683          	lw	x13,204(x2)
    4e7c:	00f6fe63          	bgeu	x13,x15,4e98 <_vfprintf_r+0x1f98>
    4e80:	03000593          	addi	x11,x0,48
    4e84:	00168613          	addi	x12,x13,1
    4e88:	0cc12623          	sw	x12,204(x2)
    4e8c:	00b68023          	sb	x11,0(x13)
    4e90:	0cc12683          	lw	x13,204(x2)
    4e94:	fef6e8e3          	bltu	x13,x15,4e84 <_vfprintf_r+0x1f84>
    4e98:	0bc12783          	lw	x15,188(x2)
    4e9c:	00f12e23          	sw	x15,28(x2)
    4ea0:	415686b3          	sub	x13,x13,x21
    4ea4:	04700793          	addi	x15,x0,71
    4ea8:	02d12023          	sw	x13,32(x2)
    4eac:	6cf70c63          	beq	x14,x15,5584 <_vfprintf_r+0x2684>
    4eb0:	04600793          	addi	x15,x0,70
    4eb4:	16f70ee3          	beq	x14,x15,5830 <_vfprintf_r+0x2930>
    4eb8:	01c12783          	lw	x15,28(x2)
    4ebc:	fff78793          	addi	x15,x15,-1
    4ec0:	0af12e23          	sw	x15,188(x2)
    4ec4:	0ffb7713          	andi	x14,x22,255
    4ec8:	00000693          	addi	x13,x0,0
    4ecc:	0ce10223          	sb	x14,196(x2)
    4ed0:	02b00713          	addi	x14,x0,43
    4ed4:	0007da63          	bge	x15,x0,4ee8 <_vfprintf_r+0x1fe8>
    4ed8:	01c12703          	lw	x14,28(x2)
    4edc:	00100793          	addi	x15,x0,1
    4ee0:	40e787b3          	sub	x15,x15,x14
    4ee4:	02d00713          	addi	x14,x0,45
    4ee8:	0ce102a3          	sb	x14,197(x2)
    4eec:	00900713          	addi	x14,x0,9
    4ef0:	16f758e3          	bge	x14,x15,5860 <_vfprintf_r+0x2960>
    4ef4:	0d310513          	addi	x10,x2,211
    4ef8:	00050613          	addi	x12,x10,0
    4efc:	00a00593          	addi	x11,x0,10
    4f00:	06300e93          	addi	x29,x0,99
    4f04:	02b7e733          	rem	x14,x15,x11
    4f08:	00060693          	addi	x13,x12,0
    4f0c:	00078813          	addi	x16,x15,0
    4f10:	fff60613          	addi	x12,x12,-1
    4f14:	03070713          	addi	x14,x14,48
    4f18:	fee68fa3          	sb	x14,-1(x13)
    4f1c:	02b7c7b3          	div	x15,x15,x11
    4f20:	ff0ec2e3          	blt	x29,x16,4f04 <_vfprintf_r+0x2004>
    4f24:	03078793          	addi	x15,x15,48
    4f28:	fef60fa3          	sb	x15,-1(x12)
    4f2c:	ffe68793          	addi	x15,x13,-2
    4f30:	34a7f8e3          	bgeu	x15,x10,5a80 <_vfprintf_r+0x2b80>
    4f34:	0c610713          	addi	x14,x2,198
    4f38:	0007c603          	lbu	x12,0(x15)
    4f3c:	00178793          	addi	x15,x15,1
    4f40:	00170713          	addi	x14,x14,1
    4f44:	fec70fa3          	sb	x12,-1(x14)
    4f48:	fea798e3          	bne	x15,x10,4f38 <_vfprintf_r+0x2038>
    4f4c:	1a010793          	addi	x15,x2,416
    4f50:	40d786b3          	sub	x13,x15,x13
    4f54:	f3768793          	addi	x15,x13,-201
    4f58:	02f12e23          	sw	x15,60(x2)
    4f5c:	02012683          	lw	x13,32(x2)
    4f60:	03c12703          	lw	x14,60(x2)
    4f64:	00100793          	addi	x15,x0,1
    4f68:	00e68733          	add	x14,x13,x14
    4f6c:	12d7dce3          	bge	x15,x13,58a4 <_vfprintf_r+0x29a4>
    4f70:	02c12783          	lw	x15,44(x2)
    4f74:	00f70733          	add	x14,x14,x15
    4f78:	fff74693          	xori	x13,x14,-1
    4f7c:	bffc7313          	andi	x6,x24,-1025
    4f80:	41f6d693          	srai	x13,x13,0x1f
    4f84:	10036793          	ori	x15,x6,256
    4f88:	00078b93          	addi	x23,x15,0
    4f8c:	00d77db3          	and	x27,x14,x13
    4f90:	02012223          	sw	x0,36(x2)
    4f94:	02012423          	sw	x0,40(x2)
    4f98:	00012e23          	sw	x0,28(x2)
    4f9c:	03812783          	lw	x15,56(x2)
    4fa0:	60078263          	beq	x15,x0,55a4 <_vfprintf_r+0x26a4>
    4fa4:	02d00793          	addi	x15,x0,45
    4fa8:	000b8c13          	addi	x24,x23,0
    4fac:	0af10ba3          	sb	x15,183(x2)
    4fb0:	00000a13          	addi	x20,x0,0
    4fb4:	001d8d93          	addi	x27,x27,1
    4fb8:	96cfe06f          	jal	x0,3124 <_vfprintf_r+0x224>
    4fbc:	00812583          	lw	x11,8(x2)
    4fc0:	00c12503          	lw	x10,12(x2)
    4fc4:	0d410613          	addi	x12,x2,212
    4fc8:	03c12c23          	sw	x28,56(x2)
    4fcc:	0ec010ef          	jal	x1,60b8 <__sprint_r>
    4fd0:	00050463          	beq	x10,x0,4fd8 <_vfprintf_r+0x20d8>
    4fd4:	eddfe06f          	jal	x0,3eb0 <_vfprintf_r+0xfb0>
    4fd8:	0dc12603          	lw	x12,220(x2)
    4fdc:	03812e03          	lw	x28,56(x2)
    4fe0:	00098913          	addi	x18,x19,0
    4fe4:	95cff06f          	jal	x0,4140 <_vfprintf_r+0x1240>
    4fe8:	00078713          	addi	x14,x15,0
    4fec:	cecff06f          	jal	x0,44d8 <_vfprintf_r+0x15d8>
    4ff0:	000c0713          	addi	x14,x24,0
    4ff4:	92dfe06f          	jal	x0,3920 <_vfprintf_r+0xa20>
    4ff8:	01812783          	lw	x15,24(x2)
    4ffc:	01012683          	lw	x13,16(x2)
    5000:	00e12c23          	sw	x14,24(x2)
    5004:	0007a783          	lw	x15,0(x15)
    5008:	00d79023          	sh	x13,0(x15)
    500c:	a4dfe06f          	jal	x0,3a58 <_vfprintf_r+0xb58>
    5010:	00d12c23          	sw	x13,24(x2)
    5014:	000c0713          	addi	x14,x24,0
    5018:	00000793          	addi	x15,x0,0
    501c:	9d9fe06f          	jal	x0,39f4 <_vfprintf_r+0xaf4>
    5020:	00d12c23          	sw	x13,24(x2)
    5024:	000c0713          	addi	x14,x24,0
    5028:	00000793          	addi	x15,x0,0
    502c:	00100693          	addi	x13,x0,1
    5030:	815fe06f          	jal	x0,3844 <_vfprintf_r+0x944>
    5034:	0ffdfd93          	andi	x27,x27,255
    5038:	00000793          	addi	x15,x0,0
    503c:	c08ff06f          	jal	x0,4444 <_vfprintf_r+0x1544>
    5040:	41fdd793          	srai	x15,x27,0x1f
    5044:	00d12c23          	sw	x13,24(x2)
    5048:	000c0713          	addi	x14,x24,0
    504c:	00078693          	addi	x13,x15,0
    5050:	e74fe06f          	jal	x0,36c4 <_vfprintf_r+0x7c4>
    5054:	00c12503          	lw	x10,12(x2)
    5058:	00812583          	lw	x11,8(x2)
    505c:	0d410613          	addi	x12,x2,212
    5060:	058010ef          	jal	x1,60b8 <__sprint_r>
    5064:	9e8fe06f          	jal	x0,324c <_vfprintf_r+0x34c>
    5068:	02d00793          	addi	x15,x0,45
    506c:	0af10ba3          	sb	x15,183(x2)
    5070:	9c9ff06f          	jal	x0,4a38 <_vfprintf_r+0x1b38>
    5074:	00812583          	lw	x11,8(x2)
    5078:	00c12503          	lw	x10,12(x2)
    507c:	0d410613          	addi	x12,x2,212
    5080:	01c12e23          	sw	x28,28(x2)
    5084:	034010ef          	jal	x1,60b8 <__sprint_r>
    5088:	00050463          	beq	x10,x0,5090 <_vfprintf_r+0x2190>
    508c:	e25fe06f          	jal	x0,3eb0 <_vfprintf_r+0xfb0>
    5090:	0bc12583          	lw	x11,188(x2)
    5094:	0dc12603          	lw	x12,220(x2)
    5098:	0d812703          	lw	x14,216(x2)
    509c:	01c12e03          	lw	x28,28(x2)
    50a0:	00098913          	addi	x18,x19,0
    50a4:	87dff06f          	jal	x0,4920 <_vfprintf_r+0x1a20>
    50a8:	05800793          	addi	x15,x0,88
    50ac:	03000713          	addi	x14,x0,48
    50b0:	0af10ca3          	sb	x15,185(x2)
    50b4:	0ae10c23          	sb	x14,184(x2)
    50b8:	06300793          	addi	x15,x0,99
    50bc:	00012a23          	sw	x0,20(x2)
    50c0:	002c6c13          	ori	x24,x24,2
    50c4:	13c10a93          	addi	x21,x2,316
    50c8:	0147c463          	blt	x15,x20,50d0 <_vfprintf_r+0x21d0>
    50cc:	b2cfe06f          	jal	x0,33f8 <_vfprintf_r+0x4f8>
    50d0:	00c12503          	lw	x10,12(x2)
    50d4:	001a0593          	addi	x11,x20,1
    50d8:	01c12a23          	sw	x28,20(x2)
    50dc:	8b4fc0ef          	jal	x1,1190 <_malloc_r>
    50e0:	01412e03          	lw	x28,20(x2)
    50e4:	00050a93          	addi	x21,x10,0
    50e8:	1a050ee3          	beq	x10,x0,5aa4 <_vfprintf_r+0x2ba4>
    50ec:	00a12a23          	sw	x10,20(x2)
    50f0:	b08fe06f          	jal	x0,33f8 <_vfprintf_r+0x4f8>
    50f4:	001a0693          	addi	x13,x20,1
    50f8:	00200613          	addi	x12,x0,2
    50fc:	00c12503          	lw	x10,12(x2)
    5100:	0a010793          	addi	x15,x2,160
    5104:	00f12e23          	sw	x15,28(x2)
    5108:	00078593          	addi	x11,x15,0
    510c:	0bc10713          	addi	x14,x2,188
    5110:	0c010793          	addi	x15,x2,192
    5114:	0cc10813          	addi	x16,x2,204
    5118:	05c12a23          	sw	x28,84(x2)
    511c:	04d12823          	sw	x13,80(x2)
    5120:	0a512023          	sw	x5,160(x2)
    5124:	04512623          	sw	x5,76(x2)
    5128:	0bf12223          	sw	x31,164(x2)
    512c:	03f12423          	sw	x31,40(x2)
    5130:	0be12423          	sw	x30,168(x2)
    5134:	03e12223          	sw	x30,36(x2)
    5138:	0bd12623          	sw	x29,172(x2)
    513c:	03d12023          	sw	x29,32(x2)
    5140:	25d000ef          	jal	x1,5b9c <_ldtoa_r>
    5144:	05012683          	lw	x13,80(x2)
    5148:	fdfb7713          	andi	x14,x22,-33
    514c:	04600613          	addi	x12,x0,70
    5150:	02012e83          	lw	x29,32(x2)
    5154:	02412f03          	lw	x30,36(x2)
    5158:	02812f83          	lw	x31,40(x2)
    515c:	04c12283          	lw	x5,76(x2)
    5160:	05412e03          	lw	x28,84(x2)
    5164:	00050a93          	addi	x21,x10,0
    5168:	00d507b3          	add	x15,x10,x13
    516c:	4ec70463          	beq	x14,x12,5654 <_vfprintf_r+0x2754>
    5170:	04500713          	addi	x14,x0,69
    5174:	09010593          	addi	x11,x2,144
    5178:	cbdff06f          	jal	x0,4e34 <_vfprintf_r+0x1f34>
    517c:	0a010793          	addi	x15,x2,160
    5180:	09010593          	addi	x11,x2,144
    5184:	00078513          	addi	x10,x15,0
    5188:	0bc10613          	addi	x12,x2,188
    518c:	05c12823          	sw	x28,80(x2)
    5190:	00078b93          	addi	x23,x15,0
    5194:	08512823          	sw	x5,144(x2)
    5198:	09f12a23          	sw	x31,148(x2)
    519c:	00f12e23          	sw	x15,28(x2)
    51a0:	02b12023          	sw	x11,32(x2)
    51a4:	09e12c23          	sw	x30,152(x2)
    51a8:	09d12e23          	sw	x29,156(x2)
    51ac:	214050ef          	jal	x1,a3c0 <frexpl>
    51b0:	0000d797          	auipc	x15,0xd
    51b4:	1f078793          	addi	x15,x15,496 # 123a0 <zeroes.0+0x10>
    51b8:	0007a603          	lw	x12,0(x15)
    51bc:	0ac12503          	lw	x10,172(x2)
    51c0:	0047a683          	lw	x13,4(x15)
    51c4:	0087a703          	lw	x14,8(x15)
    51c8:	0a012f03          	lw	x30,160(x2)
    51cc:	0a412e83          	lw	x29,164(x2)
    51d0:	0a812803          	lw	x16,168(x2)
    51d4:	00c7a783          	lw	x15,12(x15)
    51d8:	02012583          	lw	x11,32(x2)
    51dc:	08a12e23          	sw	x10,156(x2)
    51e0:	08c12023          	sw	x12,128(x2)
    51e4:	000b8513          	addi	x10,x23,0
    51e8:	08010613          	addi	x12,x2,128
    51ec:	09e12823          	sw	x30,144(x2)
    51f0:	09d12a23          	sw	x29,148(x2)
    51f4:	09012c23          	sw	x16,152(x2)
    51f8:	08d12223          	sw	x13,132(x2)
    51fc:	08e12423          	sw	x14,136(x2)
    5200:	08f12623          	sw	x15,140(x2)
    5204:	3e1090ef          	jal	x1,ede4 <__multf3>
    5208:	02012583          	lw	x11,32(x2)
    520c:	0a012e83          	lw	x29,160(x2)
    5210:	0a412803          	lw	x16,164(x2)
    5214:	0a812603          	lw	x12,168(x2)
    5218:	0ac12683          	lw	x13,172(x2)
    521c:	000b8513          	addi	x10,x23,0
    5220:	04b12623          	sw	x11,76(x2)
    5224:	03d12e23          	sw	x29,60(x2)
    5228:	03012423          	sw	x16,40(x2)
    522c:	02c12223          	sw	x12,36(x2)
    5230:	02d12023          	sw	x13,32(x2)
    5234:	08012823          	sw	x0,144(x2)
    5238:	08012a23          	sw	x0,148(x2)
    523c:	08012c23          	sw	x0,152(x2)
    5240:	08012e23          	sw	x0,156(x2)
    5244:	009090ef          	jal	x1,ea4c <__eqtf2>
    5248:	02012683          	lw	x13,32(x2)
    524c:	02412603          	lw	x12,36(x2)
    5250:	02812803          	lw	x16,40(x2)
    5254:	03c12e83          	lw	x29,60(x2)
    5258:	04c12583          	lw	x11,76(x2)
    525c:	05012e03          	lw	x28,80(x2)
    5260:	00051663          	bne	x10,x0,526c <_vfprintf_r+0x236c>
    5264:	00100793          	addi	x15,x0,1
    5268:	0af12e23          	sw	x15,188(x2)
    526c:	0000d717          	auipc	x14,0xd
    5270:	c8c70713          	addi	x14,x14,-884 # 11ef8 <__clzsi2+0x340>
    5274:	06100793          	addi	x15,x0,97
    5278:	02e12023          	sw	x14,32(x2)
    527c:	00fb1863          	bne	x22,x15,528c <_vfprintf_r+0x238c>
    5280:	0000d797          	auipc	x15,0xd
    5284:	c6478793          	addi	x15,x15,-924 # 11ee4 <__clzsi2+0x32c>
    5288:	02f12023          	sw	x15,32(x2)
    528c:	0000d797          	auipc	x15,0xd
    5290:	12478793          	addi	x15,x15,292 # 123b0 <zeroes.0+0x20>
    5294:	0007a703          	lw	x14,0(x15)
    5298:	05812823          	sw	x24,80(x2)
    529c:	05612a23          	sw	x22,84(x2)
    52a0:	02e12223          	sw	x14,36(x2)
    52a4:	0047a703          	lw	x14,4(x15)
    52a8:	05a12e23          	sw	x26,92(x2)
    52ac:	07212023          	sw	x18,96(x2)
    52b0:	02e12423          	sw	x14,40(x2)
    52b4:	0087a703          	lw	x14,8(x15)
    52b8:	00c7a783          	lw	x15,12(x15)
    52bc:	fffa0a13          	addi	x20,x20,-1
    52c0:	02e12e23          	sw	x14,60(x2)
    52c4:	04f12623          	sw	x15,76(x2)
    52c8:	05c12c23          	sw	x28,88(x2)
    52cc:	07512223          	sw	x21,100(x2)
    52d0:	000e8b13          	addi	x22,x29,0
    52d4:	00080c13          	addi	x24,x16,0
    52d8:	00060d13          	addi	x26,x12,0
    52dc:	00068d93          	addi	x27,x13,0
    52e0:	00058913          	addi	x18,x11,0
    52e4:	03c0006f          	jal	x0,5320 <_vfprintf_r+0x2420>
    52e8:	01c12503          	lw	x10,28(x2)
    52ec:	00090593          	addi	x11,x18,0
    52f0:	0b612023          	sw	x22,160(x2)
    52f4:	0b812223          	sw	x24,164(x2)
    52f8:	0ba12423          	sw	x26,168(x2)
    52fc:	0bb12623          	sw	x27,172(x2)
    5300:	08012823          	sw	x0,144(x2)
    5304:	08012a23          	sw	x0,148(x2)
    5308:	08012c23          	sw	x0,152(x2)
    530c:	08012e23          	sw	x0,156(x2)
    5310:	00fa0bb3          	add	x23,x20,x15
    5314:	738090ef          	jal	x1,ea4c <__eqtf2>
    5318:	68050463          	beq	x10,x0,59a0 <_vfprintf_r+0x2aa0>
    531c:	000b8a13          	addi	x20,x23,0
    5320:	02412783          	lw	x15,36(x2)
    5324:	09612823          	sw	x22,144(x2)
    5328:	01c12b03          	lw	x22,28(x2)
    532c:	08f12023          	sw	x15,128(x2)
    5330:	02812783          	lw	x15,40(x2)
    5334:	08010613          	addi	x12,x2,128
    5338:	00090593          	addi	x11,x18,0
    533c:	08f12223          	sw	x15,132(x2)
    5340:	03c12783          	lw	x15,60(x2)
    5344:	000b0513          	addi	x10,x22,0
    5348:	09812a23          	sw	x24,148(x2)
    534c:	08f12423          	sw	x15,136(x2)
    5350:	04c12783          	lw	x15,76(x2)
    5354:	09a12c23          	sw	x26,152(x2)
    5358:	09b12e23          	sw	x27,156(x2)
    535c:	08f12623          	sw	x15,140(x2)
    5360:	285090ef          	jal	x1,ede4 <__multf3>
    5364:	000b0513          	addi	x10,x22,0
    5368:	01612e23          	sw	x22,28(x2)
    536c:	3a00c0ef          	jal	x1,1170c <__fixtfsi>
    5370:	00050b93          	addi	x23,x10,0
    5374:	01c12503          	lw	x10,28(x2)
    5378:	000b8593          	addi	x11,x23,0
    537c:	0a012d83          	lw	x27,160(x2)
    5380:	0a412d03          	lw	x26,164(x2)
    5384:	0a812c03          	lw	x24,168(x2)
    5388:	0ac12b03          	lw	x22,172(x2)
    538c:	4840c0ef          	jal	x1,11810 <__floatsitf>
    5390:	0a012503          	lw	x10,160(x2)
    5394:	0a412583          	lw	x11,164(x2)
    5398:	0a812603          	lw	x12,168(x2)
    539c:	0ac12683          	lw	x13,172(x2)
    53a0:	06a12823          	sw	x10,112(x2)
    53a4:	06b12a23          	sw	x11,116(x2)
    53a8:	06c12c23          	sw	x12,120(x2)
    53ac:	08010593          	addi	x11,x2,128
    53b0:	07010613          	addi	x12,x2,112
    53b4:	00090513          	addi	x10,x18,0
    53b8:	09b12023          	sw	x27,128(x2)
    53bc:	09a12223          	sw	x26,132(x2)
    53c0:	09812423          	sw	x24,136(x2)
    53c4:	09612623          	sw	x22,140(x2)
    53c8:	06d12e23          	sw	x13,124(x2)
    53cc:	35d0a0ef          	jal	x1,ff28 <__subtf3>
    53d0:	02012783          	lw	x15,32(x2)
    53d4:	000a8f13          	addi	x30,x21,0
    53d8:	001a8a93          	addi	x21,x21,1
    53dc:	017786b3          	add	x13,x15,x23
    53e0:	0006c583          	lbu	x11,0(x13)
    53e4:	09012b03          	lw	x22,144(x2)
    53e8:	09412c03          	lw	x24,148(x2)
    53ec:	09812d03          	lw	x26,152(x2)
    53f0:	09c12d83          	lw	x27,156(x2)
    53f4:	fff00793          	addi	x15,x0,-1
    53f8:	feba8fa3          	sb	x11,-1(x21)
    53fc:	eefa16e3          	bne	x20,x15,52e8 <_vfprintf_r+0x23e8>
    5400:	0000d517          	auipc	x10,0xd
    5404:	fc050513          	addi	x10,x10,-64 # 123c0 <zeroes.0+0x30>
    5408:	07712423          	sw	x23,104(x2)
    540c:	01c12b83          	lw	x23,28(x2)
    5410:	05812e03          	lw	x28,88(x2)
    5414:	00452f83          	lw	x31,4(x10)
    5418:	00852283          	lw	x5,8(x10)
    541c:	00c52383          	lw	x7,12(x10)
    5420:	00052a03          	lw	x20,0(x10)
    5424:	000b0e93          	addi	x29,x22,0
    5428:	000c0813          	addi	x16,x24,0
    542c:	000d0613          	addi	x12,x26,0
    5430:	000d8693          	addi	x13,x27,0
    5434:	00090593          	addi	x11,x18,0
    5438:	000b8513          	addi	x10,x23,0
    543c:	05412b03          	lw	x22,84(x2)
    5440:	05012c03          	lw	x24,80(x2)
    5444:	05c12d03          	lw	x26,92(x2)
    5448:	06012903          	lw	x18,96(x2)
    544c:	07c12623          	sw	x28,108(x2)
    5450:	03e12223          	sw	x30,36(x2)
    5454:	000a8d93          	addi	x27,x21,0
    5458:	0bd12023          	sw	x29,160(x2)
    545c:	06412a83          	lw	x21,100(x2)
    5460:	07d12023          	sw	x29,96(x2)
    5464:	0b012223          	sw	x16,164(x2)
    5468:	05012e23          	sw	x16,92(x2)
    546c:	0ac12423          	sw	x12,168(x2)
    5470:	04c12c23          	sw	x12,88(x2)
    5474:	0ad12623          	sw	x13,172(x2)
    5478:	04d12a23          	sw	x13,84(x2)
    547c:	09412823          	sw	x20,144(x2)
    5480:	09f12a23          	sw	x31,148(x2)
    5484:	05f12823          	sw	x31,80(x2)
    5488:	08512c23          	sw	x5,152(x2)
    548c:	04512623          	sw	x5,76(x2)
    5490:	08712e23          	sw	x7,156(x2)
    5494:	02712e23          	sw	x7,60(x2)
    5498:	02b12423          	sw	x11,40(x2)
    549c:	680090ef          	jal	x1,eb1c <__getf2>
    54a0:	02412f03          	lw	x30,36(x2)
    54a4:	06c12e03          	lw	x28,108(x2)
    54a8:	02a04663          	blt	x0,x10,54d4 <_vfprintf_r+0x25d4>
    54ac:	02812583          	lw	x11,40(x2)
    54b0:	000b8513          	addi	x10,x23,0
    54b4:	01c12e23          	sw	x28,28(x2)
    54b8:	594090ef          	jal	x1,ea4c <__eqtf2>
    54bc:	01c12e03          	lw	x28,28(x2)
    54c0:	04051e63          	bne	x10,x0,551c <_vfprintf_r+0x261c>
    54c4:	06812783          	lw	x15,104(x2)
    54c8:	02412f03          	lw	x30,36(x2)
    54cc:	0017f713          	andi	x14,x15,1
    54d0:	04070663          	beq	x14,x0,551c <_vfprintf_r+0x261c>
    54d4:	02012783          	lw	x15,32(x2)
    54d8:	0de12623          	sw	x30,204(x2)
    54dc:	fffdc683          	lbu	x13,-1(x27)
    54e0:	00f7c603          	lbu	x12,15(x15)
    54e4:	000d8713          	addi	x14,x27,0
    54e8:	02d61063          	bne	x12,x13,5508 <_vfprintf_r+0x2608>
    54ec:	03000593          	addi	x11,x0,48
    54f0:	feb70fa3          	sb	x11,-1(x14)
    54f4:	0cc12703          	lw	x14,204(x2)
    54f8:	fff70793          	addi	x15,x14,-1
    54fc:	0cf12623          	sw	x15,204(x2)
    5500:	fff74683          	lbu	x13,-1(x14)
    5504:	fed606e3          	beq	x12,x13,54f0 <_vfprintf_r+0x25f0>
    5508:	00168613          	addi	x12,x13,1
    550c:	03900593          	addi	x11,x0,57
    5510:	0ff67613          	andi	x12,x12,255
    5514:	04b68663          	beq	x13,x11,5560 <_vfprintf_r+0x2660>
    5518:	fec70fa3          	sb	x12,-1(x14)
    551c:	000d8713          	addi	x14,x27,0
    5520:	0bc12783          	lw	x15,188(x2)
    5524:	41570733          	sub	x14,x14,x21
    5528:	02e12023          	sw	x14,32(x2)
    552c:	00f12e23          	sw	x15,28(x2)
    5530:	fff78793          	addi	x15,x15,-1
    5534:	06100693          	addi	x13,x0,97
    5538:	0af12e23          	sw	x15,188(x2)
    553c:	07000713          	addi	x14,x0,112
    5540:	00db0663          	beq	x22,x13,554c <_vfprintf_r+0x264c>
    5544:	05000713          	addi	x14,x0,80
    5548:	04100b13          	addi	x22,x0,65
    554c:	00100693          	addi	x13,x0,1
    5550:	97dff06f          	jal	x0,4ecc <_vfprintf_r+0x1fcc>
    5554:	000a0693          	addi	x13,x20,0
    5558:	00300613          	addi	x12,x0,3
    555c:	ba1ff06f          	jal	x0,50fc <_vfprintf_r+0x21fc>
    5560:	02012783          	lw	x15,32(x2)
    5564:	00a7c603          	lbu	x12,10(x15)
    5568:	fec70fa3          	sb	x12,-1(x14)
    556c:	fb1ff06f          	jal	x0,551c <_vfprintf_r+0x261c>
    5570:	0cc12783          	lw	x15,204(x2)
    5574:	0bc12703          	lw	x14,188(x2)
    5578:	40a787b3          	sub	x15,x15,x10
    557c:	00e12e23          	sw	x14,28(x2)
    5580:	02f12023          	sw	x15,32(x2)
    5584:	01c12703          	lw	x14,28(x2)
    5588:	ffd00793          	addi	x15,x0,-3
    558c:	00f74463          	blt	x14,x15,5594 <_vfprintf_r+0x2694>
    5590:	02ea5663          	bge	x20,x14,55bc <_vfprintf_r+0x26bc>
    5594:	01c12783          	lw	x15,28(x2)
    5598:	ffeb0b13          	addi	x22,x22,-2
    559c:	fff78793          	addi	x15,x15,-1
    55a0:	921ff06f          	jal	x0,4ec0 <_vfprintf_r+0x1fc0>
    55a4:	0b714783          	lbu	x15,183(x2)
    55a8:	000b8c13          	addi	x24,x23,0
    55ac:	00000a13          	addi	x20,x0,0
    55b0:	00078463          	beq	x15,x0,55b8 <_vfprintf_r+0x26b8>
    55b4:	8c0fe06f          	jal	x0,3674 <_vfprintf_r+0x774>
    55b8:	b6dfd06f          	jal	x0,3124 <_vfprintf_r+0x224>
    55bc:	02012783          	lw	x15,32(x2)
    55c0:	01c12703          	lw	x14,28(x2)
    55c4:	1af74863          	blt	x14,x15,5774 <_vfprintf_r+0x2874>
    55c8:	01c12683          	lw	x13,28(x2)
    55cc:	001c7793          	andi	x15,x24,1
    55d0:	00068713          	addi	x14,x13,0
    55d4:	00078663          	beq	x15,x0,55e0 <_vfprintf_r+0x26e0>
    55d8:	02c12703          	lw	x14,44(x2)
    55dc:	00e68733          	add	x14,x13,x14
    55e0:	400c7313          	andi	x6,x24,1024
    55e4:	00030663          	beq	x6,x0,55f0 <_vfprintf_r+0x26f0>
    55e8:	01c12783          	lw	x15,28(x2)
    55ec:	32f04a63          	blt	x0,x15,5920 <_vfprintf_r+0x2a20>
    55f0:	fff74693          	xori	x13,x14,-1
    55f4:	41f6d693          	srai	x13,x13,0x1f
    55f8:	00d77db3          	and	x27,x14,x13
    55fc:	06700b13          	addi	x22,x0,103
    5600:	02012223          	sw	x0,36(x2)
    5604:	02012423          	sw	x0,40(x2)
    5608:	995ff06f          	jal	x0,4f9c <_vfprintf_r+0x209c>
    560c:	00812583          	lw	x11,8(x2)
    5610:	00c12503          	lw	x10,12(x2)
    5614:	0d410613          	addi	x12,x2,212
    5618:	2a1000ef          	jal	x1,60b8 <__sprint_r>
    561c:	00050463          	beq	x10,x0,5624 <_vfprintf_r+0x2724>
    5620:	891fe06f          	jal	x0,3eb0 <_vfprintf_r+0xfb0>
    5624:	000b4583          	lbu	x11,0(x22)
    5628:	0dc12603          	lw	x12,220(x2)
    562c:	00098513          	addi	x10,x19,0
    5630:	01000793          	addi	x15,x0,16
    5634:	00700713          	addi	x14,x0,7
    5638:	00b90933          	add	x18,x18,x11
    563c:	d40ff06f          	jal	x0,4b7c <_vfprintf_r+0x1c7c>
    5640:	07800793          	addi	x15,x0,120
    5644:	a69ff06f          	jal	x0,50ac <_vfprintf_r+0x21ac>
    5648:	02d00793          	addi	x15,x0,45
    564c:	0af10ba3          	sb	x15,183(x2)
    5650:	a60ff06f          	jal	x0,48b0 <_vfprintf_r+0x19b0>
    5654:	000ac583          	lbu	x11,0(x21)
    5658:	03000613          	addi	x12,x0,48
    565c:	14c58463          	beq	x11,x12,57a4 <_vfprintf_r+0x28a4>
    5660:	0bc12683          	lw	x13,188(x2)
    5664:	09010593          	addi	x11,x2,144
    5668:	00d787b3          	add	x15,x15,x13
    566c:	fc8ff06f          	jal	x0,4e34 <_vfprintf_r+0x1f34>
    5670:	01712c23          	sw	x23,24(x2)
    5674:	02012223          	sw	x0,36(x2)
    5678:	02012423          	sw	x0,40(x2)
    567c:	00012e23          	sw	x0,28(x2)
    5680:	000a0d93          	addi	x27,x20,0
    5684:	000a0713          	addi	x14,x20,0
    5688:	00000a13          	addi	x20,x0,0
    568c:	00078463          	beq	x15,x0,5694 <_vfprintf_r+0x2794>
    5690:	fe5fd06f          	jal	x0,3674 <_vfprintf_r+0x774>
    5694:	a91fd06f          	jal	x0,3124 <_vfprintf_r+0x224>
    5698:	00078693          	addi	x13,x15,0
    569c:	0bc12783          	lw	x15,188(x2)
    56a0:	00f12e23          	sw	x15,28(x2)
    56a4:	ffcff06f          	jal	x0,4ea0 <_vfprintf_r+0x1fa0>
    56a8:	00812583          	lw	x11,8(x2)
    56ac:	00c12503          	lw	x10,12(x2)
    56b0:	0d410613          	addi	x12,x2,212
    56b4:	01c12e23          	sw	x28,28(x2)
    56b8:	201000ef          	jal	x1,60b8 <__sprint_r>
    56bc:	00050463          	beq	x10,x0,56c4 <_vfprintf_r+0x27c4>
    56c0:	ff0fe06f          	jal	x0,3eb0 <_vfprintf_r+0xfb0>
    56c4:	0bc12a03          	lw	x20,188(x2)
    56c8:	02012783          	lw	x15,32(x2)
    56cc:	0dc12603          	lw	x12,220(x2)
    56d0:	01c12e03          	lw	x28,28(x2)
    56d4:	00098913          	addi	x18,x19,0
    56d8:	41478a33          	sub	x20,x15,x20
    56dc:	ae9fe06f          	jal	x0,41c4 <_vfprintf_r+0x12c4>
    56e0:	000c0713          	addi	x14,x24,0
    56e4:	cbdfe06f          	jal	x0,43a0 <_vfprintf_r+0x14a0>
    56e8:	fff00793          	addi	x15,x0,-1
    56ec:	00f12823          	sw	x15,16(x2)
    56f0:	b9dfd06f          	jal	x0,328c <_vfprintf_r+0x38c>
    56f4:	ff000793          	addi	x15,x0,-16
    56f8:	40b00a33          	sub	x20,x0,x11
    56fc:	38f5de63          	bge	x11,x15,5a98 <_vfprintf_r+0x2b98>
    5700:	0000d797          	auipc	x15,0xd
    5704:	c9078793          	addi	x15,x15,-880 # 12390 <zeroes.0>
    5708:	01512e23          	sw	x21,28(x2)
    570c:	01000b13          	addi	x22,x0,16
    5710:	00700813          	addi	x16,x0,7
    5714:	000e0b93          	addi	x23,x28,0
    5718:	00078a93          	addi	x21,x15,0
    571c:	00c0006f          	jal	x0,5728 <_vfprintf_r+0x2828>
    5720:	ff0a0a13          	addi	x20,x20,-16
    5724:	194b5e63          	bge	x22,x20,58c0 <_vfprintf_r+0x29c0>
    5728:	01060613          	addi	x12,x12,16
    572c:	00170713          	addi	x14,x14,1
    5730:	01592023          	sw	x21,0(x18)
    5734:	01692223          	sw	x22,4(x18)
    5738:	0cc12e23          	sw	x12,220(x2)
    573c:	0ce12c23          	sw	x14,216(x2)
    5740:	00890913          	addi	x18,x18,8
    5744:	fce85ee3          	bge	x16,x14,5720 <_vfprintf_r+0x2820>
    5748:	00812583          	lw	x11,8(x2)
    574c:	00c12503          	lw	x10,12(x2)
    5750:	0d410613          	addi	x12,x2,212
    5754:	165000ef          	jal	x1,60b8 <__sprint_r>
    5758:	00050463          	beq	x10,x0,5760 <_vfprintf_r+0x2860>
    575c:	f54fe06f          	jal	x0,3eb0 <_vfprintf_r+0xfb0>
    5760:	0dc12603          	lw	x12,220(x2)
    5764:	0d812703          	lw	x14,216(x2)
    5768:	00098913          	addi	x18,x19,0
    576c:	00700813          	addi	x16,x0,7
    5770:	fb1ff06f          	jal	x0,5720 <_vfprintf_r+0x2820>
    5774:	02012783          	lw	x15,32(x2)
    5778:	02c12703          	lw	x14,44(x2)
    577c:	06700b13          	addi	x22,x0,103
    5780:	00e78733          	add	x14,x15,x14
    5784:	01c12783          	lw	x15,28(x2)
    5788:	26f05463          	bge	x0,x15,59f0 <_vfprintf_r+0x2af0>
    578c:	400c7313          	andi	x6,x24,1024
    5790:	18031a63          	bne	x6,x0,5924 <_vfprintf_r+0x2a24>
    5794:	fff74693          	xori	x13,x14,-1
    5798:	41f6d693          	srai	x13,x13,0x1f
    579c:	00d77db3          	and	x27,x14,x13
    57a0:	e61ff06f          	jal	x0,5600 <_vfprintf_r+0x2700>
    57a4:	01c12503          	lw	x10,28(x2)
    57a8:	09010593          	addi	x11,x2,144
    57ac:	06e12023          	sw	x14,96(x2)
    57b0:	04f12e23          	sw	x15,92(x2)
    57b4:	04d12c23          	sw	x13,88(x2)
    57b8:	05c12a23          	sw	x28,84(x2)
    57bc:	0a512023          	sw	x5,160(x2)
    57c0:	04512823          	sw	x5,80(x2)
    57c4:	0bf12223          	sw	x31,164(x2)
    57c8:	05f12623          	sw	x31,76(x2)
    57cc:	0be12423          	sw	x30,168(x2)
    57d0:	03e12423          	sw	x30,40(x2)
    57d4:	0bd12623          	sw	x29,172(x2)
    57d8:	03d12223          	sw	x29,36(x2)
    57dc:	02b12023          	sw	x11,32(x2)
    57e0:	08012823          	sw	x0,144(x2)
    57e4:	08012a23          	sw	x0,148(x2)
    57e8:	08012c23          	sw	x0,152(x2)
    57ec:	08012e23          	sw	x0,156(x2)
    57f0:	25c090ef          	jal	x1,ea4c <__eqtf2>
    57f4:	02012583          	lw	x11,32(x2)
    57f8:	02412e83          	lw	x29,36(x2)
    57fc:	02812f03          	lw	x30,40(x2)
    5800:	04c12f83          	lw	x31,76(x2)
    5804:	05012283          	lw	x5,80(x2)
    5808:	05412e03          	lw	x28,84(x2)
    580c:	05812683          	lw	x13,88(x2)
    5810:	05c12783          	lw	x15,92(x2)
    5814:	06012703          	lw	x14,96(x2)
    5818:	1e051863          	bne	x10,x0,5a08 <_vfprintf_r+0x2b08>
    581c:	0bc12703          	lw	x14,188(x2)
    5820:	00e787b3          	add	x15,x15,x14
    5824:	415787b3          	sub	x15,x15,x21
    5828:	00e12e23          	sw	x14,28(x2)
    582c:	02f12023          	sw	x15,32(x2)
    5830:	01c12683          	lw	x13,28(x2)
    5834:	001c7793          	andi	x15,x24,1
    5838:	0147e7b3          	or	x15,x15,x20
    583c:	1ed05663          	bge	x0,x13,5a28 <_vfprintf_r+0x2b28>
    5840:	18079e63          	bne	x15,x0,59dc <_vfprintf_r+0x2adc>
    5844:	01c12703          	lw	x14,28(x2)
    5848:	06600b13          	addi	x22,x0,102
    584c:	f41ff06f          	jal	x0,578c <_vfprintf_r+0x288c>
    5850:	000c0713          	addi	x14,x24,0
    5854:	fddfd06f          	jal	x0,3830 <_vfprintf_r+0x930>
    5858:	000c0713          	addi	x14,x24,0
    585c:	87cfe06f          	jal	x0,38d8 <_vfprintf_r+0x9d8>
    5860:	0c610713          	addi	x14,x2,198
    5864:	00069863          	bne	x13,x0,5874 <_vfprintf_r+0x2974>
    5868:	03000713          	addi	x14,x0,48
    586c:	0ce10323          	sb	x14,198(x2)
    5870:	0c710713          	addi	x14,x2,199
    5874:	1a010693          	addi	x13,x2,416
    5878:	03078793          	addi	x15,x15,48
    587c:	40d706b3          	sub	x13,x14,x13
    5880:	00f70023          	sb	x15,0(x14)
    5884:	0dd68793          	addi	x15,x13,221
    5888:	02f12e23          	sw	x15,60(x2)
    588c:	ed0ff06f          	jal	x0,4f5c <_vfprintf_r+0x205c>
    5890:	000c0713          	addi	x14,x24,0
    5894:	91cfe06f          	jal	x0,39b0 <_vfprintf_r+0xab0>
    5898:	00012a23          	sw	x0,20(x2)
    589c:	00600a13          	addi	x20,x0,6
    58a0:	b59fd06f          	jal	x0,33f8 <_vfprintf_r+0x4f8>
    58a4:	00fc77b3          	and	x15,x24,x15
    58a8:	ec078863          	beq	x15,x0,4f78 <_vfprintf_r+0x2078>
    58ac:	ec4ff06f          	jal	x0,4f70 <_vfprintf_r+0x2070>
    58b0:	000a0463          	beq	x20,x0,58b8 <_vfprintf_r+0x29b8>
    58b4:	b45fd06f          	jal	x0,33f8 <_vfprintf_r+0x4f8>
    58b8:	00078a13          	addi	x20,x15,0
    58bc:	b3dfd06f          	jal	x0,33f8 <_vfprintf_r+0x4f8>
    58c0:	000a8793          	addi	x15,x21,0
    58c4:	01c12a83          	lw	x21,28(x2)
    58c8:	000b8e13          	addi	x28,x23,0
    58cc:	01460633          	add	x12,x12,x20
    58d0:	00170713          	addi	x14,x14,1
    58d4:	00f92023          	sw	x15,0(x18)
    58d8:	0cc12e23          	sw	x12,220(x2)
    58dc:	0ce12c23          	sw	x14,216(x2)
    58e0:	01492223          	sw	x20,4(x18)
    58e4:	00700793          	addi	x15,x0,7
    58e8:	00e7c463          	blt	x15,x14,58f0 <_vfprintf_r+0x29f0>
    58ec:	f05fe06f          	jal	x0,47f0 <_vfprintf_r+0x18f0>
    58f0:	00812583          	lw	x11,8(x2)
    58f4:	00c12503          	lw	x10,12(x2)
    58f8:	0d410613          	addi	x12,x2,212
    58fc:	01c12e23          	sw	x28,28(x2)
    5900:	7b8000ef          	jal	x1,60b8 <__sprint_r>
    5904:	00050463          	beq	x10,x0,590c <_vfprintf_r+0x2a0c>
    5908:	da8fe06f          	jal	x0,3eb0 <_vfprintf_r+0xfb0>
    590c:	0dc12603          	lw	x12,220(x2)
    5910:	0d812703          	lw	x14,216(x2)
    5914:	01c12e03          	lw	x28,28(x2)
    5918:	00098913          	addi	x18,x19,0
    591c:	808ff06f          	jal	x0,4924 <_vfprintf_r+0x1a24>
    5920:	06700b13          	addi	x22,x0,103
    5924:	04412583          	lw	x11,68(x2)
    5928:	0ff00693          	addi	x13,x0,255
    592c:	0005c783          	lbu	x15,0(x11)
    5930:	14d78e63          	beq	x15,x13,5a8c <_vfprintf_r+0x2b8c>
    5934:	01c12603          	lw	x12,28(x2)
    5938:	00000513          	addi	x10,x0,0
    593c:	00000813          	addi	x16,x0,0
    5940:	00c7de63          	bge	x15,x12,595c <_vfprintf_r+0x2a5c>
    5944:	40f60633          	sub	x12,x12,x15
    5948:	0015c783          	lbu	x15,1(x11)
    594c:	04078463          	beq	x15,x0,5994 <_vfprintf_r+0x2a94>
    5950:	00180813          	addi	x16,x16,1
    5954:	00158593          	addi	x11,x11,1
    5958:	fed794e3          	bne	x15,x13,5940 <_vfprintf_r+0x2a40>
    595c:	02a12223          	sw	x10,36(x2)
    5960:	03012423          	sw	x16,40(x2)
    5964:	04b12223          	sw	x11,68(x2)
    5968:	00c12e23          	sw	x12,28(x2)
    596c:	02812683          	lw	x13,40(x2)
    5970:	02412783          	lw	x15,36(x2)
    5974:	00d787b3          	add	x15,x15,x13
    5978:	04812683          	lw	x13,72(x2)
    597c:	02d787b3          	mul	x15,x15,x13
    5980:	00e78733          	add	x14,x15,x14
    5984:	fff74693          	xori	x13,x14,-1
    5988:	41f6d693          	srai	x13,x13,0x1f
    598c:	00d77db3          	and	x27,x14,x13
    5990:	e0cff06f          	jal	x0,4f9c <_vfprintf_r+0x209c>
    5994:	0005c783          	lbu	x15,0(x11)
    5998:	00150513          	addi	x10,x10,1
    599c:	fbdff06f          	jal	x0,5958 <_vfprintf_r+0x2a58>
    59a0:	000a8d93          	addi	x27,x21,0
    59a4:	001a0713          	addi	x14,x20,1
    59a8:	05012c03          	lw	x24,80(x2)
    59ac:	05412b03          	lw	x22,84(x2)
    59b0:	05812e03          	lw	x28,88(x2)
    59b4:	05c12d03          	lw	x26,92(x2)
    59b8:	06012903          	lw	x18,96(x2)
    59bc:	06412a83          	lw	x21,100(x2)
    59c0:	00ed8733          	add	x14,x27,x14
    59c4:	03000693          	addi	x13,x0,48
    59c8:	b40a4ae3          	blt	x20,x0,551c <_vfprintf_r+0x261c>
    59cc:	001d8d93          	addi	x27,x27,1
    59d0:	fedd8fa3          	sb	x13,-1(x27)
    59d4:	ffb71ce3          	bne	x14,x27,59cc <_vfprintf_r+0x2acc>
    59d8:	b49ff06f          	jal	x0,5520 <_vfprintf_r+0x2620>
    59dc:	02c12783          	lw	x15,44(x2)
    59e0:	06600b13          	addi	x22,x0,102
    59e4:	00fa0733          	add	x14,x20,x15
    59e8:	00d70733          	add	x14,x14,x13
    59ec:	da1ff06f          	jal	x0,578c <_vfprintf_r+0x288c>
    59f0:	40f70733          	sub	x14,x14,x15
    59f4:	00170713          	addi	x14,x14,1
    59f8:	fff74693          	xori	x13,x14,-1
    59fc:	41f6d693          	srai	x13,x13,0x1f
    5a00:	00d77db3          	and	x27,x14,x13
    5a04:	bfdff06f          	jal	x0,5600 <_vfprintf_r+0x2700>
    5a08:	00100613          	addi	x12,x0,1
    5a0c:	40d606b3          	sub	x13,x12,x13
    5a10:	0ad12e23          	sw	x13,188(x2)
    5a14:	00d787b3          	add	x15,x15,x13
    5a18:	c1cff06f          	jal	x0,4e34 <_vfprintf_r+0x1f34>
    5a1c:	0000d797          	auipc	x15,0xd
    5a20:	97478793          	addi	x15,x15,-1676 # 12390 <zeroes.0>
    5a24:	f81fe06f          	jal	x0,49a4 <_vfprintf_r+0x1aa4>
    5a28:	00079a63          	bne	x15,x0,5a3c <_vfprintf_r+0x2b3c>
    5a2c:	00100d93          	addi	x27,x0,1
    5a30:	000d8713          	addi	x14,x27,0
    5a34:	06600b13          	addi	x22,x0,102
    5a38:	bc9ff06f          	jal	x0,5600 <_vfprintf_r+0x2700>
    5a3c:	02c12783          	lw	x15,44(x2)
    5a40:	06600b13          	addi	x22,x0,102
    5a44:	00178713          	addi	x14,x15,1
    5a48:	01470733          	add	x14,x14,x20
    5a4c:	fff74693          	xori	x13,x14,-1
    5a50:	41f6d693          	srai	x13,x13,0x1f
    5a54:	00d77db3          	and	x27,x14,x13
    5a58:	ba9ff06f          	jal	x0,5600 <_vfprintf_r+0x2700>
    5a5c:	01812783          	lw	x15,24(x2)
    5a60:	0007aa03          	lw	x20,0(x15)
    5a64:	00478793          	addi	x15,x15,4
    5a68:	000a5463          	bge	x20,x0,5a70 <_vfprintf_r+0x2b70>
    5a6c:	fff00a13          	addi	x20,x0,-1
    5a70:	001bcb03          	lbu	x22,1(x23)
    5a74:	00f12c23          	sw	x15,24(x2)
    5a78:	00068b93          	addi	x23,x13,0
    5a7c:	e1cfd06f          	jal	x0,3098 <_vfprintf_r+0x198>
    5a80:	00200793          	addi	x15,x0,2
    5a84:	02f12e23          	sw	x15,60(x2)
    5a88:	cd4ff06f          	jal	x0,4f5c <_vfprintf_r+0x205c>
    5a8c:	02012223          	sw	x0,36(x2)
    5a90:	02012423          	sw	x0,40(x2)
    5a94:	ed9ff06f          	jal	x0,596c <_vfprintf_r+0x2a6c>
    5a98:	0000d797          	auipc	x15,0xd
    5a9c:	8f878793          	addi	x15,x15,-1800 # 12390 <zeroes.0>
    5aa0:	e2dff06f          	jal	x0,58cc <_vfprintf_r+0x29cc>
    5aa4:	00812703          	lw	x14,8(x2)
    5aa8:	00c75783          	lhu	x15,12(x14)
    5aac:	0407e793          	ori	x15,x15,64
    5ab0:	00f71623          	sh	x15,12(x14)
    5ab4:	f98fd06f          	jal	x0,324c <_vfprintf_r+0x34c>

00005ab8 <vfprintf>:
    5ab8:	00058793          	addi	x15,x11,0
    5abc:	00060693          	addi	x13,x12,0
    5ac0:	00050593          	addi	x11,x10,0
    5ac4:	00078613          	addi	x12,x15,0
    5ac8:	f141a503          	lw	x10,-236(x3) # 13024 <_impure_ptr>
    5acc:	c34fd06f          	jal	x0,2f00 <_vfprintf_r>

00005ad0 <__sbprintf>:
    5ad0:	b8010113          	addi	x2,x2,-1152
    5ad4:	00c59783          	lh	x15,12(x11)
    5ad8:	00e5d703          	lhu	x14,14(x11)
    5adc:	46812c23          	sw	x8,1144(x2)
    5ae0:	00058413          	addi	x8,x11,0
    5ae4:	000105b7          	lui	x11,0x10
    5ae8:	ffd58593          	addi	x11,x11,-3 # fffd <__subtf3+0xd5>
    5aec:	06442303          	lw	x6,100(x8)
    5af0:	01c42883          	lw	x17,28(x8)
    5af4:	02442803          	lw	x16,36(x8)
    5af8:	00b7f7b3          	and	x15,x15,x11
    5afc:	01071713          	slli	x14,x14,0x10
    5b00:	00e7e7b3          	or	x15,x15,x14
    5b04:	00f12a23          	sw	x15,20(x2)
    5b08:	40000713          	addi	x14,x0,1024
    5b0c:	07010793          	addi	x15,x2,112
    5b10:	00810593          	addi	x11,x2,8
    5b14:	46912a23          	sw	x9,1140(x2)
    5b18:	47212823          	sw	x18,1136(x2)
    5b1c:	46112e23          	sw	x1,1148(x2)
    5b20:	02012023          	sw	x0,32(x2)
    5b24:	06612623          	sw	x6,108(x2)
    5b28:	03112223          	sw	x17,36(x2)
    5b2c:	03012623          	sw	x16,44(x2)
    5b30:	00050913          	addi	x18,x10,0
    5b34:	00f12423          	sw	x15,8(x2)
    5b38:	00f12c23          	sw	x15,24(x2)
    5b3c:	00e12823          	sw	x14,16(x2)
    5b40:	00e12e23          	sw	x14,28(x2)
    5b44:	bbcfd0ef          	jal	x1,2f00 <_vfprintf_r>
    5b48:	00050493          	addi	x9,x10,0
    5b4c:	02055c63          	bge	x10,x0,5b84 <__sbprintf+0xb4>
    5b50:	01415783          	lhu	x15,20(x2)
    5b54:	0407f793          	andi	x15,x15,64
    5b58:	00078863          	beq	x15,x0,5b68 <__sbprintf+0x98>
    5b5c:	00c45783          	lhu	x15,12(x8)
    5b60:	0407e793          	ori	x15,x15,64
    5b64:	00f41623          	sh	x15,12(x8)
    5b68:	47c12083          	lw	x1,1148(x2)
    5b6c:	47812403          	lw	x8,1144(x2)
    5b70:	47012903          	lw	x18,1136(x2)
    5b74:	00048513          	addi	x10,x9,0
    5b78:	47412483          	lw	x9,1140(x2)
    5b7c:	48010113          	addi	x2,x2,1152
    5b80:	00008067          	jalr	x0,0(x1)
    5b84:	00810593          	addi	x11,x2,8
    5b88:	00090513          	addi	x10,x18,0
    5b8c:	e91fc0ef          	jal	x1,2a1c <_fflush_r>
    5b90:	fc0500e3          	beq	x10,x0,5b50 <__sbprintf+0x80>
    5b94:	fff00493          	addi	x9,x0,-1
    5b98:	fb9ff06f          	jal	x0,5b50 <__sbprintf+0x80>

00005b9c <_ldtoa_r>:
    5b9c:	0000d897          	auipc	x17,0xd
    5ba0:	86488893          	addi	x17,x17,-1948 # 12400 <zeroes.0+0x70>
    5ba4:	0008af83          	lw	x31,0(x17)
    5ba8:	0048af03          	lw	x30,4(x17)
    5bac:	0088ae83          	lw	x29,8(x17)
    5bb0:	00c8ae03          	lw	x28,12(x17)
    5bb4:	0108a883          	lw	x17,16(x17)
    5bb8:	03852303          	lw	x6,56(x10)
    5bbc:	f4010113          	addi	x2,x2,-192
    5bc0:	0b212823          	sw	x18,176(x2)
    5bc4:	0b312623          	sw	x19,172(x2)
    5bc8:	0b412423          	sw	x20,168(x2)
    5bcc:	0b612023          	sw	x22,160(x2)
    5bd0:	09712e23          	sw	x23,156(x2)
    5bd4:	09812c23          	sw	x24,152(x2)
    5bd8:	09a12823          	sw	x26,144(x2)
    5bdc:	09b12623          	sw	x27,140(x2)
    5be0:	0a112e23          	sw	x1,188(x2)
    5be4:	0a812c23          	sw	x8,184(x2)
    5be8:	0a912a23          	sw	x9,180(x2)
    5bec:	0b512223          	sw	x21,164(x2)
    5bf0:	07f12623          	sw	x31,108(x2)
    5bf4:	07e12823          	sw	x30,112(x2)
    5bf8:	07d12a23          	sw	x29,116(x2)
    5bfc:	07c12c23          	sw	x28,120(x2)
    5c00:	07112e23          	sw	x17,124(x2)
    5c04:	02c12023          	sw	x12,32(x2)
    5c08:	02d12223          	sw	x13,36(x2)
    5c0c:	0005aa03          	lw	x20,0(x11)
    5c10:	0045a983          	lw	x19,4(x11)
    5c14:	0085a903          	lw	x18,8(x11)
    5c18:	00c5ac03          	lw	x24,12(x11)
    5c1c:	00050b13          	addi	x22,x10,0
    5c20:	00070b93          	addi	x23,x14,0
    5c24:	00078d93          	addi	x27,x15,0
    5c28:	00080d13          	addi	x26,x16,0
    5c2c:	00030863          	beq	x6,x0,5c3c <_ldtoa_r+0xa0>
    5c30:	00030593          	addi	x11,x6,0
    5c34:	3b4040ef          	jal	x1,9fe8 <__freedtoa>
    5c38:	020b2c23          	sw	x0,56(x22)
    5c3c:	07812783          	lw	x15,120(x2)
    5c40:	01fc5693          	srli	x13,x24,0x1f
    5c44:	001c1a93          	slli	x21,x24,0x1
    5c48:	4017d713          	srai	x14,x15,0x1
    5c4c:	ffffc4b7          	lui	x9,0xffffc
    5c50:	05412023          	sw	x20,64(x2)
    5c54:	05312223          	sw	x19,68(x2)
    5c58:	05212423          	sw	x18,72(x2)
    5c5c:	03412823          	sw	x20,48(x2)
    5c60:	03312a23          	sw	x19,52(x2)
    5c64:	03212c23          	sw	x18,56(x2)
    5c68:	00dda023          	sw	x13,0(x27)
    5c6c:	001c1413          	slli	x8,x24,0x1
    5c70:	00d77733          	and	x14,x14,x13
    5c74:	011ada93          	srli	x21,x21,0x11
    5c78:	f9148493          	addi	x9,x9,-111 # ffffbf91 <__heap_end+0xffbfbf91>
    5c7c:	010c1d93          	slli	x27,x24,0x10
    5c80:	00145413          	srli	x8,x8,0x1
    5c84:	00f74733          	xor	x14,x14,x15
    5c88:	010ddd93          	srli	x27,x27,0x10
    5c8c:	009a87b3          	add	x15,x21,x9
    5c90:	04010513          	addi	x10,x2,64
    5c94:	03010593          	addi	x11,x2,48
    5c98:	04812623          	sw	x8,76(x2)
    5c9c:	02812e23          	sw	x8,60(x2)
    5ca0:	05412e23          	sw	x20,92(x2)
    5ca4:	07312023          	sw	x19,96(x2)
    5ca8:	07212223          	sw	x18,100(x2)
    5cac:	06e12c23          	sw	x14,120(x2)
    5cb0:	00f12e23          	sw	x15,28(x2)
    5cb4:	07b12423          	sw	x27,104(x2)
    5cb8:	1c10b0ef          	jal	x1,11678 <__unordtf2>
    5cbc:	1a051663          	bne	x10,x0,5e68 <_ldtoa_r+0x2cc>
    5cc0:	0000c797          	auipc	x15,0xc
    5cc4:	71078793          	addi	x15,x15,1808 # 123d0 <zeroes.0+0x40>
    5cc8:	0007a603          	lw	x12,0(x15)
    5ccc:	0047a683          	lw	x13,4(x15)
    5cd0:	09912a23          	sw	x25,148(x2)
    5cd4:	0087a483          	lw	x9,8(x15)
    5cd8:	00c7ac83          	lw	x25,12(x15)
    5cdc:	03010593          	addi	x11,x2,48
    5ce0:	04010513          	addi	x10,x2,64
    5ce4:	05412023          	sw	x20,64(x2)
    5ce8:	05312223          	sw	x19,68(x2)
    5cec:	05212423          	sw	x18,72(x2)
    5cf0:	04812623          	sw	x8,76(x2)
    5cf4:	02c12823          	sw	x12,48(x2)
    5cf8:	02c12623          	sw	x12,44(x2)
    5cfc:	02d12a23          	sw	x13,52(x2)
    5d00:	02d12423          	sw	x13,40(x2)
    5d04:	02912c23          	sw	x9,56(x2)
    5d08:	03912e23          	sw	x25,60(x2)
    5d0c:	16d0b0ef          	jal	x1,11678 <__unordtf2>
    5d10:	08051c63          	bne	x10,x0,5da8 <_ldtoa_r+0x20c>
    5d14:	03010593          	addi	x11,x2,48
    5d18:	04010513          	addi	x10,x2,64
    5d1c:	765080ef          	jal	x1,ec80 <__letf2>
    5d20:	08a05463          	bge	x0,x10,5da8 <_ldtoa_r+0x20c>
    5d24:	09412c83          	lw	x25,148(x2)
    5d28:	00300793          	addi	x15,x0,3
    5d2c:	04f12c23          	sw	x15,88(x2)
    5d30:	02012783          	lw	x15,32(x2)
    5d34:	02412803          	lw	x16,36(x2)
    5d38:	01c12603          	lw	x12,28(x2)
    5d3c:	05810713          	addi	x14,x2,88
    5d40:	01a12023          	sw	x26,0(x2)
    5d44:	000b0513          	addi	x10,x22,0
    5d48:	000b8893          	addi	x17,x23,0
    5d4c:	05c10693          	addi	x13,x2,92
    5d50:	06c10593          	addi	x11,x2,108
    5d54:	261010ef          	jal	x1,77b4 <__gdtoa>
    5d58:	000ba703          	lw	x14,0(x23)
    5d5c:	ffff87b7          	lui	x15,0xffff8
    5d60:	00f71863          	bne	x14,x15,5d70 <_ldtoa_r+0x1d4>
    5d64:	800007b7          	lui	x15,0x80000
    5d68:	fff78793          	addi	x15,x15,-1 # 7fffffff <__heap_end+0x7fbfffff>
    5d6c:	00fba023          	sw	x15,0(x23)
    5d70:	0bc12083          	lw	x1,188(x2)
    5d74:	0b812403          	lw	x8,184(x2)
    5d78:	0b412483          	lw	x9,180(x2)
    5d7c:	0b012903          	lw	x18,176(x2)
    5d80:	0ac12983          	lw	x19,172(x2)
    5d84:	0a812a03          	lw	x20,168(x2)
    5d88:	0a412a83          	lw	x21,164(x2)
    5d8c:	0a012b03          	lw	x22,160(x2)
    5d90:	09c12b83          	lw	x23,156(x2)
    5d94:	09812c03          	lw	x24,152(x2)
    5d98:	09012d03          	lw	x26,144(x2)
    5d9c:	08c12d83          	lw	x27,140(x2)
    5da0:	0c010113          	addi	x2,x2,192
    5da4:	00008067          	jalr	x0,0(x1)
    5da8:	0000c797          	auipc	x15,0xc
    5dac:	63878793          	addi	x15,x15,1592 # 123e0 <zeroes.0+0x50>
    5db0:	0007a603          	lw	x12,0(x15)
    5db4:	0047a683          	lw	x13,4(x15)
    5db8:	0087a703          	lw	x14,8(x15)
    5dbc:	00c7a783          	lw	x15,12(x15)
    5dc0:	03010593          	addi	x11,x2,48
    5dc4:	04010513          	addi	x10,x2,64
    5dc8:	05412023          	sw	x20,64(x2)
    5dcc:	05312223          	sw	x19,68(x2)
    5dd0:	05212423          	sw	x18,72(x2)
    5dd4:	04812623          	sw	x8,76(x2)
    5dd8:	02c12823          	sw	x12,48(x2)
    5ddc:	02d12a23          	sw	x13,52(x2)
    5de0:	02e12c23          	sw	x14,56(x2)
    5de4:	02f12e23          	sw	x15,60(x2)
    5de8:	535080ef          	jal	x1,eb1c <__getf2>
    5dec:	02054063          	blt	x10,x0,5e0c <_ldtoa_r+0x270>
    5df0:	000107b7          	lui	x15,0x10
    5df4:	00fdedb3          	or	x27,x27,x15
    5df8:	00100793          	addi	x15,x0,1
    5dfc:	09412c83          	lw	x25,148(x2)
    5e00:	07b12423          	sw	x27,104(x2)
    5e04:	04f12c23          	sw	x15,88(x2)
    5e08:	f29ff06f          	jal	x0,5d30 <_ldtoa_r+0x194>
    5e0c:	03010593          	addi	x11,x2,48
    5e10:	04010513          	addi	x10,x2,64
    5e14:	05412023          	sw	x20,64(x2)
    5e18:	05312223          	sw	x19,68(x2)
    5e1c:	05212423          	sw	x18,72(x2)
    5e20:	05812623          	sw	x24,76(x2)
    5e24:	02012823          	sw	x0,48(x2)
    5e28:	02012a23          	sw	x0,52(x2)
    5e2c:	02012c23          	sw	x0,56(x2)
    5e30:	02012e23          	sw	x0,60(x2)
    5e34:	419080ef          	jal	x1,ea4c <__eqtf2>
    5e38:	00051863          	bne	x10,x0,5e48 <_ldtoa_r+0x2ac>
    5e3c:	09412c83          	lw	x25,148(x2)
    5e40:	04012c23          	sw	x0,88(x2)
    5e44:	eedff06f          	jal	x0,5d30 <_ldtoa_r+0x194>
    5e48:	ffffc4b7          	lui	x9,0xffffc
    5e4c:	f9248493          	addi	x9,x9,-110 # ffffbf92 <__heap_end+0xffbfbf92>
    5e50:	00200793          	addi	x15,x0,2
    5e54:	009a8733          	add	x14,x21,x9
    5e58:	09412c83          	lw	x25,148(x2)
    5e5c:	00e12e23          	sw	x14,28(x2)
    5e60:	04f12c23          	sw	x15,88(x2)
    5e64:	ecdff06f          	jal	x0,5d30 <_ldtoa_r+0x194>
    5e68:	00400793          	addi	x15,x0,4
    5e6c:	04f12c23          	sw	x15,88(x2)
    5e70:	ec1ff06f          	jal	x0,5d30 <_ldtoa_r+0x194>

00005e74 <_ldcheck>:
    5e74:	fb010113          	addi	x2,x2,-80
    5e78:	04912223          	sw	x9,68(x2)
    5e7c:	00c52483          	lw	x9,12(x10)
    5e80:	05212023          	sw	x18,64(x2)
    5e84:	03312e23          	sw	x19,60(x2)
    5e88:	00852903          	lw	x18,8(x10)
    5e8c:	00452983          	lw	x19,4(x10)
    5e90:	03412c23          	sw	x20,56(x2)
    5e94:	00052a03          	lw	x20,0(x10)
    5e98:	00149493          	slli	x9,x9,0x1
    5e9c:	0014d493          	srli	x9,x9,0x1
    5ea0:	01010513          	addi	x10,x2,16
    5ea4:	00010593          	addi	x11,x2,0
    5ea8:	04112623          	sw	x1,76(x2)
    5eac:	00912e23          	sw	x9,28(x2)
    5eb0:	00912623          	sw	x9,12(x2)
    5eb4:	01412823          	sw	x20,16(x2)
    5eb8:	01412023          	sw	x20,0(x2)
    5ebc:	01312a23          	sw	x19,20(x2)
    5ec0:	01312223          	sw	x19,4(x2)
    5ec4:	01212c23          	sw	x18,24(x2)
    5ec8:	01212423          	sw	x18,8(x2)
    5ecc:	7ac0b0ef          	jal	x1,11678 <__unordtf2>
    5ed0:	0a051263          	bne	x10,x0,5f74 <_ldcheck+0x100>
    5ed4:	0000c797          	auipc	x15,0xc
    5ed8:	4fc78793          	addi	x15,x15,1276 # 123d0 <zeroes.0+0x40>
    5edc:	03512a23          	sw	x21,52(x2)
    5ee0:	03612823          	sw	x22,48(x2)
    5ee4:	03712623          	sw	x23,44(x2)
    5ee8:	03812423          	sw	x24,40(x2)
    5eec:	0047ab83          	lw	x23,4(x15)
    5ef0:	0007ac03          	lw	x24,0(x15)
    5ef4:	0087ab03          	lw	x22,8(x15)
    5ef8:	00c7aa83          	lw	x21,12(x15)
    5efc:	00010593          	addi	x11,x2,0
    5f00:	01010513          	addi	x10,x2,16
    5f04:	04812423          	sw	x8,72(x2)
    5f08:	01812023          	sw	x24,0(x2)
    5f0c:	01712223          	sw	x23,4(x2)
    5f10:	01612423          	sw	x22,8(x2)
    5f14:	01512623          	sw	x21,12(x2)
    5f18:	00100413          	addi	x8,x0,1
    5f1c:	75c0b0ef          	jal	x1,11678 <__unordtf2>
    5f20:	04050063          	beq	x10,x0,5f60 <_ldcheck+0xec>
    5f24:	04c12083          	lw	x1,76(x2)
    5f28:	00144513          	xori	x10,x8,1
    5f2c:	04812403          	lw	x8,72(x2)
    5f30:	0ff57513          	andi	x10,x10,255
    5f34:	03412a83          	lw	x21,52(x2)
    5f38:	03012b03          	lw	x22,48(x2)
    5f3c:	02c12b83          	lw	x23,44(x2)
    5f40:	02812c03          	lw	x24,40(x2)
    5f44:	04412483          	lw	x9,68(x2)
    5f48:	04012903          	lw	x18,64(x2)
    5f4c:	03c12983          	lw	x19,60(x2)
    5f50:	03812a03          	lw	x20,56(x2)
    5f54:	00151513          	slli	x10,x10,0x1
    5f58:	05010113          	addi	x2,x2,80
    5f5c:	00008067          	jalr	x0,0(x1)
    5f60:	00010593          	addi	x11,x2,0
    5f64:	01010513          	addi	x10,x2,16
    5f68:	519080ef          	jal	x1,ec80 <__letf2>
    5f6c:	00152413          	slti	x8,x10,1
    5f70:	fb5ff06f          	jal	x0,5f24 <_ldcheck+0xb0>
    5f74:	04c12083          	lw	x1,76(x2)
    5f78:	04412483          	lw	x9,68(x2)
    5f7c:	04012903          	lw	x18,64(x2)
    5f80:	03c12983          	lw	x19,60(x2)
    5f84:	03812a03          	lw	x20,56(x2)
    5f88:	00100513          	addi	x10,x0,1
    5f8c:	05010113          	addi	x2,x2,80
    5f90:	00008067          	jalr	x0,0(x1)

00005f94 <__sprint_r.part.0>:
    5f94:	0645a783          	lw	x15,100(x11)
    5f98:	fd010113          	addi	x2,x2,-48
    5f9c:	01612823          	sw	x22,16(x2)
    5fa0:	02112623          	sw	x1,44(x2)
    5fa4:	01279713          	slli	x14,x15,0x12
    5fa8:	00060b13          	addi	x22,x12,0
    5fac:	0e075863          	bge	x14,x0,609c <__sprint_r.part.0+0x108>
    5fb0:	00862783          	lw	x15,8(x12)
    5fb4:	03212023          	sw	x18,32(x2)
    5fb8:	01312e23          	sw	x19,28(x2)
    5fbc:	01412c23          	sw	x20,24(x2)
    5fc0:	01712623          	sw	x23,12(x2)
    5fc4:	00058913          	addi	x18,x11,0
    5fc8:	00062b83          	lw	x23,0(x12)
    5fcc:	00050a13          	addi	x20,x10,0
    5fd0:	fff00993          	addi	x19,x0,-1
    5fd4:	0a078863          	beq	x15,x0,6084 <__sprint_r.part.0+0xf0>
    5fd8:	02812423          	sw	x8,40(x2)
    5fdc:	02912223          	sw	x9,36(x2)
    5fe0:	01512a23          	sw	x21,20(x2)
    5fe4:	01812423          	sw	x24,8(x2)
    5fe8:	004bac03          	lw	x24,4(x23)
    5fec:	000ba403          	lw	x8,0(x23)
    5ff0:	002c5a93          	srli	x21,x24,0x2
    5ff4:	060a8663          	beq	x21,x0,6060 <__sprint_r.part.0+0xcc>
    5ff8:	00000493          	addi	x9,x0,0
    5ffc:	00c0006f          	jal	x0,6008 <__sprint_r.part.0+0x74>
    6000:	00440413          	addi	x8,x8,4
    6004:	049a8c63          	beq	x21,x9,605c <__sprint_r.part.0+0xc8>
    6008:	00042583          	lw	x11,0(x8)
    600c:	00090613          	addi	x12,x18,0
    6010:	000a0513          	addi	x10,x20,0
    6014:	30c040ef          	jal	x1,a320 <_fputwc_r>
    6018:	00148493          	addi	x9,x9,1
    601c:	ff3512e3          	bne	x10,x19,6000 <__sprint_r.part.0+0x6c>
    6020:	00098513          	addi	x10,x19,0
    6024:	02812403          	lw	x8,40(x2)
    6028:	02412483          	lw	x9,36(x2)
    602c:	02012903          	lw	x18,32(x2)
    6030:	01c12983          	lw	x19,28(x2)
    6034:	01812a03          	lw	x20,24(x2)
    6038:	01412a83          	lw	x21,20(x2)
    603c:	00c12b83          	lw	x23,12(x2)
    6040:	00812c03          	lw	x24,8(x2)
    6044:	02c12083          	lw	x1,44(x2)
    6048:	000b2423          	sw	x0,8(x22)
    604c:	000b2223          	sw	x0,4(x22)
    6050:	01012b03          	lw	x22,16(x2)
    6054:	03010113          	addi	x2,x2,48
    6058:	00008067          	jalr	x0,0(x1)
    605c:	008b2783          	lw	x15,8(x22)
    6060:	ffcc7c13          	andi	x24,x24,-4
    6064:	418787b3          	sub	x15,x15,x24
    6068:	00fb2423          	sw	x15,8(x22)
    606c:	008b8b93          	addi	x23,x23,8
    6070:	f6079ce3          	bne	x15,x0,5fe8 <__sprint_r.part.0+0x54>
    6074:	02812403          	lw	x8,40(x2)
    6078:	02412483          	lw	x9,36(x2)
    607c:	01412a83          	lw	x21,20(x2)
    6080:	00812c03          	lw	x24,8(x2)
    6084:	02012903          	lw	x18,32(x2)
    6088:	01c12983          	lw	x19,28(x2)
    608c:	01812a03          	lw	x20,24(x2)
    6090:	00c12b83          	lw	x23,12(x2)
    6094:	00000513          	addi	x10,x0,0
    6098:	fadff06f          	jal	x0,6044 <__sprint_r.part.0+0xb0>
    609c:	ae5fa0ef          	jal	x1,b80 <__sfvwrite_r>
    60a0:	02c12083          	lw	x1,44(x2)
    60a4:	000b2423          	sw	x0,8(x22)
    60a8:	000b2223          	sw	x0,4(x22)
    60ac:	01012b03          	lw	x22,16(x2)
    60b0:	03010113          	addi	x2,x2,48
    60b4:	00008067          	jalr	x0,0(x1)

000060b8 <__sprint_r>:
    60b8:	00862703          	lw	x14,8(x12)
    60bc:	00070463          	beq	x14,x0,60c4 <__sprint_r+0xc>
    60c0:	ed5ff06f          	jal	x0,5f94 <__sprint_r.part.0>
    60c4:	00062223          	sw	x0,4(x12)
    60c8:	00000513          	addi	x10,x0,0
    60cc:	00008067          	jalr	x0,0(x1)

000060d0 <_vfiprintf_r>:
    60d0:	ed010113          	addi	x2,x2,-304
    60d4:	11312e23          	sw	x19,284(x2)
    60d8:	11712623          	sw	x23,268(x2)
    60dc:	11812423          	sw	x24,264(x2)
    60e0:	12112623          	sw	x1,300(x2)
    60e4:	00d12423          	sw	x13,8(x2)
    60e8:	00050c13          	addi	x24,x10,0
    60ec:	00058b93          	addi	x23,x11,0
    60f0:	00060993          	addi	x19,x12,0
    60f4:	00050863          	beq	x10,x0,6104 <_vfiprintf_r+0x34>
    60f8:	03452783          	lw	x15,52(x10)
    60fc:	00079463          	bne	x15,x0,6104 <_vfiprintf_r+0x34>
    6100:	2580106f          	jal	x0,7358 <_vfiprintf_r+0x1288>
    6104:	00cb9783          	lh	x15,12(x23)
    6108:	00002637          	lui	x12,0x2
    610c:	01279713          	slli	x14,x15,0x12
    6110:	02074063          	blt	x14,x0,6130 <_vfiprintf_r+0x60>
    6114:	064ba703          	lw	x14,100(x23)
    6118:	ffffe6b7          	lui	x13,0xffffe
    611c:	fff68693          	addi	x13,x13,-1 # ffffdfff <__heap_end+0xffbfdfff>
    6120:	00c7e7b3          	or	x15,x15,x12
    6124:	00d77733          	and	x14,x14,x13
    6128:	00fb9623          	sh	x15,12(x23)
    612c:	06eba223          	sw	x14,100(x23)
    6130:	0087f713          	andi	x14,x15,8
    6134:	34070463          	beq	x14,x0,647c <_vfiprintf_r+0x3ac>
    6138:	010ba703          	lw	x14,16(x23)
    613c:	34070063          	beq	x14,x0,647c <_vfiprintf_r+0x3ac>
    6140:	01a7f793          	andi	x15,x15,26
    6144:	00a00713          	addi	x14,x0,10
    6148:	34e78c63          	beq	x15,x14,64a0 <_vfiprintf_r+0x3d0>
    614c:	11512a23          	sw	x21,276(x2)
    6150:	04c10a93          	addi	x21,x2,76
    6154:	12812423          	sw	x8,296(x2)
    6158:	11412c23          	sw	x20,280(x2)
    615c:	11612823          	sw	x22,272(x2)
    6160:	11912223          	sw	x25,260(x2)
    6164:	12912223          	sw	x9,292(x2)
    6168:	13212023          	sw	x18,288(x2)
    616c:	11a12023          	sw	x26,256(x2)
    6170:	0fb12e23          	sw	x27,252(x2)
    6174:	04012423          	sw	x0,72(x2)
    6178:	04012223          	sw	x0,68(x2)
    617c:	05512023          	sw	x21,64(x2)
    6180:	000a8413          	addi	x8,x21,0
    6184:	00012623          	sw	x0,12(x2)
    6188:	00012c23          	sw	x0,24(x2)
    618c:	00012e23          	sw	x0,28(x2)
    6190:	02012023          	sw	x0,32(x2)
    6194:	00012223          	sw	x0,4(x2)
    6198:	02500c93          	addi	x25,x0,37
    619c:	00700b13          	addi	x22,x0,7
    61a0:	01000a13          	addi	x20,x0,16
    61a4:	0009c783          	lbu	x15,0(x19)
    61a8:	26078263          	beq	x15,x0,640c <_vfiprintf_r+0x33c>
    61ac:	00098493          	addi	x9,x19,0
    61b0:	33978063          	beq	x15,x25,64d0 <_vfiprintf_r+0x400>
    61b4:	0014c783          	lbu	x15,1(x9)
    61b8:	00148493          	addi	x9,x9,1
    61bc:	fe079ae3          	bne	x15,x0,61b0 <_vfiprintf_r+0xe0>
    61c0:	41348933          	sub	x18,x9,x19
    61c4:	25348463          	beq	x9,x19,640c <_vfiprintf_r+0x33c>
    61c8:	04812703          	lw	x14,72(x2)
    61cc:	04412783          	lw	x15,68(x2)
    61d0:	01342023          	sw	x19,0(x8)
    61d4:	00e90733          	add	x14,x18,x14
    61d8:	00178793          	addi	x15,x15,1
    61dc:	01242223          	sw	x18,4(x8)
    61e0:	04e12423          	sw	x14,72(x2)
    61e4:	04f12223          	sw	x15,68(x2)
    61e8:	00840413          	addi	x8,x8,8
    61ec:	02fb5063          	bge	x22,x15,620c <_vfiprintf_r+0x13c>
    61f0:	580704e3          	beq	x14,x0,6f78 <_vfiprintf_r+0xea8>
    61f4:	04010613          	addi	x12,x2,64
    61f8:	000b8593          	addi	x11,x23,0
    61fc:	000c0513          	addi	x10,x24,0
    6200:	d95ff0ef          	jal	x1,5f94 <__sprint_r.part.0>
    6204:	20051a63          	bne	x10,x0,6418 <_vfiprintf_r+0x348>
    6208:	000a8413          	addi	x8,x21,0
    620c:	00412703          	lw	x14,4(x2)
    6210:	0004c783          	lbu	x15,0(x9)
    6214:	01270733          	add	x14,x14,x18
    6218:	00e12223          	sw	x14,4(x2)
    621c:	1e078863          	beq	x15,x0,640c <_vfiprintf_r+0x33c>
    6220:	00000713          	addi	x14,x0,0
    6224:	0014c603          	lbu	x12,1(x9)
    6228:	00148993          	addi	x19,x9,1
    622c:	02010da3          	sb	x0,59(x2)
    6230:	fff00493          	addi	x9,x0,-1
    6234:	00000d13          	addi	x26,x0,0
    6238:	00070913          	addi	x18,x14,0
    623c:	00198993          	addi	x19,x19,1
    6240:	fe060793          	addi	x15,x12,-32 # 1fe0 <memchr+0x74>
    6244:	05a00713          	addi	x14,x0,90
    6248:	04f76c63          	bltu	x14,x15,62a0 <_vfiprintf_r+0x1d0>
    624c:	0000c717          	auipc	x14,0xc
    6250:	1c870713          	addi	x14,x14,456 # 12414 <zeroes.0+0x84>
    6254:	00279793          	slli	x15,x15,0x2
    6258:	00e787b3          	add	x15,x15,x14
    625c:	0007a783          	lw	x15,0(x15)
    6260:	00e787b3          	add	x15,x15,x14
    6264:	00078067          	jalr	x0,0(x15)
    6268:	fd060793          	addi	x15,x12,-48
    626c:	00000913          	addi	x18,x0,0
    6270:	00900593          	addi	x11,x0,9
    6274:	00291693          	slli	x13,x18,0x2
    6278:	0009c603          	lbu	x12,0(x19)
    627c:	01268733          	add	x14,x13,x18
    6280:	00171713          	slli	x14,x14,0x1
    6284:	00e78933          	add	x18,x15,x14
    6288:	fd060793          	addi	x15,x12,-48
    628c:	00198993          	addi	x19,x19,1
    6290:	fef5f2e3          	bgeu	x11,x15,6274 <_vfiprintf_r+0x1a4>
    6294:	fe060793          	addi	x15,x12,-32
    6298:	05a00713          	addi	x14,x0,90
    629c:	faf778e3          	bgeu	x14,x15,624c <_vfiprintf_r+0x17c>
    62a0:	00090713          	addi	x14,x18,0
    62a4:	16060463          	beq	x12,x0,640c <_vfiprintf_r+0x33c>
    62a8:	00100893          	addi	x17,x0,1
    62ac:	08c10623          	sb	x12,140(x2)
    62b0:	02010da3          	sb	x0,59(x2)
    62b4:	00088d93          	addi	x27,x17,0
    62b8:	08c10913          	addi	x18,x2,140
    62bc:	00000493          	addi	x9,x0,0
    62c0:	00000e93          	addi	x29,x0,0
    62c4:	04412603          	lw	x12,68(x2)
    62c8:	084d7f13          	andi	x30,x26,132
    62cc:	04812783          	lw	x15,72(x2)
    62d0:	00160593          	addi	x11,x12,1
    62d4:	00058e13          	addi	x28,x11,0
    62d8:	000f1663          	bne	x30,x0,62e4 <_vfiprintf_r+0x214>
    62dc:	41170833          	sub	x16,x14,x17
    62e0:	330048e3          	blt	x0,x16,6e10 <_vfiprintf_r+0xd40>
    62e4:	03b14583          	lbu	x11,59(x2)
    62e8:	02058863          	beq	x11,x0,6318 <_vfiprintf_r+0x248>
    62ec:	00178793          	addi	x15,x15,1
    62f0:	03b10593          	addi	x11,x2,59
    62f4:	00100613          	addi	x12,x0,1
    62f8:	04f12423          	sw	x15,72(x2)
    62fc:	05c12223          	sw	x28,68(x2)
    6300:	00b42023          	sw	x11,0(x8)
    6304:	00c42223          	sw	x12,4(x8)
    6308:	23cb4ce3          	blt	x22,x28,6d40 <_vfiprintf_r+0xc70>
    630c:	000e0613          	addi	x12,x28,0
    6310:	00840413          	addi	x8,x8,8
    6314:	001e0e13          	addi	x28,x28,1
    6318:	060e8263          	beq	x29,x0,637c <_vfiprintf_r+0x2ac>
    631c:	00278793          	addi	x15,x15,2
    6320:	03c10593          	addi	x11,x2,60
    6324:	00200613          	addi	x12,x0,2
    6328:	04f12423          	sw	x15,72(x2)
    632c:	05c12223          	sw	x28,68(x2)
    6330:	00b42023          	sw	x11,0(x8)
    6334:	00c42223          	sw	x12,4(x8)
    6338:	27cb58e3          	bge	x22,x28,6da8 <_vfiprintf_r+0xcd8>
    633c:	420786e3          	beq	x15,x0,6f68 <_vfiprintf_r+0xe98>
    6340:	04010613          	addi	x12,x2,64
    6344:	000b8593          	addi	x11,x23,0
    6348:	000c0513          	addi	x10,x24,0
    634c:	02e12223          	sw	x14,36(x2)
    6350:	01112a23          	sw	x17,20(x2)
    6354:	01e12823          	sw	x30,16(x2)
    6358:	c3dff0ef          	jal	x1,5f94 <__sprint_r.part.0>
    635c:	0a051e63          	bne	x10,x0,6418 <_vfiprintf_r+0x348>
    6360:	04412603          	lw	x12,68(x2)
    6364:	04812783          	lw	x15,72(x2)
    6368:	02412703          	lw	x14,36(x2)
    636c:	01412883          	lw	x17,20(x2)
    6370:	01012f03          	lw	x30,16(x2)
    6374:	000a8413          	addi	x8,x21,0
    6378:	00160e13          	addi	x28,x12,1
    637c:	08000593          	addi	x11,x0,128
    6380:	7abf0863          	beq	x30,x11,6b30 <_vfiprintf_r+0xa60>
    6384:	41b484b3          	sub	x9,x9,x27
    6388:	0c9042e3          	blt	x0,x9,6c4c <_vfiprintf_r+0xb7c>
    638c:	00fd87b3          	add	x15,x27,x15
    6390:	04f12423          	sw	x15,72(x2)
    6394:	01242023          	sw	x18,0(x8)
    6398:	01b42223          	sw	x27,4(x8)
    639c:	05c12223          	sw	x28,68(x2)
    63a0:	15cb5e63          	bge	x22,x28,64fc <_vfiprintf_r+0x42c>
    63a4:	16078063          	beq	x15,x0,6504 <_vfiprintf_r+0x434>
    63a8:	04010613          	addi	x12,x2,64
    63ac:	000b8593          	addi	x11,x23,0
    63b0:	000c0513          	addi	x10,x24,0
    63b4:	00e12a23          	sw	x14,20(x2)
    63b8:	01112823          	sw	x17,16(x2)
    63bc:	bd9ff0ef          	jal	x1,5f94 <__sprint_r.part.0>
    63c0:	04051c63          	bne	x10,x0,6418 <_vfiprintf_r+0x348>
    63c4:	04812783          	lw	x15,72(x2)
    63c8:	01412703          	lw	x14,20(x2)
    63cc:	01012883          	lw	x17,16(x2)
    63d0:	000a8413          	addi	x8,x21,0
    63d4:	004d7693          	andi	x13,x26,4
    63d8:	00068663          	beq	x13,x0,63e4 <_vfiprintf_r+0x314>
    63dc:	41170933          	sub	x18,x14,x17
    63e0:	13204e63          	blt	x0,x18,651c <_vfiprintf_r+0x44c>
    63e4:	01175463          	bge	x14,x17,63ec <_vfiprintf_r+0x31c>
    63e8:	00088713          	addi	x14,x17,0
    63ec:	00412683          	lw	x13,4(x2)
    63f0:	00e68733          	add	x14,x13,x14
    63f4:	00e12223          	sw	x14,4(x2)
    63f8:	120790e3          	bne	x15,x0,6d18 <_vfiprintf_r+0xc48>
    63fc:	0009c783          	lbu	x15,0(x19)
    6400:	04012223          	sw	x0,68(x2)
    6404:	000a8413          	addi	x8,x21,0
    6408:	da0792e3          	bne	x15,x0,61ac <_vfiprintf_r+0xdc>
    640c:	04812783          	lw	x15,72(x2)
    6410:	00078463          	beq	x15,x0,6418 <_vfiprintf_r+0x348>
    6414:	0840106f          	jal	x0,7498 <_vfiprintf_r+0x13c8>
    6418:	00cbd783          	lhu	x15,12(x23)
    641c:	12812403          	lw	x8,296(x2)
    6420:	12412483          	lw	x9,292(x2)
    6424:	0407f793          	andi	x15,x15,64
    6428:	12012903          	lw	x18,288(x2)
    642c:	11812a03          	lw	x20,280(x2)
    6430:	11412a83          	lw	x21,276(x2)
    6434:	11012b03          	lw	x22,272(x2)
    6438:	10412c83          	lw	x25,260(x2)
    643c:	10012d03          	lw	x26,256(x2)
    6440:	0fc12d83          	lw	x27,252(x2)
    6444:	00078463          	beq	x15,x0,644c <_vfiprintf_r+0x37c>
    6448:	09c0106f          	jal	x0,74e4 <_vfiprintf_r+0x1414>
    644c:	12c12083          	lw	x1,300(x2)
    6450:	00412503          	lw	x10,4(x2)
    6454:	11c12983          	lw	x19,284(x2)
    6458:	10c12b83          	lw	x23,268(x2)
    645c:	10812c03          	lw	x24,264(x2)
    6460:	13010113          	addi	x2,x2,304
    6464:	00008067          	jalr	x0,0(x1)
    6468:	0009c603          	lbu	x12,0(x19)
    646c:	dd1ff06f          	jal	x0,623c <_vfiprintf_r+0x16c>
    6470:	0009c603          	lbu	x12,0(x19)
    6474:	020d6d13          	ori	x26,x26,32
    6478:	dc5ff06f          	jal	x0,623c <_vfiprintf_r+0x16c>
    647c:	000b8593          	addi	x11,x23,0
    6480:	000c0513          	addi	x10,x24,0
    6484:	f54fc0ef          	jal	x1,2bd8 <__swsetup_r>
    6488:	00050463          	beq	x10,x0,6490 <_vfiprintf_r+0x3c0>
    648c:	0580106f          	jal	x0,74e4 <_vfiprintf_r+0x1414>
    6490:	00cb9783          	lh	x15,12(x23)
    6494:	00a00713          	addi	x14,x0,10
    6498:	01a7f793          	andi	x15,x15,26
    649c:	cae798e3          	bne	x15,x14,614c <_vfiprintf_r+0x7c>
    64a0:	00eb9783          	lh	x15,14(x23)
    64a4:	ca07c4e3          	blt	x15,x0,614c <_vfiprintf_r+0x7c>
    64a8:	00812683          	lw	x13,8(x2)
    64ac:	12c12083          	lw	x1,300(x2)
    64b0:	00098613          	addi	x12,x19,0
    64b4:	000b8593          	addi	x11,x23,0
    64b8:	11c12983          	lw	x19,284(x2)
    64bc:	10c12b83          	lw	x23,268(x2)
    64c0:	000c0513          	addi	x10,x24,0
    64c4:	10812c03          	lw	x24,264(x2)
    64c8:	13010113          	addi	x2,x2,304
    64cc:	0780106f          	jal	x0,7544 <__sbprintf>
    64d0:	41348933          	sub	x18,x9,x19
    64d4:	cf349ae3          	bne	x9,x19,61c8 <_vfiprintf_r+0xf8>
    64d8:	0004c783          	lbu	x15,0(x9)
    64dc:	d41ff06f          	jal	x0,621c <_vfiprintf_r+0x14c>
    64e0:	00100613          	addi	x12,x0,1
    64e4:	000d8793          	addi	x15,x27,0
    64e8:	05b12823          	sw	x27,80(x2)
    64ec:	05b12423          	sw	x27,72(x2)
    64f0:	05212623          	sw	x18,76(x2)
    64f4:	04c12223          	sw	x12,68(x2)
    64f8:	000a8413          	addi	x8,x21,0
    64fc:	00840413          	addi	x8,x8,8
    6500:	ed5ff06f          	jal	x0,63d4 <_vfiprintf_r+0x304>
    6504:	04012223          	sw	x0,68(x2)
    6508:	004d7693          	andi	x13,x26,4
    650c:	200684e3          	beq	x13,x0,6f14 <_vfiprintf_r+0xe44>
    6510:	41170933          	sub	x18,x14,x17
    6514:	212050e3          	bge	x0,x18,6f14 <_vfiprintf_r+0xe44>
    6518:	000a8413          	addi	x8,x21,0
    651c:	01000d93          	addi	x27,x0,16
    6520:	04412603          	lw	x12,68(x2)
    6524:	7b2dd0e3          	bge	x27,x18,74c4 <_vfiprintf_r+0x13f4>
    6528:	0000ce17          	auipc	x28,0xc
    652c:	058e0e13          	addi	x28,x28,88 # 12580 <blanks.1>
    6530:	00040693          	addi	x13,x8,0
    6534:	000d8493          	addi	x9,x27,0
    6538:	00090413          	addi	x8,x18,0
    653c:	00700d13          	addi	x26,x0,7
    6540:	01112823          	sw	x17,16(x2)
    6544:	00e12a23          	sw	x14,20(x2)
    6548:	000e0913          	addi	x18,x28,0
    654c:	0180006f          	jal	x0,6564 <_vfiprintf_r+0x494>
    6550:	00260593          	addi	x11,x12,2
    6554:	00868693          	addi	x13,x13,8
    6558:	00070613          	addi	x12,x14,0
    655c:	ff040413          	addi	x8,x8,-16
    6560:	0484d863          	bge	x9,x8,65b0 <_vfiprintf_r+0x4e0>
    6564:	01078793          	addi	x15,x15,16
    6568:	00160713          	addi	x14,x12,1
    656c:	04f12423          	sw	x15,72(x2)
    6570:	0126a023          	sw	x18,0(x13)
    6574:	01b6a223          	sw	x27,4(x13)
    6578:	04e12223          	sw	x14,68(x2)
    657c:	fced5ae3          	bge	x26,x14,6550 <_vfiprintf_r+0x480>
    6580:	5a078063          	beq	x15,x0,6b20 <_vfiprintf_r+0xa50>
    6584:	04010613          	addi	x12,x2,64
    6588:	000b8593          	addi	x11,x23,0
    658c:	000c0513          	addi	x10,x24,0
    6590:	a05ff0ef          	jal	x1,5f94 <__sprint_r.part.0>
    6594:	e80512e3          	bne	x10,x0,6418 <_vfiprintf_r+0x348>
    6598:	04412603          	lw	x12,68(x2)
    659c:	ff040413          	addi	x8,x8,-16
    65a0:	04812783          	lw	x15,72(x2)
    65a4:	000a8693          	addi	x13,x21,0
    65a8:	00160593          	addi	x11,x12,1
    65ac:	fa84cce3          	blt	x9,x8,6564 <_vfiprintf_r+0x494>
    65b0:	01012883          	lw	x17,16(x2)
    65b4:	01412703          	lw	x14,20(x2)
    65b8:	00090e13          	addi	x28,x18,0
    65bc:	00040913          	addi	x18,x8,0
    65c0:	00068413          	addi	x8,x13,0
    65c4:	012787b3          	add	x15,x15,x18
    65c8:	04f12423          	sw	x15,72(x2)
    65cc:	01c42023          	sw	x28,0(x8)
    65d0:	01242223          	sw	x18,4(x8)
    65d4:	04b12223          	sw	x11,68(x2)
    65d8:	00700693          	addi	x13,x0,7
    65dc:	e0b6d4e3          	bge	x13,x11,63e4 <_vfiprintf_r+0x314>
    65e0:	12078ae3          	beq	x15,x0,6f14 <_vfiprintf_r+0xe44>
    65e4:	04010613          	addi	x12,x2,64
    65e8:	000b8593          	addi	x11,x23,0
    65ec:	000c0513          	addi	x10,x24,0
    65f0:	00e12a23          	sw	x14,20(x2)
    65f4:	01112823          	sw	x17,16(x2)
    65f8:	99dff0ef          	jal	x1,5f94 <__sprint_r.part.0>
    65fc:	e0051ee3          	bne	x10,x0,6418 <_vfiprintf_r+0x348>
    6600:	04812783          	lw	x15,72(x2)
    6604:	01412703          	lw	x14,20(x2)
    6608:	01012883          	lw	x17,16(x2)
    660c:	dd9ff06f          	jal	x0,63e4 <_vfiprintf_r+0x314>
    6610:	020d7793          	andi	x15,x26,32
    6614:	00090713          	addi	x14,x18,0
    6618:	12079263          	bne	x15,x0,673c <_vfiprintf_r+0x66c>
    661c:	00812683          	lw	x13,8(x2)
    6620:	010d7793          	andi	x15,x26,16
    6624:	0006ad83          	lw	x27,0(x13)
    6628:	00468513          	addi	x10,x13,4
    662c:	6e0798e3          	bne	x15,x0,751c <_vfiprintf_r+0x144c>
    6630:	040d7793          	andi	x15,x26,64
    6634:	5a078ce3          	beq	x15,x0,73ec <_vfiprintf_r+0x131c>
    6638:	010d9d93          	slli	x27,x27,0x10
    663c:	410ddd93          	srai	x27,x27,0x10
    6640:	41fdd893          	srai	x17,x27,0x1f
    6644:	00a12423          	sw	x10,8(x2)
    6648:	00088613          	addi	x12,x17,0
    664c:	10064a63          	blt	x12,x0,6760 <_vfiprintf_r+0x690>
    6650:	1204c863          	blt	x9,x0,6780 <_vfiprintf_r+0x6b0>
    6654:	011de7b3          	or	x15,x27,x17
    6658:	f7fd7d13          	andi	x26,x26,-129
    665c:	12079263          	bne	x15,x0,6780 <_vfiprintf_r+0x6b0>
    6660:	640496e3          	bne	x9,x0,74ac <_vfiprintf_r+0x13dc>
    6664:	03b14783          	lbu	x15,59(x2)
    6668:	00000893          	addi	x17,x0,0
    666c:	00000d93          	addi	x27,x0,0
    6670:	0f010913          	addi	x18,x2,240
    6674:	00078463          	beq	x15,x0,667c <_vfiprintf_r+0x5ac>
    6678:	00188893          	addi	x17,x17,1
    667c:	002d7e93          	andi	x29,x26,2
    6680:	c40e82e3          	beq	x29,x0,62c4 <_vfiprintf_r+0x1f4>
    6684:	00288893          	addi	x17,x17,2
    6688:	00200e93          	addi	x29,x0,2
    668c:	c39ff06f          	jal	x0,62c4 <_vfiprintf_r+0x1f4>
    6690:	00812783          	lw	x15,8(x2)
    6694:	00090713          	addi	x14,x18,0
    6698:	02010da3          	sb	x0,59(x2)
    669c:	0007a903          	lw	x18,0(x15)
    66a0:	00478693          	addi	x13,x15,4
    66a4:	4e0908e3          	beq	x18,x0,7394 <_vfiprintf_r+0x12c4>
    66a8:	00d12823          	sw	x13,16(x2)
    66ac:	00e12423          	sw	x14,8(x2)
    66b0:	3a04c2e3          	blt	x9,x0,7254 <_vfiprintf_r+0x1184>
    66b4:	00048613          	addi	x12,x9,0
    66b8:	00000593          	addi	x11,x0,0
    66bc:	00090513          	addi	x10,x18,0
    66c0:	8adfb0ef          	jal	x1,1f6c <memchr>
    66c4:	00812703          	lw	x14,8(x2)
    66c8:	01012683          	lw	x13,16(x2)
    66cc:	00048d93          	addi	x27,x9,0
    66d0:	00050463          	beq	x10,x0,66d8 <_vfiprintf_r+0x608>
    66d4:	41250db3          	sub	x27,x10,x18
    66d8:	03b14783          	lbu	x15,59(x2)
    66dc:	fffdc893          	xori	x17,x27,-1
    66e0:	41f8d893          	srai	x17,x17,0x1f
    66e4:	00d12423          	sw	x13,8(x2)
    66e8:	011df8b3          	and	x17,x27,x17
    66ec:	00000493          	addi	x9,x0,0
    66f0:	00000e93          	addi	x29,x0,0
    66f4:	f80792e3          	bne	x15,x0,6678 <_vfiprintf_r+0x5a8>
    66f8:	bcdff06f          	jal	x0,62c4 <_vfiprintf_r+0x1f4>
    66fc:	00812683          	lw	x13,8(x2)
    6700:	00100893          	addi	x17,x0,1
    6704:	00090713          	addi	x14,x18,0
    6708:	0006a783          	lw	x15,0(x13)
    670c:	02010da3          	sb	x0,59(x2)
    6710:	00088d93          	addi	x27,x17,0
    6714:	08f10623          	sb	x15,140(x2)
    6718:	00468793          	addi	x15,x13,4
    671c:	00f12423          	sw	x15,8(x2)
    6720:	08c10913          	addi	x18,x2,140
    6724:	b99ff06f          	jal	x0,62bc <_vfiprintf_r+0x1ec>
    6728:	020d7793          	andi	x15,x26,32
    672c:	00090713          	addi	x14,x18,0
    6730:	010d6693          	ori	x13,x26,16
    6734:	220788e3          	beq	x15,x0,7164 <_vfiprintf_r+0x1094>
    6738:	00068d13          	addi	x26,x13,0
    673c:	00812783          	lw	x15,8(x2)
    6740:	00778793          	addi	x15,x15,7
    6744:	ff87f793          	andi	x15,x15,-8
    6748:	0047a603          	lw	x12,4(x15)
    674c:	00878693          	addi	x13,x15,8
    6750:	00d12423          	sw	x13,8(x2)
    6754:	0007ad83          	lw	x27,0(x15)
    6758:	00060893          	addi	x17,x12,0
    675c:	ee065ae3          	bge	x12,x0,6650 <_vfiprintf_r+0x580>
    6760:	02d00613          	addi	x12,x0,45
    6764:	01b037b3          	sltu	x15,x0,x27
    6768:	411008b3          	sub	x17,x0,x17
    676c:	02c10da3          	sb	x12,59(x2)
    6770:	40f888b3          	sub	x17,x17,x15
    6774:	41b00db3          	sub	x27,x0,x27
    6778:	0004c463          	blt	x9,x0,6780 <_vfiprintf_r+0x6b0>
    677c:	f7fd7d13          	andi	x26,x26,-129
    6780:	040896e3          	bne	x17,x0,6fcc <_vfiprintf_r+0xefc>
    6784:	00900793          	addi	x15,x0,9
    6788:	05b7e2e3          	bltu	x15,x27,6fcc <_vfiprintf_r+0xefc>
    678c:	030d8793          	addi	x15,x27,48
    6790:	0ff7f793          	andi	x15,x15,255
    6794:	0ef107a3          	sb	x15,239(x2)
    6798:	00048893          	addi	x17,x9,0
    679c:	00904463          	blt	x0,x9,67a4 <_vfiprintf_r+0x6d4>
    67a0:	00100893          	addi	x17,x0,1
    67a4:	00100d93          	addi	x27,x0,1
    67a8:	0ef10913          	addi	x18,x2,239
    67ac:	03b14783          	lbu	x15,59(x2)
    67b0:	ec0794e3          	bne	x15,x0,6678 <_vfiprintf_r+0x5a8>
    67b4:	ec9ff06f          	jal	x0,667c <_vfiprintf_r+0x5ac>
    67b8:	00812783          	lw	x15,8(x2)
    67bc:	0007a903          	lw	x18,0(x15)
    67c0:	00478793          	addi	x15,x15,4
    67c4:	100952e3          	bge	x18,x0,70c8 <_vfiprintf_r+0xff8>
    67c8:	41200933          	sub	x18,x0,x18
    67cc:	00f12423          	sw	x15,8(x2)
    67d0:	0009c603          	lbu	x12,0(x19)
    67d4:	004d6d13          	ori	x26,x26,4
    67d8:	a65ff06f          	jal	x0,623c <_vfiprintf_r+0x16c>
    67dc:	02b00793          	addi	x15,x0,43
    67e0:	0009c603          	lbu	x12,0(x19)
    67e4:	02f10da3          	sb	x15,59(x2)
    67e8:	a55ff06f          	jal	x0,623c <_vfiprintf_r+0x16c>
    67ec:	0009c603          	lbu	x12,0(x19)
    67f0:	080d6d13          	ori	x26,x26,128
    67f4:	a49ff06f          	jal	x0,623c <_vfiprintf_r+0x16c>
    67f8:	0009c603          	lbu	x12,0(x19)
    67fc:	02a00793          	addi	x15,x0,42
    6800:	00198593          	addi	x11,x19,1
    6804:	4ef606e3          	beq	x12,x15,74f0 <_vfiprintf_r+0x1420>
    6808:	00900513          	addi	x10,x0,9
    680c:	fd060793          	addi	x15,x12,-48
    6810:	00000493          	addi	x9,x0,0
    6814:	02f56463          	bltu	x10,x15,683c <_vfiprintf_r+0x76c>
    6818:	00249693          	slli	x13,x9,0x2
    681c:	0005c603          	lbu	x12,0(x11)
    6820:	009684b3          	add	x9,x13,x9
    6824:	00149493          	slli	x9,x9,0x1
    6828:	00f484b3          	add	x9,x9,x15
    682c:	fd060793          	addi	x15,x12,-48
    6830:	00158593          	addi	x11,x11,1
    6834:	fef572e3          	bgeu	x10,x15,6818 <_vfiprintf_r+0x748>
    6838:	1604c6e3          	blt	x9,x0,71a4 <_vfiprintf_r+0x10d4>
    683c:	00058993          	addi	x19,x11,0
    6840:	a01ff06f          	jal	x0,6240 <_vfiprintf_r+0x170>
    6844:	020d7793          	andi	x15,x26,32
    6848:	00090713          	addi	x14,x18,0
    684c:	010d6613          	ori	x12,x26,16
    6850:	0e078ce3          	beq	x15,x0,7148 <_vfiprintf_r+0x1078>
    6854:	00812783          	lw	x15,8(x2)
    6858:	00778693          	addi	x13,x15,7
    685c:	ff86f693          	andi	x13,x13,-8
    6860:	00868793          	addi	x15,x13,8
    6864:	00f12423          	sw	x15,8(x2)
    6868:	0046a583          	lw	x11,4(x13)
    686c:	0006a783          	lw	x15,0(x13)
    6870:	02010da3          	sb	x0,59(x2)
    6874:	bff67d13          	andi	x26,x12,-1025
    6878:	1004cc63          	blt	x9,x0,6990 <_vfiprintf_r+0x8c0>
    687c:	00b7e533          	or	x10,x15,x11
    6880:	b7f67613          	andi	x12,x12,-1153
    6884:	100512e3          	bne	x10,x0,7188 <_vfiprintf_r+0x10b8>
    6888:	000d0313          	addi	x6,x26,0
    688c:	00000793          	addi	x15,x0,0
    6890:	00060d13          	addi	x26,x12,0
    6894:	0e049263          	bne	x9,x0,6978 <_vfiprintf_r+0x8a8>
    6898:	dc0796e3          	bne	x15,x0,6664 <_vfiprintf_r+0x594>
    689c:	00137d93          	andi	x27,x6,1
    68a0:	020d8ae3          	beq	x27,x0,70d4 <_vfiprintf_r+0x1004>
    68a4:	03000793          	addi	x15,x0,48
    68a8:	0ef107a3          	sb	x15,239(x2)
    68ac:	000d8893          	addi	x17,x27,0
    68b0:	0ef10913          	addi	x18,x2,239
    68b4:	ef9ff06f          	jal	x0,67ac <_vfiprintf_r+0x6dc>
    68b8:	0009c603          	lbu	x12,0(x19)
    68bc:	001d6d13          	ori	x26,x26,1
    68c0:	97dff06f          	jal	x0,623c <_vfiprintf_r+0x16c>
    68c4:	03b14783          	lbu	x15,59(x2)
    68c8:	0009c603          	lbu	x12,0(x19)
    68cc:	960798e3          	bne	x15,x0,623c <_vfiprintf_r+0x16c>
    68d0:	02000793          	addi	x15,x0,32
    68d4:	02f10da3          	sb	x15,59(x2)
    68d8:	965ff06f          	jal	x0,623c <_vfiprintf_r+0x16c>
    68dc:	000c0513          	addi	x10,x24,0
    68e0:	4e1030ef          	jal	x1,a5c0 <_localeconv_r>
    68e4:	00452783          	lw	x15,4(x10)
    68e8:	00078513          	addi	x10,x15,0
    68ec:	02f12023          	sw	x15,32(x2)
    68f0:	c2cfc0ef          	jal	x1,2d1c <strlen>
    68f4:	00050793          	addi	x15,x10,0
    68f8:	000c0513          	addi	x10,x24,0
    68fc:	00078d93          	addi	x27,x15,0
    6900:	00f12e23          	sw	x15,28(x2)
    6904:	4bd030ef          	jal	x1,a5c0 <_localeconv_r>
    6908:	00852703          	lw	x14,8(x10)
    690c:	0009c603          	lbu	x12,0(x19)
    6910:	00e12c23          	sw	x14,24(x2)
    6914:	920d84e3          	beq	x27,x0,623c <_vfiprintf_r+0x16c>
    6918:	920702e3          	beq	x14,x0,623c <_vfiprintf_r+0x16c>
    691c:	00074783          	lbu	x15,0(x14)
    6920:	90078ee3          	beq	x15,x0,623c <_vfiprintf_r+0x16c>
    6924:	400d6d13          	ori	x26,x26,1024
    6928:	915ff06f          	jal	x0,623c <_vfiprintf_r+0x16c>
    692c:	020d7793          	andi	x15,x26,32
    6930:	00090713          	addi	x14,x18,0
    6934:	010d6313          	ori	x6,x26,16
    6938:	7e078a63          	beq	x15,x0,712c <_vfiprintf_r+0x105c>
    693c:	00812783          	lw	x15,8(x2)
    6940:	00778793          	addi	x15,x15,7
    6944:	ff87f793          	andi	x15,x15,-8
    6948:	0007ad83          	lw	x27,0(x15)
    694c:	0047a883          	lw	x17,4(x15)
    6950:	00878693          	addi	x13,x15,8
    6954:	00d12423          	sw	x13,8(x2)
    6958:	02010da3          	sb	x0,59(x2)
    695c:	00030d13          	addi	x26,x6,0
    6960:	e204c0e3          	blt	x9,x0,6780 <_vfiprintf_r+0x6b0>
    6964:	011de7b3          	or	x15,x27,x17
    6968:	f7f37d13          	andi	x26,x6,-129
    696c:	e0079ae3          	bne	x15,x0,6780 <_vfiprintf_r+0x6b0>
    6970:	00100793          	addi	x15,x0,1
    6974:	f20482e3          	beq	x9,x0,6898 <_vfiprintf_r+0x7c8>
    6978:	00100613          	addi	x12,x0,1
    697c:	32c788e3          	beq	x15,x12,74ac <_vfiprintf_r+0x13dc>
    6980:	00200613          	addi	x12,x0,2
    6984:	2ac782e3          	beq	x15,x12,7428 <_vfiprintf_r+0x1358>
    6988:	00000793          	addi	x15,x0,0
    698c:	00000593          	addi	x11,x0,0
    6990:	0f010913          	addi	x18,x2,240
    6994:	01d59693          	slli	x13,x11,0x1d
    6998:	0077f613          	andi	x12,x15,7
    699c:	0037d793          	srli	x15,x15,0x3
    69a0:	00090813          	addi	x16,x18,0
    69a4:	03060613          	addi	x12,x12,48
    69a8:	00f6e7b3          	or	x15,x13,x15
    69ac:	0035d593          	srli	x11,x11,0x3
    69b0:	00b7e6b3          	or	x13,x15,x11
    69b4:	fec90fa3          	sb	x12,-1(x18)
    69b8:	fff90913          	addi	x18,x18,-1
    69bc:	fc069ce3          	bne	x13,x0,6994 <_vfiprintf_r+0x8c4>
    69c0:	001d7793          	andi	x15,x26,1
    69c4:	42078a63          	beq	x15,x0,6df8 <_vfiprintf_r+0xd28>
    69c8:	03000793          	addi	x15,x0,48
    69cc:	42f60663          	beq	x12,x15,6df8 <_vfiprintf_r+0xd28>
    69d0:	ffe80813          	addi	x16,x16,-2
    69d4:	fef90fa3          	sb	x15,-1(x18)
    69d8:	0f010793          	addi	x15,x2,240
    69dc:	41078db3          	sub	x27,x15,x16
    69e0:	000d8893          	addi	x17,x27,0
    69e4:	7a9dca63          	blt	x27,x9,7198 <_vfiprintf_r+0x10c8>
    69e8:	00080913          	addi	x18,x16,0
    69ec:	dc1ff06f          	jal	x0,67ac <_vfiprintf_r+0x6dc>
    69f0:	0009c603          	lbu	x12,0(x19)
    69f4:	06800793          	addi	x15,x0,104
    69f8:	16f604e3          	beq	x12,x15,7360 <_vfiprintf_r+0x1290>
    69fc:	040d6d13          	ori	x26,x26,64
    6a00:	83dff06f          	jal	x0,623c <_vfiprintf_r+0x16c>
    6a04:	020d7793          	andi	x15,x26,32
    6a08:	00090713          	addi	x14,x18,0
    6a0c:	70079863          	bne	x15,x0,711c <_vfiprintf_r+0x104c>
    6a10:	00812683          	lw	x13,8(x2)
    6a14:	010d7793          	andi	x15,x26,16
    6a18:	0006ad83          	lw	x27,0(x13)
    6a1c:	00468513          	addi	x10,x13,4
    6a20:	300792e3          	bne	x15,x0,7524 <_vfiprintf_r+0x1454>
    6a24:	040d7793          	andi	x15,x26,64
    6a28:	180786e3          	beq	x15,x0,73b4 <_vfiprintf_r+0x12e4>
    6a2c:	010d9d93          	slli	x27,x27,0x10
    6a30:	010ddd93          	srli	x27,x27,0x10
    6a34:	00a12423          	sw	x10,8(x2)
    6a38:	000d0313          	addi	x6,x26,0
    6a3c:	00000893          	addi	x17,x0,0
    6a40:	f19ff06f          	jal	x0,6958 <_vfiprintf_r+0x888>
    6a44:	00812683          	lw	x13,8(x2)
    6a48:	000087b7          	lui	x15,0x8
    6a4c:	83078793          	addi	x15,x15,-2000 # 7830 <__gdtoa+0x7c>
    6a50:	00468693          	addi	x13,x13,4
    6a54:	02f11e23          	sh	x15,60(x2)
    6a58:	ffc6a783          	lw	x15,-4(x13)
    6a5c:	00d12423          	sw	x13,8(x2)
    6a60:	0000b697          	auipc	x13,0xb
    6a64:	48468693          	addi	x13,x13,1156 # 11ee4 <__clzsi2+0x32c>
    6a68:	00090713          	addi	x14,x18,0
    6a6c:	002d6d13          	ori	x26,x26,2
    6a70:	00000593          	addi	x11,x0,0
    6a74:	00d12623          	sw	x13,12(x2)
    6a78:	02010da3          	sb	x0,59(x2)
    6a7c:	3404c463          	blt	x9,x0,6dc4 <_vfiprintf_r+0xcf4>
    6a80:	00b7e633          	or	x12,x15,x11
    6a84:	f7fd7513          	andi	x10,x26,-129
    6a88:	32061863          	bne	x12,x0,6db8 <_vfiprintf_r+0xce8>
    6a8c:	000d0313          	addi	x6,x26,0
    6a90:	00200793          	addi	x15,x0,2
    6a94:	00050d13          	addi	x26,x10,0
    6a98:	dfdff06f          	jal	x0,6894 <_vfiprintf_r+0x7c4>
    6a9c:	020d7793          	andi	x15,x26,32
    6aa0:	00090713          	addi	x14,x18,0
    6aa4:	68079063          	bne	x15,x0,7124 <_vfiprintf_r+0x1054>
    6aa8:	00812683          	lw	x13,8(x2)
    6aac:	010d7613          	andi	x12,x26,16
    6ab0:	0006a783          	lw	x15,0(x13)
    6ab4:	00468513          	addi	x10,x13,4
    6ab8:	24061ee3          	bne	x12,x0,7514 <_vfiprintf_r+0x1444>
    6abc:	040d7613          	andi	x12,x26,64
    6ac0:	100608e3          	beq	x12,x0,73d0 <_vfiprintf_r+0x1300>
    6ac4:	01079793          	slli	x15,x15,0x10
    6ac8:	0107d793          	srli	x15,x15,0x10
    6acc:	00a12423          	sw	x10,8(x2)
    6ad0:	000d0613          	addi	x12,x26,0
    6ad4:	00000593          	addi	x11,x0,0
    6ad8:	d99ff06f          	jal	x0,6870 <_vfiprintf_r+0x7a0>
    6adc:	020d7793          	andi	x15,x26,32
    6ae0:	60078863          	beq	x15,x0,70f0 <_vfiprintf_r+0x1020>
    6ae4:	00812783          	lw	x15,8(x2)
    6ae8:	00412683          	lw	x13,4(x2)
    6aec:	0007a783          	lw	x15,0(x15)
    6af0:	41f6d713          	srai	x14,x13,0x1f
    6af4:	00d7a023          	sw	x13,0(x15)
    6af8:	00e7a223          	sw	x14,4(x15)
    6afc:	00812783          	lw	x15,8(x2)
    6b00:	00478793          	addi	x15,x15,4
    6b04:	00f12423          	sw	x15,8(x2)
    6b08:	e9cff06f          	jal	x0,61a4 <_vfiprintf_r+0xd4>
    6b0c:	0009c603          	lbu	x12,0(x19)
    6b10:	06c00793          	addi	x15,x0,108
    6b14:	04f60ee3          	beq	x12,x15,7370 <_vfiprintf_r+0x12a0>
    6b18:	010d6d13          	ori	x26,x26,16
    6b1c:	f20ff06f          	jal	x0,623c <_vfiprintf_r+0x16c>
    6b20:	00100593          	addi	x11,x0,1
    6b24:	00000613          	addi	x12,x0,0
    6b28:	000a8693          	addi	x13,x21,0
    6b2c:	a31ff06f          	jal	x0,655c <_vfiprintf_r+0x48c>
    6b30:	41170eb3          	sub	x29,x14,x17
    6b34:	85d058e3          	bge	x0,x29,6384 <_vfiprintf_r+0x2b4>
    6b38:	01000f13          	addi	x30,x0,16
    6b3c:	19df5ce3          	bge	x30,x29,74d4 <_vfiprintf_r+0x1404>
    6b40:	0000c817          	auipc	x16,0xc
    6b44:	a5080813          	addi	x16,x16,-1456 # 12590 <zeroes.0>
    6b48:	02912223          	sw	x9,36(x2)
    6b4c:	00040693          	addi	x13,x8,0
    6b50:	000f0f93          	addi	x31,x30,0
    6b54:	00700e13          	addi	x28,x0,7
    6b58:	01112823          	sw	x17,16(x2)
    6b5c:	00e12a23          	sw	x14,20(x2)
    6b60:	000e8413          	addi	x8,x29,0
    6b64:	00080493          	addi	x9,x16,0
    6b68:	0180006f          	jal	x0,6b80 <_vfiprintf_r+0xab0>
    6b6c:	00260593          	addi	x11,x12,2
    6b70:	00868693          	addi	x13,x13,8
    6b74:	00070613          	addi	x12,x14,0
    6b78:	ff040413          	addi	x8,x8,-16
    6b7c:	048fde63          	bge	x31,x8,6bd8 <_vfiprintf_r+0xb08>
    6b80:	01078793          	addi	x15,x15,16
    6b84:	00160713          	addi	x14,x12,1
    6b88:	04f12423          	sw	x15,72(x2)
    6b8c:	0096a023          	sw	x9,0(x13)
    6b90:	01e6a223          	sw	x30,4(x13)
    6b94:	04e12223          	sw	x14,68(x2)
    6b98:	fcee5ae3          	bge	x28,x14,6b6c <_vfiprintf_r+0xa9c>
    6b9c:	18078a63          	beq	x15,x0,6d30 <_vfiprintf_r+0xc60>
    6ba0:	04010613          	addi	x12,x2,64
    6ba4:	000b8593          	addi	x11,x23,0
    6ba8:	000c0513          	addi	x10,x24,0
    6bac:	be8ff0ef          	jal	x1,5f94 <__sprint_r.part.0>
    6bb0:	860514e3          	bne	x10,x0,6418 <_vfiprintf_r+0x348>
    6bb4:	04412603          	lw	x12,68(x2)
    6bb8:	01000f93          	addi	x31,x0,16
    6bbc:	ff040413          	addi	x8,x8,-16
    6bc0:	04812783          	lw	x15,72(x2)
    6bc4:	000a8693          	addi	x13,x21,0
    6bc8:	00160593          	addi	x11,x12,1
    6bcc:	00700e13          	addi	x28,x0,7
    6bd0:	000f8f13          	addi	x30,x31,0
    6bd4:	fa8fc6e3          	blt	x31,x8,6b80 <_vfiprintf_r+0xab0>
    6bd8:	00048813          	addi	x16,x9,0
    6bdc:	01012883          	lw	x17,16(x2)
    6be0:	01412703          	lw	x14,20(x2)
    6be4:	02412483          	lw	x9,36(x2)
    6be8:	00040e93          	addi	x29,x8,0
    6bec:	00068413          	addi	x8,x13,0
    6bf0:	01d787b3          	add	x15,x15,x29
    6bf4:	04f12423          	sw	x15,72(x2)
    6bf8:	01042023          	sw	x16,0(x8)
    6bfc:	01d42223          	sw	x29,4(x8)
    6c00:	04b12223          	sw	x11,68(x2)
    6c04:	00700613          	addi	x12,x0,7
    6c08:	4cb65c63          	bge	x12,x11,70e0 <_vfiprintf_r+0x1010>
    6c0c:	000786e3          	beq	x15,x0,7418 <_vfiprintf_r+0x1348>
    6c10:	04010613          	addi	x12,x2,64
    6c14:	000b8593          	addi	x11,x23,0
    6c18:	000c0513          	addi	x10,x24,0
    6c1c:	00e12a23          	sw	x14,20(x2)
    6c20:	01112823          	sw	x17,16(x2)
    6c24:	b70ff0ef          	jal	x1,5f94 <__sprint_r.part.0>
    6c28:	fe051863          	bne	x10,x0,6418 <_vfiprintf_r+0x348>
    6c2c:	04412603          	lw	x12,68(x2)
    6c30:	41b484b3          	sub	x9,x9,x27
    6c34:	04812783          	lw	x15,72(x2)
    6c38:	01412703          	lw	x14,20(x2)
    6c3c:	01012883          	lw	x17,16(x2)
    6c40:	000a8413          	addi	x8,x21,0
    6c44:	00160e13          	addi	x28,x12,1
    6c48:	f4905263          	bge	x0,x9,638c <_vfiprintf_r+0x2bc>
    6c4c:	0000c817          	auipc	x16,0xc
    6c50:	94480813          	addi	x16,x16,-1724 # 12590 <zeroes.0>
    6c54:	089a5863          	bge	x20,x9,6ce4 <_vfiprintf_r+0xc14>
    6c58:	00040693          	addi	x13,x8,0
    6c5c:	01112823          	sw	x17,16(x2)
    6c60:	00048413          	addi	x8,x9,0
    6c64:	00e12a23          	sw	x14,20(x2)
    6c68:	00080493          	addi	x9,x16,0
    6c6c:	0180006f          	jal	x0,6c84 <_vfiprintf_r+0xbb4>
    6c70:	00260e13          	addi	x28,x12,2
    6c74:	00868693          	addi	x13,x13,8
    6c78:	00070613          	addi	x12,x14,0
    6c7c:	ff040413          	addi	x8,x8,-16
    6c80:	048a5863          	bge	x20,x8,6cd0 <_vfiprintf_r+0xc00>
    6c84:	01078793          	addi	x15,x15,16
    6c88:	00160713          	addi	x14,x12,1
    6c8c:	04f12423          	sw	x15,72(x2)
    6c90:	0096a023          	sw	x9,0(x13)
    6c94:	0146a223          	sw	x20,4(x13)
    6c98:	04e12223          	sw	x14,68(x2)
    6c9c:	fceb5ae3          	bge	x22,x14,6c70 <_vfiprintf_r+0xba0>
    6ca0:	06078463          	beq	x15,x0,6d08 <_vfiprintf_r+0xc38>
    6ca4:	04010613          	addi	x12,x2,64
    6ca8:	000b8593          	addi	x11,x23,0
    6cac:	000c0513          	addi	x10,x24,0
    6cb0:	ae4ff0ef          	jal	x1,5f94 <__sprint_r.part.0>
    6cb4:	f6051263          	bne	x10,x0,6418 <_vfiprintf_r+0x348>
    6cb8:	04412603          	lw	x12,68(x2)
    6cbc:	ff040413          	addi	x8,x8,-16
    6cc0:	04812783          	lw	x15,72(x2)
    6cc4:	000a8693          	addi	x13,x21,0
    6cc8:	00160e13          	addi	x28,x12,1
    6ccc:	fa8a4ce3          	blt	x20,x8,6c84 <_vfiprintf_r+0xbb4>
    6cd0:	01012883          	lw	x17,16(x2)
    6cd4:	01412703          	lw	x14,20(x2)
    6cd8:	00048813          	addi	x16,x9,0
    6cdc:	00040493          	addi	x9,x8,0
    6ce0:	00068413          	addi	x8,x13,0
    6ce4:	009787b3          	add	x15,x15,x9
    6ce8:	04f12423          	sw	x15,72(x2)
    6cec:	01042023          	sw	x16,0(x8)
    6cf0:	00942223          	sw	x9,4(x8)
    6cf4:	05c12223          	sw	x28,68(x2)
    6cf8:	23cb4a63          	blt	x22,x28,6f2c <_vfiprintf_r+0xe5c>
    6cfc:	00840413          	addi	x8,x8,8
    6d00:	001e0e13          	addi	x28,x28,1
    6d04:	e88ff06f          	jal	x0,638c <_vfiprintf_r+0x2bc>
    6d08:	00100e13          	addi	x28,x0,1
    6d0c:	00000613          	addi	x12,x0,0
    6d10:	000a8693          	addi	x13,x21,0
    6d14:	f69ff06f          	jal	x0,6c7c <_vfiprintf_r+0xbac>
    6d18:	04010613          	addi	x12,x2,64
    6d1c:	000b8593          	addi	x11,x23,0
    6d20:	000c0513          	addi	x10,x24,0
    6d24:	a70ff0ef          	jal	x1,5f94 <__sprint_r.part.0>
    6d28:	ec050a63          	beq	x10,x0,63fc <_vfiprintf_r+0x32c>
    6d2c:	eecff06f          	jal	x0,6418 <_vfiprintf_r+0x348>
    6d30:	00100593          	addi	x11,x0,1
    6d34:	00000613          	addi	x12,x0,0
    6d38:	000a8693          	addi	x13,x21,0
    6d3c:	e3dff06f          	jal	x0,6b78 <_vfiprintf_r+0xaa8>
    6d40:	04078663          	beq	x15,x0,6d8c <_vfiprintf_r+0xcbc>
    6d44:	04010613          	addi	x12,x2,64
    6d48:	000b8593          	addi	x11,x23,0
    6d4c:	000c0513          	addi	x10,x24,0
    6d50:	02e12423          	sw	x14,40(x2)
    6d54:	03112223          	sw	x17,36(x2)
    6d58:	01e12a23          	sw	x30,20(x2)
    6d5c:	01d12823          	sw	x29,16(x2)
    6d60:	a34ff0ef          	jal	x1,5f94 <__sprint_r.part.0>
    6d64:	ea051a63          	bne	x10,x0,6418 <_vfiprintf_r+0x348>
    6d68:	04412603          	lw	x12,68(x2)
    6d6c:	04812783          	lw	x15,72(x2)
    6d70:	02812703          	lw	x14,40(x2)
    6d74:	02412883          	lw	x17,36(x2)
    6d78:	01412f03          	lw	x30,20(x2)
    6d7c:	01012e83          	lw	x29,16(x2)
    6d80:	000a8413          	addi	x8,x21,0
    6d84:	00160e13          	addi	x28,x12,1
    6d88:	d90ff06f          	jal	x0,6318 <_vfiprintf_r+0x248>
    6d8c:	1c0e8e63          	beq	x29,x0,6f68 <_vfiprintf_r+0xe98>
    6d90:	03c10593          	addi	x11,x2,60
    6d94:	00200793          	addi	x15,x0,2
    6d98:	00060e13          	addi	x28,x12,0
    6d9c:	04b12623          	sw	x11,76(x2)
    6da0:	04f12823          	sw	x15,80(x2)
    6da4:	000a8413          	addi	x8,x21,0
    6da8:	000e0613          	addi	x12,x28,0
    6dac:	00840413          	addi	x8,x8,8
    6db0:	001e0e13          	addi	x28,x28,1
    6db4:	dc8ff06f          	jal	x0,637c <_vfiprintf_r+0x2ac>
    6db8:	00200613          	addi	x12,x0,2
    6dbc:	00050d13          	addi	x26,x10,0
    6dc0:	bc0608e3          	beq	x12,x0,6990 <_vfiprintf_r+0x8c0>
    6dc4:	00c12503          	lw	x10,12(x2)
    6dc8:	0f010913          	addi	x18,x2,240
    6dcc:	00f7f693          	andi	x13,x15,15
    6dd0:	00d506b3          	add	x13,x10,x13
    6dd4:	0006c683          	lbu	x13,0(x13)
    6dd8:	01c59613          	slli	x12,x11,0x1c
    6ddc:	0047d793          	srli	x15,x15,0x4
    6de0:	00f667b3          	or	x15,x12,x15
    6de4:	0045d593          	srli	x11,x11,0x4
    6de8:	fed90fa3          	sb	x13,-1(x18)
    6dec:	00b7e6b3          	or	x13,x15,x11
    6df0:	fff90913          	addi	x18,x18,-1
    6df4:	fc069ce3          	bne	x13,x0,6dcc <_vfiprintf_r+0xcfc>
    6df8:	0f010793          	addi	x15,x2,240
    6dfc:	41278db3          	sub	x27,x15,x18
    6e00:	000d8893          	addi	x17,x27,0
    6e04:	9a9dd4e3          	bge	x27,x9,67ac <_vfiprintf_r+0x6dc>
    6e08:	00048893          	addi	x17,x9,0
    6e0c:	9a1ff06f          	jal	x0,67ac <_vfiprintf_r+0x6dc>
    6e10:	01000f93          	addi	x31,x0,16
    6e14:	6b0fd063          	bge	x31,x16,74b4 <_vfiprintf_r+0x13e4>
    6e18:	0000be17          	auipc	x28,0xb
    6e1c:	768e0e13          	addi	x28,x28,1896 # 12580 <blanks.1>
    6e20:	02e12423          	sw	x14,40(x2)
    6e24:	02912623          	sw	x9,44(x2)
    6e28:	00040713          	addi	x14,x8,0
    6e2c:	000f8393          	addi	x7,x31,0
    6e30:	00700293          	addi	x5,x0,7
    6e34:	01d12823          	sw	x29,16(x2)
    6e38:	01e12a23          	sw	x30,20(x2)
    6e3c:	03112223          	sw	x17,36(x2)
    6e40:	00080413          	addi	x8,x16,0
    6e44:	000e0493          	addi	x9,x28,0
    6e48:	01c0006f          	jal	x0,6e64 <_vfiprintf_r+0xd94>
    6e4c:	00260513          	addi	x10,x12,2
    6e50:	00870713          	addi	x14,x14,8
    6e54:	00058613          	addi	x12,x11,0
    6e58:	ff040413          	addi	x8,x8,-16
    6e5c:	0483de63          	bge	x7,x8,6eb8 <_vfiprintf_r+0xde8>
    6e60:	00160593          	addi	x11,x12,1
    6e64:	01078793          	addi	x15,x15,16
    6e68:	04f12423          	sw	x15,72(x2)
    6e6c:	00972023          	sw	x9,0(x14)
    6e70:	01f72223          	sw	x31,4(x14)
    6e74:	04b12223          	sw	x11,68(x2)
    6e78:	fcb2dae3          	bge	x5,x11,6e4c <_vfiprintf_r+0xd7c>
    6e7c:	08078463          	beq	x15,x0,6f04 <_vfiprintf_r+0xe34>
    6e80:	04010613          	addi	x12,x2,64
    6e84:	000b8593          	addi	x11,x23,0
    6e88:	000c0513          	addi	x10,x24,0
    6e8c:	908ff0ef          	jal	x1,5f94 <__sprint_r.part.0>
    6e90:	d8051463          	bne	x10,x0,6418 <_vfiprintf_r+0x348>
    6e94:	04412603          	lw	x12,68(x2)
    6e98:	01000393          	addi	x7,x0,16
    6e9c:	ff040413          	addi	x8,x8,-16
    6ea0:	04812783          	lw	x15,72(x2)
    6ea4:	000a8713          	addi	x14,x21,0
    6ea8:	00160513          	addi	x10,x12,1
    6eac:	00700293          	addi	x5,x0,7
    6eb0:	00038f93          	addi	x31,x7,0
    6eb4:	fa83c6e3          	blt	x7,x8,6e60 <_vfiprintf_r+0xd90>
    6eb8:	00040813          	addi	x16,x8,0
    6ebc:	00048e13          	addi	x28,x9,0
    6ec0:	00070413          	addi	x8,x14,0
    6ec4:	01012e83          	lw	x29,16(x2)
    6ec8:	01412f03          	lw	x30,20(x2)
    6ecc:	02412883          	lw	x17,36(x2)
    6ed0:	02812703          	lw	x14,40(x2)
    6ed4:	02c12483          	lw	x9,44(x2)
    6ed8:	010787b3          	add	x15,x15,x16
    6edc:	04f12423          	sw	x15,72(x2)
    6ee0:	01c42023          	sw	x28,0(x8)
    6ee4:	01042223          	sw	x16,4(x8)
    6ee8:	04a12223          	sw	x10,68(x2)
    6eec:	00700613          	addi	x12,x0,7
    6ef0:	08a64863          	blt	x12,x10,6f80 <_vfiprintf_r+0xeb0>
    6ef4:	00840413          	addi	x8,x8,8
    6ef8:	00150e13          	addi	x28,x10,1
    6efc:	00050613          	addi	x12,x10,0
    6f00:	be4ff06f          	jal	x0,62e4 <_vfiprintf_r+0x214>
    6f04:	00000613          	addi	x12,x0,0
    6f08:	00100513          	addi	x10,x0,1
    6f0c:	000a8713          	addi	x14,x21,0
    6f10:	f49ff06f          	jal	x0,6e58 <_vfiprintf_r+0xd88>
    6f14:	01175463          	bge	x14,x17,6f1c <_vfiprintf_r+0xe4c>
    6f18:	00088713          	addi	x14,x17,0
    6f1c:	00412783          	lw	x15,4(x2)
    6f20:	00e787b3          	add	x15,x15,x14
    6f24:	00f12223          	sw	x15,4(x2)
    6f28:	cd4ff06f          	jal	x0,63fc <_vfiprintf_r+0x32c>
    6f2c:	da078a63          	beq	x15,x0,64e0 <_vfiprintf_r+0x410>
    6f30:	04010613          	addi	x12,x2,64
    6f34:	000b8593          	addi	x11,x23,0
    6f38:	000c0513          	addi	x10,x24,0
    6f3c:	00e12a23          	sw	x14,20(x2)
    6f40:	01112823          	sw	x17,16(x2)
    6f44:	850ff0ef          	jal	x1,5f94 <__sprint_r.part.0>
    6f48:	cc051863          	bne	x10,x0,6418 <_vfiprintf_r+0x348>
    6f4c:	04412e03          	lw	x28,68(x2)
    6f50:	04812783          	lw	x15,72(x2)
    6f54:	01412703          	lw	x14,20(x2)
    6f58:	01012883          	lw	x17,16(x2)
    6f5c:	000a8413          	addi	x8,x21,0
    6f60:	001e0e13          	addi	x28,x28,1
    6f64:	c28ff06f          	jal	x0,638c <_vfiprintf_r+0x2bc>
    6f68:	00100e13          	addi	x28,x0,1
    6f6c:	00000613          	addi	x12,x0,0
    6f70:	000a8413          	addi	x8,x21,0
    6f74:	c08ff06f          	jal	x0,637c <_vfiprintf_r+0x2ac>
    6f78:	04012223          	sw	x0,68(x2)
    6f7c:	a8cff06f          	jal	x0,6208 <_vfiprintf_r+0x138>
    6f80:	2e078663          	beq	x15,x0,726c <_vfiprintf_r+0x119c>
    6f84:	04010613          	addi	x12,x2,64
    6f88:	000b8593          	addi	x11,x23,0
    6f8c:	000c0513          	addi	x10,x24,0
    6f90:	02e12423          	sw	x14,40(x2)
    6f94:	03112223          	sw	x17,36(x2)
    6f98:	01e12a23          	sw	x30,20(x2)
    6f9c:	01d12823          	sw	x29,16(x2)
    6fa0:	ff5fe0ef          	jal	x1,5f94 <__sprint_r.part.0>
    6fa4:	c6051a63          	bne	x10,x0,6418 <_vfiprintf_r+0x348>
    6fa8:	04412603          	lw	x12,68(x2)
    6fac:	04812783          	lw	x15,72(x2)
    6fb0:	02812703          	lw	x14,40(x2)
    6fb4:	02412883          	lw	x17,36(x2)
    6fb8:	01412f03          	lw	x30,20(x2)
    6fbc:	01012e83          	lw	x29,16(x2)
    6fc0:	000a8413          	addi	x8,x21,0
    6fc4:	00160e13          	addi	x28,x12,1
    6fc8:	b1cff06f          	jal	x0,62e4 <_vfiprintf_r+0x214>
    6fcc:	ccccd337          	lui	x6,0xccccd
    6fd0:	00030e93          	addi	x29,x6,0 # ccccd000 <__heap_end+0xcc8cd000>
    6fd4:	01812803          	lw	x16,24(x2)
    6fd8:	ccd30313          	addi	x6,x6,-819
    6fdc:	ccce8e93          	addi	x29,x29,-820
    6fe0:	400d7f13          	andi	x30,x26,1024
    6fe4:	00000513          	addi	x10,x0,0
    6fe8:	0f010593          	addi	x11,x2,240
    6fec:	00500e13          	addi	x28,x0,5
    6ff0:	0ff00f93          	addi	x31,x0,255
    6ff4:	0540006f          	jal	x0,7048 <_vfiprintf_r+0xf78>
    6ff8:	01b937b3          	sltu	x15,x18,x27
    6ffc:	00f907b3          	add	x15,x18,x15
    7000:	03c7f7b3          	remu	x15,x15,x28
    7004:	40fd87b3          	sub	x15,x27,x15
    7008:	00fdb633          	sltu	x12,x27,x15
    700c:	40c88633          	sub	x12,x17,x12
    7010:	03d782b3          	mul	x5,x15,x29
    7014:	02660633          	mul	x12,x12,x6
    7018:	0267b5b3          	mulhu	x11,x15,x6
    701c:	00560633          	add	x12,x12,x5
    7020:	026787b3          	mul	x15,x15,x6
    7024:	00b60633          	add	x12,x12,x11
    7028:	01f61593          	slli	x11,x12,0x1f
    702c:	00165613          	srli	x12,x12,0x1
    7030:	0017d793          	srli	x15,x15,0x1
    7034:	00f5e7b3          	or	x15,x11,x15
    7038:	3c088a63          	beq	x17,x0,740c <_vfiprintf_r+0x133c>
    703c:	00078d93          	addi	x27,x15,0
    7040:	00060893          	addi	x17,x12,0
    7044:	00068593          	addi	x11,x13,0
    7048:	011d8933          	add	x18,x27,x17
    704c:	01b93633          	sltu	x12,x18,x27
    7050:	00c90633          	add	x12,x18,x12
    7054:	03c67633          	remu	x12,x12,x28
    7058:	00150513          	addi	x10,x10,1
    705c:	fff58693          	addi	x13,x11,-1
    7060:	40cd8633          	sub	x12,x27,x12
    7064:	00cdb7b3          	sltu	x15,x27,x12
    7068:	40f887b3          	sub	x15,x17,x15
    706c:	026632b3          	mulhu	x5,x12,x6
    7070:	026787b3          	mul	x15,x15,x6
    7074:	02660633          	mul	x12,x12,x6
    7078:	005787b3          	add	x15,x15,x5
    707c:	01f79793          	slli	x15,x15,0x1f
    7080:	00165613          	srli	x12,x12,0x1
    7084:	00c7e633          	or	x12,x15,x12
    7088:	00261793          	slli	x15,x12,0x2
    708c:	00c787b3          	add	x15,x15,x12
    7090:	00179793          	slli	x15,x15,0x1
    7094:	40fd87b3          	sub	x15,x27,x15
    7098:	03078793          	addi	x15,x15,48
    709c:	fef58fa3          	sb	x15,-1(x11)
    70a0:	f40f0ce3          	beq	x30,x0,6ff8 <_vfiprintf_r+0xf28>
    70a4:	00084783          	lbu	x15,0(x16)
    70a8:	f4a798e3          	bne	x15,x10,6ff8 <_vfiprintf_r+0xf28>
    70ac:	f5f506e3          	beq	x10,x31,6ff8 <_vfiprintf_r+0xf28>
    70b0:	1e089063          	bne	x17,x0,7290 <_vfiprintf_r+0x11c0>
    70b4:	00900793          	addi	x15,x0,9
    70b8:	1db7ec63          	bltu	x15,x27,7290 <_vfiprintf_r+0x11c0>
    70bc:	01012c23          	sw	x16,24(x2)
    70c0:	00068913          	addi	x18,x13,0
    70c4:	d35ff06f          	jal	x0,6df8 <_vfiprintf_r+0xd28>
    70c8:	0009c603          	lbu	x12,0(x19)
    70cc:	00f12423          	sw	x15,8(x2)
    70d0:	96cff06f          	jal	x0,623c <_vfiprintf_r+0x16c>
    70d4:	00000893          	addi	x17,x0,0
    70d8:	0f010913          	addi	x18,x2,240
    70dc:	ed0ff06f          	jal	x0,67ac <_vfiprintf_r+0x6dc>
    70e0:	00840413          	addi	x8,x8,8
    70e4:	00158e13          	addi	x28,x11,1
    70e8:	00058613          	addi	x12,x11,0
    70ec:	a98ff06f          	jal	x0,6384 <_vfiprintf_r+0x2b4>
    70f0:	010d7793          	andi	x15,x26,16
    70f4:	28079663          	bne	x15,x0,7380 <_vfiprintf_r+0x12b0>
    70f8:	040d7793          	andi	x15,x26,64
    70fc:	34079663          	bne	x15,x0,7448 <_vfiprintf_r+0x1378>
    7100:	200d7693          	andi	x13,x26,512
    7104:	26068e63          	beq	x13,x0,7380 <_vfiprintf_r+0x12b0>
    7108:	00812783          	lw	x15,8(x2)
    710c:	00412703          	lw	x14,4(x2)
    7110:	0007a783          	lw	x15,0(x15)
    7114:	00e78023          	sb	x14,0(x15)
    7118:	9e5ff06f          	jal	x0,6afc <_vfiprintf_r+0xa2c>
    711c:	000d0313          	addi	x6,x26,0
    7120:	81dff06f          	jal	x0,693c <_vfiprintf_r+0x86c>
    7124:	000d0613          	addi	x12,x26,0
    7128:	f2cff06f          	jal	x0,6854 <_vfiprintf_r+0x784>
    712c:	00812783          	lw	x15,8(x2)
    7130:	00478513          	addi	x10,x15,4
    7134:	00812783          	lw	x15,8(x2)
    7138:	00000893          	addi	x17,x0,0
    713c:	00a12423          	sw	x10,8(x2)
    7140:	0007ad83          	lw	x27,0(x15)
    7144:	815ff06f          	jal	x0,6958 <_vfiprintf_r+0x888>
    7148:	00812783          	lw	x15,8(x2)
    714c:	00478513          	addi	x10,x15,4
    7150:	00812783          	lw	x15,8(x2)
    7154:	00000593          	addi	x11,x0,0
    7158:	00a12423          	sw	x10,8(x2)
    715c:	0007a783          	lw	x15,0(x15)
    7160:	f10ff06f          	jal	x0,6870 <_vfiprintf_r+0x7a0>
    7164:	00812783          	lw	x15,8(x2)
    7168:	00478513          	addi	x10,x15,4
    716c:	00812783          	lw	x15,8(x2)
    7170:	00068d13          	addi	x26,x13,0
    7174:	00a12423          	sw	x10,8(x2)
    7178:	0007ad83          	lw	x27,0(x15)
    717c:	41fdd893          	srai	x17,x27,0x1f
    7180:	00088613          	addi	x12,x17,0
    7184:	cc8ff06f          	jal	x0,664c <_vfiprintf_r+0x57c>
    7188:	00060d13          	addi	x26,x12,0
    718c:	00000613          	addi	x12,x0,0
    7190:	800600e3          	beq	x12,x0,6990 <_vfiprintf_r+0x8c0>
    7194:	c31ff06f          	jal	x0,6dc4 <_vfiprintf_r+0xcf4>
    7198:	00048893          	addi	x17,x9,0
    719c:	00080913          	addi	x18,x16,0
    71a0:	e0cff06f          	jal	x0,67ac <_vfiprintf_r+0x6dc>
    71a4:	fff00493          	addi	x9,x0,-1
    71a8:	00058993          	addi	x19,x11,0
    71ac:	894ff06f          	jal	x0,6240 <_vfiprintf_r+0x170>
    71b0:	0000b797          	auipc	x15,0xb
    71b4:	d4878793          	addi	x15,x15,-696 # 11ef8 <__clzsi2+0x340>
    71b8:	00f12623          	sw	x15,12(x2)
    71bc:	020d7793          	andi	x15,x26,32
    71c0:	00090713          	addi	x14,x18,0
    71c4:	06078063          	beq	x15,x0,7224 <_vfiprintf_r+0x1154>
    71c8:	00812783          	lw	x15,8(x2)
    71cc:	00778593          	addi	x11,x15,7
    71d0:	ff85f593          	andi	x11,x11,-8
    71d4:	00858793          	addi	x15,x11,8
    71d8:	00f12423          	sw	x15,8(x2)
    71dc:	0005a783          	lw	x15,0(x11)
    71e0:	0045a583          	lw	x11,4(x11)
    71e4:	001d7513          	andi	x10,x26,1
    71e8:	00050e63          	beq	x10,x0,7204 <_vfiprintf_r+0x1134>
    71ec:	00b7e533          	or	x10,x15,x11
    71f0:	00050a63          	beq	x10,x0,7204 <_vfiprintf_r+0x1134>
    71f4:	03000513          	addi	x10,x0,48
    71f8:	02c10ea3          	sb	x12,61(x2)
    71fc:	002d6d13          	ori	x26,x26,2
    7200:	02a10e23          	sb	x10,60(x2)
    7204:	bffd7d13          	andi	x26,x26,-1025
    7208:	871ff06f          	jal	x0,6a78 <_vfiprintf_r+0x9a8>
    720c:	0000b797          	auipc	x15,0xb
    7210:	cd878793          	addi	x15,x15,-808 # 11ee4 <__clzsi2+0x32c>
    7214:	00f12623          	sw	x15,12(x2)
    7218:	020d7793          	andi	x15,x26,32
    721c:	00090713          	addi	x14,x18,0
    7220:	fa0794e3          	bne	x15,x0,71c8 <_vfiprintf_r+0x10f8>
    7224:	00812683          	lw	x13,8(x2)
    7228:	010d7593          	andi	x11,x26,16
    722c:	0006a783          	lw	x15,0(x13)
    7230:	00468693          	addi	x13,x13,4
    7234:	00d12423          	sw	x13,8(x2)
    7238:	10059c63          	bne	x11,x0,7350 <_vfiprintf_r+0x1280>
    723c:	040d7593          	andi	x11,x26,64
    7240:	10058463          	beq	x11,x0,7348 <_vfiprintf_r+0x1278>
    7244:	01079793          	slli	x15,x15,0x10
    7248:	0107d793          	srli	x15,x15,0x10
    724c:	00000593          	addi	x11,x0,0
    7250:	f95ff06f          	jal	x0,71e4 <_vfiprintf_r+0x1114>
    7254:	00090513          	addi	x10,x18,0
    7258:	ac5fb0ef          	jal	x1,2d1c <strlen>
    725c:	00812703          	lw	x14,8(x2)
    7260:	01012683          	lw	x13,16(x2)
    7264:	00050d93          	addi	x27,x10,0
    7268:	c70ff06f          	jal	x0,66d8 <_vfiprintf_r+0x608>
    726c:	03b14603          	lbu	x12,59(x2)
    7270:	1c060663          	beq	x12,x0,743c <_vfiprintf_r+0x136c>
    7274:	00100793          	addi	x15,x0,1
    7278:	03b10613          	addi	x12,x2,59
    727c:	00078e13          	addi	x28,x15,0
    7280:	04f12823          	sw	x15,80(x2)
    7284:	04c12623          	sw	x12,76(x2)
    7288:	000a8413          	addi	x8,x21,0
    728c:	880ff06f          	jal	x0,630c <_vfiprintf_r+0x23c>
    7290:	01c12603          	lw	x12,28(x2)
    7294:	02012583          	lw	x11,32(x2)
    7298:	03112423          	sw	x17,40(x2)
    729c:	40c686b3          	sub	x13,x13,x12
    72a0:	00068513          	addi	x10,x13,0
    72a4:	02e12223          	sw	x14,36(x2)
    72a8:	01e12c23          	sw	x30,24(x2)
    72ac:	01012a23          	sw	x16,20(x2)
    72b0:	00d12823          	sw	x13,16(x2)
    72b4:	081020ef          	jal	x1,9b34 <strncpy>
    72b8:	01b937b3          	sltu	x15,x18,x27
    72bc:	00500613          	addi	x12,x0,5
    72c0:	00f907b3          	add	x15,x18,x15
    72c4:	02c7f7b3          	remu	x15,x15,x12
    72c8:	01412803          	lw	x16,20(x2)
    72cc:	02812883          	lw	x17,40(x2)
    72d0:	ccccd5b7          	lui	x11,0xccccd
    72d4:	00184603          	lbu	x12,1(x16)
    72d8:	00058293          	addi	x5,x11,0 # ccccd000 <__heap_end+0xcc8cd000>
    72dc:	ccc28293          	addi	x5,x5,-820
    72e0:	00c03633          	sltu	x12,x0,x12
    72e4:	00c80833          	add	x16,x16,x12
    72e8:	ccd58593          	addi	x11,x11,-819
    72ec:	ccccd737          	lui	x14,0xccccd
    72f0:	ccd70313          	addi	x6,x14,-819 # cccccccd <__heap_end+0xcc8ccccd>
    72f4:	ccc70e93          	addi	x29,x14,-820
    72f8:	01012683          	lw	x13,16(x2)
    72fc:	01812f03          	lw	x30,24(x2)
    7300:	02412703          	lw	x14,36(x2)
    7304:	00000513          	addi	x10,x0,0
    7308:	00500e13          	addi	x28,x0,5
    730c:	0ff00f93          	addi	x31,x0,255
    7310:	40fd87b3          	sub	x15,x27,x15
    7314:	00fdb633          	sltu	x12,x27,x15
    7318:	40c88633          	sub	x12,x17,x12
    731c:	02b60633          	mul	x12,x12,x11
    7320:	025782b3          	mul	x5,x15,x5
    7324:	02b7b8b3          	mulhu	x17,x15,x11
    7328:	00560633          	add	x12,x12,x5
    732c:	02b785b3          	mul	x11,x15,x11
    7330:	01160633          	add	x12,x12,x17
    7334:	01f61793          	slli	x15,x12,0x1f
    7338:	00165613          	srli	x12,x12,0x1
    733c:	0015d593          	srli	x11,x11,0x1
    7340:	00b7e7b3          	or	x15,x15,x11
    7344:	cf9ff06f          	jal	x0,703c <_vfiprintf_r+0xf6c>
    7348:	200d7593          	andi	x11,x26,512
    734c:	10059863          	bne	x11,x0,745c <_vfiprintf_r+0x138c>
    7350:	00000593          	addi	x11,x0,0
    7354:	e91ff06f          	jal	x0,71e4 <_vfiprintf_r+0x1114>
    7358:	fccf90ef          	jal	x1,b24 <__sinit>
    735c:	da9fe06f          	jal	x0,6104 <_vfiprintf_r+0x34>
    7360:	0019c603          	lbu	x12,1(x19)
    7364:	200d6d13          	ori	x26,x26,512
    7368:	00198993          	addi	x19,x19,1
    736c:	ed1fe06f          	jal	x0,623c <_vfiprintf_r+0x16c>
    7370:	0019c603          	lbu	x12,1(x19)
    7374:	020d6d13          	ori	x26,x26,32
    7378:	00198993          	addi	x19,x19,1
    737c:	ec1fe06f          	jal	x0,623c <_vfiprintf_r+0x16c>
    7380:	00812783          	lw	x15,8(x2)
    7384:	00412703          	lw	x14,4(x2)
    7388:	0007a783          	lw	x15,0(x15)
    738c:	00e7a023          	sw	x14,0(x15)
    7390:	f6cff06f          	jal	x0,6afc <_vfiprintf_r+0xa2c>
    7394:	00600793          	addi	x15,x0,6
    7398:	00048d93          	addi	x27,x9,0
    739c:	0897ec63          	bltu	x15,x9,7434 <_vfiprintf_r+0x1364>
    73a0:	00d12423          	sw	x13,8(x2)
    73a4:	000d8893          	addi	x17,x27,0
    73a8:	0000b917          	auipc	x18,0xb
    73ac:	b6490913          	addi	x18,x18,-1180 # 11f0c <__clzsi2+0x354>
    73b0:	f0dfe06f          	jal	x0,62bc <_vfiprintf_r+0x1ec>
    73b4:	200d7793          	andi	x15,x26,512
    73b8:	0c078863          	beq	x15,x0,7488 <_vfiprintf_r+0x13b8>
    73bc:	0ffdfd93          	andi	x27,x27,255
    73c0:	00a12423          	sw	x10,8(x2)
    73c4:	000d0313          	addi	x6,x26,0
    73c8:	00000893          	addi	x17,x0,0
    73cc:	d8cff06f          	jal	x0,6958 <_vfiprintf_r+0x888>
    73d0:	200d7613          	andi	x12,x26,512
    73d4:	0a060263          	beq	x12,x0,7478 <_vfiprintf_r+0x13a8>
    73d8:	0ff7f793          	andi	x15,x15,255
    73dc:	00a12423          	sw	x10,8(x2)
    73e0:	000d0613          	addi	x12,x26,0
    73e4:	00000593          	addi	x11,x0,0
    73e8:	c88ff06f          	jal	x0,6870 <_vfiprintf_r+0x7a0>
    73ec:	200d7793          	andi	x15,x26,512
    73f0:	06078c63          	beq	x15,x0,7468 <_vfiprintf_r+0x1398>
    73f4:	018d9d93          	slli	x27,x27,0x18
    73f8:	418ddd93          	srai	x27,x27,0x18
    73fc:	41fdd893          	srai	x17,x27,0x1f
    7400:	00a12423          	sw	x10,8(x2)
    7404:	00088613          	addi	x12,x17,0
    7408:	a44ff06f          	jal	x0,664c <_vfiprintf_r+0x57c>
    740c:	00900593          	addi	x11,x0,9
    7410:	c3b5e6e3          	bltu	x11,x27,703c <_vfiprintf_r+0xf6c>
    7414:	ca9ff06f          	jal	x0,70bc <_vfiprintf_r+0xfec>
    7418:	00100e13          	addi	x28,x0,1
    741c:	00000613          	addi	x12,x0,0
    7420:	000a8413          	addi	x8,x21,0
    7424:	f61fe06f          	jal	x0,6384 <_vfiprintf_r+0x2b4>
    7428:	00000793          	addi	x15,x0,0
    742c:	00000593          	addi	x11,x0,0
    7430:	995ff06f          	jal	x0,6dc4 <_vfiprintf_r+0xcf4>
    7434:	00078d93          	addi	x27,x15,0
    7438:	f69ff06f          	jal	x0,73a0 <_vfiprintf_r+0x12d0>
    743c:	00100e13          	addi	x28,x0,1
    7440:	000a8413          	addi	x8,x21,0
    7444:	ed5fe06f          	jal	x0,6318 <_vfiprintf_r+0x248>
    7448:	00812783          	lw	x15,8(x2)
    744c:	00412703          	lw	x14,4(x2)
    7450:	0007a783          	lw	x15,0(x15)
    7454:	00e79023          	sh	x14,0(x15)
    7458:	ea4ff06f          	jal	x0,6afc <_vfiprintf_r+0xa2c>
    745c:	0ff7f793          	andi	x15,x15,255
    7460:	00000593          	addi	x11,x0,0
    7464:	d81ff06f          	jal	x0,71e4 <_vfiprintf_r+0x1114>
    7468:	41fdd893          	srai	x17,x27,0x1f
    746c:	00a12423          	sw	x10,8(x2)
    7470:	00088613          	addi	x12,x17,0
    7474:	9d8ff06f          	jal	x0,664c <_vfiprintf_r+0x57c>
    7478:	00a12423          	sw	x10,8(x2)
    747c:	000d0613          	addi	x12,x26,0
    7480:	00000593          	addi	x11,x0,0
    7484:	becff06f          	jal	x0,6870 <_vfiprintf_r+0x7a0>
    7488:	00a12423          	sw	x10,8(x2)
    748c:	000d0313          	addi	x6,x26,0
    7490:	00000893          	addi	x17,x0,0
    7494:	cc4ff06f          	jal	x0,6958 <_vfiprintf_r+0x888>
    7498:	000c0513          	addi	x10,x24,0
    749c:	04010613          	addi	x12,x2,64
    74a0:	000b8593          	addi	x11,x23,0
    74a4:	af1fe0ef          	jal	x1,5f94 <__sprint_r.part.0>
    74a8:	f71fe06f          	jal	x0,6418 <_vfiprintf_r+0x348>
    74ac:	03000793          	addi	x15,x0,48
    74b0:	ae4ff06f          	jal	x0,6794 <_vfiprintf_r+0x6c4>
    74b4:	00058513          	addi	x10,x11,0
    74b8:	0000be17          	auipc	x28,0xb
    74bc:	0c8e0e13          	addi	x28,x28,200 # 12580 <blanks.1>
    74c0:	a19ff06f          	jal	x0,6ed8 <_vfiprintf_r+0xe08>
    74c4:	00160593          	addi	x11,x12,1
    74c8:	0000be17          	auipc	x28,0xb
    74cc:	0b8e0e13          	addi	x28,x28,184 # 12580 <blanks.1>
    74d0:	8f4ff06f          	jal	x0,65c4 <_vfiprintf_r+0x4f4>
    74d4:	000e0593          	addi	x11,x28,0
    74d8:	0000b817          	auipc	x16,0xb
    74dc:	0b880813          	addi	x16,x16,184 # 12590 <zeroes.0>
    74e0:	f10ff06f          	jal	x0,6bf0 <_vfiprintf_r+0xb20>
    74e4:	fff00793          	addi	x15,x0,-1
    74e8:	00f12223          	sw	x15,4(x2)
    74ec:	f61fe06f          	jal	x0,644c <_vfiprintf_r+0x37c>
    74f0:	00812783          	lw	x15,8(x2)
    74f4:	0007a483          	lw	x9,0(x15)
    74f8:	00478793          	addi	x15,x15,4
    74fc:	0004d463          	bge	x9,x0,7504 <_vfiprintf_r+0x1434>
    7500:	fff00493          	addi	x9,x0,-1
    7504:	0019c603          	lbu	x12,1(x19)
    7508:	00f12423          	sw	x15,8(x2)
    750c:	00058993          	addi	x19,x11,0
    7510:	d2dfe06f          	jal	x0,623c <_vfiprintf_r+0x16c>
    7514:	000d0613          	addi	x12,x26,0
    7518:	c39ff06f          	jal	x0,7150 <_vfiprintf_r+0x1080>
    751c:	000d0693          	addi	x13,x26,0
    7520:	c4dff06f          	jal	x0,716c <_vfiprintf_r+0x109c>
    7524:	000d0313          	addi	x6,x26,0
    7528:	c0dff06f          	jal	x0,7134 <_vfiprintf_r+0x1064>

0000752c <vfiprintf>:
    752c:	00058793          	addi	x15,x11,0
    7530:	00060693          	addi	x13,x12,0
    7534:	00050593          	addi	x11,x10,0
    7538:	00078613          	addi	x12,x15,0
    753c:	f141a503          	lw	x10,-236(x3) # 13024 <_impure_ptr>
    7540:	b91fe06f          	jal	x0,60d0 <_vfiprintf_r>

00007544 <__sbprintf>:
    7544:	b8010113          	addi	x2,x2,-1152
    7548:	00c59783          	lh	x15,12(x11)
    754c:	00e5d703          	lhu	x14,14(x11)
    7550:	46812c23          	sw	x8,1144(x2)
    7554:	00058413          	addi	x8,x11,0
    7558:	000105b7          	lui	x11,0x10
    755c:	ffd58593          	addi	x11,x11,-3 # fffd <__subtf3+0xd5>
    7560:	06442303          	lw	x6,100(x8)
    7564:	01c42883          	lw	x17,28(x8)
    7568:	02442803          	lw	x16,36(x8)
    756c:	00b7f7b3          	and	x15,x15,x11
    7570:	01071713          	slli	x14,x14,0x10
    7574:	00e7e7b3          	or	x15,x15,x14
    7578:	00f12a23          	sw	x15,20(x2)
    757c:	40000713          	addi	x14,x0,1024
    7580:	07010793          	addi	x15,x2,112
    7584:	00810593          	addi	x11,x2,8
    7588:	46912a23          	sw	x9,1140(x2)
    758c:	47212823          	sw	x18,1136(x2)
    7590:	46112e23          	sw	x1,1148(x2)
    7594:	02012023          	sw	x0,32(x2)
    7598:	06612623          	sw	x6,108(x2)
    759c:	03112223          	sw	x17,36(x2)
    75a0:	03012623          	sw	x16,44(x2)
    75a4:	00050913          	addi	x18,x10,0
    75a8:	00f12423          	sw	x15,8(x2)
    75ac:	00f12c23          	sw	x15,24(x2)
    75b0:	00e12823          	sw	x14,16(x2)
    75b4:	00e12e23          	sw	x14,28(x2)
    75b8:	b19fe0ef          	jal	x1,60d0 <_vfiprintf_r>
    75bc:	00050493          	addi	x9,x10,0
    75c0:	02055c63          	bge	x10,x0,75f8 <__sbprintf+0xb4>
    75c4:	01415783          	lhu	x15,20(x2)
    75c8:	0407f793          	andi	x15,x15,64
    75cc:	00078863          	beq	x15,x0,75dc <__sbprintf+0x98>
    75d0:	00c45783          	lhu	x15,12(x8)
    75d4:	0407e793          	ori	x15,x15,64
    75d8:	00f41623          	sh	x15,12(x8)
    75dc:	47c12083          	lw	x1,1148(x2)
    75e0:	47812403          	lw	x8,1144(x2)
    75e4:	47012903          	lw	x18,1136(x2)
    75e8:	00048513          	addi	x10,x9,0
    75ec:	47412483          	lw	x9,1140(x2)
    75f0:	48010113          	addi	x2,x2,1152
    75f4:	00008067          	jalr	x0,0(x1)
    75f8:	00810593          	addi	x11,x2,8
    75fc:	00090513          	addi	x10,x18,0
    7600:	c1cfb0ef          	jal	x1,2a1c <_fflush_r>
    7604:	fc0500e3          	beq	x10,x0,75c4 <__sbprintf+0x80>
    7608:	fff00493          	addi	x9,x0,-1
    760c:	fb9ff06f          	jal	x0,75c4 <__sbprintf+0x80>

00007610 <_putc_r>:
    7610:	fe010113          	addi	x2,x2,-32
    7614:	00812c23          	sw	x8,24(x2)
    7618:	00112e23          	sw	x1,28(x2)
    761c:	00050413          	addi	x8,x10,0
    7620:	00050663          	beq	x10,x0,762c <_putc_r+0x1c>
    7624:	03452783          	lw	x15,52(x10)
    7628:	06078063          	beq	x15,x0,7688 <_putc_r+0x78>
    762c:	00862783          	lw	x15,8(x12)
    7630:	fff78793          	addi	x15,x15,-1
    7634:	00f62423          	sw	x15,8(x12)
    7638:	0007dc63          	bge	x15,x0,7650 <_putc_r+0x40>
    763c:	01862703          	lw	x14,24(x12)
    7640:	02e7ca63          	blt	x15,x14,7674 <_putc_r+0x64>
    7644:	0ff5f793          	andi	x15,x11,255
    7648:	00a00713          	addi	x14,x0,10
    764c:	02e78463          	beq	x15,x14,7674 <_putc_r+0x64>
    7650:	00062783          	lw	x15,0(x12)
    7654:	0ff5f513          	andi	x10,x11,255
    7658:	00178713          	addi	x14,x15,1
    765c:	00e62023          	sw	x14,0(x12)
    7660:	00b78023          	sb	x11,0(x15)
    7664:	01c12083          	lw	x1,28(x2)
    7668:	01812403          	lw	x8,24(x2)
    766c:	02010113          	addi	x2,x2,32
    7670:	00008067          	jalr	x0,0(x1)
    7674:	00040513          	addi	x10,x8,0
    7678:	01812403          	lw	x8,24(x2)
    767c:	01c12083          	lw	x1,28(x2)
    7680:	02010113          	addi	x2,x2,32
    7684:	30c0206f          	jal	x0,9990 <__swbuf_r>
    7688:	00c12623          	sw	x12,12(x2)
    768c:	00b12423          	sw	x11,8(x2)
    7690:	c94f90ef          	jal	x1,b24 <__sinit>
    7694:	00c12603          	lw	x12,12(x2)
    7698:	00812583          	lw	x11,8(x2)
    769c:	f91ff06f          	jal	x0,762c <_putc_r+0x1c>

000076a0 <putc>:
    76a0:	fe010113          	addi	x2,x2,-32
    76a4:	00912c23          	sw	x9,24(x2)
    76a8:	01212a23          	sw	x18,20(x2)
    76ac:	00112e23          	sw	x1,28(x2)
    76b0:	f141a903          	lw	x18,-236(x3) # 13024 <_impure_ptr>
    76b4:	00050493          	addi	x9,x10,0
    76b8:	00090663          	beq	x18,x0,76c4 <putc+0x24>
    76bc:	03492783          	lw	x15,52(x18)
    76c0:	06078863          	beq	x15,x0,7730 <putc+0x90>
    76c4:	0085a783          	lw	x15,8(x11)
    76c8:	fff78793          	addi	x15,x15,-1
    76cc:	00f5a423          	sw	x15,8(x11)
    76d0:	0007dc63          	bge	x15,x0,76e8 <putc+0x48>
    76d4:	0185a703          	lw	x14,24(x11)
    76d8:	02e7cc63          	blt	x15,x14,7710 <putc+0x70>
    76dc:	0ff4f793          	andi	x15,x9,255
    76e0:	00a00713          	addi	x14,x0,10
    76e4:	02e78663          	beq	x15,x14,7710 <putc+0x70>
    76e8:	0005a783          	lw	x15,0(x11)
    76ec:	0ff4f513          	andi	x10,x9,255
    76f0:	00178713          	addi	x14,x15,1
    76f4:	00e5a023          	sw	x14,0(x11)
    76f8:	00978023          	sb	x9,0(x15)
    76fc:	01c12083          	lw	x1,28(x2)
    7700:	01812483          	lw	x9,24(x2)
    7704:	01412903          	lw	x18,20(x2)
    7708:	02010113          	addi	x2,x2,32
    770c:	00008067          	jalr	x0,0(x1)
    7710:	01c12083          	lw	x1,28(x2)
    7714:	00058613          	addi	x12,x11,0
    7718:	00090513          	addi	x10,x18,0
    771c:	00048593          	addi	x11,x9,0
    7720:	01412903          	lw	x18,20(x2)
    7724:	01812483          	lw	x9,24(x2)
    7728:	02010113          	addi	x2,x2,32
    772c:	2640206f          	jal	x0,9990 <__swbuf_r>
    7730:	00090513          	addi	x10,x18,0
    7734:	00b12623          	sw	x11,12(x2)
    7738:	becf90ef          	jal	x1,b24 <__sinit>
    773c:	00c12583          	lw	x11,12(x2)
    7740:	f85ff06f          	jal	x0,76c4 <putc+0x24>

00007744 <_sbrk_r>:
    7744:	ff010113          	addi	x2,x2,-16
    7748:	00812423          	sw	x8,8(x2)
    774c:	00050413          	addi	x8,x10,0
    7750:	00058513          	addi	x10,x11,0
    7754:	f001ac23          	sw	x0,-232(x3) # 13028 <errno>
    7758:	00112623          	sw	x1,12(x2)
    775c:	cb9f80ef          	jal	x1,414 <_sbrk>
    7760:	fff00793          	addi	x15,x0,-1
    7764:	00f50a63          	beq	x10,x15,7778 <_sbrk_r+0x34>
    7768:	00c12083          	lw	x1,12(x2)
    776c:	00812403          	lw	x8,8(x2)
    7770:	01010113          	addi	x2,x2,16
    7774:	00008067          	jalr	x0,0(x1)
    7778:	00912223          	sw	x9,4(x2)
    777c:	f1818493          	addi	x9,x3,-232 # 13028 <errno>
    7780:	0004a783          	lw	x15,0(x9)
    7784:	00078e63          	beq	x15,x0,77a0 <_sbrk_r+0x5c>
    7788:	00c12083          	lw	x1,12(x2)
    778c:	00f42023          	sw	x15,0(x8)
    7790:	00812403          	lw	x8,8(x2)
    7794:	00412483          	lw	x9,4(x2)
    7798:	01010113          	addi	x2,x2,16
    779c:	00008067          	jalr	x0,0(x1)
    77a0:	00c12083          	lw	x1,12(x2)
    77a4:	00812403          	lw	x8,8(x2)
    77a8:	00412483          	lw	x9,4(x2)
    77ac:	01010113          	addi	x2,x2,16
    77b0:	00008067          	jalr	x0,0(x1)

000077b4 <__gdtoa>:
    77b4:	df010113          	addi	x2,x2,-528
    77b8:	1fa12023          	sw	x26,480(x2)
    77bc:	00072d03          	lw	x26,0(x14)
    77c0:	00f12c23          	sw	x15,24(x2)
    77c4:	21012783          	lw	x15,528(x2)
    77c8:	fcfd7e13          	andi	x28,x26,-49
    77cc:	20112623          	sw	x1,524(x2)
    77d0:	01c72023          	sw	x28,0(x14)
    77d4:	00300e93          	addi	x29,x0,3
    77d8:	00fd7e13          	andi	x28,x26,15
    77dc:	02c12023          	sw	x12,32(x2)
    77e0:	03012223          	sw	x16,36(x2)
    77e4:	01112623          	sw	x17,12(x2)
    77e8:	00f12823          	sw	x15,16(x2)
    77ec:	0dde0ce3          	beq	x28,x29,80c4 <__gdtoa+0x910>
    77f0:	1f412c23          	sw	x20,504(x2)
    77f4:	00cd7a13          	andi	x20,x26,12
    77f8:	7c0a1863          	bne	x20,x0,7fc8 <__gdtoa+0x814>
    77fc:	20812423          	sw	x8,520(x2)
    7800:	00050413          	addi	x8,x10,0
    7804:	080e00e3          	beq	x28,x0,8084 <__gdtoa+0x8d0>
    7808:	1f912223          	sw	x25,484(x2)
    780c:	0005ac83          	lw	x25,0(x11)
    7810:	1f312e23          	sw	x19,508(x2)
    7814:	1f712623          	sw	x23,492(x2)
    7818:	1db12e23          	sw	x27,476(x2)
    781c:	02000793          	addi	x15,x0,32
    7820:	00058b93          	addi	x23,x11,0
    7824:	00070d93          	addi	x27,x14,0
    7828:	00068993          	addi	x19,x13,0
    782c:	00000593          	addi	x11,x0,0
    7830:	0197d863          	bge	x15,x25,7840 <__gdtoa+0x8c>
    7834:	00179793          	slli	x15,x15,0x1
    7838:	00158593          	addi	x11,x11,1
    783c:	ff97cce3          	blt	x15,x25,7834 <__gdtoa+0x80>
    7840:	00040513          	addi	x10,x8,0
    7844:	58d020ef          	jal	x1,a5d0 <_Balloc>
    7848:	00a12a23          	sw	x10,20(x2)
    784c:	4c0502e3          	beq	x10,x0,8510 <__gdtoa+0xd5c>
    7850:	01412783          	lw	x15,20(x2)
    7854:	fffc8513          	addi	x10,x25,-1
    7858:	40555513          	srai	x10,x10,0x5
    785c:	00251593          	slli	x11,x10,0x2
    7860:	01478693          	addi	x13,x15,20
    7864:	1f512a23          	sw	x21,500(x2)
    7868:	1f612823          	sw	x22,496(x2)
    786c:	00b985b3          	add	x11,x19,x11
    7870:	00098793          	addi	x15,x19,0
    7874:	0007a703          	lw	x14,0(x15)
    7878:	00478793          	addi	x15,x15,4
    787c:	00468693          	addi	x13,x13,4
    7880:	fee6ae23          	sw	x14,-4(x13)
    7884:	fef5f8e3          	bgeu	x11,x15,7874 <__gdtoa+0xc0>
    7888:	00158593          	addi	x11,x11,1
    788c:	00198793          	addi	x15,x19,1
    7890:	00400693          	addi	x13,x0,4
    7894:	00f5e663          	bltu	x11,x15,78a0 <__gdtoa+0xec>
    7898:	00251513          	slli	x10,x10,0x2
    789c:	00d506b3          	add	x13,x10,x13
    78a0:	01412783          	lw	x15,20(x2)
    78a4:	4026da93          	srai	x21,x13,0x2
    78a8:	00d786b3          	add	x13,x15,x13
    78ac:	00c0006f          	jal	x0,78b8 <__gdtoa+0x104>
    78b0:	ffc68693          	addi	x13,x13,-4
    78b4:	020a8ee3          	beq	x21,x0,80f0 <__gdtoa+0x93c>
    78b8:	0106a783          	lw	x15,16(x13)
    78bc:	000a8b13          	addi	x22,x21,0
    78c0:	fffa8a93          	addi	x21,x21,-1
    78c4:	fe0786e3          	beq	x15,x0,78b0 <__gdtoa+0xfc>
    78c8:	01412703          	lw	x14,20(x2)
    78cc:	004a8793          	addi	x15,x21,4
    78d0:	00279793          	slli	x15,x15,0x2
    78d4:	00f707b3          	add	x15,x14,x15
    78d8:	0047a503          	lw	x10,4(x15)
    78dc:	01672823          	sw	x22,16(x14)
    78e0:	005b1b13          	slli	x22,x22,0x5
    78e4:	058030ef          	jal	x1,a93c <__hi0bits>
    78e8:	40ab0ab3          	sub	x21,x22,x10
    78ec:	01412503          	lw	x10,20(x2)
    78f0:	01c040ef          	jal	x1,b90c <__trailz_D2A>
    78f4:	02012783          	lw	x15,32(x2)
    78f8:	1ca12623          	sw	x10,460(x2)
    78fc:	04f12423          	sw	x15,72(x2)
    7900:	02051ee3          	bne	x10,x0,813c <__gdtoa+0x988>
    7904:	01412783          	lw	x15,20(x2)
    7908:	0107a683          	lw	x13,16(x15)
    790c:	74068a63          	beq	x13,x0,8060 <__gdtoa+0x8ac>
    7910:	01412503          	lw	x10,20(x2)
    7914:	1cc10593          	addi	x11,x2,460
    7918:	20912223          	sw	x9,516(x2)
    791c:	21212023          	sw	x18,512(x2)
    7920:	1f812423          	sw	x24,488(x2)
    7924:	23d030ef          	jal	x1,b360 <__b2d>
    7928:	00c59b13          	slli	x22,x11,0xc
    792c:	00cb5b13          	srli	x22,x22,0xc
    7930:	3ff006b7          	lui	x13,0x3ff00
    7934:	00050793          	addi	x15,x10,0
    7938:	00db65b3          	or	x11,x22,x13
    793c:	04812703          	lw	x14,72(x2)
    7940:	02f12423          	sw	x15,40(x2)
    7944:	0000b697          	auipc	x13,0xb
    7948:	67468693          	addi	x13,x13,1652 # 12fb8 <__SDATA_BEGIN__>
    794c:	02b12623          	sw	x11,44(x2)
    7950:	0006a603          	lw	x12,0(x13)
    7954:	04a12e23          	sw	x10,92(x2)
    7958:	0046a683          	lw	x13,4(x13)
    795c:	04b12623          	sw	x11,76(x2)
    7960:	02812503          	lw	x10,40(x2)
    7964:	02c12583          	lw	x11,44(x2)
    7968:	01570b33          	add	x22,x14,x21
    796c:	06f12423          	sw	x15,104(x2)
    7970:	05612c23          	sw	x22,88(x2)
    7974:	664060ef          	jal	x1,dfd8 <__subdf3>
    7978:	0000b697          	auipc	x13,0xb
    797c:	64868693          	addi	x13,x13,1608 # 12fc0 <__SDATA_BEGIN__+0x8>
    7980:	0006a603          	lw	x12,0(x13)
    7984:	0046a683          	lw	x13,4(x13)
    7988:	fffb0c13          	addi	x24,x22,-1
    798c:	76d050ef          	jal	x1,d8f8 <__muldf3>
    7990:	0000b697          	auipc	x13,0xb
    7994:	63868693          	addi	x13,x13,1592 # 12fc8 <__SDATA_BEGIN__+0x10>
    7998:	0006a603          	lw	x12,0(x13)
    799c:	0046a683          	lw	x13,4(x13)
    79a0:	439040ef          	jal	x1,c5d8 <__adddf3>
    79a4:	00050793          	addi	x15,x10,0
    79a8:	000c0513          	addi	x10,x24,0
    79ac:	00078913          	addi	x18,x15,0
    79b0:	00058493          	addi	x9,x11,0
    79b4:	7d1060ef          	jal	x1,e984 <__floatsidf>
    79b8:	0000b697          	auipc	x13,0xb
    79bc:	61868693          	addi	x13,x13,1560 # 12fd0 <__SDATA_BEGIN__+0x18>
    79c0:	0006a603          	lw	x12,0(x13)
    79c4:	0046a683          	lw	x13,4(x13)
    79c8:	731050ef          	jal	x1,d8f8 <__muldf3>
    79cc:	03212823          	sw	x18,48(x2)
    79d0:	02912a23          	sw	x9,52(x2)
    79d4:	00050613          	addi	x12,x10,0
    79d8:	00058693          	addi	x13,x11,0
    79dc:	03012503          	lw	x10,48(x2)
    79e0:	03412583          	lw	x11,52(x2)
    79e4:	3f5040ef          	jal	x1,c5d8 <__adddf3>
    79e8:	00050913          	addi	x18,x10,0
    79ec:	00058493          	addi	x9,x11,0
    79f0:	000c0513          	addi	x10,x24,0
    79f4:	000c5663          	bge	x24,x0,7a00 <__gdtoa+0x24c>
    79f8:	00100513          	addi	x10,x0,1
    79fc:	41650533          	sub	x10,x10,x22
    7a00:	bcb50513          	addi	x10,x10,-1077
    7a04:	04a05063          	bge	x0,x10,7a44 <__gdtoa+0x290>
    7a08:	77d060ef          	jal	x1,e984 <__floatsidf>
    7a0c:	0000b697          	auipc	x13,0xb
    7a10:	5cc68693          	addi	x13,x13,1484 # 12fd8 <__SDATA_BEGIN__+0x20>
    7a14:	0006a603          	lw	x12,0(x13)
    7a18:	0046a683          	lw	x13,4(x13)
    7a1c:	6dd050ef          	jal	x1,d8f8 <__muldf3>
    7a20:	05212823          	sw	x18,80(x2)
    7a24:	04912a23          	sw	x9,84(x2)
    7a28:	00050613          	addi	x12,x10,0
    7a2c:	00058693          	addi	x13,x11,0
    7a30:	05012503          	lw	x10,80(x2)
    7a34:	05412583          	lw	x11,84(x2)
    7a38:	3a1040ef          	jal	x1,c5d8 <__adddf3>
    7a3c:	00050913          	addi	x18,x10,0
    7a40:	00058493          	addi	x9,x11,0
    7a44:	03212c23          	sw	x18,56(x2)
    7a48:	02912e23          	sw	x9,60(x2)
    7a4c:	03c12583          	lw	x11,60(x2)
    7a50:	03812503          	lw	x10,56(x2)
    7a54:	6ad060ef          	jal	x1,e900 <__fixdfsi>
    7a58:	05212023          	sw	x18,64(x2)
    7a5c:	04912223          	sw	x9,68(x2)
    7a60:	00050893          	addi	x17,x10,0
    7a64:	04412583          	lw	x11,68(x2)
    7a68:	04012503          	lw	x10,64(x2)
    7a6c:	00000613          	addi	x12,x0,0
    7a70:	00000693          	addi	x13,x0,0
    7a74:	00088b13          	addi	x22,x17,0
    7a78:	03112423          	sw	x17,40(x2)
    7a7c:	575050ef          	jal	x1,d7f0 <__ledf2>
    7a80:	02055663          	bge	x10,x0,7aac <__gdtoa+0x2f8>
    7a84:	000b0513          	addi	x10,x22,0
    7a88:	6fd060ef          	jal	x1,e984 <__floatsidf>
    7a8c:	07212823          	sw	x18,112(x2)
    7a90:	06912a23          	sw	x9,116(x2)
    7a94:	07012603          	lw	x12,112(x2)
    7a98:	07412683          	lw	x13,116(x2)
    7a9c:	3c9050ef          	jal	x1,d664 <__eqdf2>
    7aa0:	00a03533          	sltu	x10,x0,x10
    7aa4:	40ab07b3          	sub	x15,x22,x10
    7aa8:	02f12423          	sw	x15,40(x2)
    7aac:	04c12783          	lw	x15,76(x2)
    7ab0:	014c1613          	slli	x12,x24,0x14
    7ab4:	418a8c33          	sub	x24,x21,x24
    7ab8:	00f60b33          	add	x22,x12,x15
    7abc:	fffc0793          	addi	x15,x24,-1
    7ac0:	02f12823          	sw	x15,48(x2)
    7ac4:	02812783          	lw	x15,40(x2)
    7ac8:	01600693          	addi	x13,x0,22
    7acc:	62f6e863          	bltu	x13,x15,80fc <__gdtoa+0x948>
    7ad0:	05c12683          	lw	x13,92(x2)
    7ad4:	0000be17          	auipc	x28,0xb
    7ad8:	adce0e13          	addi	x28,x28,-1316 # 125b0 <__mprec_tens>
    7adc:	00379613          	slli	x12,x15,0x3
    7ae0:	00ce0633          	add	x12,x28,x12
    7ae4:	06d12023          	sw	x13,96(x2)
    7ae8:	07612223          	sw	x22,100(x2)
    7aec:	00062503          	lw	x10,0(x12)
    7af0:	00462583          	lw	x11,4(x12)
    7af4:	06412683          	lw	x13,100(x2)
    7af8:	06012603          	lw	x12,96(x2)
    7afc:	3f5050ef          	jal	x1,d6f0 <__gedf2>
    7b00:	24a04ae3          	blt	x0,x10,8554 <__gdtoa+0xda0>
    7b04:	06012023          	sw	x0,96(x2)
    7b08:	04012023          	sw	x0,64(x2)
    7b0c:	01804a63          	blt	x0,x24,7b20 <__gdtoa+0x36c>
    7b10:	00100693          	addi	x13,x0,1
    7b14:	418687b3          	sub	x15,x13,x24
    7b18:	04f12023          	sw	x15,64(x2)
    7b1c:	02012823          	sw	x0,48(x2)
    7b20:	03012703          	lw	x14,48(x2)
    7b24:	02812783          	lw	x15,40(x2)
    7b28:	04012623          	sw	x0,76(x2)
    7b2c:	00f70733          	add	x14,x14,x15
    7b30:	02e12823          	sw	x14,48(x2)
    7b34:	04f12823          	sw	x15,80(x2)
    7b38:	01812783          	lw	x15,24(x2)
    7b3c:	00900693          	addi	x13,x0,9
    7b40:	62f6e063          	bltu	x13,x15,8160 <__gdtoa+0x9ac>
    7b44:	00500693          	addi	x13,x0,5
    7b48:	22f6c0e3          	blt	x13,x15,8568 <__gdtoa+0xdb4>
    7b4c:	05812783          	lw	x15,88(x2)
    7b50:	00400613          	addi	x12,x0,4
    7b54:	3fd78793          	addi	x15,x15,1021
    7b58:	7f87b493          	sltiu	x9,x15,2040
    7b5c:	01812783          	lw	x15,24(x2)
    7b60:	00c79463          	bne	x15,x12,7b68 <__gdtoa+0x3b4>
    7b64:	1840106f          	jal	x0,8ce8 <__gdtoa+0x1534>
    7b68:	00d79463          	bne	x15,x13,7b70 <__gdtoa+0x3bc>
    7b6c:	1700106f          	jal	x0,8cdc <__gdtoa+0x1528>
    7b70:	00200693          	addi	x13,x0,2
    7b74:	00d79463          	bne	x15,x13,7b7c <__gdtoa+0x3c8>
    7b78:	17c0106f          	jal	x0,8cf4 <__gdtoa+0x1540>
    7b7c:	00300693          	addi	x13,x0,3
    7b80:	04012c23          	sw	x0,88(x2)
    7b84:	5ed79663          	bne	x15,x13,8170 <__gdtoa+0x9bc>
    7b88:	05012783          	lw	x15,80(x2)
    7b8c:	02412703          	lw	x14,36(x2)
    7b90:	00e787b3          	add	x15,x15,x14
    7b94:	06f12823          	sw	x15,112(x2)
    7b98:	00178793          	addi	x15,x15,1
    7b9c:	02f12c23          	sw	x15,56(x2)
    7ba0:	6ef052e3          	bge	x0,x15,8a84 <__gdtoa+0x12d0>
    7ba4:	00078693          	addi	x13,x15,0
    7ba8:	00078593          	addi	x11,x15,0
    7bac:	00040513          	addi	x10,x8,0
    7bb0:	1cd12623          	sw	x13,460(x2)
    7bb4:	310020ef          	jal	x1,9ec4 <__rv_alloc_D2A>
    7bb8:	00050713          	addi	x14,x10,0
    7bbc:	46050063          	beq	x10,x0,801c <__gdtoa+0x868>
    7bc0:	00cbac03          	lw	x24,12(x23)
    7bc4:	fffc0c13          	addi	x24,x24,-1
    7bc8:	5e0c0a63          	beq	x24,x0,81bc <__gdtoa+0xa08>
    7bcc:	180c40e3          	blt	x24,x0,854c <__gdtoa+0xd98>
    7bd0:	100d7313          	andi	x6,x26,256
    7bd4:	5e031063          	bne	x6,x0,81b4 <__gdtoa+0xa00>
    7bd8:	04812783          	lw	x15,72(x2)
    7bdc:	0007c863          	blt	x15,x0,7bec <__gdtoa+0x438>
    7be0:	05012603          	lw	x12,80(x2)
    7be4:	00e00693          	addi	x13,x0,14
    7be8:	1ac6d8e3          	bge	x13,x12,8598 <__gdtoa+0xde4>
    7bec:	05812783          	lw	x15,88(x2)
    7bf0:	140786e3          	beq	x15,x0,853c <__gdtoa+0xd88>
    7bf4:	04812783          	lw	x15,72(x2)
    7bf8:	415c8833          	sub	x16,x25,x21
    7bfc:	004ba683          	lw	x13,4(x23)
    7c00:	00180613          	addi	x12,x16,1
    7c04:	1cc12623          	sw	x12,460(x2)
    7c08:	41078833          	sub	x16,x15,x16
    7c0c:	6cd85ce3          	bge	x16,x13,8ae4 <__gdtoa+0x1330>
    7c10:	01812583          	lw	x11,24(x2)
    7c14:	ffd58613          	addi	x12,x11,-3
    7c18:	ffd67613          	andi	x12,x12,-3
    7c1c:	5a060ce3          	beq	x12,x0,89d4 <__gdtoa+0x1220>
    7c20:	40d786b3          	sub	x13,x15,x13
    7c24:	00168693          	addi	x13,x13,1
    7c28:	1cd12623          	sw	x13,460(x2)
    7c2c:	00100613          	addi	x12,x0,1
    7c30:	00b65c63          	bge	x12,x11,7c48 <__gdtoa+0x494>
    7c34:	03812783          	lw	x15,56(x2)
    7c38:	00f05863          	bge	x0,x15,7c48 <__gdtoa+0x494>
    7c3c:	03812783          	lw	x15,56(x2)
    7c40:	00d7d463          	bge	x15,x13,7c48 <__gdtoa+0x494>
    7c44:	7ec0106f          	jal	x0,9430 <__gdtoa+0x1c7c>
    7c48:	03012783          	lw	x15,48(x2)
    7c4c:	04c12903          	lw	x18,76(x2)
    7c50:	00d787b3          	add	x15,x15,x13
    7c54:	02f12823          	sw	x15,48(x2)
    7c58:	04012783          	lw	x15,64(x2)
    7c5c:	00078d13          	addi	x26,x15,0
    7c60:	00f687b3          	add	x15,x13,x15
    7c64:	04f12023          	sw	x15,64(x2)
    7c68:	00100593          	addi	x11,x0,1
    7c6c:	00040513          	addi	x10,x8,0
    7c70:	04e12423          	sw	x14,72(x2)
    7c74:	5f1020ef          	jal	x1,aa64 <__i2b>
    7c78:	04812703          	lw	x14,72(x2)
    7c7c:	00050b13          	addi	x22,x10,0
    7c80:	38050e63          	beq	x10,x0,801c <__gdtoa+0x868>
    7c84:	020d0c63          	beq	x26,x0,7cbc <__gdtoa+0x508>
    7c88:	03012783          	lw	x15,48(x2)
    7c8c:	02f05863          	bge	x0,x15,7cbc <__gdtoa+0x508>
    7c90:	000d0693          	addi	x13,x26,0
    7c94:	01a7d463          	bge	x15,x26,7c9c <__gdtoa+0x4e8>
    7c98:	00078693          	addi	x13,x15,0
    7c9c:	04012783          	lw	x15,64(x2)
    7ca0:	1cd12623          	sw	x13,460(x2)
    7ca4:	40dd0d33          	sub	x26,x26,x13
    7ca8:	40d787b3          	sub	x15,x15,x13
    7cac:	04f12023          	sw	x15,64(x2)
    7cb0:	03012783          	lw	x15,48(x2)
    7cb4:	40d787b3          	sub	x15,x15,x13
    7cb8:	02f12823          	sw	x15,48(x2)
    7cbc:	04c12783          	lw	x15,76(x2)
    7cc0:	02078a63          	beq	x15,x0,7cf4 <__gdtoa+0x540>
    7cc4:	05812783          	lw	x15,88(x2)
    7cc8:	00078663          	beq	x15,x0,7cd4 <__gdtoa+0x520>
    7ccc:	00090463          	beq	x18,x0,7cd4 <__gdtoa+0x520>
    7cd0:	72d0006f          	jal	x0,8bfc <__gdtoa+0x1448>
    7cd4:	04c12603          	lw	x12,76(x2)
    7cd8:	01412583          	lw	x11,20(x2)
    7cdc:	00040513          	addi	x10,x8,0
    7ce0:	04e12423          	sw	x14,72(x2)
    7ce4:	078030ef          	jal	x1,ad5c <__pow5mult>
    7ce8:	00a12a23          	sw	x10,20(x2)
    7cec:	04812703          	lw	x14,72(x2)
    7cf0:	32050663          	beq	x10,x0,801c <__gdtoa+0x868>
    7cf4:	00100593          	addi	x11,x0,1
    7cf8:	00040513          	addi	x10,x8,0
    7cfc:	04e12423          	sw	x14,72(x2)
    7d00:	565020ef          	jal	x1,aa64 <__i2b>
    7d04:	00050c93          	addi	x25,x10,0
    7d08:	30050a63          	beq	x10,x0,801c <__gdtoa+0x868>
    7d0c:	02812783          	lw	x15,40(x2)
    7d10:	04812703          	lw	x14,72(x2)
    7d14:	56079ee3          	bne	x15,x0,8a90 <__gdtoa+0x12dc>
    7d18:	01812783          	lw	x15,24(x2)
    7d1c:	00100693          	addi	x13,x0,1
    7d20:	26f6dae3          	bge	x13,x15,8794 <__gdtoa+0xfe0>
    7d24:	01f00a13          	addi	x20,x0,31
    7d28:	03012783          	lw	x15,48(x2)
    7d2c:	40fa0a33          	sub	x20,x20,x15
    7d30:	04012783          	lw	x15,64(x2)
    7d34:	ffca0a13          	addi	x20,x20,-4
    7d38:	01fa7a13          	andi	x20,x20,31
    7d3c:	01478633          	add	x12,x15,x20
    7d40:	1d412623          	sw	x20,460(x2)
    7d44:	000a0793          	addi	x15,x20,0
    7d48:	34c04ee3          	blt	x0,x12,88a4 <__gdtoa+0x10f0>
    7d4c:	03012683          	lw	x13,48(x2)
    7d50:	00f68633          	add	x12,x13,x15
    7d54:	2ac04663          	blt	x0,x12,8000 <__gdtoa+0x84c>
    7d58:	06012783          	lw	x15,96(x2)
    7d5c:	360796e3          	bne	x15,x0,88c8 <__gdtoa+0x1114>
    7d60:	03812783          	lw	x15,56(x2)
    7d64:	48f05ee3          	bge	x0,x15,8a00 <__gdtoa+0x124c>
    7d68:	05812783          	lw	x15,88(x2)
    7d6c:	3a078ae3          	beq	x15,x0,8920 <__gdtoa+0x116c>
    7d70:	01aa0633          	add	x12,x20,x26
    7d74:	00c05463          	bge	x0,x12,7d7c <__gdtoa+0x5c8>
    7d78:	7310006f          	jal	x0,8ca8 <__gdtoa+0x14f4>
    7d7c:	02812783          	lw	x15,40(x2)
    7d80:	000b0e93          	addi	x29,x22,0
    7d84:	00078463          	beq	x15,x0,7d8c <__gdtoa+0x5d8>
    7d88:	7a90006f          	jal	x0,8d30 <__gdtoa+0x157c>
    7d8c:	03812023          	sw	x24,32(x2)
    7d90:	03b12423          	sw	x27,40(x2)
    7d94:	01412c03          	lw	x24,20(x2)
    7d98:	00070a93          	addi	x21,x14,0
    7d9c:	00100693          	addi	x13,x0,1
    7da0:	00200493          	addi	x9,x0,2
    7da4:	00a00913          	addi	x18,x0,10
    7da8:	02e12223          	sw	x14,36(x2)
    7dac:	000e8d93          	addi	x27,x29,0
    7db0:	0b40006f          	jal	x0,7e64 <__gdtoa+0x6b0>
    7db4:	00040513          	addi	x10,x8,0
    7db8:	0c9020ef          	jal	x1,a680 <_Bfree>
    7dbc:	000bd463          	bge	x23,x0,7dc4 <__gdtoa+0x610>
    7dc0:	2040106f          	jal	x0,8fc4 <__gdtoa+0x1810>
    7dc4:	01812783          	lw	x15,24(x2)
    7dc8:	0177ebb3          	or	x23,x15,x23
    7dcc:	000b9a63          	bne	x23,x0,7de0 <__gdtoa+0x62c>
    7dd0:	0009a783          	lw	x15,0(x19)
    7dd4:	0017f793          	andi	x15,x15,1
    7dd8:	00079463          	bne	x15,x0,7de0 <__gdtoa+0x62c>
    7ddc:	1e80106f          	jal	x0,8fc4 <__gdtoa+0x1810>
    7de0:	02012783          	lw	x15,32(x2)
    7de4:	00978463          	beq	x15,x9,7dec <__gdtoa+0x638>
    7de8:	5440106f          	jal	x0,932c <__gdtoa+0x1b78>
    7dec:	014a8023          	sb	x20,0(x21)
    7df0:	1cc12783          	lw	x15,460(x2)
    7df4:	03812703          	lw	x14,56(x2)
    7df8:	001a8a93          	addi	x21,x21,1
    7dfc:	00f71463          	bne	x14,x15,7e04 <__gdtoa+0x650>
    7e00:	45c0106f          	jal	x0,925c <__gdtoa+0x1aa8>
    7e04:	000c0593          	addi	x11,x24,0
    7e08:	00000693          	addi	x13,x0,0
    7e0c:	00090613          	addi	x12,x18,0
    7e10:	00040513          	addi	x10,x8,0
    7e14:	091020ef          	jal	x1,a6a4 <__multadd>
    7e18:	00050c13          	addi	x24,x10,0
    7e1c:	20050063          	beq	x10,x0,801c <__gdtoa+0x868>
    7e20:	000b0593          	addi	x11,x22,0
    7e24:	00000693          	addi	x13,x0,0
    7e28:	00090613          	addi	x12,x18,0
    7e2c:	00040513          	addi	x10,x8,0
    7e30:	1dbb02e3          	beq	x22,x27,87f4 <__gdtoa+0x1040>
    7e34:	071020ef          	jal	x1,a6a4 <__multadd>
    7e38:	00050b13          	addi	x22,x10,0
    7e3c:	1e050063          	beq	x10,x0,801c <__gdtoa+0x868>
    7e40:	000d8593          	addi	x11,x27,0
    7e44:	00000693          	addi	x13,x0,0
    7e48:	00090613          	addi	x12,x18,0
    7e4c:	00040513          	addi	x10,x8,0
    7e50:	055020ef          	jal	x1,a6a4 <__multadd>
    7e54:	00050d93          	addi	x27,x10,0
    7e58:	1c050263          	beq	x10,x0,801c <__gdtoa+0x868>
    7e5c:	1cc12683          	lw	x13,460(x2)
    7e60:	00168693          	addi	x13,x13,1
    7e64:	000c8593          	addi	x11,x25,0
    7e68:	000c0513          	addi	x10,x24,0
    7e6c:	1cd12623          	sw	x13,460(x2)
    7e70:	190020ef          	jal	x1,a000 <__quorem_D2A>
    7e74:	00050d13          	addi	x26,x10,0
    7e78:	000b0593          	addi	x11,x22,0
    7e7c:	000c0513          	addi	x10,x24,0
    7e80:	1bc030ef          	jal	x1,b03c <__mcmp>
    7e84:	000c8593          	addi	x11,x25,0
    7e88:	00050b93          	addi	x23,x10,0
    7e8c:	000d8613          	addi	x12,x27,0
    7e90:	00040513          	addi	x10,x8,0
    7e94:	200030ef          	jal	x1,b094 <__mdiff>
    7e98:	030d0a13          	addi	x20,x26,48
    7e9c:	00050593          	addi	x11,x10,0
    7ea0:	16050e63          	beq	x10,x0,801c <__gdtoa+0x868>
    7ea4:	00c52783          	lw	x15,12(x10)
    7ea8:	f00796e3          	bne	x15,x0,7db4 <__gdtoa+0x600>
    7eac:	00a12a23          	sw	x10,20(x2)
    7eb0:	000c0513          	addi	x10,x24,0
    7eb4:	188030ef          	jal	x1,b03c <__mcmp>
    7eb8:	01412583          	lw	x11,20(x2)
    7ebc:	00050693          	addi	x13,x10,0
    7ec0:	00040513          	addi	x10,x8,0
    7ec4:	00d12a23          	sw	x13,20(x2)
    7ec8:	7b8020ef          	jal	x1,a680 <_Bfree>
    7ecc:	01812783          	lw	x15,24(x2)
    7ed0:	01412683          	lw	x13,20(x2)
    7ed4:	00d7e733          	or	x14,x15,x13
    7ed8:	00070463          	beq	x14,x0,7ee0 <__gdtoa+0x72c>
    7edc:	7000106f          	jal	x0,95dc <__gdtoa+0x1e28>
    7ee0:	0009a783          	lw	x15,0(x19)
    7ee4:	0017f793          	andi	x15,x15,1
    7ee8:	120790e3          	bne	x15,x0,8808 <__gdtoa+0x1054>
    7eec:	02012783          	lw	x15,32(x2)
    7ef0:	00079463          	bne	x15,x0,7ef8 <__gdtoa+0x744>
    7ef4:	5f40106f          	jal	x0,94e8 <__gdtoa+0x1d34>
    7ef8:	ef704ae3          	blt	x0,x23,7dec <__gdtoa+0x638>
    7efc:	01812a23          	sw	x24,20(x2)
    7f00:	01412783          	lw	x15,20(x2)
    7f04:	00100693          	addi	x13,x0,1
    7f08:	000a0813          	addi	x16,x20,0
    7f0c:	0107a603          	lw	x12,16(x15)
    7f10:	000d8e93          	addi	x29,x27,0
    7f14:	00070a13          	addi	x20,x14,0
    7f18:	02012c03          	lw	x24,32(x2)
    7f1c:	02412703          	lw	x14,36(x2)
    7f20:	02812d83          	lw	x27,40(x2)
    7f24:	00c6c463          	blt	x13,x12,7f2c <__gdtoa+0x778>
    7f28:	67c0106f          	jal	x0,95a4 <__gdtoa+0x1df0>
    7f2c:	00200693          	addi	x13,x0,2
    7f30:	00dc1463          	bne	x24,x13,7f38 <__gdtoa+0x784>
    7f34:	6400106f          	jal	x0,9574 <__gdtoa+0x1dc0>
    7f38:	01412903          	lw	x18,20(x2)
    7f3c:	00a00a13          	addi	x20,x0,10
    7f40:	00080493          	addi	x9,x16,0
    7f44:	000e8b93          	addi	x23,x29,0
    7f48:	00070c13          	addi	x24,x14,0
    7f4c:	0240006f          	jal	x0,7f70 <__gdtoa+0x7bc>
    7f50:	754020ef          	jal	x1,a6a4 <__multadd>
    7f54:	000c8593          	addi	x11,x25,0
    7f58:	00050913          	addi	x18,x10,0
    7f5c:	0c050063          	beq	x10,x0,801c <__gdtoa+0x868>
    7f60:	0a0020ef          	jal	x1,a000 <__quorem_D2A>
    7f64:	00048b93          	addi	x23,x9,0
    7f68:	00098a93          	addi	x21,x19,0
    7f6c:	03050493          	addi	x9,x10,48
    7f70:	000b8593          	addi	x11,x23,0
    7f74:	000c8513          	addi	x10,x25,0
    7f78:	0c4030ef          	jal	x1,b03c <__mcmp>
    7f7c:	00050793          	addi	x15,x10,0
    7f80:	00000693          	addi	x13,x0,0
    7f84:	000a0613          	addi	x12,x20,0
    7f88:	000b8593          	addi	x11,x23,0
    7f8c:	00040513          	addi	x10,x8,0
    7f90:	001a8993          	addi	x19,x21,1
    7f94:	00f04463          	blt	x0,x15,7f9c <__gdtoa+0x7e8>
    7f98:	5bc0106f          	jal	x0,9554 <__gdtoa+0x1da0>
    7f9c:	fe998fa3          	sb	x9,-1(x19)
    7fa0:	704020ef          	jal	x1,a6a4 <__multadd>
    7fa4:	00050493          	addi	x9,x10,0
    7fa8:	00000693          	addi	x13,x0,0
    7fac:	000a0613          	addi	x12,x20,0
    7fb0:	00090593          	addi	x11,x18,0
    7fb4:	00040513          	addi	x10,x8,0
    7fb8:	06048263          	beq	x9,x0,801c <__gdtoa+0x868>
    7fbc:	f97b1ae3          	bne	x22,x23,7f50 <__gdtoa+0x79c>
    7fc0:	00048b13          	addi	x22,x9,0
    7fc4:	f8dff06f          	jal	x0,7f50 <__gdtoa+0x79c>
    7fc8:	00400793          	addi	x15,x0,4
    7fcc:	06fe1c63          	bne	x28,x15,8044 <__gdtoa+0x890>
    7fd0:	00c12703          	lw	x14,12(x2)
    7fd4:	01012603          	lw	x12,16(x2)
    7fd8:	1f812a03          	lw	x20,504(x2)
    7fdc:	20c12083          	lw	x1,524(x2)
    7fe0:	1e012d03          	lw	x26,480(x2)
    7fe4:	ffff87b7          	lui	x15,0xffff8
    7fe8:	00f72023          	sw	x15,0(x14)
    7fec:	000e8693          	addi	x13,x29,0
    7ff0:	0000a597          	auipc	x11,0xa
    7ff4:	f3458593          	addi	x11,x11,-204 # 11f24 <__clzsi2+0x36c>
    7ff8:	21010113          	addi	x2,x2,528
    7ffc:	7350106f          	jal	x0,9f30 <__nrv_alloc_D2A>
    8000:	000c8593          	addi	x11,x25,0
    8004:	00040513          	addi	x10,x8,0
    8008:	02e12023          	sw	x14,32(x2)
    800c:	6a1020ef          	jal	x1,aeac <__lshift>
    8010:	02012703          	lw	x14,32(x2)
    8014:	00050c93          	addi	x25,x10,0
    8018:	d40510e3          	bne	x10,x0,7d58 <__gdtoa+0x5a4>
    801c:	20812403          	lw	x8,520(x2)
    8020:	20412483          	lw	x9,516(x2)
    8024:	20012903          	lw	x18,512(x2)
    8028:	1fc12983          	lw	x19,508(x2)
    802c:	1f412a83          	lw	x21,500(x2)
    8030:	1f012b03          	lw	x22,496(x2)
    8034:	1ec12b83          	lw	x23,492(x2)
    8038:	1e812c03          	lw	x24,488(x2)
    803c:	1e412c83          	lw	x25,484(x2)
    8040:	1dc12d83          	lw	x27,476(x2)
    8044:	00000713          	addi	x14,x0,0
    8048:	20c12083          	lw	x1,524(x2)
    804c:	1f812a03          	lw	x20,504(x2)
    8050:	1e012d03          	lw	x26,480(x2)
    8054:	00070513          	addi	x10,x14,0
    8058:	21010113          	addi	x2,x2,528
    805c:	00008067          	jalr	x0,0(x1)
    8060:	00078593          	addi	x11,x15,0 # ffff8000 <__heap_end+0xffbf8000>
    8064:	00040513          	addi	x10,x8,0
    8068:	618020ef          	jal	x1,a680 <_Bfree>
    806c:	1fc12983          	lw	x19,508(x2)
    8070:	1f412a83          	lw	x21,500(x2)
    8074:	1f012b03          	lw	x22,496(x2)
    8078:	1ec12b83          	lw	x23,492(x2)
    807c:	1e412c83          	lw	x25,484(x2)
    8080:	1dc12d83          	lw	x27,476(x2)
    8084:	00c12783          	lw	x15,12(x2)
    8088:	01012603          	lw	x12,16(x2)
    808c:	00100693          	addi	x13,x0,1
    8090:	00040513          	addi	x10,x8,0
    8094:	00d7a023          	sw	x13,0(x15)
    8098:	0000a597          	auipc	x11,0xa
    809c:	e7c58593          	addi	x11,x11,-388 # 11f14 <__clzsi2+0x35c>
    80a0:	691010ef          	jal	x1,9f30 <__nrv_alloc_D2A>
    80a4:	20c12083          	lw	x1,524(x2)
    80a8:	20812403          	lw	x8,520(x2)
    80ac:	00050713          	addi	x14,x10,0
    80b0:	1f812a03          	lw	x20,504(x2)
    80b4:	1e012d03          	lw	x26,480(x2)
    80b8:	00070513          	addi	x10,x14,0
    80bc:	21010113          	addi	x2,x2,528
    80c0:	00008067          	jalr	x0,0(x1)
    80c4:	00c12703          	lw	x14,12(x2)
    80c8:	01012603          	lw	x12,16(x2)
    80cc:	20c12083          	lw	x1,524(x2)
    80d0:	1e012d03          	lw	x26,480(x2)
    80d4:	ffff87b7          	lui	x15,0xffff8
    80d8:	00f72023          	sw	x15,0(x14)
    80dc:	00800693          	addi	x13,x0,8
    80e0:	0000a597          	auipc	x11,0xa
    80e4:	e3858593          	addi	x11,x11,-456 # 11f18 <__clzsi2+0x360>
    80e8:	21010113          	addi	x2,x2,528
    80ec:	6450106f          	jal	x0,9f30 <__nrv_alloc_D2A>
    80f0:	01412783          	lw	x15,20(x2)
    80f4:	0007a823          	sw	x0,16(x15) # ffff8010 <__heap_end+0xffbf8010>
    80f8:	ff4ff06f          	jal	x0,78ec <__gdtoa+0x138>
    80fc:	00100793          	addi	x15,x0,1
    8100:	06f12023          	sw	x15,96(x2)
    8104:	04012023          	sw	x0,64(x2)
    8108:	fffc0793          	addi	x15,x24,-1
    810c:	4007ce63          	blt	x15,x0,8528 <__gdtoa+0xd74>
    8110:	02812783          	lw	x15,40(x2)
    8114:	a007d6e3          	bge	x15,x0,7b20 <__gdtoa+0x36c>
    8118:	02812783          	lw	x15,40(x2)
    811c:	04012703          	lw	x14,64(x2)
    8120:	02012423          	sw	x0,40(x2)
    8124:	04f12823          	sw	x15,80(x2)
    8128:	40f70733          	sub	x14,x14,x15
    812c:	04e12023          	sw	x14,64(x2)
    8130:	40f00733          	sub	x14,x0,x15
    8134:	04e12623          	sw	x14,76(x2)
    8138:	a01ff06f          	jal	x0,7b38 <__gdtoa+0x384>
    813c:	00050593          	addi	x11,x10,0
    8140:	01412503          	lw	x10,20(x2)
    8144:	6e4030ef          	jal	x1,b828 <__rshift_D2A>
    8148:	1cc12683          	lw	x13,460(x2)
    814c:	02012783          	lw	x15,32(x2)
    8150:	40da8ab3          	sub	x21,x21,x13
    8154:	00f687b3          	add	x15,x13,x15
    8158:	04f12423          	sw	x15,72(x2)
    815c:	fa8ff06f          	jal	x0,7904 <__gdtoa+0x150>
    8160:	05812783          	lw	x15,88(x2)
    8164:	00012c23          	sw	x0,24(x2)
    8168:	3fd78693          	addi	x13,x15,1021
    816c:	7f86b493          	sltiu	x9,x13,2040
    8170:	000c8513          	addi	x10,x25,0
    8174:	011060ef          	jal	x1,e984 <__floatsidf>
    8178:	0000b697          	auipc	x13,0xb
    817c:	e6868693          	addi	x13,x13,-408 # 12fe0 <__SDATA_BEGIN__+0x28>
    8180:	0006a603          	lw	x12,0(x13)
    8184:	0046a683          	lw	x13,4(x13)
    8188:	770050ef          	jal	x1,d8f8 <__muldf3>
    818c:	774060ef          	jal	x1,e900 <__fixdfsi>
    8190:	fff00793          	addi	x15,x0,-1
    8194:	00350593          	addi	x11,x10,3
    8198:	06f12823          	sw	x15,112(x2)
    819c:	02f12c23          	sw	x15,56(x2)
    81a0:	00100793          	addi	x15,x0,1
    81a4:	00058693          	addi	x13,x11,0
    81a8:	02012223          	sw	x0,36(x2)
    81ac:	04f12c23          	sw	x15,88(x2)
    81b0:	9fdff06f          	jal	x0,7bac <__gdtoa+0x3f8>
    81b4:	00300693          	addi	x13,x0,3
    81b8:	41868c33          	sub	x24,x13,x24
    81bc:	03812903          	lw	x18,56(x2)
    81c0:	00e00693          	addi	x13,x0,14
    81c4:	a126eae3          	bltu	x13,x18,7bd8 <__gdtoa+0x424>
    81c8:	a00488e3          	beq	x9,x0,7bd8 <__gdtoa+0x424>
    81cc:	05012783          	lw	x15,80(x2)
    81d0:	0187e6b3          	or	x13,x15,x24
    81d4:	a00692e3          	bne	x13,x0,7bd8 <__gdtoa+0x424>
    81d8:	05c12483          	lw	x9,92(x2)
    81dc:	06012783          	lw	x15,96(x2)
    81e0:	1c012623          	sw	x0,460(x2)
    81e4:	0a912023          	sw	x9,160(x2)
    81e8:	0b612223          	sw	x22,164(x2)
    81ec:	02078c63          	beq	x15,x0,8224 <__gdtoa+0xa70>
    81f0:	0000b697          	auipc	x13,0xb
    81f4:	df868693          	addi	x13,x13,-520 # 12fe8 <__SDATA_BEGIN__+0x30>
    81f8:	0c912423          	sw	x9,200(x2)
    81fc:	0d612623          	sw	x22,204(x2)
    8200:	0006a603          	lw	x12,0(x13)
    8204:	0c812503          	lw	x10,200(x2)
    8208:	0046a683          	lw	x13,4(x13)
    820c:	0cc12583          	lw	x11,204(x2)
    8210:	04e12e23          	sw	x14,92(x2)
    8214:	5dc050ef          	jal	x1,d7f0 <__ledf2>
    8218:	05c12703          	lw	x14,92(x2)
    821c:	00055463          	bge	x10,x0,8224 <__gdtoa+0xa70>
    8220:	0680106f          	jal	x0,9288 <__gdtoa+0x1ad4>
    8224:	0a012783          	lw	x15,160(x2)
    8228:	04e12e23          	sw	x14,92(x2)
    822c:	0af12423          	sw	x15,168(x2)
    8230:	0af12823          	sw	x15,176(x2)
    8234:	0a412783          	lw	x15,164(x2)
    8238:	0a812603          	lw	x12,168(x2)
    823c:	0b012503          	lw	x10,176(x2)
    8240:	0af12623          	sw	x15,172(x2)
    8244:	0af12a23          	sw	x15,180(x2)
    8248:	0ac12683          	lw	x13,172(x2)
    824c:	0b412583          	lw	x11,180(x2)
    8250:	388040ef          	jal	x1,c5d8 <__adddf3>
    8254:	0000b697          	auipc	x13,0xb
    8258:	dac68693          	addi	x13,x13,-596 # 13000 <__SDATA_BEGIN__+0x48>
    825c:	0006a603          	lw	x12,0(x13)
    8260:	0046a683          	lw	x13,4(x13)
    8264:	374040ef          	jal	x1,c5d8 <__adddf3>
    8268:	03812783          	lw	x15,56(x2)
    826c:	fcc006b7          	lui	x13,0xfcc00
    8270:	05c12703          	lw	x14,92(x2)
    8274:	00050913          	addi	x18,x10,0
    8278:	00b68c33          	add	x24,x13,x11
    827c:	34078ae3          	beq	x15,x0,8dd0 <__gdtoa+0x161c>
    8280:	03812783          	lw	x15,56(x2)
    8284:	0a012e83          	lw	x29,160(x2)
    8288:	0a412f03          	lw	x30,164(x2)
    828c:	0a012423          	sw	x0,168(x2)
    8290:	04f12e23          	sw	x15,92(x2)
    8294:	05c12783          	lw	x15,92(x2)
    8298:	0000ae17          	auipc	x28,0xa
    829c:	318e0e13          	addi	x28,x28,792 # 125b0 <__mprec_tens>
    82a0:	0de12423          	sw	x30,200(x2)
    82a4:	fff78693          	addi	x13,x15,-1
    82a8:	05812783          	lw	x15,88(x2)
    82ac:	00369693          	slli	x13,x13,0x3
    82b0:	00de06b3          	add	x13,x28,x13
    82b4:	0bd12823          	sw	x29,176(x2)
    82b8:	0006a603          	lw	x12,0(x13) # fcc00000 <__heap_end+0xfc800000>
    82bc:	0046a683          	lw	x13,4(x13)
    82c0:	5a0780e3          	beq	x15,x0,9060 <__gdtoa+0x18ac>
    82c4:	0000b597          	auipc	x11,0xb
    82c8:	d4c58593          	addi	x11,x11,-692 # 13010 <__SDATA_BEGIN__+0x58>
    82cc:	0005a503          	lw	x10,0(x11)
    82d0:	0045a583          	lw	x11,4(x11)
    82d4:	15c12023          	sw	x28,320(x2)
    82d8:	00170d13          	addi	x26,x14,1
    82dc:	0ce12823          	sw	x14,208(x2)
    82e0:	3cd040ef          	jal	x1,ceac <__divdf3>
    82e4:	11212823          	sw	x18,272(x2)
    82e8:	11812a23          	sw	x24,276(x2)
    82ec:	11012603          	lw	x12,272(x2)
    82f0:	11412683          	lw	x13,276(x2)
    82f4:	4e5050ef          	jal	x1,dfd8 <__subdf3>
    82f8:	0b012e83          	lw	x29,176(x2)
    82fc:	0c812f03          	lw	x30,200(x2)
    8300:	00050c13          	addi	x24,x10,0
    8304:	11d12c23          	sw	x29,280(x2)
    8308:	11e12e23          	sw	x30,284(x2)
    830c:	00058b13          	addi	x22,x11,0
    8310:	11812503          	lw	x10,280(x2)
    8314:	11c12583          	lw	x11,284(x2)
    8318:	07e12423          	sw	x30,104(x2)
    831c:	5e4060ef          	jal	x1,e900 <__fixdfsi>
    8320:	00050493          	addi	x9,x10,0
    8324:	660060ef          	jal	x1,e984 <__floatsidf>
    8328:	0b012e83          	lw	x29,176(x2)
    832c:	06812f03          	lw	x30,104(x2)
    8330:	00050613          	addi	x12,x10,0
    8334:	13d12023          	sw	x29,288(x2)
    8338:	13e12223          	sw	x30,292(x2)
    833c:	00058693          	addi	x13,x11,0
    8340:	12012503          	lw	x10,288(x2)
    8344:	12412583          	lw	x11,292(x2)
    8348:	491050ef          	jal	x1,dfd8 <__subdf3>
    834c:	0d012703          	lw	x14,208(x2)
    8350:	12a12423          	sw	x10,296(x2)
    8354:	12b12623          	sw	x11,300(x2)
    8358:	13812823          	sw	x24,304(x2)
    835c:	13612a23          	sw	x22,308(x2)
    8360:	03048793          	addi	x15,x9,48
    8364:	06b12423          	sw	x11,104(x2)
    8368:	12812603          	lw	x12,296(x2)
    836c:	12c12683          	lw	x13,300(x2)
    8370:	00050913          	addi	x18,x10,0
    8374:	00058493          	addi	x9,x11,0
    8378:	13012503          	lw	x10,304(x2)
    837c:	13412583          	lw	x11,308(x2)
    8380:	00f70023          	sb	x15,0(x14)
    8384:	0ae12823          	sw	x14,176(x2)
    8388:	368050ef          	jal	x1,d6f0 <__gedf2>
    838c:	0b012703          	lw	x14,176(x2)
    8390:	00a05463          	bge	x0,x10,8398 <__gdtoa+0xbe4>
    8394:	0600106f          	jal	x0,93f4 <__gdtoa+0x1c40>
    8398:	0000b697          	auipc	x13,0xb
    839c:	c5068693          	addi	x13,x13,-944 # 12fe8 <__SDATA_BEGIN__+0x30>
    83a0:	0006a783          	lw	x15,0(x13)
    83a4:	0046a803          	lw	x16,4(x13)
    83a8:	0000ae17          	auipc	x28,0xa
    83ac:	208e0e13          	addi	x28,x28,520 # 125b0 <__mprec_tens>
    83b0:	0d912c23          	sw	x25,216(x2)
    83b4:	11712423          	sw	x23,264(x2)
    83b8:	06f12423          	sw	x15,104(x2)
    83bc:	07012623          	sw	x16,108(x2)
    83c0:	0f512023          	sw	x21,224(x2)
    83c4:	0f412423          	sw	x20,232(x2)
    83c8:	0c812423          	sw	x8,200(x2)
    83cc:	11312823          	sw	x19,272(x2)
    83d0:	0db12823          	sw	x27,208(x2)
    83d4:	11c12c23          	sw	x28,280(x2)
    83d8:	00090b93          	addi	x23,x18,0
    83dc:	00048c93          	addi	x25,x9,0
    83e0:	0b40006f          	jal	x0,8494 <__gdtoa+0xce0>
    83e4:	1cc12783          	lw	x15,460(x2)
    83e8:	05c12703          	lw	x14,92(x2)
    83ec:	00178793          	addi	x15,x15,1
    83f0:	1cf12623          	sw	x15,460(x2)
    83f4:	00e7c463          	blt	x15,x14,83fc <__gdtoa+0xc48>
    83f8:	0700106f          	jal	x0,9468 <__gdtoa+0x1cb4>
    83fc:	0000bd97          	auipc	x27,0xb
    8400:	bf4d8d93          	addi	x27,x27,-1036 # 12ff0 <__SDATA_BEGIN__+0x38>
    8404:	000da603          	lw	x12,0(x27)
    8408:	004da683          	lw	x13,4(x27)
    840c:	001d0d13          	addi	x26,x26,1
    8410:	4e8050ef          	jal	x1,d8f8 <__muldf3>
    8414:	07712c23          	sw	x23,120(x2)
    8418:	07912e23          	sw	x25,124(x2)
    841c:	000da603          	lw	x12,0(x27)
    8420:	004da683          	lw	x13,4(x27)
    8424:	00050c13          	addi	x24,x10,0
    8428:	00058b13          	addi	x22,x11,0
    842c:	07812503          	lw	x10,120(x2)
    8430:	07c12583          	lw	x11,124(x2)
    8434:	4c4050ef          	jal	x1,d8f8 <__muldf3>
    8438:	00058c93          	addi	x25,x11,0
    843c:	00050d93          	addi	x27,x10,0
    8440:	4c0060ef          	jal	x1,e900 <__fixdfsi>
    8444:	00050b93          	addi	x23,x10,0
    8448:	53c060ef          	jal	x1,e984 <__floatsidf>
    844c:	09912223          	sw	x25,132(x2)
    8450:	09b12023          	sw	x27,128(x2)
    8454:	00050613          	addi	x12,x10,0
    8458:	00058693          	addi	x13,x11,0
    845c:	08012503          	lw	x10,128(x2)
    8460:	08412583          	lw	x11,132(x2)
    8464:	375050ef          	jal	x1,dfd8 <__subdf3>
    8468:	09812423          	sw	x24,136(x2)
    846c:	09612623          	sw	x22,140(x2)
    8470:	08812603          	lw	x12,136(x2)
    8474:	08c12683          	lw	x13,140(x2)
    8478:	030b8793          	addi	x15,x23,48
    847c:	fefd0fa3          	sb	x15,-1(x26)
    8480:	00050b93          	addi	x23,x10,0
    8484:	00058c93          	addi	x25,x11,0
    8488:	368050ef          	jal	x1,d7f0 <__ledf2>
    848c:	00055463          	bge	x10,x0,8494 <__gdtoa+0xce0>
    8490:	7510006f          	jal	x0,93e0 <__gdtoa+0x1c2c>
    8494:	06812503          	lw	x10,104(x2)
    8498:	06c12583          	lw	x11,108(x2)
    849c:	000b8613          	addi	x12,x23,0
    84a0:	000c8693          	addi	x13,x25,0
    84a4:	335050ef          	jal	x1,dfd8 <__subdf3>
    84a8:	000c0613          	addi	x12,x24,0
    84ac:	000b0693          	addi	x13,x22,0
    84b0:	340050ef          	jal	x1,d7f0 <__ledf2>
    84b4:	00050793          	addi	x15,x10,0
    84b8:	000b0593          	addi	x11,x22,0
    84bc:	000c0513          	addi	x10,x24,0
    84c0:	f207d2e3          	bge	x15,x0,83e4 <__gdtoa+0xc30>
    84c4:	0a812783          	lw	x15,168(x2)
    84c8:	0b012703          	lw	x14,176(x2)
    84cc:	0c812403          	lw	x8,200(x2)
    84d0:	0d012d83          	lw	x27,208(x2)
    84d4:	fffd4c03          	lbu	x24,-1(x26)
    84d8:	00178493          	addi	x9,x15,1
    84dc:	03900693          	addi	x13,x0,57
    84e0:	0100006f          	jal	x0,84f0 <__gdtoa+0xd3c>
    84e4:	36f708e3          	beq	x14,x15,9054 <__gdtoa+0x18a0>
    84e8:	fff7cc03          	lbu	x24,-1(x15)
    84ec:	00078d13          	addi	x26,x15,0
    84f0:	fffd0793          	addi	x15,x26,-1
    84f4:	fedc08e3          	beq	x24,x13,84e4 <__gdtoa+0xd30>
    84f8:	001c0693          	addi	x13,x24,1
    84fc:	0ff6f693          	andi	x13,x13,255
    8500:	00d78023          	sb	x13,0(x15)
    8504:	00048c93          	addi	x25,x9,0
    8508:	02000a13          	addi	x20,x0,32
    850c:	2240006f          	jal	x0,8730 <__gdtoa+0xf7c>
    8510:	20812403          	lw	x8,520(x2)
    8514:	1fc12983          	lw	x19,508(x2)
    8518:	1ec12b83          	lw	x23,492(x2)
    851c:	1e412c83          	lw	x25,484(x2)
    8520:	1dc12d83          	lw	x27,476(x2)
    8524:	b21ff06f          	jal	x0,8044 <__gdtoa+0x890>
    8528:	00100693          	addi	x13,x0,1
    852c:	418687b3          	sub	x15,x13,x24
    8530:	04f12023          	sw	x15,64(x2)
    8534:	02012823          	sw	x0,48(x2)
    8538:	bd9ff06f          	jal	x0,8110 <__gdtoa+0x95c>
    853c:	04c12903          	lw	x18,76(x2)
    8540:	04012d03          	lw	x26,64(x2)
    8544:	00000b13          	addi	x22,x0,0
    8548:	f3cff06f          	jal	x0,7c84 <__gdtoa+0x4d0>
    854c:	00200c13          	addi	x24,x0,2
    8550:	e80ff06f          	jal	x0,7bd0 <__gdtoa+0x41c>
    8554:	02812783          	lw	x15,40(x2)
    8558:	06012023          	sw	x0,96(x2)
    855c:	fff78793          	addi	x15,x15,-1
    8560:	02f12423          	sw	x15,40(x2)
    8564:	ba1ff06f          	jal	x0,8104 <__gdtoa+0x950>
    8568:	ffc78793          	addi	x15,x15,-4
    856c:	00f12c23          	sw	x15,24(x2)
    8570:	00400613          	addi	x12,x0,4
    8574:	24c78a63          	beq	x15,x12,87c8 <__gdtoa+0x1014>
    8578:	74d78a63          	beq	x15,x13,8ccc <__gdtoa+0x1518>
    857c:	00200693          	addi	x13,x0,2
    8580:	04012c23          	sw	x0,88(x2)
    8584:	00000493          	addi	x9,x0,0
    8588:	24d78663          	beq	x15,x13,87d4 <__gdtoa+0x1020>
    858c:	00300793          	addi	x15,x0,3
    8590:	00f12c23          	sw	x15,24(x2)
    8594:	df4ff06f          	jal	x0,7b88 <__gdtoa+0x3d4>
    8598:	0000a797          	auipc	x15,0xa
    859c:	01878793          	addi	x15,x15,24 # 125b0 <__mprec_tens>
    85a0:	00361693          	slli	x13,x12,0x3
    85a4:	00d787b3          	add	x15,x15,x13
    85a8:	0047a803          	lw	x16,4(x15)
    85ac:	0007a783          	lw	x15,0(x15)
    85b0:	01012e23          	sw	x16,28(x2)
    85b4:	00f12c23          	sw	x15,24(x2)
    85b8:	02412783          	lw	x15,36(x2)
    85bc:	5807c063          	blt	x15,x0,8b3c <__gdtoa+0x1388>
    85c0:	06812b83          	lw	x23,104(x2)
    85c4:	01812c83          	lw	x25,24(x2)
    85c8:	01c12d03          	lw	x26,28(x2)
    85cc:	09712823          	sw	x23,144(x2)
    85d0:	09612a23          	sw	x22,148(x2)
    85d4:	09012503          	lw	x10,144(x2)
    85d8:	09412583          	lw	x11,148(x2)
    85dc:	00100793          	addi	x15,x0,1
    85e0:	000c8613          	addi	x12,x25,0
    85e4:	000d0693          	addi	x13,x26,0
    85e8:	02e12023          	sw	x14,32(x2)
    85ec:	1cf12623          	sw	x15,460(x2)
    85f0:	0bd040ef          	jal	x1,ceac <__divdf3>
    85f4:	30c060ef          	jal	x1,e900 <__fixdfsi>
    85f8:	00050993          	addi	x19,x10,0
    85fc:	388060ef          	jal	x1,e984 <__floatsidf>
    8600:	000c8613          	addi	x12,x25,0
    8604:	000d0693          	addi	x13,x26,0
    8608:	2f0050ef          	jal	x1,d8f8 <__muldf3>
    860c:	09712c23          	sw	x23,152(x2)
    8610:	09612e23          	sw	x22,156(x2)
    8614:	00050613          	addi	x12,x10,0
    8618:	00058693          	addi	x13,x11,0
    861c:	09812503          	lw	x10,152(x2)
    8620:	09c12583          	lw	x11,156(x2)
    8624:	1b5050ef          	jal	x1,dfd8 <__subdf3>
    8628:	05012703          	lw	x14,80(x2)
    862c:	03098793          	addi	x15,x19,48
    8630:	00000613          	addi	x12,x0,0
    8634:	00170493          	addi	x9,x14,1
    8638:	02012703          	lw	x14,32(x2)
    863c:	00000693          	addi	x13,x0,0
    8640:	00050b93          	addi	x23,x10,0
    8644:	00f70023          	sb	x15,0(x14)
    8648:	00170d13          	addi	x26,x14,1
    864c:	00058b13          	addi	x22,x11,0
    8650:	014050ef          	jal	x1,d664 <__eqdf2>
    8654:	02012703          	lw	x14,32(x2)
    8658:	00048c93          	addi	x25,x9,0
    865c:	0c050a63          	beq	x10,x0,8730 <__gdtoa+0xf7c>
    8660:	03812423          	sw	x24,40(x2)
    8664:	02812223          	sw	x8,36(x2)
    8668:	02912823          	sw	x9,48(x2)
    866c:	0000b917          	auipc	x18,0xb
    8670:	98490913          	addi	x18,x18,-1660 # 12ff0 <__SDATA_BEGIN__+0x38>
    8674:	03812483          	lw	x9,56(x2)
    8678:	05412423          	sw	x20,72(x2)
    867c:	000b8413          	addi	x8,x23,0
    8680:	000b0c13          	addi	x24,x22,0
    8684:	0780006f          	jal	x0,86fc <__gdtoa+0xf48>
    8688:	00092603          	lw	x12,0(x18)
    868c:	00492683          	lw	x13,4(x18)
    8690:	1c612623          	sw	x6,460(x2)
    8694:	001d0d13          	addi	x26,x26,1
    8698:	260050ef          	jal	x1,d8f8 <__muldf3>
    869c:	01812603          	lw	x12,24(x2)
    86a0:	01c12683          	lw	x13,28(x2)
    86a4:	00050c13          	addi	x24,x10,0
    86a8:	00058413          	addi	x8,x11,0
    86ac:	001040ef          	jal	x1,ceac <__divdf3>
    86b0:	250060ef          	jal	x1,e900 <__fixdfsi>
    86b4:	00050993          	addi	x19,x10,0
    86b8:	2cc060ef          	jal	x1,e984 <__floatsidf>
    86bc:	01812603          	lw	x12,24(x2)
    86c0:	01c12683          	lw	x13,28(x2)
    86c4:	234050ef          	jal	x1,d8f8 <__muldf3>
    86c8:	00050613          	addi	x12,x10,0
    86cc:	00058693          	addi	x13,x11,0
    86d0:	000c0513          	addi	x10,x24,0
    86d4:	00040593          	addi	x11,x8,0
    86d8:	101050ef          	jal	x1,dfd8 <__subdf3>
    86dc:	03098693          	addi	x13,x19,48
    86e0:	fedd0fa3          	sb	x13,-1(x26)
    86e4:	00000613          	addi	x12,x0,0
    86e8:	00000693          	addi	x13,x0,0
    86ec:	00050413          	addi	x8,x10,0
    86f0:	00058c13          	addi	x24,x11,0
    86f4:	771040ef          	jal	x1,d664 <__eqdf2>
    86f8:	42050a63          	beq	x10,x0,8b2c <__gdtoa+0x1378>
    86fc:	1cc12683          	lw	x13,460(x2)
    8700:	00040513          	addi	x10,x8,0
    8704:	000c0593          	addi	x11,x24,0
    8708:	00168313          	addi	x6,x13,1
    870c:	f6969ee3          	bne	x13,x9,8688 <__gdtoa+0xed4>
    8710:	02812c03          	lw	x24,40(x2)
    8714:	02012703          	lw	x14,32(x2)
    8718:	03012483          	lw	x9,48(x2)
    871c:	02412403          	lw	x8,36(x2)
    8720:	7e0c0e63          	beq	x24,x0,8f1c <__gdtoa+0x1768>
    8724:	00100793          	addi	x15,x0,1
    8728:	01000a13          	addi	x20,x0,16
    872c:	34fc0ae3          	beq	x24,x15,9280 <__gdtoa+0x1acc>
    8730:	01412583          	lw	x11,20(x2)
    8734:	00040513          	addi	x10,x8,0
    8738:	00e12c23          	sw	x14,24(x2)
    873c:	745010ef          	jal	x1,a680 <_Bfree>
    8740:	00c12783          	lw	x15,12(x2)
    8744:	000d0023          	sb	x0,0(x26)
    8748:	01812703          	lw	x14,24(x2)
    874c:	0197a023          	sw	x25,0(x15)
    8750:	01012783          	lw	x15,16(x2)
    8754:	00078463          	beq	x15,x0,875c <__gdtoa+0xfa8>
    8758:	01a7a023          	sw	x26,0(x15)
    875c:	000da783          	lw	x15,0(x27)
    8760:	20812403          	lw	x8,520(x2)
    8764:	20412483          	lw	x9,516(x2)
    8768:	0147e7b3          	or	x15,x15,x20
    876c:	00fda023          	sw	x15,0(x27)
    8770:	20012903          	lw	x18,512(x2)
    8774:	1fc12983          	lw	x19,508(x2)
    8778:	1f412a83          	lw	x21,500(x2)
    877c:	1f012b03          	lw	x22,496(x2)
    8780:	1ec12b83          	lw	x23,492(x2)
    8784:	1e812c03          	lw	x24,488(x2)
    8788:	1e412c83          	lw	x25,484(x2)
    878c:	1dc12d83          	lw	x27,476(x2)
    8790:	8b9ff06f          	jal	x0,8048 <__gdtoa+0x894>
    8794:	d8da9863          	bne	x21,x13,7d24 <__gdtoa+0x570>
    8798:	004ba683          	lw	x13,4(x23)
    879c:	02012783          	lw	x15,32(x2)
    87a0:	00168693          	addi	x13,x13,1
    87a4:	d8f6d063          	bge	x13,x15,7d24 <__gdtoa+0x570>
    87a8:	04012783          	lw	x15,64(x2)
    87ac:	03512423          	sw	x21,40(x2)
    87b0:	00178793          	addi	x15,x15,1
    87b4:	04f12023          	sw	x15,64(x2)
    87b8:	03012783          	lw	x15,48(x2)
    87bc:	00178793          	addi	x15,x15,1
    87c0:	02f12823          	sw	x15,48(x2)
    87c4:	d60ff06f          	jal	x0,7d24 <__gdtoa+0x570>
    87c8:	00100793          	addi	x15,x0,1
    87cc:	00000493          	addi	x9,x0,0
    87d0:	04f12c23          	sw	x15,88(x2)
    87d4:	02412583          	lw	x11,36(x2)
    87d8:	00b04463          	blt	x0,x11,87e0 <__gdtoa+0x102c>
    87dc:	00100593          	addi	x11,x0,1
    87e0:	00058693          	addi	x13,x11,0
    87e4:	06b12823          	sw	x11,112(x2)
    87e8:	02b12c23          	sw	x11,56(x2)
    87ec:	02b12223          	sw	x11,36(x2)
    87f0:	bbcff06f          	jal	x0,7bac <__gdtoa+0x3f8>
    87f4:	6b1010ef          	jal	x1,a6a4 <__multadd>
    87f8:	00050b13          	addi	x22,x10,0
    87fc:	820500e3          	beq	x10,x0,801c <__gdtoa+0x868>
    8800:	00050d93          	addi	x27,x10,0
    8804:	e58ff06f          	jal	x0,7e5c <__gdtoa+0x6a8>
    8808:	de0bd263          	bge	x23,x0,7dec <__gdtoa+0x638>
    880c:	01812a23          	sw	x24,20(x2)
    8810:	02012c03          	lw	x24,32(x2)
    8814:	000a0813          	addi	x16,x20,0
    8818:	000d8e93          	addi	x29,x27,0
    881c:	00070a13          	addi	x20,x14,0
    8820:	02812d83          	lw	x27,40(x2)
    8824:	02412703          	lw	x14,36(x2)
    8828:	560c14e3          	bne	x24,x0,9590 <__gdtoa+0x1ddc>
    882c:	01412783          	lw	x15,20(x2)
    8830:	00100693          	addi	x13,x0,1
    8834:	01000a13          	addi	x20,x0,16
    8838:	0107a603          	lw	x12,16(x15)
    883c:	00da89b3          	add	x19,x21,x13
    8840:	50c6d2e3          	bge	x13,x12,9544 <__gdtoa+0x1d90>
    8844:	000b0b93          	addi	x23,x22,0
    8848:	00098d13          	addi	x26,x19,0
    884c:	010a8023          	sb	x16,0(x21)
    8850:	000e8b13          	addi	x22,x29,0
    8854:	000c8593          	addi	x11,x25,0
    8858:	00040513          	addi	x10,x8,0
    885c:	00e12c23          	sw	x14,24(x2)
    8860:	621010ef          	jal	x1,a680 <_Bfree>
    8864:	05012783          	lw	x15,80(x2)
    8868:	01812703          	lw	x14,24(x2)
    886c:	00178c93          	addi	x25,x15,1
    8870:	ec0b00e3          	beq	x22,x0,8730 <__gdtoa+0xf7c>
    8874:	000b8c63          	beq	x23,x0,888c <__gdtoa+0x10d8>
    8878:	016b8a63          	beq	x23,x22,888c <__gdtoa+0x10d8>
    887c:	000b8593          	addi	x11,x23,0
    8880:	00040513          	addi	x10,x8,0
    8884:	5fd010ef          	jal	x1,a680 <_Bfree>
    8888:	01812703          	lw	x14,24(x2)
    888c:	000b0593          	addi	x11,x22,0
    8890:	00040513          	addi	x10,x8,0
    8894:	00e12c23          	sw	x14,24(x2)
    8898:	5e9010ef          	jal	x1,a680 <_Bfree>
    889c:	01812703          	lw	x14,24(x2)
    88a0:	e91ff06f          	jal	x0,8730 <__gdtoa+0xf7c>
    88a4:	01412583          	lw	x11,20(x2)
    88a8:	00040513          	addi	x10,x8,0
    88ac:	02e12023          	sw	x14,32(x2)
    88b0:	5fc020ef          	jal	x1,aeac <__lshift>
    88b4:	00a12a23          	sw	x10,20(x2)
    88b8:	f6050263          	beq	x10,x0,801c <__gdtoa+0x868>
    88bc:	1cc12783          	lw	x15,460(x2)
    88c0:	02012703          	lw	x14,32(x2)
    88c4:	c88ff06f          	jal	x0,7d4c <__gdtoa+0x598>
    88c8:	01412503          	lw	x10,20(x2)
    88cc:	000c8593          	addi	x11,x25,0
    88d0:	02e12023          	sw	x14,32(x2)
    88d4:	768020ef          	jal	x1,b03c <__mcmp>
    88d8:	02012703          	lw	x14,32(x2)
    88dc:	c8055263          	bge	x10,x0,7d60 <__gdtoa+0x5ac>
    88e0:	05012783          	lw	x15,80(x2)
    88e4:	01412583          	lw	x11,20(x2)
    88e8:	00000693          	addi	x13,x0,0
    88ec:	fff78793          	addi	x15,x15,-1
    88f0:	00a00613          	addi	x12,x0,10
    88f4:	00040513          	addi	x10,x8,0
    88f8:	04f12823          	sw	x15,80(x2)
    88fc:	5a9010ef          	jal	x1,a6a4 <__multadd>
    8900:	00a12a23          	sw	x10,20(x2)
    8904:	f0050c63          	beq	x10,x0,801c <__gdtoa+0x868>
    8908:	05812783          	lw	x15,88(x2)
    890c:	02012703          	lw	x14,32(x2)
    8910:	26079ce3          	bne	x15,x0,9388 <__gdtoa+0x1bd4>
    8914:	07012783          	lw	x15,112(x2)
    8918:	1ef05e63          	bge	x0,x15,8b14 <__gdtoa+0x1360>
    891c:	02f12c23          	sw	x15,56(x2)
    8920:	03812903          	lw	x18,56(x2)
    8924:	01412483          	lw	x9,20(x2)
    8928:	00070a93          	addi	x21,x14,0
    892c:	00100693          	addi	x13,x0,1
    8930:	00a00993          	addi	x19,x0,10
    8934:	00070a13          	addi	x20,x14,0
    8938:	0180006f          	jal	x0,8950 <__gdtoa+0x119c>
    893c:	569010ef          	jal	x1,a6a4 <__multadd>
    8940:	00050493          	addi	x9,x10,0
    8944:	ec050c63          	beq	x10,x0,801c <__gdtoa+0x868>
    8948:	1cc12683          	lw	x13,460(x2)
    894c:	00168693          	addi	x13,x13,1
    8950:	000c8593          	addi	x11,x25,0
    8954:	00048513          	addi	x10,x9,0
    8958:	1cd12623          	sw	x13,460(x2)
    895c:	6a4010ef          	jal	x1,a000 <__quorem_D2A>
    8960:	03050813          	addi	x16,x10,48
    8964:	010a8023          	sb	x16,0(x21)
    8968:	1cc12783          	lw	x15,460(x2)
    896c:	001a8a93          	addi	x21,x21,1
    8970:	00000693          	addi	x13,x0,0
    8974:	00098613          	addi	x12,x19,0
    8978:	00048593          	addi	x11,x9,0
    897c:	00040513          	addi	x10,x8,0
    8980:	fb27cee3          	blt	x15,x18,893c <__gdtoa+0x1188>
    8984:	00912a23          	sw	x9,20(x2)
    8988:	000a0713          	addi	x14,x20,0
    898c:	00000b93          	addi	x23,x0,0
    8990:	500c0a63          	beq	x24,x0,8ea4 <__gdtoa+0x16f0>
    8994:	00200693          	addi	x13,x0,2
    8998:	54dc0663          	beq	x24,x13,8ee4 <__gdtoa+0x1730>
    899c:	01412783          	lw	x15,20(x2)
    89a0:	00100693          	addi	x13,x0,1
    89a4:	0107a603          	lw	x12,16(x15)
    89a8:	2cc6ca63          	blt	x13,x12,8c7c <__gdtoa+0x14c8>
    89ac:	0147a683          	lw	x13,20(x15)
    89b0:	2c069663          	bne	x13,x0,8c7c <__gdtoa+0x14c8>
    89b4:	00d036b3          	sltu	x13,x0,x13
    89b8:	00469a13          	slli	x20,x13,0x4
    89bc:	03000613          	addi	x12,x0,48
    89c0:	000a8d13          	addi	x26,x21,0
    89c4:	fffac783          	lbu	x15,-1(x21)
    89c8:	fffa8a93          	addi	x21,x21,-1
    89cc:	fec78ae3          	beq	x15,x12,89c0 <__gdtoa+0x120c>
    89d0:	e85ff06f          	jal	x0,8854 <__gdtoa+0x10a0>
    89d4:	03812683          	lw	x13,56(x2)
    89d8:	04c12603          	lw	x12,76(x2)
    89dc:	fff68793          	addi	x15,x13,-1
    89e0:	1af64e63          	blt	x12,x15,8b9c <__gdtoa+0x13e8>
    89e4:	40f60933          	sub	x18,x12,x15
    89e8:	1606dce3          	bge	x13,x0,9360 <__gdtoa+0x1bac>
    89ec:	04012783          	lw	x15,64(x2)
    89f0:	03812683          	lw	x13,56(x2)
    89f4:	1c012623          	sw	x0,460(x2)
    89f8:	40d78d33          	sub	x26,x15,x13
    89fc:	a6cff06f          	jal	x0,7c68 <__gdtoa+0x4b4>
    8a00:	01812683          	lw	x13,24(x2)
    8a04:	00200793          	addi	x15,x0,2
    8a08:	b6d7d063          	bge	x15,x13,7d68 <__gdtoa+0x5b4>
    8a0c:	000c8593          	addi	x11,x25,0
    8a10:	00000693          	addi	x13,x0,0
    8a14:	00500613          	addi	x12,x0,5
    8a18:	00040513          	addi	x10,x8,0
    8a1c:	00e12c23          	sw	x14,24(x2)
    8a20:	485010ef          	jal	x1,a6a4 <__multadd>
    8a24:	00050593          	addi	x11,x10,0
    8a28:	de050a63          	beq	x10,x0,801c <__gdtoa+0x868>
    8a2c:	03812783          	lw	x15,56(x2)
    8a30:	01812703          	lw	x14,24(x2)
    8a34:	1a079a63          	bne	x15,x0,8be8 <__gdtoa+0x1434>
    8a38:	00a12c23          	sw	x10,24(x2)
    8a3c:	01412503          	lw	x10,20(x2)
    8a40:	02e12023          	sw	x14,32(x2)
    8a44:	5f8020ef          	jal	x1,b03c <__mcmp>
    8a48:	01812583          	lw	x11,24(x2)
    8a4c:	02012703          	lw	x14,32(x2)
    8a50:	18a05c63          	bge	x0,x10,8be8 <__gdtoa+0x1434>
    8a54:	05012783          	lw	x15,80(x2)
    8a58:	00278c93          	addi	x25,x15,2
    8a5c:	03100793          	addi	x15,x0,49
    8a60:	00f70023          	sb	x15,0(x14)
    8a64:	00170d13          	addi	x26,x14,1
    8a68:	02000a13          	addi	x20,x0,32
    8a6c:	00040513          	addi	x10,x8,0
    8a70:	00e12c23          	sw	x14,24(x2)
    8a74:	40d010ef          	jal	x1,a680 <_Bfree>
    8a78:	01812703          	lw	x14,24(x2)
    8a7c:	ca0b0ae3          	beq	x22,x0,8730 <__gdtoa+0xf7c>
    8a80:	e0dff06f          	jal	x0,888c <__gdtoa+0x10d8>
    8a84:	00100693          	addi	x13,x0,1
    8a88:	00068593          	addi	x11,x13,0
    8a8c:	920ff06f          	jal	x0,7bac <__gdtoa+0x3f8>
    8a90:	00050593          	addi	x11,x10,0
    8a94:	00078613          	addi	x12,x15,0
    8a98:	00040513          	addi	x10,x8,0
    8a9c:	2c0020ef          	jal	x1,ad5c <__pow5mult>
    8aa0:	00050c93          	addi	x25,x10,0
    8aa4:	d6050c63          	beq	x10,x0,801c <__gdtoa+0x868>
    8aa8:	01812783          	lw	x15,24(x2)
    8aac:	00100693          	addi	x13,x0,1
    8ab0:	04812703          	lw	x14,72(x2)
    8ab4:	24f6d463          	bge	x13,x15,8cfc <__gdtoa+0x1548>
    8ab8:	010ca783          	lw	x15,16(x25)
    8abc:	02e12023          	sw	x14,32(x2)
    8ac0:	00378793          	addi	x15,x15,3
    8ac4:	00279793          	slli	x15,x15,0x2
    8ac8:	00fc87b3          	add	x15,x25,x15
    8acc:	0047a503          	lw	x10,4(x15)
    8ad0:	66d010ef          	jal	x1,a93c <__hi0bits>
    8ad4:	02012703          	lw	x14,32(x2)
    8ad8:	03412423          	sw	x20,40(x2)
    8adc:	00050a13          	addi	x20,x10,0
    8ae0:	a48ff06f          	jal	x0,7d28 <__gdtoa+0x574>
    8ae4:	01812783          	lw	x15,24(x2)
    8ae8:	00100693          	addi	x13,x0,1
    8aec:	eef6c4e3          	blt	x13,x15,89d4 <__gdtoa+0x1220>
    8af0:	03012783          	lw	x15,48(x2)
    8af4:	04c12903          	lw	x18,76(x2)
    8af8:	00c787b3          	add	x15,x15,x12
    8afc:	02f12823          	sw	x15,48(x2)
    8b00:	04012783          	lw	x15,64(x2)
    8b04:	00078d13          	addi	x26,x15,0
    8b08:	00f607b3          	add	x15,x12,x15
    8b0c:	04f12023          	sw	x15,64(x2)
    8b10:	958ff06f          	jal	x0,7c68 <__gdtoa+0x4b4>
    8b14:	01812683          	lw	x13,24(x2)
    8b18:	00200793          	addi	x15,x0,2
    8b1c:	20d7cee3          	blt	x15,x13,9538 <__gdtoa+0x1d84>
    8b20:	07012783          	lw	x15,112(x2)
    8b24:	02f12c23          	sw	x15,56(x2)
    8b28:	df9ff06f          	jal	x0,8920 <__gdtoa+0x116c>
    8b2c:	04812a03          	lw	x20,72(x2)
    8b30:	02012703          	lw	x14,32(x2)
    8b34:	02412403          	lw	x8,36(x2)
    8b38:	bf9ff06f          	jal	x0,8730 <__gdtoa+0xf7c>
    8b3c:	03812783          	lw	x15,56(x2)
    8b40:	a8f040e3          	blt	x0,x15,85c0 <__gdtoa+0xe0c>
    8b44:	08079e63          	bne	x15,x0,8be0 <__gdtoa+0x142c>
    8b48:	0000a797          	auipc	x15,0xa
    8b4c:	4c078793          	addi	x15,x15,1216 # 13008 <__SDATA_BEGIN__+0x50>
    8b50:	0007a603          	lw	x12,0(x15)
    8b54:	0047a683          	lw	x13,4(x15)
    8b58:	01812503          	lw	x10,24(x2)
    8b5c:	01c12583          	lw	x11,28(x2)
    8b60:	02e12023          	sw	x14,32(x2)
    8b64:	595040ef          	jal	x1,d8f8 <__muldf3>
    8b68:	06812783          	lw	x15,104(x2)
    8b6c:	17612a23          	sw	x22,372(x2)
    8b70:	17412683          	lw	x13,372(x2)
    8b74:	16f12823          	sw	x15,368(x2)
    8b78:	17012603          	lw	x12,368(x2)
    8b7c:	375040ef          	jal	x1,d6f0 <__gedf2>
    8b80:	02012703          	lw	x14,32(x2)
    8b84:	04055e63          	bge	x10,x0,8be0 <__gdtoa+0x142c>
    8b88:	05012783          	lw	x15,80(x2)
    8b8c:	00000593          	addi	x11,x0,0
    8b90:	00000b13          	addi	x22,x0,0
    8b94:	00278c93          	addi	x25,x15,2
    8b98:	ec5ff06f          	jal	x0,8a5c <__gdtoa+0x12a8>
    8b9c:	04c12683          	lw	x13,76(x2)
    8ba0:	02812603          	lw	x12,40(x2)
    8ba4:	04f12623          	sw	x15,76(x2)
    8ba8:	40d786b3          	sub	x13,x15,x13
    8bac:	00d606b3          	add	x13,x12,x13
    8bb0:	04012783          	lw	x15,64(x2)
    8bb4:	03012603          	lw	x12,48(x2)
    8bb8:	02d12423          	sw	x13,40(x2)
    8bbc:	03812683          	lw	x13,56(x2)
    8bc0:	00078d13          	addi	x26,x15,0
    8bc4:	00000913          	addi	x18,x0,0
    8bc8:	00d60633          	add	x12,x12,x13
    8bcc:	00d787b3          	add	x15,x15,x13
    8bd0:	1cd12623          	sw	x13,460(x2)
    8bd4:	02c12823          	sw	x12,48(x2)
    8bd8:	04f12023          	sw	x15,64(x2)
    8bdc:	88cff06f          	jal	x0,7c68 <__gdtoa+0x4b4>
    8be0:	00000593          	addi	x11,x0,0
    8be4:	00000b13          	addi	x22,x0,0
    8be8:	02412783          	lw	x15,36(x2)
    8bec:	00070d13          	addi	x26,x14,0
    8bf0:	01000a13          	addi	x20,x0,16
    8bf4:	40f00cb3          	sub	x25,x0,x15
    8bf8:	e75ff06f          	jal	x0,8a6c <__gdtoa+0x12b8>
    8bfc:	000b0593          	addi	x11,x22,0
    8c00:	00090613          	addi	x12,x18,0
    8c04:	00040513          	addi	x10,x8,0
    8c08:	04e12423          	sw	x14,72(x2)
    8c0c:	150020ef          	jal	x1,ad5c <__pow5mult>
    8c10:	00050b13          	addi	x22,x10,0
    8c14:	c0050463          	beq	x10,x0,801c <__gdtoa+0x868>
    8c18:	01412c83          	lw	x25,20(x2)
    8c1c:	00050593          	addi	x11,x10,0
    8c20:	00040513          	addi	x10,x8,0
    8c24:	000c8613          	addi	x12,x25,0
    8c28:	6ed010ef          	jal	x1,ab14 <__multiply>
    8c2c:	00050493          	addi	x9,x10,0
    8c30:	be050663          	beq	x10,x0,801c <__gdtoa+0x868>
    8c34:	000c8593          	addi	x11,x25,0
    8c38:	00040513          	addi	x10,x8,0
    8c3c:	245010ef          	jal	x1,a680 <_Bfree>
    8c40:	04c12783          	lw	x15,76(x2)
    8c44:	00912a23          	sw	x9,20(x2)
    8c48:	04812703          	lw	x14,72(x2)
    8c4c:	412787b3          	sub	x15,x15,x18
    8c50:	04f12623          	sw	x15,76(x2)
    8c54:	00079463          	bne	x15,x0,8c5c <__gdtoa+0x14a8>
    8c58:	89cff06f          	jal	x0,7cf4 <__gdtoa+0x540>
    8c5c:	878ff06f          	jal	x0,7cd4 <__gdtoa+0x520>
    8c60:	000b0b93          	addi	x23,x22,0
    8c64:	000a8693          	addi	x13,x21,0
    8c68:	001a8993          	addi	x19,x21,1
    8c6c:	000e8b13          	addi	x22,x29,0
    8c70:	03900613          	addi	x12,x0,57
    8c74:	00098a93          	addi	x21,x19,0
    8c78:	00c68023          	sb	x12,0(x13)
    8c7c:	03900613          	addi	x12,x0,57
    8c80:	0080006f          	jal	x0,8c88 <__gdtoa+0x14d4>
    8c84:	27570e63          	beq	x14,x21,8f00 <__gdtoa+0x174c>
    8c88:	fffac683          	lbu	x13,-1(x21)
    8c8c:	000a8d13          	addi	x26,x21,0
    8c90:	fffa8a93          	addi	x21,x21,-1
    8c94:	fec688e3          	beq	x13,x12,8c84 <__gdtoa+0x14d0>
    8c98:	00168693          	addi	x13,x13,1
    8c9c:	00da8023          	sb	x13,0(x21)
    8ca0:	02000a13          	addi	x20,x0,32
    8ca4:	bb1ff06f          	jal	x0,8854 <__gdtoa+0x10a0>
    8ca8:	000b0593          	addi	x11,x22,0
    8cac:	00040513          	addi	x10,x8,0
    8cb0:	02e12023          	sw	x14,32(x2)
    8cb4:	1f8020ef          	jal	x1,aeac <__lshift>
    8cb8:	02012703          	lw	x14,32(x2)
    8cbc:	00050b13          	addi	x22,x10,0
    8cc0:	00050463          	beq	x10,x0,8cc8 <__gdtoa+0x1514>
    8cc4:	8b8ff06f          	jal	x0,7d7c <__gdtoa+0x5c8>
    8cc8:	b54ff06f          	jal	x0,801c <__gdtoa+0x868>
    8ccc:	00100793          	addi	x15,x0,1
    8cd0:	00000493          	addi	x9,x0,0
    8cd4:	04f12c23          	sw	x15,88(x2)
    8cd8:	eb1fe06f          	jal	x0,7b88 <__gdtoa+0x3d4>
    8cdc:	00100793          	addi	x15,x0,1
    8ce0:	04f12c23          	sw	x15,88(x2)
    8ce4:	ea5fe06f          	jal	x0,7b88 <__gdtoa+0x3d4>
    8ce8:	00100793          	addi	x15,x0,1
    8cec:	04f12c23          	sw	x15,88(x2)
    8cf0:	ae5ff06f          	jal	x0,87d4 <__gdtoa+0x1020>
    8cf4:	04012c23          	sw	x0,88(x2)
    8cf8:	addff06f          	jal	x0,87d4 <__gdtoa+0x1020>
    8cfc:	dada9ee3          	bne	x21,x13,8ab8 <__gdtoa+0x1304>
    8d00:	004ba683          	lw	x13,4(x23)
    8d04:	02012783          	lw	x15,32(x2)
    8d08:	00168693          	addi	x13,x13,1
    8d0c:	daf6d6e3          	bge	x13,x15,8ab8 <__gdtoa+0x1304>
    8d10:	04012783          	lw	x15,64(x2)
    8d14:	000a8a13          	addi	x20,x21,0
    8d18:	00178793          	addi	x15,x15,1
    8d1c:	04f12023          	sw	x15,64(x2)
    8d20:	03012783          	lw	x15,48(x2)
    8d24:	00178793          	addi	x15,x15,1
    8d28:	02f12823          	sw	x15,48(x2)
    8d2c:	d8dff06f          	jal	x0,8ab8 <__gdtoa+0x1304>
    8d30:	004b2583          	lw	x11,4(x22)
    8d34:	00040513          	addi	x10,x8,0
    8d38:	02e12023          	sw	x14,32(x2)
    8d3c:	095010ef          	jal	x1,a5d0 <_Balloc>
    8d40:	00050a13          	addi	x20,x10,0
    8d44:	ac050c63          	beq	x10,x0,801c <__gdtoa+0x868>
    8d48:	010b2603          	lw	x12,16(x22)
    8d4c:	00cb0593          	addi	x11,x22,12
    8d50:	00c50513          	addi	x10,x10,12
    8d54:	00260613          	addi	x12,x12,2
    8d58:	00261613          	slli	x12,x12,0x2
    8d5c:	8ecf90ef          	jal	x1,1e48 <memcpy>
    8d60:	000a0593          	addi	x11,x20,0
    8d64:	00040513          	addi	x10,x8,0
    8d68:	00100613          	addi	x12,x0,1
    8d6c:	140020ef          	jal	x1,aeac <__lshift>
    8d70:	02012703          	lw	x14,32(x2)
    8d74:	00050e93          	addi	x29,x10,0
    8d78:	00050463          	beq	x10,x0,8d80 <__gdtoa+0x15cc>
    8d7c:	810ff06f          	jal	x0,7d8c <__gdtoa+0x5d8>
    8d80:	a9cff06f          	jal	x0,801c <__gdtoa+0x868>
    8d84:	18912023          	sw	x9,384(x2)
    8d88:	18912423          	sw	x9,392(x2)
    8d8c:	19612223          	sw	x22,388(x2)
    8d90:	19612623          	sw	x22,396(x2)
    8d94:	18012603          	lw	x12,384(x2)
    8d98:	18412683          	lw	x13,388(x2)
    8d9c:	18812503          	lw	x10,392(x2)
    8da0:	18c12583          	lw	x11,396(x2)
    8da4:	04e12e23          	sw	x14,92(x2)
    8da8:	031030ef          	jal	x1,c5d8 <__adddf3>
    8dac:	0000a697          	auipc	x13,0xa
    8db0:	25468693          	addi	x13,x13,596 # 13000 <__SDATA_BEGIN__+0x48>
    8db4:	0006a603          	lw	x12,0(x13)
    8db8:	0046a683          	lw	x13,4(x13)
    8dbc:	01d030ef          	jal	x1,c5d8 <__adddf3>
    8dc0:	05c12703          	lw	x14,92(x2)
    8dc4:	fcc006b7          	lui	x13,0xfcc00
    8dc8:	00050913          	addi	x18,x10,0
    8dcc:	00b68c33          	add	x24,x13,x11
    8dd0:	0a012783          	lw	x15,160(x2)
    8dd4:	0000a697          	auipc	x13,0xa
    8dd8:	23468693          	addi	x13,x13,564 # 13008 <__SDATA_BEGIN__+0x50>
    8ddc:	0006a603          	lw	x12,0(x13)
    8de0:	0cf12823          	sw	x15,208(x2)
    8de4:	0a412783          	lw	x15,164(x2)
    8de8:	0046a683          	lw	x13,4(x13)
    8dec:	0d012503          	lw	x10,208(x2)
    8df0:	0cf12a23          	sw	x15,212(x2)
    8df4:	0d412583          	lw	x11,212(x2)
    8df8:	04e12e23          	sw	x14,92(x2)
    8dfc:	1dc050ef          	jal	x1,dfd8 <__subdf3>
    8e00:	0d212c23          	sw	x18,216(x2)
    8e04:	0d812e23          	sw	x24,220(x2)
    8e08:	0d812603          	lw	x12,216(x2)
    8e0c:	0dc12683          	lw	x13,220(x2)
    8e10:	00050b13          	addi	x22,x10,0
    8e14:	00058493          	addi	x9,x11,0
    8e18:	0d9040ef          	jal	x1,d6f0 <__gedf2>
    8e1c:	05c12703          	lw	x14,92(x2)
    8e20:	4ea04e63          	blt	x0,x10,931c <__gdtoa+0x1b68>
    8e24:	800006b7          	lui	x13,0x80000
    8e28:	00dc46b3          	xor	x13,x24,x13
    8e2c:	0f212023          	sw	x18,224(x2)
    8e30:	0f612423          	sw	x22,232(x2)
    8e34:	0e912623          	sw	x9,236(x2)
    8e38:	0ed12223          	sw	x13,228(x2)
    8e3c:	0e812503          	lw	x10,232(x2)
    8e40:	0ec12583          	lw	x11,236(x2)
    8e44:	0e012603          	lw	x12,224(x2)
    8e48:	0e412683          	lw	x13,228(x2)
    8e4c:	1a5040ef          	jal	x1,d7f0 <__ledf2>
    8e50:	05c12703          	lw	x14,92(x2)
    8e54:	d80546e3          	blt	x10,x0,8be0 <__gdtoa+0x142c>
    8e58:	0a012783          	lw	x15,160(x2)
    8e5c:	0a412b03          	lw	x22,164(x2)
    8e60:	00009e17          	auipc	x28,0x9
    8e64:	750e0e13          	addi	x28,x28,1872 # 125b0 <__mprec_tens>
    8e68:	06f12423          	sw	x15,104(x2)
    8e6c:	04812783          	lw	x15,72(x2)
    8e70:	00000c13          	addi	x24,x0,0
    8e74:	0007d463          	bge	x15,x0,8e7c <__gdtoa+0x16c8>
    8e78:	d75fe06f          	jal	x0,7bec <__gdtoa+0x438>
    8e7c:	000e2783          	lw	x15,0(x28)
    8e80:	004e2803          	lw	x16,4(x28)
    8e84:	00000c13          	addi	x24,x0,0
    8e88:	00f12c23          	sw	x15,24(x2)
    8e8c:	02412783          	lw	x15,36(x2)
    8e90:	01012e23          	sw	x16,28(x2)
    8e94:	f207d663          	bge	x15,x0,85c0 <__gdtoa+0xe0c>
    8e98:	03812783          	lw	x15,56(x2)
    8e9c:	f2079263          	bne	x15,x0,85c0 <__gdtoa+0xe0c>
    8ea0:	ca9ff06f          	jal	x0,8b48 <__gdtoa+0x1394>
    8ea4:	01412583          	lw	x11,20(x2)
    8ea8:	00100613          	addi	x12,x0,1
    8eac:	00040513          	addi	x10,x8,0
    8eb0:	00e12c23          	sw	x14,24(x2)
    8eb4:	03012023          	sw	x16,32(x2)
    8eb8:	7f5010ef          	jal	x1,aeac <__lshift>
    8ebc:	00a12a23          	sw	x10,20(x2)
    8ec0:	94050e63          	beq	x10,x0,801c <__gdtoa+0x868>
    8ec4:	000c8593          	addi	x11,x25,0
    8ec8:	174020ef          	jal	x1,b03c <__mcmp>
    8ecc:	01812703          	lw	x14,24(x2)
    8ed0:	daa046e3          	blt	x0,x10,8c7c <__gdtoa+0x14c8>
    8ed4:	00051863          	bne	x10,x0,8ee4 <__gdtoa+0x1730>
    8ed8:	02012803          	lw	x16,32(x2)
    8edc:	00187813          	andi	x16,x16,1
    8ee0:	d8081ee3          	bne	x16,x0,8c7c <__gdtoa+0x14c8>
    8ee4:	01412783          	lw	x15,20(x2)
    8ee8:	00100693          	addi	x13,x0,1
    8eec:	01000a13          	addi	x20,x0,16
    8ef0:	0107a603          	lw	x12,16(x15)
    8ef4:	acc6c4e3          	blt	x13,x12,89bc <__gdtoa+0x1208>
    8ef8:	0147a683          	lw	x13,20(x15)
    8efc:	ab9ff06f          	jal	x0,89b4 <__gdtoa+0x1200>
    8f00:	05012683          	lw	x13,80(x2)
    8f04:	03100793          	addi	x15,x0,49
    8f08:	00f70023          	sb	x15,0(x14)
    8f0c:	00168693          	addi	x13,x13,1 # 80000001 <__heap_end+0x7fc00001>
    8f10:	04d12823          	sw	x13,80(x2)
    8f14:	02000a13          	addi	x20,x0,32
    8f18:	93dff06f          	jal	x0,8854 <__gdtoa+0x10a0>
    8f1c:	0ea12823          	sw	x10,240(x2)
    8f20:	0eb12a23          	sw	x11,244(x2)
    8f24:	0ea12c23          	sw	x10,248(x2)
    8f28:	0eb12e23          	sw	x11,252(x2)
    8f2c:	0f012603          	lw	x12,240(x2)
    8f30:	0f412683          	lw	x13,244(x2)
    8f34:	0f812503          	lw	x10,248(x2)
    8f38:	0fc12583          	lw	x11,252(x2)
    8f3c:	02e12023          	sw	x14,32(x2)
    8f40:	698030ef          	jal	x1,c5d8 <__adddf3>
    8f44:	10a12023          	sw	x10,256(x2)
    8f48:	10b12223          	sw	x11,260(x2)
    8f4c:	10012603          	lw	x12,256(x2)
    8f50:	10412683          	lw	x13,260(x2)
    8f54:	00050b13          	addi	x22,x10,0
    8f58:	00058a13          	addi	x20,x11,0
    8f5c:	01812503          	lw	x10,24(x2)
    8f60:	01c12583          	lw	x11,28(x2)
    8f64:	fffd4c03          	lbu	x24,-1(x26)
    8f68:	089040ef          	jal	x1,d7f0 <__ledf2>
    8f6c:	02012703          	lw	x14,32(x2)
    8f70:	d6054663          	blt	x10,x0,84dc <__gdtoa+0xd28>
    8f74:	17612c23          	sw	x22,376(x2)
    8f78:	17412e23          	sw	x20,380(x2)
    8f7c:	17812603          	lw	x12,376(x2)
    8f80:	17c12683          	lw	x13,380(x2)
    8f84:	01812503          	lw	x10,24(x2)
    8f88:	01c12583          	lw	x11,28(x2)
    8f8c:	6d8040ef          	jal	x1,d664 <__eqdf2>
    8f90:	02012703          	lw	x14,32(x2)
    8f94:	00051663          	bne	x10,x0,8fa0 <__gdtoa+0x17ec>
    8f98:	0019f993          	andi	x19,x19,1
    8f9c:	d4099063          	bne	x19,x0,84dc <__gdtoa+0xd28>
    8fa0:	000d0793          	addi	x15,x26,0
    8fa4:	01000a13          	addi	x20,x0,16
    8fa8:	03000613          	addi	x12,x0,48
    8fac:	fff7c683          	lbu	x13,-1(x15)
    8fb0:	00078d13          	addi	x26,x15,0
    8fb4:	fff78793          	addi	x15,x15,-1
    8fb8:	fec68ae3          	beq	x13,x12,8fac <__gdtoa+0x17f8>
    8fbc:	00048c93          	addi	x25,x9,0
    8fc0:	f70ff06f          	jal	x0,8730 <__gdtoa+0xf7c>
    8fc4:	01812a23          	sw	x24,20(x2)
    8fc8:	02012c03          	lw	x24,32(x2)
    8fcc:	000d8e93          	addi	x29,x27,0
    8fd0:	02412703          	lw	x14,36(x2)
    8fd4:	02812d83          	lw	x27,40(x2)
    8fd8:	000a0813          	addi	x16,x20,0
    8fdc:	020c0263          	beq	x24,x0,9000 <__gdtoa+0x184c>
    8fe0:	01412783          	lw	x15,20(x2)
    8fe4:	00100693          	addi	x13,x0,1
    8fe8:	0107a603          	lw	x12,16(x15)
    8fec:	00c6d463          	bge	x13,x12,8ff4 <__gdtoa+0x1840>
    8ff0:	f3dfe06f          	jal	x0,7f2c <__gdtoa+0x778>
    8ff4:	0147a683          	lw	x13,20(x15)
    8ff8:	00068463          	beq	x13,x0,9000 <__gdtoa+0x184c>
    8ffc:	f31fe06f          	jal	x0,7f2c <__gdtoa+0x778>
    9000:	01412583          	lw	x11,20(x2)
    9004:	00100613          	addi	x12,x0,1
    9008:	00040513          	addi	x10,x8,0
    900c:	02e12223          	sw	x14,36(x2)
    9010:	03d12023          	sw	x29,32(x2)
    9014:	01012c23          	sw	x16,24(x2)
    9018:	695010ef          	jal	x1,aeac <__lshift>
    901c:	00a12a23          	sw	x10,20(x2)
    9020:	00051463          	bne	x10,x0,9028 <__gdtoa+0x1874>
    9024:	ff9fe06f          	jal	x0,801c <__gdtoa+0x868>
    9028:	000c8593          	addi	x11,x25,0
    902c:	010020ef          	jal	x1,b03c <__mcmp>
    9030:	01812803          	lw	x16,24(x2)
    9034:	02012e83          	lw	x29,32(x2)
    9038:	02412703          	lw	x14,36(x2)
    903c:	4ea05463          	bge	x0,x10,9524 <__gdtoa+0x1d70>
    9040:	03900693          	addi	x13,x0,57
    9044:	c0d80ee3          	beq	x16,x13,8c60 <__gdtoa+0x14ac>
    9048:	031d0813          	addi	x16,x26,49
    904c:	02000c13          	addi	x24,x0,32
    9050:	fdcff06f          	jal	x0,882c <__gdtoa+0x1078>
    9054:	00148493          	addi	x9,x9,1
    9058:	03100693          	addi	x13,x0,49
    905c:	ca4ff06f          	jal	x0,8500 <__gdtoa+0xd4c>
    9060:	15212023          	sw	x18,320(x2)
    9064:	15812223          	sw	x24,324(x2)
    9068:	14012503          	lw	x10,320(x2)
    906c:	14412583          	lw	x11,324(x2)
    9070:	0ce12423          	sw	x14,200(x2)
    9074:	11c12c23          	sw	x28,280(x2)
    9078:	081040ef          	jal	x1,d8f8 <__muldf3>
    907c:	06812603          	lw	x12,104(x2)
    9080:	0c812703          	lw	x14,200(x2)
    9084:	000b0693          	addi	x13,x22,0
    9088:	00100913          	addi	x18,x0,1
    908c:	00060b13          	addi	x22,x12,0
    9090:	08c12023          	sw	x12,128(x2)
    9094:	00000613          	addi	x12,x0,0
    9098:	0e812023          	sw	x8,224(x2)
    909c:	11312423          	sw	x19,264(x2)
    90a0:	11b12823          	sw	x27,272(x2)
    90a4:	08a12423          	sw	x10,136(x2)
    90a8:	0ab12823          	sw	x11,176(x2)
    90ac:	06d12c23          	sw	x13,120(x2)
    90b0:	1d212623          	sw	x18,460(x2)
    90b4:	00070d13          	addi	x26,x14,0
    90b8:	0000a497          	auipc	x9,0xa
    90bc:	f3848493          	addi	x9,x9,-200 # 12ff0 <__SDATA_BEGIN__+0x38>
    90c0:	0d512423          	sw	x21,200(x2)
    90c4:	0d412823          	sw	x20,208(x2)
    90c8:	0ce12c23          	sw	x14,216(x2)
    90cc:	00060413          	addi	x8,x12,0
    90d0:	0f712423          	sw	x23,232(x2)
    90d4:	000b0d93          	addi	x27,x22,0
    90d8:	00068993          	addi	x19,x13,0
    90dc:	0200006f          	jal	x0,90fc <__gdtoa+0x1948>
    90e0:	0004a603          	lw	x12,0(x9)
    90e4:	0044a683          	lw	x13,4(x9)
    90e8:	1d112623          	sw	x17,460(x2)
    90ec:	00090413          	addi	x8,x18,0
    90f0:	009040ef          	jal	x1,d8f8 <__muldf3>
    90f4:	00050d93          	addi	x27,x10,0
    90f8:	00058993          	addi	x19,x11,0
    90fc:	000d8513          	addi	x10,x27,0
    9100:	00098593          	addi	x11,x19,0
    9104:	7fc050ef          	jal	x1,e900 <__fixdfsi>
    9108:	00050793          	addi	x15,x10,0
    910c:	02050863          	beq	x10,x0,913c <__gdtoa+0x1988>
    9110:	06a12423          	sw	x10,104(x2)
    9114:	071050ef          	jal	x1,e984 <__floatsidf>
    9118:	00050613          	addi	x12,x10,0
    911c:	00058693          	addi	x13,x11,0
    9120:	000d8513          	addi	x10,x27,0
    9124:	00098593          	addi	x11,x19,0
    9128:	6b1040ef          	jal	x1,dfd8 <__subdf3>
    912c:	06812783          	lw	x15,104(x2)
    9130:	00050d93          	addi	x27,x10,0
    9134:	00058993          	addi	x19,x11,0
    9138:	00090413          	addi	x8,x18,0
    913c:	03078793          	addi	x15,x15,48
    9140:	0ff7f793          	andi	x15,x15,255
    9144:	00fd0023          	sb	x15,0(x26)
    9148:	1cc12683          	lw	x13,460(x2)
    914c:	05c12703          	lw	x14,92(x2)
    9150:	001d0d13          	addi	x26,x26,1
    9154:	000d8b13          	addi	x22,x27,0
    9158:	000d8513          	addi	x10,x27,0
    915c:	00098593          	addi	x11,x19,0
    9160:	00168893          	addi	x17,x13,1
    9164:	f6e69ee3          	bne	x13,x14,90e0 <__gdtoa+0x192c>
    9168:	00040613          	addi	x12,x8,0
    916c:	0c812a83          	lw	x21,200(x2)
    9170:	0d012a03          	lw	x20,208(x2)
    9174:	0d812703          	lw	x14,216(x2)
    9178:	0e012403          	lw	x8,224(x2)
    917c:	0e812b83          	lw	x23,232(x2)
    9180:	11812e03          	lw	x28,280(x2)
    9184:	11012d83          	lw	x27,272(x2)
    9188:	10812983          	lw	x19,264(x2)
    918c:	00078c13          	addi	x24,x15,0
    9190:	00060663          	beq	x12,x0,919c <__gdtoa+0x19e8>
    9194:	09612023          	sw	x22,128(x2)
    9198:	06b12c23          	sw	x11,120(x2)
    919c:	08812483          	lw	x9,136(x2)
    91a0:	0b012903          	lw	x18,176(x2)
    91a4:	0000ab17          	auipc	x22,0xa
    91a8:	e6cb0b13          	addi	x22,x22,-404 # 13010 <__SDATA_BEGIN__+0x58>
    91ac:	14912423          	sw	x9,328(x2)
    91b0:	15212623          	sw	x18,332(x2)
    91b4:	000b2603          	lw	x12,0(x22)
    91b8:	004b2683          	lw	x13,4(x22)
    91bc:	14812503          	lw	x10,328(x2)
    91c0:	14c12583          	lw	x11,332(x2)
    91c4:	04e12e23          	sw	x14,92(x2)
    91c8:	07c12423          	sw	x28,104(x2)
    91cc:	40c030ef          	jal	x1,c5d8 <__adddf3>
    91d0:	07812783          	lw	x15,120(x2)
    91d4:	08012c83          	lw	x25,128(x2)
    91d8:	14f12a23          	sw	x15,340(x2)
    91dc:	15912823          	sw	x25,336(x2)
    91e0:	15012603          	lw	x12,336(x2)
    91e4:	15412683          	lw	x13,340(x2)
    91e8:	608040ef          	jal	x1,d7f0 <__ledf2>
    91ec:	05c12703          	lw	x14,92(x2)
    91f0:	1e054263          	blt	x10,x0,93d4 <__gdtoa+0x1c20>
    91f4:	14912c23          	sw	x9,344(x2)
    91f8:	15212e23          	sw	x18,348(x2)
    91fc:	15812603          	lw	x12,344(x2)
    9200:	15c12683          	lw	x13,348(x2)
    9204:	000b2503          	lw	x10,0(x22)
    9208:	004b2583          	lw	x11,4(x22)
    920c:	5cd040ef          	jal	x1,dfd8 <__subdf3>
    9210:	07812783          	lw	x15,120(x2)
    9214:	17912023          	sw	x25,352(x2)
    9218:	16012603          	lw	x12,352(x2)
    921c:	16f12223          	sw	x15,356(x2)
    9220:	16412683          	lw	x13,356(x2)
    9224:	4cc040ef          	jal	x1,d6f0 <__gedf2>
    9228:	05c12703          	lw	x14,92(x2)
    922c:	06812e03          	lw	x28,104(x2)
    9230:	26a04c63          	blt	x0,x10,94a8 <__gdtoa+0x1cf4>
    9234:	0a012783          	lw	x15,160(x2)
    9238:	0a412b03          	lw	x22,164(x2)
    923c:	06f12423          	sw	x15,104(x2)
    9240:	04812783          	lw	x15,72(x2)
    9244:	c207dce3          	bge	x15,x0,8e7c <__gdtoa+0x16c8>
    9248:	04c12903          	lw	x18,76(x2)
    924c:	04012d03          	lw	x26,64(x2)
    9250:	00000c13          	addi	x24,x0,0
    9254:	00000b13          	addi	x22,x0,0
    9258:	a2dfe06f          	jal	x0,7c84 <__gdtoa+0x4d0>
    925c:	000d8e93          	addi	x29,x27,0
    9260:	01812a23          	sw	x24,20(x2)
    9264:	000b0b93          	addi	x23,x22,0
    9268:	02012c03          	lw	x24,32(x2)
    926c:	02412703          	lw	x14,36(x2)
    9270:	02812d83          	lw	x27,40(x2)
    9274:	000a0813          	addi	x16,x20,0
    9278:	000e8b13          	addi	x22,x29,0
    927c:	f14ff06f          	jal	x0,8990 <__gdtoa+0x11dc>
    9280:	fffd4c03          	lbu	x24,-1(x26)
    9284:	a58ff06f          	jal	x0,84dc <__gdtoa+0xd28>
    9288:	ae090ee3          	beq	x18,x0,8d84 <__gdtoa+0x15d0>
    928c:	07012d03          	lw	x26,112(x2)
    9290:	bda054e3          	bge	x0,x26,8e58 <__gdtoa+0x16a4>
    9294:	11612623          	sw	x22,268(x2)
    9298:	0000a697          	auipc	x13,0xa
    929c:	d5868693          	addi	x13,x13,-680 # 12ff0 <__SDATA_BEGIN__+0x38>
    92a0:	10912423          	sw	x9,264(x2)
    92a4:	0006a603          	lw	x12,0(x13)
    92a8:	10812503          	lw	x10,264(x2)
    92ac:	0046a683          	lw	x13,4(x13)
    92b0:	10c12583          	lw	x11,268(x2)
    92b4:	0ce12823          	sw	x14,208(x2)
    92b8:	640040ef          	jal	x1,d8f8 <__muldf3>
    92bc:	0000a697          	auipc	x13,0xa
    92c0:	d3c68693          	addi	x13,x13,-708 # 12ff8 <__SDATA_BEGIN__+0x40>
    92c4:	0006a603          	lw	x12,0(x13)
    92c8:	0046a683          	lw	x13,4(x13)
    92cc:	00058b13          	addi	x22,x11,0
    92d0:	06a12423          	sw	x10,104(x2)
    92d4:	0ca12423          	sw	x10,200(x2)
    92d8:	0ab12823          	sw	x11,176(x2)
    92dc:	61c040ef          	jal	x1,d8f8 <__muldf3>
    92e0:	0000a697          	auipc	x13,0xa
    92e4:	d2068693          	addi	x13,x13,-736 # 13000 <__SDATA_BEGIN__+0x48>
    92e8:	0006a603          	lw	x12,0(x13)
    92ec:	0046a683          	lw	x13,4(x13)
    92f0:	2e8030ef          	jal	x1,c5d8 <__adddf3>
    92f4:	fcc006b7          	lui	x13,0xfcc00
    92f8:	fff00793          	addi	x15,x0,-1
    92fc:	0c812e83          	lw	x29,200(x2)
    9300:	0d012703          	lw	x14,208(x2)
    9304:	00050913          	addi	x18,x10,0
    9308:	00b68c33          	add	x24,x13,x11
    930c:	05a12e23          	sw	x26,92(x2)
    9310:	0af12423          	sw	x15,168(x2)
    9314:	000b0f13          	addi	x30,x22,0
    9318:	f7dfe06f          	jal	x0,8294 <__gdtoa+0xae0>
    931c:	00200c93          	addi	x25,x0,2
    9320:	00000593          	addi	x11,x0,0
    9324:	00000b13          	addi	x22,x0,0
    9328:	f34ff06f          	jal	x0,8a5c <__gdtoa+0x12a8>
    932c:	01812a23          	sw	x24,20(x2)
    9330:	03900693          	addi	x13,x0,57
    9334:	000d8e93          	addi	x29,x27,0
    9338:	02412703          	lw	x14,36(x2)
    933c:	02812d83          	lw	x27,40(x2)
    9340:	92da00e3          	beq	x20,x13,8c60 <__gdtoa+0x14ac>
    9344:	001a0813          	addi	x16,x20,1
    9348:	000b0b93          	addi	x23,x22,0
    934c:	010a8023          	sb	x16,0(x21)
    9350:	001a8d13          	addi	x26,x21,1
    9354:	000e8b13          	addi	x22,x29,0
    9358:	02000a13          	addi	x20,x0,32
    935c:	cf8ff06f          	jal	x0,8854 <__gdtoa+0x10a0>
    9360:	00068793          	addi	x15,x13,0 # fcc00000 <__heap_end+0xfc800000>
    9364:	1cd12623          	sw	x13,460(x2)
    9368:	03012683          	lw	x13,48(x2)
    936c:	00f686b3          	add	x13,x13,x15
    9370:	02d12823          	sw	x13,48(x2)
    9374:	04012683          	lw	x13,64(x2)
    9378:	00f687b3          	add	x15,x13,x15
    937c:	00068d13          	addi	x26,x13,0
    9380:	04f12023          	sw	x15,64(x2)
    9384:	8e5fe06f          	jal	x0,7c68 <__gdtoa+0x4b4>
    9388:	000b0593          	addi	x11,x22,0
    938c:	00000693          	addi	x13,x0,0
    9390:	00a00613          	addi	x12,x0,10
    9394:	00040513          	addi	x10,x8,0
    9398:	30c010ef          	jal	x1,a6a4 <__multadd>
    939c:	00050b13          	addi	x22,x10,0
    93a0:	00051463          	bne	x10,x0,93a8 <__gdtoa+0x1bf4>
    93a4:	c79fe06f          	jal	x0,801c <__gdtoa+0x868>
    93a8:	07012783          	lw	x15,112(x2)
    93ac:	02012703          	lw	x14,32(x2)
    93b0:	00f05663          	bge	x0,x15,93bc <__gdtoa+0x1c08>
    93b4:	02f12c23          	sw	x15,56(x2)
    93b8:	9b9fe06f          	jal	x0,7d70 <__gdtoa+0x5bc>
    93bc:	01812683          	lw	x13,24(x2)
    93c0:	00200793          	addi	x15,x0,2
    93c4:	16d7ca63          	blt	x15,x13,9538 <__gdtoa+0x1d84>
    93c8:	07012783          	lw	x15,112(x2)
    93cc:	02f12c23          	sw	x15,56(x2)
    93d0:	9a1fe06f          	jal	x0,7d70 <__gdtoa+0x5bc>
    93d4:	0a812783          	lw	x15,168(x2)
    93d8:	00178493          	addi	x9,x15,1
    93dc:	900ff06f          	jal	x0,84dc <__gdtoa+0xd28>
    93e0:	0b012703          	lw	x14,176(x2)
    93e4:	0c812403          	lw	x8,200(x2)
    93e8:	0d012d83          	lw	x27,208(x2)
    93ec:	000b8913          	addi	x18,x23,0
    93f0:	07912423          	sw	x25,104(x2)
    93f4:	06812783          	lw	x15,104(x2)
    93f8:	13212c23          	sw	x18,312(x2)
    93fc:	13812503          	lw	x10,312(x2)
    9400:	12f12e23          	sw	x15,316(x2)
    9404:	13c12583          	lw	x11,316(x2)
    9408:	00000613          	addi	x12,x0,0
    940c:	00000693          	addi	x13,x0,0
    9410:	00e12c23          	sw	x14,24(x2)
    9414:	250040ef          	jal	x1,d664 <__eqdf2>
    9418:	0a812783          	lw	x15,168(x2)
    941c:	00a03a33          	sltu	x20,x0,x10
    9420:	01812703          	lw	x14,24(x2)
    9424:	00178c93          	addi	x25,x15,1
    9428:	004a1a13          	slli	x20,x20,0x4
    942c:	b04ff06f          	jal	x0,8730 <__gdtoa+0xf7c>
    9430:	03812683          	lw	x13,56(x2)
    9434:	04c12603          	lw	x12,76(x2)
    9438:	fff68793          	addi	x15,x13,-1
    943c:	f6f64063          	blt	x12,x15,8b9c <__gdtoa+0x13e8>
    9440:	03012583          	lw	x11,48(x2)
    9444:	40f60933          	sub	x18,x12,x15
    9448:	04012783          	lw	x15,64(x2)
    944c:	00d585b3          	add	x11,x11,x13
    9450:	02b12823          	sw	x11,48(x2)
    9454:	00078d13          	addi	x26,x15,0
    9458:	00d787b3          	add	x15,x15,x13
    945c:	1cd12623          	sw	x13,460(x2)
    9460:	04f12023          	sw	x15,64(x2)
    9464:	805fe06f          	jal	x0,7c68 <__gdtoa+0x4b4>
    9468:	0a012783          	lw	x15,160(x2)
    946c:	0d812c83          	lw	x25,216(x2)
    9470:	0e012a83          	lw	x21,224(x2)
    9474:	06f12423          	sw	x15,104(x2)
    9478:	04812783          	lw	x15,72(x2)
    947c:	0e812a03          	lw	x20,232(x2)
    9480:	0b012703          	lw	x14,176(x2)
    9484:	0c812403          	lw	x8,200(x2)
    9488:	10812b83          	lw	x23,264(x2)
    948c:	11012983          	lw	x19,272(x2)
    9490:	0d012d83          	lw	x27,208(x2)
    9494:	11812e03          	lw	x28,280(x2)
    9498:	0a412b03          	lw	x22,164(x2)
    949c:	00000c13          	addi	x24,x0,0
    94a0:	9c07dee3          	bge	x15,x0,8e7c <__gdtoa+0x16c8>
    94a4:	f50fe06f          	jal	x0,7bf4 <__gdtoa+0x440>
    94a8:	07812783          	lw	x15,120(x2)
    94ac:	17912423          	sw	x25,360(x2)
    94b0:	16812503          	lw	x10,360(x2)
    94b4:	16f12623          	sw	x15,364(x2)
    94b8:	16c12583          	lw	x11,364(x2)
    94bc:	00000613          	addi	x12,x0,0
    94c0:	00000693          	addi	x13,x0,0
    94c4:	00e12c23          	sw	x14,24(x2)
    94c8:	19c040ef          	jal	x1,d664 <__eqdf2>
    94cc:	0a812703          	lw	x14,168(x2)
    94d0:	00a03a33          	sltu	x20,x0,x10
    94d4:	000d0793          	addi	x15,x26,0
    94d8:	00170493          	addi	x9,x14,1
    94dc:	004a1a13          	slli	x20,x20,0x4
    94e0:	01812703          	lw	x14,24(x2)
    94e4:	ac5ff06f          	jal	x0,8fa8 <__gdtoa+0x17f4>
    94e8:	01812a23          	sw	x24,20(x2)
    94ec:	03900693          	addi	x13,x0,57
    94f0:	000d8e93          	addi	x29,x27,0
    94f4:	02412703          	lw	x14,36(x2)
    94f8:	02812d83          	lw	x27,40(x2)
    94fc:	000a0813          	addi	x16,x20,0
    9500:	f6da0063          	beq	x20,x13,8c60 <__gdtoa+0x14ac>
    9504:	0b705a63          	bge	x0,x23,95b8 <__gdtoa+0x1e04>
    9508:	031d0813          	addi	x16,x26,49
    950c:	02000a13          	addi	x20,x0,32
    9510:	000b0b93          	addi	x23,x22,0
    9514:	010a8023          	sb	x16,0(x21)
    9518:	001a8d13          	addi	x26,x21,1
    951c:	000e8b13          	addi	x22,x29,0
    9520:	b34ff06f          	jal	x0,8854 <__gdtoa+0x10a0>
    9524:	00051663          	bne	x10,x0,9530 <__gdtoa+0x1d7c>
    9528:	00187693          	andi	x13,x16,1
    952c:	b0069ae3          	bne	x13,x0,9040 <__gdtoa+0x188c>
    9530:	02000c13          	addi	x24,x0,32
    9534:	af8ff06f          	jal	x0,882c <__gdtoa+0x1078>
    9538:	07012783          	lw	x15,112(x2)
    953c:	02f12c23          	sw	x15,56(x2)
    9540:	cccff06f          	jal	x0,8a0c <__gdtoa+0x1258>
    9544:	0147a683          	lw	x13,20(x15)
    9548:	ae069e63          	bne	x13,x0,8844 <__gdtoa+0x1090>
    954c:	000c0a13          	addi	x20,x24,0
    9550:	af4ff06f          	jal	x0,8844 <__gdtoa+0x1090>
    9554:	01212a23          	sw	x18,20(x2)
    9558:	03900693          	addi	x13,x0,57
    955c:	000b8e93          	addi	x29,x23,0
    9560:	000c0713          	addi	x14,x24,0
    9564:	00d48e63          	beq	x9,x13,9580 <__gdtoa+0x1dcc>
    9568:	00148813          	addi	x16,x9,1
    956c:	02000a13          	addi	x20,x0,32
    9570:	ad4ff06f          	jal	x0,8844 <__gdtoa+0x1090>
    9574:	01000a13          	addi	x20,x0,16
    9578:	001a8993          	addi	x19,x21,1
    957c:	ac8ff06f          	jal	x0,8844 <__gdtoa+0x1090>
    9580:	000b0b93          	addi	x23,x22,0
    9584:	000a8693          	addi	x13,x21,0
    9588:	00058b13          	addi	x22,x11,0
    958c:	ee4ff06f          	jal	x0,8c70 <__gdtoa+0x14bc>
    9590:	01412783          	lw	x15,20(x2)
    9594:	00100693          	addi	x13,x0,1
    9598:	0107a603          	lw	x12,16(x15)
    959c:	00c6d463          	bge	x13,x12,95a4 <__gdtoa+0x1df0>
    95a0:	98dfe06f          	jal	x0,7f2c <__gdtoa+0x778>
    95a4:	0147a683          	lw	x13,20(x15)
    95a8:	00068463          	beq	x13,x0,95b0 <__gdtoa+0x1dfc>
    95ac:	981fe06f          	jal	x0,7f2c <__gdtoa+0x778>
    95b0:	001a8993          	addi	x19,x21,1
    95b4:	a90ff06f          	jal	x0,8844 <__gdtoa+0x1090>
    95b8:	01412783          	lw	x15,20(x2)
    95bc:	00100693          	addi	x13,x0,1
    95c0:	01000a13          	addi	x20,x0,16
    95c4:	0107a603          	lw	x12,16(x15)
    95c8:	f4c6c4e3          	blt	x13,x12,9510 <__gdtoa+0x1d5c>
    95cc:	0147aa03          	lw	x20,20(x15)
    95d0:	01403a33          	sltu	x20,x0,x20
    95d4:	004a1a13          	slli	x20,x20,0x4
    95d8:	f39ff06f          	jal	x0,9510 <__gdtoa+0x1d5c>
    95dc:	020bc463          	blt	x23,x0,9604 <__gdtoa+0x1e50>
    95e0:	01812783          	lw	x15,24(x2)
    95e4:	0177ebb3          	or	x23,x15,x23
    95e8:	000b9863          	bne	x23,x0,95f8 <__gdtoa+0x1e44>
    95ec:	0009a783          	lw	x15,0(x19)
    95f0:	0017f793          	andi	x15,x15,1
    95f4:	00078863          	beq	x15,x0,9604 <__gdtoa+0x1e50>
    95f8:	00d04463          	blt	x0,x13,9600 <__gdtoa+0x1e4c>
    95fc:	ff0fe06f          	jal	x0,7dec <__gdtoa+0x638>
    9600:	fe0fe06f          	jal	x0,7de0 <__gdtoa+0x62c>
    9604:	000c0793          	addi	x15,x24,0
    9608:	01812a23          	sw	x24,20(x2)
    960c:	02012c03          	lw	x24,32(x2)
    9610:	000d8e93          	addi	x29,x27,0
    9614:	02412703          	lw	x14,36(x2)
    9618:	02812d83          	lw	x27,40(x2)
    961c:	000a0813          	addi	x16,x20,0
    9620:	020c0863          	beq	x24,x0,9650 <__gdtoa+0x1e9c>
    9624:	0107a583          	lw	x11,16(x15)
    9628:	00100613          	addi	x12,x0,1
    962c:	00b65463          	bge	x12,x11,9634 <__gdtoa+0x1e80>
    9630:	8fdfe06f          	jal	x0,7f2c <__gdtoa+0x778>
    9634:	0147a603          	lw	x12,20(x15)
    9638:	00060463          	beq	x12,x0,9640 <__gdtoa+0x1e8c>
    963c:	8f1fe06f          	jal	x0,7f2c <__gdtoa+0x778>
    9640:	9cd040e3          	blt	x0,x13,9000 <__gdtoa+0x184c>
    9644:	00000a13          	addi	x20,x0,0
    9648:	001a8993          	addi	x19,x21,1
    964c:	9f8ff06f          	jal	x0,8844 <__gdtoa+0x1090>
    9650:	9cd05e63          	bge	x0,x13,882c <__gdtoa+0x1078>
    9654:	9adff06f          	jal	x0,9000 <__gdtoa+0x184c>

00009658 <__call_exitprocs>:
    9658:	fd010113          	addi	x2,x2,-48
    965c:	01412c23          	sw	x20,24(x2)
    9660:	f2c18a13          	addi	x20,x3,-212 # 1303c <__atexit>
    9664:	03212023          	sw	x18,32(x2)
    9668:	000a2903          	lw	x18,0(x20)
    966c:	02112623          	sw	x1,44(x2)
    9670:	06090c63          	beq	x18,x0,96e8 <__call_exitprocs+0x90>
    9674:	01312e23          	sw	x19,28(x2)
    9678:	01512a23          	sw	x21,20(x2)
    967c:	01612823          	sw	x22,16(x2)
    9680:	01712623          	sw	x23,12(x2)
    9684:	02812423          	sw	x8,40(x2)
    9688:	02912223          	sw	x9,36(x2)
    968c:	01812423          	sw	x24,8(x2)
    9690:	00050b13          	addi	x22,x10,0
    9694:	00058b93          	addi	x23,x11,0
    9698:	fff00993          	addi	x19,x0,-1
    969c:	00100a93          	addi	x21,x0,1
    96a0:	00492483          	lw	x9,4(x18)
    96a4:	fff48413          	addi	x8,x9,-1
    96a8:	02044263          	blt	x8,x0,96cc <__call_exitprocs+0x74>
    96ac:	00249493          	slli	x9,x9,0x2
    96b0:	009904b3          	add	x9,x18,x9
    96b4:	040b8463          	beq	x23,x0,96fc <__call_exitprocs+0xa4>
    96b8:	1044a783          	lw	x15,260(x9)
    96bc:	05778063          	beq	x15,x23,96fc <__call_exitprocs+0xa4>
    96c0:	fff40413          	addi	x8,x8,-1
    96c4:	ffc48493          	addi	x9,x9,-4
    96c8:	ff3418e3          	bne	x8,x19,96b8 <__call_exitprocs+0x60>
    96cc:	02812403          	lw	x8,40(x2)
    96d0:	02412483          	lw	x9,36(x2)
    96d4:	01c12983          	lw	x19,28(x2)
    96d8:	01412a83          	lw	x21,20(x2)
    96dc:	01012b03          	lw	x22,16(x2)
    96e0:	00c12b83          	lw	x23,12(x2)
    96e4:	00812c03          	lw	x24,8(x2)
    96e8:	02c12083          	lw	x1,44(x2)
    96ec:	02012903          	lw	x18,32(x2)
    96f0:	01812a03          	lw	x20,24(x2)
    96f4:	03010113          	addi	x2,x2,48
    96f8:	00008067          	jalr	x0,0(x1)
    96fc:	00492783          	lw	x15,4(x18)
    9700:	0044a683          	lw	x13,4(x9)
    9704:	fff78793          	addi	x15,x15,-1
    9708:	06878a63          	beq	x15,x8,977c <__call_exitprocs+0x124>
    970c:	0004a223          	sw	x0,4(x9)
    9710:	02068663          	beq	x13,x0,973c <__call_exitprocs+0xe4>
    9714:	18892783          	lw	x15,392(x18)
    9718:	008a9733          	sll	x14,x21,x8
    971c:	00492c03          	lw	x24,4(x18)
    9720:	00f777b3          	and	x15,x14,x15
    9724:	02079463          	bne	x15,x0,974c <__call_exitprocs+0xf4>
    9728:	000680e7          	jalr	x1,0(x13)
    972c:	00492703          	lw	x14,4(x18)
    9730:	000a2783          	lw	x15,0(x20)
    9734:	03871e63          	bne	x14,x24,9770 <__call_exitprocs+0x118>
    9738:	03279c63          	bne	x15,x18,9770 <__call_exitprocs+0x118>
    973c:	fff40413          	addi	x8,x8,-1
    9740:	ffc48493          	addi	x9,x9,-4
    9744:	f73418e3          	bne	x8,x19,96b4 <__call_exitprocs+0x5c>
    9748:	f85ff06f          	jal	x0,96cc <__call_exitprocs+0x74>
    974c:	18c92783          	lw	x15,396(x18)
    9750:	0844a583          	lw	x11,132(x9)
    9754:	00f77733          	and	x14,x14,x15
    9758:	02071663          	bne	x14,x0,9784 <__call_exitprocs+0x12c>
    975c:	000b0513          	addi	x10,x22,0
    9760:	000680e7          	jalr	x1,0(x13)
    9764:	00492703          	lw	x14,4(x18)
    9768:	000a2783          	lw	x15,0(x20)
    976c:	fd8706e3          	beq	x14,x24,9738 <__call_exitprocs+0xe0>
    9770:	f4078ee3          	beq	x15,x0,96cc <__call_exitprocs+0x74>
    9774:	00078913          	addi	x18,x15,0
    9778:	f29ff06f          	jal	x0,96a0 <__call_exitprocs+0x48>
    977c:	00892223          	sw	x8,4(x18)
    9780:	f91ff06f          	jal	x0,9710 <__call_exitprocs+0xb8>
    9784:	00058513          	addi	x10,x11,0
    9788:	000680e7          	jalr	x1,0(x13)
    978c:	fa1ff06f          	jal	x0,972c <__call_exitprocs+0xd4>

00009790 <_lseek_r>:
    9790:	ff010113          	addi	x2,x2,-16
    9794:	00058713          	addi	x14,x11,0
    9798:	00812423          	sw	x8,8(x2)
    979c:	00060593          	addi	x11,x12,0
    97a0:	00050413          	addi	x8,x10,0
    97a4:	00068613          	addi	x12,x13,0
    97a8:	00070513          	addi	x10,x14,0
    97ac:	f001ac23          	sw	x0,-232(x3) # 13028 <errno>
    97b0:	00112623          	sw	x1,12(x2)
    97b4:	bdbf60ef          	jal	x1,38e <_lseek>
    97b8:	fff00793          	addi	x15,x0,-1
    97bc:	00f50a63          	beq	x10,x15,97d0 <_lseek_r+0x40>
    97c0:	00c12083          	lw	x1,12(x2)
    97c4:	00812403          	lw	x8,8(x2)
    97c8:	01010113          	addi	x2,x2,16
    97cc:	00008067          	jalr	x0,0(x1)
    97d0:	00912223          	sw	x9,4(x2)
    97d4:	f1818493          	addi	x9,x3,-232 # 13028 <errno>
    97d8:	0004a783          	lw	x15,0(x9)
    97dc:	00078e63          	beq	x15,x0,97f8 <_lseek_r+0x68>
    97e0:	00c12083          	lw	x1,12(x2)
    97e4:	00f42023          	sw	x15,0(x8)
    97e8:	00812403          	lw	x8,8(x2)
    97ec:	00412483          	lw	x9,4(x2)
    97f0:	01010113          	addi	x2,x2,16
    97f4:	00008067          	jalr	x0,0(x1)
    97f8:	00c12083          	lw	x1,12(x2)
    97fc:	00812403          	lw	x8,8(x2)
    9800:	00412483          	lw	x9,4(x2)
    9804:	01010113          	addi	x2,x2,16
    9808:	00008067          	jalr	x0,0(x1)

0000980c <_write_r>:
    980c:	ff010113          	addi	x2,x2,-16
    9810:	00058713          	addi	x14,x11,0
    9814:	00812423          	sw	x8,8(x2)
    9818:	00060593          	addi	x11,x12,0
    981c:	00050413          	addi	x8,x10,0
    9820:	00068613          	addi	x12,x13,0
    9824:	00070513          	addi	x10,x14,0
    9828:	f001ac23          	sw	x0,-232(x3) # 13028 <errno>
    982c:	00112623          	sw	x1,12(x2)
    9830:	bb3f60ef          	jal	x1,3e2 <_write>
    9834:	fff00793          	addi	x15,x0,-1
    9838:	00f50a63          	beq	x10,x15,984c <_write_r+0x40>
    983c:	00c12083          	lw	x1,12(x2)
    9840:	00812403          	lw	x8,8(x2)
    9844:	01010113          	addi	x2,x2,16
    9848:	00008067          	jalr	x0,0(x1)
    984c:	00912223          	sw	x9,4(x2)
    9850:	f1818493          	addi	x9,x3,-232 # 13028 <errno>
    9854:	0004a783          	lw	x15,0(x9)
    9858:	00078e63          	beq	x15,x0,9874 <_write_r+0x68>
    985c:	00c12083          	lw	x1,12(x2)
    9860:	00f42023          	sw	x15,0(x8)
    9864:	00812403          	lw	x8,8(x2)
    9868:	00412483          	lw	x9,4(x2)
    986c:	01010113          	addi	x2,x2,16
    9870:	00008067          	jalr	x0,0(x1)
    9874:	00c12083          	lw	x1,12(x2)
    9878:	00812403          	lw	x8,8(x2)
    987c:	00412483          	lw	x9,4(x2)
    9880:	01010113          	addi	x2,x2,16
    9884:	00008067          	jalr	x0,0(x1)

00009888 <__register_exitproc>:
    9888:	f2c18713          	addi	x14,x3,-212 # 1303c <__atexit>
    988c:	00072783          	lw	x15,0(x14)
    9890:	04078c63          	beq	x15,x0,98e8 <__register_exitproc+0x60>
    9894:	0047a703          	lw	x14,4(x15)
    9898:	01f00813          	addi	x16,x0,31
    989c:	06e84e63          	blt	x16,x14,9918 <__register_exitproc+0x90>
    98a0:	00271813          	slli	x16,x14,0x2
    98a4:	02050663          	beq	x10,x0,98d0 <__register_exitproc+0x48>
    98a8:	01078333          	add	x6,x15,x16
    98ac:	08c32423          	sw	x12,136(x6)
    98b0:	1887a883          	lw	x17,392(x15)
    98b4:	00100613          	addi	x12,x0,1
    98b8:	00e61633          	sll	x12,x12,x14
    98bc:	00c8e8b3          	or	x17,x17,x12
    98c0:	1917a423          	sw	x17,392(x15)
    98c4:	10d32423          	sw	x13,264(x6)
    98c8:	00200693          	addi	x13,x0,2
    98cc:	02d50463          	beq	x10,x13,98f4 <__register_exitproc+0x6c>
    98d0:	00170713          	addi	x14,x14,1
    98d4:	00e7a223          	sw	x14,4(x15)
    98d8:	010787b3          	add	x15,x15,x16
    98dc:	00b7a423          	sw	x11,8(x15)
    98e0:	00000513          	addi	x10,x0,0
    98e4:	00008067          	jalr	x0,0(x1)
    98e8:	09418793          	addi	x15,x3,148 # 131a4 <__atexit0>
    98ec:	00f72023          	sw	x15,0(x14)
    98f0:	fa5ff06f          	jal	x0,9894 <__register_exitproc+0xc>
    98f4:	18c7a683          	lw	x13,396(x15)
    98f8:	00170713          	addi	x14,x14,1
    98fc:	00e7a223          	sw	x14,4(x15)
    9900:	00c6e6b3          	or	x13,x13,x12
    9904:	18d7a623          	sw	x13,396(x15)
    9908:	010787b3          	add	x15,x15,x16
    990c:	00b7a423          	sw	x11,8(x15)
    9910:	00000513          	addi	x10,x0,0
    9914:	00008067          	jalr	x0,0(x1)
    9918:	fff00513          	addi	x10,x0,-1
    991c:	00008067          	jalr	x0,0(x1)

00009920 <_close_r>:
    9920:	ff010113          	addi	x2,x2,-16
    9924:	00812423          	sw	x8,8(x2)
    9928:	00050413          	addi	x8,x10,0
    992c:	00058513          	addi	x10,x11,0
    9930:	f001ac23          	sw	x0,-232(x3) # 13028 <errno>
    9934:	00112623          	sw	x1,12(x2)
    9938:	9cff60ef          	jal	x1,306 <_close>
    993c:	fff00793          	addi	x15,x0,-1
    9940:	00f50a63          	beq	x10,x15,9954 <_close_r+0x34>
    9944:	00c12083          	lw	x1,12(x2)
    9948:	00812403          	lw	x8,8(x2)
    994c:	01010113          	addi	x2,x2,16
    9950:	00008067          	jalr	x0,0(x1)
    9954:	00912223          	sw	x9,4(x2)
    9958:	f1818493          	addi	x9,x3,-232 # 13028 <errno>
    995c:	0004a783          	lw	x15,0(x9)
    9960:	00078e63          	beq	x15,x0,997c <_close_r+0x5c>
    9964:	00c12083          	lw	x1,12(x2)
    9968:	00f42023          	sw	x15,0(x8)
    996c:	00812403          	lw	x8,8(x2)
    9970:	00412483          	lw	x9,4(x2)
    9974:	01010113          	addi	x2,x2,16
    9978:	00008067          	jalr	x0,0(x1)
    997c:	00c12083          	lw	x1,12(x2)
    9980:	00812403          	lw	x8,8(x2)
    9984:	00412483          	lw	x9,4(x2)
    9988:	01010113          	addi	x2,x2,16
    998c:	00008067          	jalr	x0,0(x1)

00009990 <__swbuf_r>:
    9990:	fe010113          	addi	x2,x2,-32
    9994:	00812c23          	sw	x8,24(x2)
    9998:	00912a23          	sw	x9,20(x2)
    999c:	01212823          	sw	x18,16(x2)
    99a0:	00112e23          	sw	x1,28(x2)
    99a4:	00050913          	addi	x18,x10,0
    99a8:	00058493          	addi	x9,x11,0
    99ac:	00060413          	addi	x8,x12,0
    99b0:	00050663          	beq	x10,x0,99bc <__swbuf_r+0x2c>
    99b4:	03452783          	lw	x15,52(x10)
    99b8:	16078263          	beq	x15,x0,9b1c <__swbuf_r+0x18c>
    99bc:	01842783          	lw	x15,24(x8)
    99c0:	00c41703          	lh	x14,12(x8)
    99c4:	00f42423          	sw	x15,8(x8)
    99c8:	00877793          	andi	x15,x14,8
    99cc:	08078263          	beq	x15,x0,9a50 <__swbuf_r+0xc0>
    99d0:	01042783          	lw	x15,16(x8)
    99d4:	06078e63          	beq	x15,x0,9a50 <__swbuf_r+0xc0>
    99d8:	01312623          	sw	x19,12(x2)
    99dc:	01271693          	slli	x13,x14,0x12
    99e0:	0ff4f993          	andi	x19,x9,255
    99e4:	000025b7          	lui	x11,0x2
    99e8:	0ff4f493          	andi	x9,x9,255
    99ec:	0806da63          	bge	x13,x0,9a80 <__swbuf_r+0xf0>
    99f0:	00042703          	lw	x14,0(x8)
    99f4:	01442683          	lw	x13,20(x8)
    99f8:	40f707b3          	sub	x15,x14,x15
    99fc:	0ad7d863          	bge	x15,x13,9aac <__swbuf_r+0x11c>
    9a00:	00842683          	lw	x13,8(x8)
    9a04:	00170613          	addi	x12,x14,1
    9a08:	00c42023          	sw	x12,0(x8)
    9a0c:	fff68693          	addi	x13,x13,-1
    9a10:	00d42423          	sw	x13,8(x8)
    9a14:	01370023          	sb	x19,0(x14)
    9a18:	01442703          	lw	x14,20(x8)
    9a1c:	00178793          	addi	x15,x15,1
    9a20:	0cf70263          	beq	x14,x15,9ae4 <__swbuf_r+0x154>
    9a24:	00c45783          	lhu	x15,12(x8)
    9a28:	0017f793          	andi	x15,x15,1
    9a2c:	0c079a63          	bne	x15,x0,9b00 <__swbuf_r+0x170>
    9a30:	00c12983          	lw	x19,12(x2)
    9a34:	01c12083          	lw	x1,28(x2)
    9a38:	01812403          	lw	x8,24(x2)
    9a3c:	01012903          	lw	x18,16(x2)
    9a40:	00048513          	addi	x10,x9,0
    9a44:	01412483          	lw	x9,20(x2)
    9a48:	02010113          	addi	x2,x2,32
    9a4c:	00008067          	jalr	x0,0(x1)
    9a50:	00040593          	addi	x11,x8,0
    9a54:	00090513          	addi	x10,x18,0
    9a58:	980f90ef          	jal	x1,2bd8 <__swsetup_r>
    9a5c:	08051e63          	bne	x10,x0,9af8 <__swbuf_r+0x168>
    9a60:	00c41703          	lh	x14,12(x8)
    9a64:	01312623          	sw	x19,12(x2)
    9a68:	01042783          	lw	x15,16(x8)
    9a6c:	01271693          	slli	x13,x14,0x12
    9a70:	0ff4f993          	andi	x19,x9,255
    9a74:	000025b7          	lui	x11,0x2
    9a78:	0ff4f493          	andi	x9,x9,255
    9a7c:	f606cae3          	blt	x13,x0,99f0 <__swbuf_r+0x60>
    9a80:	06442683          	lw	x13,100(x8)
    9a84:	ffffe637          	lui	x12,0xffffe
    9a88:	00b76733          	or	x14,x14,x11
    9a8c:	fff60613          	addi	x12,x12,-1 # ffffdfff <__heap_end+0xffbfdfff>
    9a90:	00c6f6b3          	and	x13,x13,x12
    9a94:	00e41623          	sh	x14,12(x8)
    9a98:	00042703          	lw	x14,0(x8)
    9a9c:	06d42223          	sw	x13,100(x8)
    9aa0:	01442683          	lw	x13,20(x8)
    9aa4:	40f707b3          	sub	x15,x14,x15
    9aa8:	f4d7cce3          	blt	x15,x13,9a00 <__swbuf_r+0x70>
    9aac:	00040593          	addi	x11,x8,0
    9ab0:	00090513          	addi	x10,x18,0
    9ab4:	f69f80ef          	jal	x1,2a1c <_fflush_r>
    9ab8:	02051e63          	bne	x10,x0,9af4 <__swbuf_r+0x164>
    9abc:	00042703          	lw	x14,0(x8)
    9ac0:	00842683          	lw	x13,8(x8)
    9ac4:	00100793          	addi	x15,x0,1
    9ac8:	00170613          	addi	x12,x14,1
    9acc:	fff68693          	addi	x13,x13,-1
    9ad0:	00c42023          	sw	x12,0(x8)
    9ad4:	00d42423          	sw	x13,8(x8)
    9ad8:	01370023          	sb	x19,0(x14)
    9adc:	01442703          	lw	x14,20(x8)
    9ae0:	f4f712e3          	bne	x14,x15,9a24 <__swbuf_r+0x94>
    9ae4:	00040593          	addi	x11,x8,0
    9ae8:	00090513          	addi	x10,x18,0
    9aec:	f31f80ef          	jal	x1,2a1c <_fflush_r>
    9af0:	f40500e3          	beq	x10,x0,9a30 <__swbuf_r+0xa0>
    9af4:	00c12983          	lw	x19,12(x2)
    9af8:	fff00493          	addi	x9,x0,-1
    9afc:	f39ff06f          	jal	x0,9a34 <__swbuf_r+0xa4>
    9b00:	00a00793          	addi	x15,x0,10
    9b04:	f2f496e3          	bne	x9,x15,9a30 <__swbuf_r+0xa0>
    9b08:	00040593          	addi	x11,x8,0
    9b0c:	00090513          	addi	x10,x18,0
    9b10:	f0df80ef          	jal	x1,2a1c <_fflush_r>
    9b14:	f0050ee3          	beq	x10,x0,9a30 <__swbuf_r+0xa0>
    9b18:	fddff06f          	jal	x0,9af4 <__swbuf_r+0x164>
    9b1c:	808f70ef          	jal	x1,b24 <__sinit>
    9b20:	e9dff06f          	jal	x0,99bc <__swbuf_r+0x2c>

00009b24 <__swbuf>:
    9b24:	00058613          	addi	x12,x11,0 # 2000 <memchr+0x94>
    9b28:	00050593          	addi	x11,x10,0
    9b2c:	f141a503          	lw	x10,-236(x3) # 13024 <_impure_ptr>
    9b30:	e61ff06f          	jal	x0,9990 <__swbuf_r>

00009b34 <strncpy>:
    9b34:	00a5e7b3          	or	x15,x11,x10
    9b38:	0037f793          	andi	x15,x15,3
    9b3c:	00079663          	bne	x15,x0,9b48 <strncpy+0x14>
    9b40:	00300893          	addi	x17,x0,3
    9b44:	04c8e663          	bltu	x17,x12,9b90 <strncpy+0x5c>
    9b48:	00050713          	addi	x14,x10,0
    9b4c:	01c0006f          	jal	x0,9b68 <strncpy+0x34>
    9b50:	fff5c683          	lbu	x13,-1(x11)
    9b54:	fff60813          	addi	x16,x12,-1
    9b58:	fed78fa3          	sb	x13,-1(x15)
    9b5c:	00068e63          	beq	x13,x0,9b78 <strncpy+0x44>
    9b60:	00078713          	addi	x14,x15,0
    9b64:	00080613          	addi	x12,x16,0
    9b68:	00158593          	addi	x11,x11,1
    9b6c:	00170793          	addi	x15,x14,1
    9b70:	fe0610e3          	bne	x12,x0,9b50 <strncpy+0x1c>
    9b74:	00008067          	jalr	x0,0(x1)
    9b78:	00c70733          	add	x14,x14,x12
    9b7c:	04080c63          	beq	x16,x0,9bd4 <strncpy+0xa0>
    9b80:	00178793          	addi	x15,x15,1
    9b84:	fe078fa3          	sb	x0,-1(x15)
    9b88:	fee79ce3          	bne	x15,x14,9b80 <strncpy+0x4c>
    9b8c:	00008067          	jalr	x0,0(x1)
    9b90:	feff0e37          	lui	x28,0xfeff0
    9b94:	80808337          	lui	x6,0x80808
    9b98:	effe0e13          	addi	x28,x28,-257 # fefefeff <__heap_end+0xfebefeff>
    9b9c:	08030313          	addi	x6,x6,128 # 80808080 <__heap_end+0x80408080>
    9ba0:	00050713          	addi	x14,x10,0
    9ba4:	0005a683          	lw	x13,0(x11)
    9ba8:	01c687b3          	add	x15,x13,x28
    9bac:	fff6c813          	xori	x16,x13,-1
    9bb0:	0107f7b3          	and	x15,x15,x16
    9bb4:	0067f7b3          	and	x15,x15,x6
    9bb8:	fa0798e3          	bne	x15,x0,9b68 <strncpy+0x34>
    9bbc:	ffc60613          	addi	x12,x12,-4
    9bc0:	00d72023          	sw	x13,0(x14)
    9bc4:	00470713          	addi	x14,x14,4
    9bc8:	00458593          	addi	x11,x11,4
    9bcc:	fcc8ece3          	bltu	x17,x12,9ba4 <strncpy+0x70>
    9bd0:	f99ff06f          	jal	x0,9b68 <strncpy+0x34>
    9bd4:	00008067          	jalr	x0,0(x1)

00009bd8 <_read_r>:
    9bd8:	ff010113          	addi	x2,x2,-16
    9bdc:	00058713          	addi	x14,x11,0
    9be0:	00812423          	sw	x8,8(x2)
    9be4:	00060593          	addi	x11,x12,0
    9be8:	00050413          	addi	x8,x10,0
    9bec:	00068613          	addi	x12,x13,0
    9bf0:	00070513          	addi	x10,x14,0
    9bf4:	f001ac23          	sw	x0,-232(x3) # 13028 <errno>
    9bf8:	00112623          	sw	x1,12(x2)
    9bfc:	fb2f60ef          	jal	x1,3ae <_read>
    9c00:	fff00793          	addi	x15,x0,-1
    9c04:	00f50a63          	beq	x10,x15,9c18 <_read_r+0x40>
    9c08:	00c12083          	lw	x1,12(x2)
    9c0c:	00812403          	lw	x8,8(x2)
    9c10:	01010113          	addi	x2,x2,16
    9c14:	00008067          	jalr	x0,0(x1)
    9c18:	00912223          	sw	x9,4(x2)
    9c1c:	f1818493          	addi	x9,x3,-232 # 13028 <errno>
    9c20:	0004a783          	lw	x15,0(x9)
    9c24:	00078e63          	beq	x15,x0,9c40 <_read_r+0x68>
    9c28:	00c12083          	lw	x1,12(x2)
    9c2c:	00f42023          	sw	x15,0(x8)
    9c30:	00812403          	lw	x8,8(x2)
    9c34:	00412483          	lw	x9,4(x2)
    9c38:	01010113          	addi	x2,x2,16
    9c3c:	00008067          	jalr	x0,0(x1)
    9c40:	00c12083          	lw	x1,12(x2)
    9c44:	00812403          	lw	x8,8(x2)
    9c48:	00412483          	lw	x9,4(x2)
    9c4c:	01010113          	addi	x2,x2,16
    9c50:	00008067          	jalr	x0,0(x1)

00009c54 <__smakebuf_r>:
    9c54:	00c59783          	lh	x15,12(x11)
    9c58:	f9010113          	addi	x2,x2,-112
    9c5c:	06812423          	sw	x8,104(x2)
    9c60:	06112623          	sw	x1,108(x2)
    9c64:	0027f713          	andi	x14,x15,2
    9c68:	00058413          	addi	x8,x11,0
    9c6c:	02070463          	beq	x14,x0,9c94 <__smakebuf_r+0x40>
    9c70:	04358793          	addi	x15,x11,67
    9c74:	00100713          	addi	x14,x0,1
    9c78:	00f5a023          	sw	x15,0(x11)
    9c7c:	00f5a823          	sw	x15,16(x11)
    9c80:	00e5aa23          	sw	x14,20(x11)
    9c84:	06c12083          	lw	x1,108(x2)
    9c88:	06812403          	lw	x8,104(x2)
    9c8c:	07010113          	addi	x2,x2,112
    9c90:	00008067          	jalr	x0,0(x1)
    9c94:	00e59583          	lh	x11,14(x11)
    9c98:	07212023          	sw	x18,96(x2)
    9c9c:	06912223          	sw	x9,100(x2)
    9ca0:	00050913          	addi	x18,x10,0
    9ca4:	0605ce63          	blt	x11,x0,9d20 <__smakebuf_r+0xcc>
    9ca8:	00810613          	addi	x12,x2,8
    9cac:	034020ef          	jal	x1,bce0 <_fstat_r>
    9cb0:	06054663          	blt	x10,x0,9d1c <__smakebuf_r+0xc8>
    9cb4:	40000593          	addi	x11,x0,1024
    9cb8:	00090513          	addi	x10,x18,0
    9cbc:	00c12483          	lw	x9,12(x2)
    9cc0:	cd0f70ef          	jal	x1,1190 <_malloc_r>
    9cc4:	00c41783          	lh	x15,12(x8)
    9cc8:	0a050a63          	beq	x10,x0,9d7c <__smakebuf_r+0x128>
    9ccc:	0000f737          	lui	x14,0xf
    9cd0:	0807e793          	ori	x15,x15,128
    9cd4:	40000693          	addi	x13,x0,1024
    9cd8:	00e4f4b3          	and	x9,x9,x14
    9cdc:	00f41623          	sh	x15,12(x8)
    9ce0:	00a42023          	sw	x10,0(x8)
    9ce4:	00a42823          	sw	x10,16(x8)
    9ce8:	00d42a23          	sw	x13,20(x8)
    9cec:	00002737          	lui	x14,0x2
    9cf0:	0ce49663          	bne	x9,x14,9dbc <__smakebuf_r+0x168>
    9cf4:	00e41583          	lh	x11,14(x8)
    9cf8:	00090513          	addi	x10,x18,0
    9cfc:	475010ef          	jal	x1,b970 <_isatty_r>
    9d00:	00001737          	lui	x14,0x1
    9d04:	00c41783          	lh	x15,12(x8)
    9d08:	80070713          	addi	x14,x14,-2048 # 800 <_puts_r+0xc0>
    9d0c:	04050863          	beq	x10,x0,9d5c <__smakebuf_r+0x108>
    9d10:	ffc7f793          	andi	x15,x15,-4
    9d14:	0017e793          	ori	x15,x15,1
    9d18:	0440006f          	jal	x0,9d5c <__smakebuf_r+0x108>
    9d1c:	00c41783          	lh	x15,12(x8)
    9d20:	0807f493          	andi	x9,x15,128
    9d24:	0014b493          	sltiu	x9,x9,1
    9d28:	409004b3          	sub	x9,x0,x9
    9d2c:	3c04f493          	andi	x9,x9,960
    9d30:	04048493          	addi	x9,x9,64
    9d34:	00090513          	addi	x10,x18,0
    9d38:	00048593          	addi	x11,x9,0
    9d3c:	c54f70ef          	jal	x1,1190 <_malloc_r>
    9d40:	00c41783          	lh	x15,12(x8)
    9d44:	02050c63          	beq	x10,x0,9d7c <__smakebuf_r+0x128>
    9d48:	0807e793          	ori	x15,x15,128
    9d4c:	00a42023          	sw	x10,0(x8)
    9d50:	00a42823          	sw	x10,16(x8)
    9d54:	00942a23          	sw	x9,20(x8)
    9d58:	00000713          	addi	x14,x0,0
    9d5c:	00e7e7b3          	or	x15,x15,x14
    9d60:	06c12083          	lw	x1,108(x2)
    9d64:	00f41623          	sh	x15,12(x8)
    9d68:	06812403          	lw	x8,104(x2)
    9d6c:	06412483          	lw	x9,100(x2)
    9d70:	06012903          	lw	x18,96(x2)
    9d74:	07010113          	addi	x2,x2,112
    9d78:	00008067          	jalr	x0,0(x1)
    9d7c:	2007f713          	andi	x14,x15,512
    9d80:	02071863          	bne	x14,x0,9db0 <__smakebuf_r+0x15c>
    9d84:	ffc7f793          	andi	x15,x15,-4
    9d88:	04340713          	addi	x14,x8,67
    9d8c:	0027e793          	ori	x15,x15,2
    9d90:	00100693          	addi	x13,x0,1
    9d94:	06412483          	lw	x9,100(x2)
    9d98:	06012903          	lw	x18,96(x2)
    9d9c:	00f41623          	sh	x15,12(x8)
    9da0:	00e42023          	sw	x14,0(x8)
    9da4:	00e42823          	sw	x14,16(x8)
    9da8:	00d42a23          	sw	x13,20(x8)
    9dac:	ed9ff06f          	jal	x0,9c84 <__smakebuf_r+0x30>
    9db0:	06412483          	lw	x9,100(x2)
    9db4:	06012903          	lw	x18,96(x2)
    9db8:	ecdff06f          	jal	x0,9c84 <__smakebuf_r+0x30>
    9dbc:	00001737          	lui	x14,0x1
    9dc0:	80070713          	addi	x14,x14,-2048 # 800 <_puts_r+0xc0>
    9dc4:	f99ff06f          	jal	x0,9d5c <__smakebuf_r+0x108>

00009dc8 <__swhatbuf_r>:
    9dc8:	f9010113          	addi	x2,x2,-112
    9dcc:	06812423          	sw	x8,104(x2)
    9dd0:	00058413          	addi	x8,x11,0
    9dd4:	00e59583          	lh	x11,14(x11)
    9dd8:	06912223          	sw	x9,100(x2)
    9ddc:	07212023          	sw	x18,96(x2)
    9de0:	06112623          	sw	x1,108(x2)
    9de4:	00060493          	addi	x9,x12,0
    9de8:	00068913          	addi	x18,x13,0
    9dec:	0405ca63          	blt	x11,x0,9e40 <__swhatbuf_r+0x78>
    9df0:	00810613          	addi	x12,x2,8
    9df4:	6ed010ef          	jal	x1,bce0 <_fstat_r>
    9df8:	04054463          	blt	x10,x0,9e40 <__swhatbuf_r+0x78>
    9dfc:	00c12783          	lw	x15,12(x2)
    9e00:	0000f6b7          	lui	x13,0xf
    9e04:	ffffe737          	lui	x14,0xffffe
    9e08:	00d7f7b3          	and	x15,x15,x13
    9e0c:	00e787b3          	add	x15,x15,x14
    9e10:	06c12083          	lw	x1,108(x2)
    9e14:	06812403          	lw	x8,104(x2)
    9e18:	0017b793          	sltiu	x15,x15,1
    9e1c:	00f92023          	sw	x15,0(x18)
    9e20:	40000713          	addi	x14,x0,1024
    9e24:	00e4a023          	sw	x14,0(x9)
    9e28:	00001537          	lui	x10,0x1
    9e2c:	06412483          	lw	x9,100(x2)
    9e30:	06012903          	lw	x18,96(x2)
    9e34:	80050513          	addi	x10,x10,-2048 # 800 <_puts_r+0xc0>
    9e38:	07010113          	addi	x2,x2,112
    9e3c:	00008067          	jalr	x0,0(x1)
    9e40:	00c45783          	lhu	x15,12(x8)
    9e44:	0807f793          	andi	x15,x15,128
    9e48:	02078863          	beq	x15,x0,9e78 <__swhatbuf_r+0xb0>
    9e4c:	06c12083          	lw	x1,108(x2)
    9e50:	06812403          	lw	x8,104(x2)
    9e54:	00000793          	addi	x15,x0,0
    9e58:	00f92023          	sw	x15,0(x18)
    9e5c:	04000713          	addi	x14,x0,64
    9e60:	00e4a023          	sw	x14,0(x9)
    9e64:	06012903          	lw	x18,96(x2)
    9e68:	06412483          	lw	x9,100(x2)
    9e6c:	00000513          	addi	x10,x0,0
    9e70:	07010113          	addi	x2,x2,112
    9e74:	00008067          	jalr	x0,0(x1)
    9e78:	06c12083          	lw	x1,108(x2)
    9e7c:	06812403          	lw	x8,104(x2)
    9e80:	00f92023          	sw	x15,0(x18)
    9e84:	40000713          	addi	x14,x0,1024
    9e88:	00e4a023          	sw	x14,0(x9)
    9e8c:	06012903          	lw	x18,96(x2)
    9e90:	06412483          	lw	x9,100(x2)
    9e94:	00000513          	addi	x10,x0,0
    9e98:	07010113          	addi	x2,x2,112
    9e9c:	00008067          	jalr	x0,0(x1)

00009ea0 <__rv_alloc_D2A.part.0>:
    9ea0:	ff010113          	addi	x2,x2,-16
    9ea4:	00008697          	auipc	x13,0x8
    9ea8:	08468693          	addi	x13,x13,132 # 11f28 <__clzsi2+0x370>
    9eac:	00000613          	addi	x12,x0,0
    9eb0:	03900593          	addi	x11,x0,57
    9eb4:	00008517          	auipc	x10,0x8
    9eb8:	08850513          	addi	x10,x10,136 # 11f3c <__clzsi2+0x384>
    9ebc:	00112623          	sw	x1,12(x2)
    9ec0:	698000ef          	jal	x1,a558 <__assert_func>

00009ec4 <__rv_alloc_D2A>:
    9ec4:	ff010113          	addi	x2,x2,-16
    9ec8:	00812423          	sw	x8,8(x2)
    9ecc:	00112623          	sw	x1,12(x2)
    9ed0:	01700693          	addi	x13,x0,23
    9ed4:	00050413          	addi	x8,x10,0
    9ed8:	00100713          	addi	x14,x0,1
    9edc:	00400793          	addi	x15,x0,4
    9ee0:	04b6f063          	bgeu	x13,x11,9f20 <__rv_alloc_D2A+0x5c>
    9ee4:	00179793          	slli	x15,x15,0x1
    9ee8:	01478693          	addi	x13,x15,20
    9eec:	00070613          	addi	x12,x14,0 # ffffe000 <__heap_end+0xffbfe000>
    9ef0:	00170713          	addi	x14,x14,1
    9ef4:	fed5f8e3          	bgeu	x11,x13,9ee4 <__rv_alloc_D2A+0x20>
    9ef8:	00060593          	addi	x11,x12,0
    9efc:	02c42e23          	sw	x12,60(x8)
    9f00:	00040513          	addi	x10,x8,0
    9f04:	6cc000ef          	jal	x1,a5d0 <_Balloc>
    9f08:	02050263          	beq	x10,x0,9f2c <__rv_alloc_D2A+0x68>
    9f0c:	00c12083          	lw	x1,12(x2)
    9f10:	02a42c23          	sw	x10,56(x8)
    9f14:	00812403          	lw	x8,8(x2)
    9f18:	01010113          	addi	x2,x2,16
    9f1c:	00008067          	jalr	x0,0(x1)
    9f20:	02052e23          	sw	x0,60(x10)
    9f24:	00000593          	addi	x11,x0,0
    9f28:	fd9ff06f          	jal	x0,9f00 <__rv_alloc_D2A+0x3c>
    9f2c:	f75ff0ef          	jal	x1,9ea0 <__rv_alloc_D2A.part.0>

00009f30 <__nrv_alloc_D2A>:
    9f30:	ff010113          	addi	x2,x2,-16
    9f34:	00812423          	sw	x8,8(x2)
    9f38:	00912223          	sw	x9,4(x2)
    9f3c:	01212023          	sw	x18,0(x2)
    9f40:	00112623          	sw	x1,12(x2)
    9f44:	01700813          	addi	x16,x0,23
    9f48:	00050493          	addi	x9,x10,0
    9f4c:	00058413          	addi	x8,x11,0
    9f50:	00060913          	addi	x18,x12,0
    9f54:	00100713          	addi	x14,x0,1
    9f58:	00400793          	addi	x15,x0,4
    9f5c:	06d87a63          	bgeu	x16,x13,9fd0 <__nrv_alloc_D2A+0xa0>
    9f60:	00179793          	slli	x15,x15,0x1
    9f64:	01478813          	addi	x16,x15,20
    9f68:	00070593          	addi	x11,x14,0
    9f6c:	00170713          	addi	x14,x14,1
    9f70:	ff06f8e3          	bgeu	x13,x16,9f60 <__nrv_alloc_D2A+0x30>
    9f74:	02b4ae23          	sw	x11,60(x9)
    9f78:	00048513          	addi	x10,x9,0
    9f7c:	654000ef          	jal	x1,a5d0 <_Balloc>
    9f80:	06050263          	beq	x10,x0,9fe4 <__nrv_alloc_D2A+0xb4>
    9f84:	02a4ac23          	sw	x10,56(x9)
    9f88:	00044783          	lbu	x15,0(x8)
    9f8c:	00140593          	addi	x11,x8,1
    9f90:	00f50023          	sb	x15,0(x10)
    9f94:	04078463          	beq	x15,x0,9fdc <__nrv_alloc_D2A+0xac>
    9f98:	00050793          	addi	x15,x10,0
    9f9c:	0005c703          	lbu	x14,0(x11)
    9fa0:	00158593          	addi	x11,x11,1
    9fa4:	00178793          	addi	x15,x15,1
    9fa8:	00e78023          	sb	x14,0(x15)
    9fac:	fe0718e3          	bne	x14,x0,9f9c <__nrv_alloc_D2A+0x6c>
    9fb0:	00090463          	beq	x18,x0,9fb8 <__nrv_alloc_D2A+0x88>
    9fb4:	00f92023          	sw	x15,0(x18)
    9fb8:	00c12083          	lw	x1,12(x2)
    9fbc:	00812403          	lw	x8,8(x2)
    9fc0:	00412483          	lw	x9,4(x2)
    9fc4:	00012903          	lw	x18,0(x2)
    9fc8:	01010113          	addi	x2,x2,16
    9fcc:	00008067          	jalr	x0,0(x1)
    9fd0:	02052e23          	sw	x0,60(x10)
    9fd4:	00000593          	addi	x11,x0,0
    9fd8:	fa1ff06f          	jal	x0,9f78 <__nrv_alloc_D2A+0x48>
    9fdc:	00050793          	addi	x15,x10,0
    9fe0:	fd1ff06f          	jal	x0,9fb0 <__nrv_alloc_D2A+0x80>
    9fe4:	ebdff0ef          	jal	x1,9ea0 <__rv_alloc_D2A.part.0>

00009fe8 <__freedtoa>:
    9fe8:	03c52683          	lw	x13,60(x10)
    9fec:	00100713          	addi	x14,x0,1
    9ff0:	00d71733          	sll	x14,x14,x13
    9ff4:	00e5a423          	sw	x14,8(x11)
    9ff8:	00d5a223          	sw	x13,4(x11)
    9ffc:	6840006f          	jal	x0,a680 <_Bfree>

0000a000 <__quorem_D2A>:
    a000:	fe010113          	addi	x2,x2,-32
    a004:	00912a23          	sw	x9,20(x2)
    a008:	01052783          	lw	x15,16(x10)
    a00c:	0105a483          	lw	x9,16(x11)
    a010:	00112e23          	sw	x1,28(x2)
    a014:	1e97c063          	blt	x15,x9,a1f4 <__quorem_D2A+0x1f4>
    a018:	fff48493          	addi	x9,x9,-1
    a01c:	00249893          	slli	x17,x9,0x2
    a020:	00812c23          	sw	x8,24(x2)
    a024:	01458413          	addi	x8,x11,20
    a028:	01312623          	sw	x19,12(x2)
    a02c:	01412423          	sw	x20,8(x2)
    a030:	011409b3          	add	x19,x8,x17
    a034:	01450a13          	addi	x20,x10,20
    a038:	0009a783          	lw	x15,0(x19)
    a03c:	011a08b3          	add	x17,x20,x17
    a040:	0008a703          	lw	x14,0(x17)
    a044:	01212823          	sw	x18,16(x2)
    a048:	01512223          	sw	x21,4(x2)
    a04c:	00178793          	addi	x15,x15,1
    a050:	02f75933          	divu	x18,x14,x15
    a054:	00050a93          	addi	x21,x10,0
    a058:	0cf76463          	bltu	x14,x15,a120 <__quorem_D2A+0x120>
    a05c:	00040813          	addi	x16,x8,0
    a060:	000a0513          	addi	x10,x20,0
    a064:	00000e93          	addi	x29,x0,0
    a068:	00000e13          	addi	x28,x0,0
    a06c:	00082783          	lw	x15,0(x16)
    a070:	00052603          	lw	x12,0(x10)
    a074:	00450513          	addi	x10,x10,4
    a078:	01079693          	slli	x13,x15,0x10
    a07c:	0106d693          	srli	x13,x13,0x10
    a080:	0107d793          	srli	x15,x15,0x10
    a084:	01061713          	slli	x14,x12,0x10
    a088:	01065313          	srli	x6,x12,0x10
    a08c:	01075713          	srli	x14,x14,0x10
    a090:	00480813          	addi	x16,x16,4
    a094:	032686b3          	mul	x13,x13,x18
    a098:	032787b3          	mul	x15,x15,x18
    a09c:	01d686b3          	add	x13,x13,x29
    a0a0:	01069613          	slli	x12,x13,0x10
    a0a4:	01065613          	srli	x12,x12,0x10
    a0a8:	40c70733          	sub	x14,x14,x12
    a0ac:	0106d693          	srli	x13,x13,0x10
    a0b0:	41c70733          	sub	x14,x14,x28
    a0b4:	01075613          	srli	x12,x14,0x10
    a0b8:	00167613          	andi	x12,x12,1
    a0bc:	01071713          	slli	x14,x14,0x10
    a0c0:	00d787b3          	add	x15,x15,x13
    a0c4:	01079693          	slli	x13,x15,0x10
    a0c8:	0106d693          	srli	x13,x13,0x10
    a0cc:	00d60633          	add	x12,x12,x13
    a0d0:	40c306b3          	sub	x13,x6,x12
    a0d4:	01069613          	slli	x12,x13,0x10
    a0d8:	01075713          	srli	x14,x14,0x10
    a0dc:	00e66733          	or	x14,x12,x14
    a0e0:	0106d693          	srli	x13,x13,0x10
    a0e4:	fee52e23          	sw	x14,-4(x10)
    a0e8:	0107de93          	srli	x29,x15,0x10
    a0ec:	0016fe13          	andi	x28,x13,1
    a0f0:	f709fee3          	bgeu	x19,x16,a06c <__quorem_D2A+0x6c>
    a0f4:	0008a783          	lw	x15,0(x17)
    a0f8:	02079463          	bne	x15,x0,a120 <__quorem_D2A+0x120>
    a0fc:	ffc88893          	addi	x17,x17,-4
    a100:	011a6863          	bltu	x20,x17,a110 <__quorem_D2A+0x110>
    a104:	0180006f          	jal	x0,a11c <__quorem_D2A+0x11c>
    a108:	fff48493          	addi	x9,x9,-1
    a10c:	011a7863          	bgeu	x20,x17,a11c <__quorem_D2A+0x11c>
    a110:	0008a783          	lw	x15,0(x17)
    a114:	ffc88893          	addi	x17,x17,-4
    a118:	fe0788e3          	beq	x15,x0,a108 <__quorem_D2A+0x108>
    a11c:	009aa823          	sw	x9,16(x21)
    a120:	000a8513          	addi	x10,x21,0
    a124:	719000ef          	jal	x1,b03c <__mcmp>
    a128:	0a054263          	blt	x10,x0,a1cc <__quorem_D2A+0x1cc>
    a12c:	000a0593          	addi	x11,x20,0
    a130:	00000693          	addi	x13,x0,0
    a134:	0005a783          	lw	x15,0(x11)
    a138:	00042603          	lw	x12,0(x8)
    a13c:	00458593          	addi	x11,x11,4
    a140:	01079713          	slli	x14,x15,0x10
    a144:	01061513          	slli	x10,x12,0x10
    a148:	01055513          	srli	x10,x10,0x10
    a14c:	01075713          	srli	x14,x14,0x10
    a150:	40a70733          	sub	x14,x14,x10
    a154:	40d70733          	sub	x14,x14,x13
    a158:	01075693          	srli	x13,x14,0x10
    a15c:	01065613          	srli	x12,x12,0x10
    a160:	0016f693          	andi	x13,x13,1
    a164:	00c686b3          	add	x13,x13,x12
    a168:	0107d793          	srli	x15,x15,0x10
    a16c:	40d787b3          	sub	x15,x15,x13
    a170:	01071713          	slli	x14,x14,0x10
    a174:	01079693          	slli	x13,x15,0x10
    a178:	01075713          	srli	x14,x14,0x10
    a17c:	00e6e733          	or	x14,x13,x14
    a180:	00440413          	addi	x8,x8,4
    a184:	0107d793          	srli	x15,x15,0x10
    a188:	fee5ae23          	sw	x14,-4(x11)
    a18c:	0017f693          	andi	x13,x15,1
    a190:	fa89f2e3          	bgeu	x19,x8,a134 <__quorem_D2A+0x134>
    a194:	00249793          	slli	x15,x9,0x2
    a198:	00fa07b3          	add	x15,x20,x15
    a19c:	0007a703          	lw	x14,0(x15)
    a1a0:	02071463          	bne	x14,x0,a1c8 <__quorem_D2A+0x1c8>
    a1a4:	ffc78793          	addi	x15,x15,-4
    a1a8:	00fa6863          	bltu	x20,x15,a1b8 <__quorem_D2A+0x1b8>
    a1ac:	0180006f          	jal	x0,a1c4 <__quorem_D2A+0x1c4>
    a1b0:	fff48493          	addi	x9,x9,-1
    a1b4:	00fa7863          	bgeu	x20,x15,a1c4 <__quorem_D2A+0x1c4>
    a1b8:	0007a703          	lw	x14,0(x15)
    a1bc:	ffc78793          	addi	x15,x15,-4
    a1c0:	fe0708e3          	beq	x14,x0,a1b0 <__quorem_D2A+0x1b0>
    a1c4:	009aa823          	sw	x9,16(x21)
    a1c8:	00190913          	addi	x18,x18,1
    a1cc:	01812403          	lw	x8,24(x2)
    a1d0:	01c12083          	lw	x1,28(x2)
    a1d4:	00c12983          	lw	x19,12(x2)
    a1d8:	00812a03          	lw	x20,8(x2)
    a1dc:	00412a83          	lw	x21,4(x2)
    a1e0:	01412483          	lw	x9,20(x2)
    a1e4:	00090513          	addi	x10,x18,0
    a1e8:	01012903          	lw	x18,16(x2)
    a1ec:	02010113          	addi	x2,x2,32
    a1f0:	00008067          	jalr	x0,0(x1)
    a1f4:	01c12083          	lw	x1,28(x2)
    a1f8:	01412483          	lw	x9,20(x2)
    a1fc:	00000513          	addi	x10,x0,0
    a200:	02010113          	addi	x2,x2,32
    a204:	00008067          	jalr	x0,0(x1)

0000a208 <__fputwc>:
    a208:	fe010113          	addi	x2,x2,-32
    a20c:	00812c23          	sw	x8,24(x2)
    a210:	00912a23          	sw	x9,20(x2)
    a214:	01212823          	sw	x18,16(x2)
    a218:	00112e23          	sw	x1,28(x2)
    a21c:	00050913          	addi	x18,x10,0
    a220:	00058493          	addi	x9,x11,0
    a224:	00060413          	addi	x8,x12,0
    a228:	135010ef          	jal	x1,bb5c <__locale_mb_cur_max>
    a22c:	00100793          	addi	x15,x0,1
    a230:	06f51263          	bne	x10,x15,a294 <__fputwc+0x8c>
    a234:	fff48793          	addi	x15,x9,-1
    a238:	0fe00713          	addi	x14,x0,254
    a23c:	04f76c63          	bltu	x14,x15,a294 <__fputwc+0x8c>
    a240:	00842783          	lw	x15,8(x8)
    a244:	00910623          	sb	x9,12(x2)
    a248:	00c14583          	lbu	x11,12(x2)
    a24c:	fff78793          	addi	x15,x15,-1
    a250:	00f42423          	sw	x15,8(x8)
    a254:	0007da63          	bge	x15,x0,a268 <__fputwc+0x60>
    a258:	01842703          	lw	x14,24(x8)
    a25c:	08e7c063          	blt	x15,x14,a2dc <__fputwc+0xd4>
    a260:	00a00793          	addi	x15,x0,10
    a264:	06f58c63          	beq	x11,x15,a2dc <__fputwc+0xd4>
    a268:	00042783          	lw	x15,0(x8)
    a26c:	00178713          	addi	x14,x15,1
    a270:	00e42023          	sw	x14,0(x8)
    a274:	00b78023          	sb	x11,0(x15)
    a278:	01c12083          	lw	x1,28(x2)
    a27c:	01812403          	lw	x8,24(x2)
    a280:	01012903          	lw	x18,16(x2)
    a284:	00048513          	addi	x10,x9,0
    a288:	01412483          	lw	x9,20(x2)
    a28c:	02010113          	addi	x2,x2,32
    a290:	00008067          	jalr	x0,0(x1)
    a294:	05c40693          	addi	x13,x8,92
    a298:	00048613          	addi	x12,x9,0
    a29c:	00c10593          	addi	x11,x2,12
    a2a0:	00090513          	addi	x10,x18,0
    a2a4:	73c010ef          	jal	x1,b9e0 <_wcrtomb_r>
    a2a8:	fff00793          	addi	x15,x0,-1
    a2ac:	06f50063          	beq	x10,x15,a30c <__fputwc+0x104>
    a2b0:	fc0504e3          	beq	x10,x0,a278 <__fputwc+0x70>
    a2b4:	00842783          	lw	x15,8(x8)
    a2b8:	00c14583          	lbu	x11,12(x2)
    a2bc:	fff78793          	addi	x15,x15,-1
    a2c0:	00f42423          	sw	x15,8(x8)
    a2c4:	f807cae3          	blt	x15,x0,a258 <__fputwc+0x50>
    a2c8:	00042783          	lw	x15,0(x8)
    a2cc:	00178713          	addi	x14,x15,1
    a2d0:	00e42023          	sw	x14,0(x8)
    a2d4:	00b78023          	sb	x11,0(x15)
    a2d8:	fa1ff06f          	jal	x0,a278 <__fputwc+0x70>
    a2dc:	00040613          	addi	x12,x8,0
    a2e0:	00090513          	addi	x10,x18,0
    a2e4:	eacff0ef          	jal	x1,9990 <__swbuf_r>
    a2e8:	fff00793          	addi	x15,x0,-1
    a2ec:	f8f516e3          	bne	x10,x15,a278 <__fputwc+0x70>
    a2f0:	fff00513          	addi	x10,x0,-1
    a2f4:	01c12083          	lw	x1,28(x2)
    a2f8:	01812403          	lw	x8,24(x2)
    a2fc:	01412483          	lw	x9,20(x2)
    a300:	01012903          	lw	x18,16(x2)
    a304:	02010113          	addi	x2,x2,32
    a308:	00008067          	jalr	x0,0(x1)
    a30c:	00c45783          	lhu	x15,12(x8)
    a310:	fff00513          	addi	x10,x0,-1
    a314:	0407e793          	ori	x15,x15,64
    a318:	00f41623          	sh	x15,12(x8)
    a31c:	fd9ff06f          	jal	x0,a2f4 <__fputwc+0xec>

0000a320 <_fputwc_r>:
    a320:	00c61783          	lh	x15,12(x12)
    a324:	000026b7          	lui	x13,0x2
    a328:	01279713          	slli	x14,x15,0x12
    a32c:	00074c63          	blt	x14,x0,a344 <_fputwc_r+0x24>
    a330:	06462703          	lw	x14,100(x12)
    a334:	00d7e7b3          	or	x15,x15,x13
    a338:	00f61623          	sh	x15,12(x12)
    a33c:	00d767b3          	or	x15,x14,x13
    a340:	06f62223          	sw	x15,100(x12)
    a344:	ec5ff06f          	jal	x0,a208 <__fputwc>

0000a348 <fputwc>:
    a348:	fe010113          	addi	x2,x2,-32
    a34c:	00812c23          	sw	x8,24(x2)
    a350:	00112e23          	sw	x1,28(x2)
    a354:	f141a403          	lw	x8,-236(x3) # 13024 <_impure_ptr>
    a358:	00058613          	addi	x12,x11,0
    a35c:	00050593          	addi	x11,x10,0
    a360:	00040663          	beq	x8,x0,a36c <fputwc+0x24>
    a364:	03442783          	lw	x15,52(x8)
    a368:	02078e63          	beq	x15,x0,a3a4 <fputwc+0x5c>
    a36c:	00c61783          	lh	x15,12(x12)
    a370:	000026b7          	lui	x13,0x2
    a374:	01279713          	slli	x14,x15,0x12
    a378:	00074c63          	blt	x14,x0,a390 <fputwc+0x48>
    a37c:	06462703          	lw	x14,100(x12)
    a380:	00d7e7b3          	or	x15,x15,x13
    a384:	00f61623          	sh	x15,12(x12)
    a388:	00d767b3          	or	x15,x14,x13
    a38c:	06f62223          	sw	x15,100(x12)
    a390:	00040513          	addi	x10,x8,0
    a394:	01812403          	lw	x8,24(x2)
    a398:	01c12083          	lw	x1,28(x2)
    a39c:	02010113          	addi	x2,x2,32
    a3a0:	e69ff06f          	jal	x0,a208 <__fputwc>
    a3a4:	00a12423          	sw	x10,8(x2)
    a3a8:	00040513          	addi	x10,x8,0
    a3ac:	00c12623          	sw	x12,12(x2)
    a3b0:	f74f60ef          	jal	x1,b24 <__sinit>
    a3b4:	00c12603          	lw	x12,12(x2)
    a3b8:	00812583          	lw	x11,8(x2)
    a3bc:	fb1ff06f          	jal	x0,a36c <fputwc+0x24>

0000a3c0 <frexpl>:
    a3c0:	f9010113          	addi	x2,x2,-112
    a3c4:	07212023          	sw	x18,96(x2)
    a3c8:	00c5a903          	lw	x18,12(x11)
    a3cc:	05412c23          	sw	x20,88(x2)
    a3d0:	05512a23          	sw	x21,84(x2)
    a3d4:	05612823          	sw	x22,80(x2)
    a3d8:	0045aa83          	lw	x21,4(x11)
    a3dc:	0005ab03          	lw	x22,0(x11)
    a3e0:	0085aa03          	lw	x20,8(x11)
    a3e4:	05312e23          	sw	x19,92(x2)
    a3e8:	000089b7          	lui	x19,0x8
    a3ec:	06812423          	sw	x8,104(x2)
    a3f0:	06912223          	sw	x9,100(x2)
    a3f4:	06112623          	sw	x1,108(x2)
    a3f8:	01095493          	srli	x9,x18,0x10
    a3fc:	fff98993          	addi	x19,x19,-1 # 7fff <__gdtoa+0x84b>
    a400:	00062023          	sw	x0,0(x12)
    a404:	03212e23          	sw	x18,60(x2)
    a408:	0134f4b3          	and	x9,x9,x19
    a40c:	03612823          	sw	x22,48(x2)
    a410:	03512a23          	sw	x21,52(x2)
    a414:	03412c23          	sw	x20,56(x2)
    a418:	00050413          	addi	x8,x10,0
    a41c:	09348063          	beq	x9,x19,a49c <frexpl+0xdc>
    a420:	02010513          	addi	x10,x2,32
    a424:	01010593          	addi	x11,x2,16
    a428:	05712623          	sw	x23,76(x2)
    a42c:	03612023          	sw	x22,32(x2)
    a430:	00060b93          	addi	x23,x12,0
    a434:	03512223          	sw	x21,36(x2)
    a438:	03412423          	sw	x20,40(x2)
    a43c:	03212623          	sw	x18,44(x2)
    a440:	00012823          	sw	x0,16(x2)
    a444:	00012a23          	sw	x0,20(x2)
    a448:	00012c23          	sw	x0,24(x2)
    a44c:	00012e23          	sw	x0,28(x2)
    a450:	5fc040ef          	jal	x1,ea4c <__eqtf2>
    a454:	0e050e63          	beq	x10,x0,a550 <frexpl+0x190>
    a458:	00000693          	addi	x13,x0,0
    a45c:	06048e63          	beq	x9,x0,a4d8 <frexpl+0x118>
    a460:	ffffc737          	lui	x14,0xffffc
    a464:	00270713          	addi	x14,x14,2 # ffffc002 <__heap_end+0xffbfc002>
    a468:	03c12903          	lw	x18,60(x2)
    a46c:	00e484b3          	add	x9,x9,x14
    a470:	800107b7          	lui	x15,0x80010
    a474:	00d484b3          	add	x9,x9,x13
    a478:	fff78793          	addi	x15,x15,-1 # 8000ffff <__heap_end+0x7fc0ffff>
    a47c:	009ba023          	sw	x9,0(x23)
    a480:	03012b03          	lw	x22,48(x2)
    a484:	03412a83          	lw	x21,52(x2)
    a488:	03812a03          	lw	x20,56(x2)
    a48c:	04c12b83          	lw	x23,76(x2)
    a490:	00f97933          	and	x18,x18,x15
    a494:	3ffe07b7          	lui	x15,0x3ffe0
    a498:	00f96933          	or	x18,x18,x15
    a49c:	01642023          	sw	x22,0(x8)
    a4a0:	01542223          	sw	x21,4(x8)
    a4a4:	01442423          	sw	x20,8(x8)
    a4a8:	01242623          	sw	x18,12(x8)
    a4ac:	06c12083          	lw	x1,108(x2)
    a4b0:	00040513          	addi	x10,x8,0
    a4b4:	06812403          	lw	x8,104(x2)
    a4b8:	06412483          	lw	x9,100(x2)
    a4bc:	06012903          	lw	x18,96(x2)
    a4c0:	05c12983          	lw	x19,92(x2)
    a4c4:	05812a03          	lw	x20,88(x2)
    a4c8:	05412a83          	lw	x21,84(x2)
    a4cc:	05012b03          	lw	x22,80(x2)
    a4d0:	07010113          	addi	x2,x2,112
    a4d4:	00008067          	jalr	x0,0(x1)
    a4d8:	00008797          	auipc	x15,0x8
    a4dc:	f1878793          	addi	x15,x15,-232 # 123f0 <zeroes.0+0x60>
    a4e0:	0007a603          	lw	x12,0(x15)
    a4e4:	0047a683          	lw	x13,4(x15)
    a4e8:	0087a703          	lw	x14,8(x15)
    a4ec:	00c7a783          	lw	x15,12(x15)
    a4f0:	00c12023          	sw	x12,0(x2)
    a4f4:	01010593          	addi	x11,x2,16
    a4f8:	00010613          	addi	x12,x2,0
    a4fc:	02010513          	addi	x10,x2,32
    a500:	00d12223          	sw	x13,4(x2)
    a504:	00e12423          	sw	x14,8(x2)
    a508:	00f12623          	sw	x15,12(x2)
    a50c:	01612823          	sw	x22,16(x2)
    a510:	01512a23          	sw	x21,20(x2)
    a514:	01412c23          	sw	x20,24(x2)
    a518:	01212e23          	sw	x18,28(x2)
    a51c:	0c9040ef          	jal	x1,ede4 <__multf3>
    a520:	02c12783          	lw	x15,44(x2)
    a524:	02412683          	lw	x13,36(x2)
    a528:	02012603          	lw	x12,32(x2)
    a52c:	02812703          	lw	x14,40(x2)
    a530:	0107d493          	srli	x9,x15,0x10
    a534:	02d12a23          	sw	x13,52(x2)
    a538:	02c12823          	sw	x12,48(x2)
    a53c:	02e12c23          	sw	x14,56(x2)
    a540:	02f12e23          	sw	x15,60(x2)
    a544:	0134f4b3          	and	x9,x9,x19
    a548:	f8e00693          	addi	x13,x0,-114
    a54c:	f15ff06f          	jal	x0,a460 <frexpl+0xa0>
    a550:	04c12b83          	lw	x23,76(x2)
    a554:	f49ff06f          	jal	x0,a49c <frexpl+0xdc>

0000a558 <__assert_func>:
    a558:	ff010113          	addi	x2,x2,-16
    a55c:	f141a783          	lw	x15,-236(x3) # 13024 <_impure_ptr>
    a560:	00060813          	addi	x16,x12,0
    a564:	00112623          	sw	x1,12(x2)
    a568:	00068613          	addi	x12,x13,0 # 2000 <memchr+0x94>
    a56c:	00058713          	addi	x14,x11,0
    a570:	00050693          	addi	x13,x10,0
    a574:	00c7a503          	lw	x10,12(x15)
    a578:	00008797          	auipc	x15,0x8
    a57c:	a0078793          	addi	x15,x15,-1536 # 11f78 <__clzsi2+0x3c0>
    a580:	00080a63          	beq	x16,x0,a594 <__assert_func+0x3c>
    a584:	00008597          	auipc	x11,0x8
    a588:	a0458593          	addi	x11,x11,-1532 # 11f88 <__clzsi2+0x3d0>
    a58c:	00d010ef          	jal	x1,bd98 <fiprintf>
    a590:	650010ef          	jal	x1,bbe0 <abort>
    a594:	00007797          	auipc	x15,0x7
    a598:	79878793          	addi	x15,x15,1944 # 11d2c <__clzsi2+0x174>
    a59c:	00078813          	addi	x16,x15,0
    a5a0:	fe5ff06f          	jal	x0,a584 <__assert_func+0x2c>

0000a5a4 <__assert>:
    a5a4:	ff010113          	addi	x2,x2,-16
    a5a8:	00060693          	addi	x13,x12,0
    a5ac:	00000613          	addi	x12,x0,0
    a5b0:	00112623          	sw	x1,12(x2)
    a5b4:	fa5ff0ef          	jal	x1,a558 <__assert_func>

0000a5b8 <__localeconv_l>:
    a5b8:	0f050513          	addi	x10,x10,240
    a5bc:	00008067          	jalr	x0,0(x1)

0000a5c0 <_localeconv_r>:
    a5c0:	e2818513          	addi	x10,x3,-472 # 12f38 <__global_locale+0xf0>
    a5c4:	00008067          	jalr	x0,0(x1)

0000a5c8 <localeconv>:
    a5c8:	e2818513          	addi	x10,x3,-472 # 12f38 <__global_locale+0xf0>
    a5cc:	00008067          	jalr	x0,0(x1)

0000a5d0 <_Balloc>:
    a5d0:	04452783          	lw	x15,68(x10)
    a5d4:	ff010113          	addi	x2,x2,-16
    a5d8:	00812423          	sw	x8,8(x2)
    a5dc:	00912223          	sw	x9,4(x2)
    a5e0:	00112623          	sw	x1,12(x2)
    a5e4:	00050413          	addi	x8,x10,0
    a5e8:	00058493          	addi	x9,x11,0
    a5ec:	02078c63          	beq	x15,x0,a624 <_Balloc+0x54>
    a5f0:	00249713          	slli	x14,x9,0x2
    a5f4:	00e787b3          	add	x15,x15,x14
    a5f8:	0007a503          	lw	x10,0(x15)
    a5fc:	04050463          	beq	x10,x0,a644 <_Balloc+0x74>
    a600:	00052703          	lw	x14,0(x10)
    a604:	00e7a023          	sw	x14,0(x15)
    a608:	00052823          	sw	x0,16(x10)
    a60c:	00052623          	sw	x0,12(x10)
    a610:	00c12083          	lw	x1,12(x2)
    a614:	00812403          	lw	x8,8(x2)
    a618:	00412483          	lw	x9,4(x2)
    a61c:	01010113          	addi	x2,x2,16
    a620:	00008067          	jalr	x0,0(x1)
    a624:	02100613          	addi	x12,x0,33
    a628:	00400593          	addi	x11,x0,4
    a62c:	5cc010ef          	jal	x1,bbf8 <_calloc_r>
    a630:	04a42223          	sw	x10,68(x8)
    a634:	00050793          	addi	x15,x10,0
    a638:	fa051ce3          	bne	x10,x0,a5f0 <_Balloc+0x20>
    a63c:	00000513          	addi	x10,x0,0
    a640:	fd1ff06f          	jal	x0,a610 <_Balloc+0x40>
    a644:	00100593          	addi	x11,x0,1
    a648:	01212023          	sw	x18,0(x2)
    a64c:	00959933          	sll	x18,x11,x9
    a650:	00590613          	addi	x12,x18,5
    a654:	00040513          	addi	x10,x8,0
    a658:	00261613          	slli	x12,x12,0x2
    a65c:	59c010ef          	jal	x1,bbf8 <_calloc_r>
    a660:	00050a63          	beq	x10,x0,a674 <_Balloc+0xa4>
    a664:	01252423          	sw	x18,8(x10)
    a668:	00952223          	sw	x9,4(x10)
    a66c:	00012903          	lw	x18,0(x2)
    a670:	f99ff06f          	jal	x0,a608 <_Balloc+0x38>
    a674:	00012903          	lw	x18,0(x2)
    a678:	00000513          	addi	x10,x0,0
    a67c:	f95ff06f          	jal	x0,a610 <_Balloc+0x40>

0000a680 <_Bfree>:
    a680:	02058063          	beq	x11,x0,a6a0 <_Bfree+0x20>
    a684:	0045a703          	lw	x14,4(x11)
    a688:	04452783          	lw	x15,68(x10)
    a68c:	00271713          	slli	x14,x14,0x2
    a690:	00e787b3          	add	x15,x15,x14
    a694:	0007a703          	lw	x14,0(x15)
    a698:	00e5a023          	sw	x14,0(x11)
    a69c:	00b7a023          	sw	x11,0(x15)
    a6a0:	00008067          	jalr	x0,0(x1)

0000a6a4 <__multadd>:
    a6a4:	fe010113          	addi	x2,x2,-32
    a6a8:	00912a23          	sw	x9,20(x2)
    a6ac:	0105a483          	lw	x9,16(x11)
    a6b0:	00812c23          	sw	x8,24(x2)
    a6b4:	01212823          	sw	x18,16(x2)
    a6b8:	01312623          	sw	x19,12(x2)
    a6bc:	00112e23          	sw	x1,28(x2)
    a6c0:	00058913          	addi	x18,x11,0
    a6c4:	00050993          	addi	x19,x10,0
    a6c8:	00068413          	addi	x8,x13,0
    a6cc:	01458813          	addi	x16,x11,20
    a6d0:	00000893          	addi	x17,x0,0
    a6d4:	00082783          	lw	x15,0(x16)
    a6d8:	00480813          	addi	x16,x16,4
    a6dc:	00188893          	addi	x17,x17,1
    a6e0:	01079713          	slli	x14,x15,0x10
    a6e4:	01075713          	srli	x14,x14,0x10
    a6e8:	02c70733          	mul	x14,x14,x12
    a6ec:	0107d693          	srli	x13,x15,0x10
    a6f0:	02c686b3          	mul	x13,x13,x12
    a6f4:	008707b3          	add	x15,x14,x8
    a6f8:	0107d713          	srli	x14,x15,0x10
    a6fc:	01079793          	slli	x15,x15,0x10
    a700:	0107d793          	srli	x15,x15,0x10
    a704:	00e686b3          	add	x13,x13,x14
    a708:	01069713          	slli	x14,x13,0x10
    a70c:	00f707b3          	add	x15,x14,x15
    a710:	fef82e23          	sw	x15,-4(x16)
    a714:	0106d413          	srli	x8,x13,0x10
    a718:	fa98cee3          	blt	x17,x9,a6d4 <__multadd+0x30>
    a71c:	02040263          	beq	x8,x0,a740 <__multadd+0x9c>
    a720:	00892783          	lw	x15,8(x18)
    a724:	02f4de63          	bge	x9,x15,a760 <__multadd+0xbc>
    a728:	00448713          	addi	x14,x9,4
    a72c:	00271713          	slli	x14,x14,0x2
    a730:	00e90733          	add	x14,x18,x14
    a734:	00872223          	sw	x8,4(x14)
    a738:	00148793          	addi	x15,x9,1
    a73c:	00f92823          	sw	x15,16(x18)
    a740:	01c12083          	lw	x1,28(x2)
    a744:	01812403          	lw	x8,24(x2)
    a748:	01412483          	lw	x9,20(x2)
    a74c:	00c12983          	lw	x19,12(x2)
    a750:	00090513          	addi	x10,x18,0
    a754:	01012903          	lw	x18,16(x2)
    a758:	02010113          	addi	x2,x2,32
    a75c:	00008067          	jalr	x0,0(x1)
    a760:	00492583          	lw	x11,4(x18)
    a764:	00098513          	addi	x10,x19,0
    a768:	01412423          	sw	x20,8(x2)
    a76c:	00158593          	addi	x11,x11,1
    a770:	e61ff0ef          	jal	x1,a5d0 <_Balloc>
    a774:	00050a13          	addi	x20,x10,0
    a778:	04050e63          	beq	x10,x0,a7d4 <__multadd+0x130>
    a77c:	01092603          	lw	x12,16(x18)
    a780:	00c90593          	addi	x11,x18,12
    a784:	00c50513          	addi	x10,x10,12
    a788:	00260613          	addi	x12,x12,2
    a78c:	00261613          	slli	x12,x12,0x2
    a790:	eb8f70ef          	jal	x1,1e48 <memcpy>
    a794:	00492703          	lw	x14,4(x18)
    a798:	0449a783          	lw	x15,68(x19)
    a79c:	00271713          	slli	x14,x14,0x2
    a7a0:	00e787b3          	add	x15,x15,x14
    a7a4:	0007a703          	lw	x14,0(x15)
    a7a8:	00e92023          	sw	x14,0(x18)
    a7ac:	00448713          	addi	x14,x9,4
    a7b0:	0127a023          	sw	x18,0(x15)
    a7b4:	00271713          	slli	x14,x14,0x2
    a7b8:	000a0913          	addi	x18,x20,0
    a7bc:	00e90733          	add	x14,x18,x14
    a7c0:	00812a03          	lw	x20,8(x2)
    a7c4:	00148793          	addi	x15,x9,1
    a7c8:	00872223          	sw	x8,4(x14)
    a7cc:	00f92823          	sw	x15,16(x18)
    a7d0:	f71ff06f          	jal	x0,a740 <__multadd+0x9c>
    a7d4:	00007697          	auipc	x13,0x7
    a7d8:	75468693          	addi	x13,x13,1876 # 11f28 <__clzsi2+0x370>
    a7dc:	00000613          	addi	x12,x0,0
    a7e0:	0ba00593          	addi	x11,x0,186
    a7e4:	00007517          	auipc	x10,0x7
    a7e8:	7d450513          	addi	x10,x10,2004 # 11fb8 <__clzsi2+0x400>
    a7ec:	d6dff0ef          	jal	x1,a558 <__assert_func>

0000a7f0 <__s2b>:
    a7f0:	fe010113          	addi	x2,x2,-32
    a7f4:	00812c23          	sw	x8,24(x2)
    a7f8:	00912a23          	sw	x9,20(x2)
    a7fc:	01212823          	sw	x18,16(x2)
    a800:	01312623          	sw	x19,12(x2)
    a804:	01412423          	sw	x20,8(x2)
    a808:	00068993          	addi	x19,x13,0
    a80c:	00900793          	addi	x15,x0,9
    a810:	00868693          	addi	x13,x13,8
    a814:	00112e23          	sw	x1,28(x2)
    a818:	02f6c6b3          	div	x13,x13,x15
    a81c:	00050913          	addi	x18,x10,0
    a820:	00058413          	addi	x8,x11,0
    a824:	00060a13          	addi	x20,x12,0
    a828:	00070493          	addi	x9,x14,0
    a82c:	0f37d263          	bge	x15,x19,a910 <__s2b+0x120>
    a830:	00100793          	addi	x15,x0,1
    a834:	00000593          	addi	x11,x0,0
    a838:	00179793          	slli	x15,x15,0x1
    a83c:	00158593          	addi	x11,x11,1
    a840:	fed7cce3          	blt	x15,x13,a838 <__s2b+0x48>
    a844:	00090513          	addi	x10,x18,0
    a848:	d89ff0ef          	jal	x1,a5d0 <_Balloc>
    a84c:	00050593          	addi	x11,x10,0
    a850:	0c050463          	beq	x10,x0,a918 <__s2b+0x128>
    a854:	00100793          	addi	x15,x0,1
    a858:	00f52823          	sw	x15,16(x10)
    a85c:	00952a23          	sw	x9,20(x10)
    a860:	00900793          	addi	x15,x0,9
    a864:	0b47d063          	bge	x15,x20,a904 <__s2b+0x114>
    a868:	01612023          	sw	x22,0(x2)
    a86c:	00f40b33          	add	x22,x8,x15
    a870:	01512223          	sw	x21,4(x2)
    a874:	01440433          	add	x8,x8,x20
    a878:	000b0493          	addi	x9,x22,0
    a87c:	00a00a93          	addi	x21,x0,10
    a880:	0004c683          	lbu	x13,0(x9)
    a884:	000a8613          	addi	x12,x21,0
    a888:	00090513          	addi	x10,x18,0
    a88c:	fd068693          	addi	x13,x13,-48
    a890:	00148493          	addi	x9,x9,1
    a894:	e11ff0ef          	jal	x1,a6a4 <__multadd>
    a898:	00050593          	addi	x11,x10,0
    a89c:	fe8492e3          	bne	x9,x8,a880 <__s2b+0x90>
    a8a0:	ff8a0413          	addi	x8,x20,-8
    a8a4:	008b0433          	add	x8,x22,x8
    a8a8:	00412a83          	lw	x21,4(x2)
    a8ac:	00012b03          	lw	x22,0(x2)
    a8b0:	033a5863          	bge	x20,x19,a8e0 <__s2b+0xf0>
    a8b4:	414989b3          	sub	x19,x19,x20
    a8b8:	013409b3          	add	x19,x8,x19
    a8bc:	00a00493          	addi	x9,x0,10
    a8c0:	00044683          	lbu	x13,0(x8)
    a8c4:	00048613          	addi	x12,x9,0
    a8c8:	00090513          	addi	x10,x18,0
    a8cc:	fd068693          	addi	x13,x13,-48
    a8d0:	00140413          	addi	x8,x8,1
    a8d4:	dd1ff0ef          	jal	x1,a6a4 <__multadd>
    a8d8:	00050593          	addi	x11,x10,0
    a8dc:	ff3412e3          	bne	x8,x19,a8c0 <__s2b+0xd0>
    a8e0:	01c12083          	lw	x1,28(x2)
    a8e4:	01812403          	lw	x8,24(x2)
    a8e8:	01412483          	lw	x9,20(x2)
    a8ec:	01012903          	lw	x18,16(x2)
    a8f0:	00c12983          	lw	x19,12(x2)
    a8f4:	00812a03          	lw	x20,8(x2)
    a8f8:	00058513          	addi	x10,x11,0
    a8fc:	02010113          	addi	x2,x2,32
    a900:	00008067          	jalr	x0,0(x1)
    a904:	00a40413          	addi	x8,x8,10
    a908:	00078a13          	addi	x20,x15,0
    a90c:	fa5ff06f          	jal	x0,a8b0 <__s2b+0xc0>
    a910:	00000593          	addi	x11,x0,0
    a914:	f31ff06f          	jal	x0,a844 <__s2b+0x54>
    a918:	00007697          	auipc	x13,0x7
    a91c:	61068693          	addi	x13,x13,1552 # 11f28 <__clzsi2+0x370>
    a920:	00000613          	addi	x12,x0,0
    a924:	0d300593          	addi	x11,x0,211
    a928:	00007517          	auipc	x10,0x7
    a92c:	69050513          	addi	x10,x10,1680 # 11fb8 <__clzsi2+0x400>
    a930:	01512223          	sw	x21,4(x2)
    a934:	01612023          	sw	x22,0(x2)
    a938:	c21ff0ef          	jal	x1,a558 <__assert_func>

0000a93c <__hi0bits>:
    a93c:	00050793          	addi	x15,x10,0
    a940:	00010737          	lui	x14,0x10
    a944:	00000513          	addi	x10,x0,0
    a948:	00e7f663          	bgeu	x15,x14,a954 <__hi0bits+0x18>
    a94c:	01079793          	slli	x15,x15,0x10
    a950:	01000513          	addi	x10,x0,16
    a954:	01000737          	lui	x14,0x1000
    a958:	00e7f663          	bgeu	x15,x14,a964 <__hi0bits+0x28>
    a95c:	00850513          	addi	x10,x10,8
    a960:	00879793          	slli	x15,x15,0x8
    a964:	10000737          	lui	x14,0x10000
    a968:	00e7f663          	bgeu	x15,x14,a974 <__hi0bits+0x38>
    a96c:	00450513          	addi	x10,x10,4
    a970:	00479793          	slli	x15,x15,0x4
    a974:	40000737          	lui	x14,0x40000
    a978:	00e7ea63          	bltu	x15,x14,a98c <__hi0bits+0x50>
    a97c:	fff7c793          	xori	x15,x15,-1
    a980:	01f7d793          	srli	x15,x15,0x1f
    a984:	00f50533          	add	x10,x10,x15
    a988:	00008067          	jalr	x0,0(x1)
    a98c:	00279793          	slli	x15,x15,0x2
    a990:	0007ca63          	blt	x15,x0,a9a4 <__hi0bits+0x68>
    a994:	00179713          	slli	x14,x15,0x1
    a998:	00075a63          	bge	x14,x0,a9ac <__hi0bits+0x70>
    a99c:	00350513          	addi	x10,x10,3
    a9a0:	00008067          	jalr	x0,0(x1)
    a9a4:	00250513          	addi	x10,x10,2
    a9a8:	00008067          	jalr	x0,0(x1)
    a9ac:	02000513          	addi	x10,x0,32
    a9b0:	00008067          	jalr	x0,0(x1)

0000a9b4 <__lo0bits>:
    a9b4:	00052783          	lw	x15,0(x10)
    a9b8:	00050713          	addi	x14,x10,0
    a9bc:	0077f693          	andi	x13,x15,7
    a9c0:	02068463          	beq	x13,x0,a9e8 <__lo0bits+0x34>
    a9c4:	0017f693          	andi	x13,x15,1
    a9c8:	00000513          	addi	x10,x0,0
    a9cc:	06069e63          	bne	x13,x0,aa48 <__lo0bits+0x94>
    a9d0:	0027f693          	andi	x13,x15,2
    a9d4:	08068063          	beq	x13,x0,aa54 <__lo0bits+0xa0>
    a9d8:	0017d793          	srli	x15,x15,0x1
    a9dc:	00f72023          	sw	x15,0(x14) # 40000000 <__heap_end+0x3fc00000>
    a9e0:	00100513          	addi	x10,x0,1
    a9e4:	00008067          	jalr	x0,0(x1)
    a9e8:	01079693          	slli	x13,x15,0x10
    a9ec:	0106d693          	srli	x13,x13,0x10
    a9f0:	00000513          	addi	x10,x0,0
    a9f4:	00069663          	bne	x13,x0,aa00 <__lo0bits+0x4c>
    a9f8:	0107d793          	srli	x15,x15,0x10
    a9fc:	01000513          	addi	x10,x0,16
    aa00:	0ff7f693          	andi	x13,x15,255
    aa04:	00069663          	bne	x13,x0,aa10 <__lo0bits+0x5c>
    aa08:	00850513          	addi	x10,x10,8
    aa0c:	0087d793          	srli	x15,x15,0x8
    aa10:	00f7f693          	andi	x13,x15,15
    aa14:	00069663          	bne	x13,x0,aa20 <__lo0bits+0x6c>
    aa18:	00450513          	addi	x10,x10,4
    aa1c:	0047d793          	srli	x15,x15,0x4
    aa20:	0037f693          	andi	x13,x15,3
    aa24:	00069663          	bne	x13,x0,aa30 <__lo0bits+0x7c>
    aa28:	00250513          	addi	x10,x10,2
    aa2c:	0027d793          	srli	x15,x15,0x2
    aa30:	0017f693          	andi	x13,x15,1
    aa34:	00069c63          	bne	x13,x0,aa4c <__lo0bits+0x98>
    aa38:	0017d793          	srli	x15,x15,0x1
    aa3c:	00150513          	addi	x10,x10,1
    aa40:	00079663          	bne	x15,x0,aa4c <__lo0bits+0x98>
    aa44:	02000513          	addi	x10,x0,32
    aa48:	00008067          	jalr	x0,0(x1)
    aa4c:	00f72023          	sw	x15,0(x14)
    aa50:	00008067          	jalr	x0,0(x1)
    aa54:	0027d793          	srli	x15,x15,0x2
    aa58:	00f72023          	sw	x15,0(x14)
    aa5c:	00200513          	addi	x10,x0,2
    aa60:	00008067          	jalr	x0,0(x1)

0000aa64 <__i2b>:
    aa64:	04452783          	lw	x15,68(x10)
    aa68:	ff010113          	addi	x2,x2,-16
    aa6c:	00812423          	sw	x8,8(x2)
    aa70:	00912223          	sw	x9,4(x2)
    aa74:	00112623          	sw	x1,12(x2)
    aa78:	00050413          	addi	x8,x10,0
    aa7c:	00058493          	addi	x9,x11,0
    aa80:	02078c63          	beq	x15,x0,aab8 <__i2b+0x54>
    aa84:	0047a503          	lw	x10,4(x15)
    aa88:	06050263          	beq	x10,x0,aaec <__i2b+0x88>
    aa8c:	00052703          	lw	x14,0(x10)
    aa90:	00e7a223          	sw	x14,4(x15)
    aa94:	00c12083          	lw	x1,12(x2)
    aa98:	00812403          	lw	x8,8(x2)
    aa9c:	00100793          	addi	x15,x0,1
    aaa0:	00952a23          	sw	x9,20(x10)
    aaa4:	00052623          	sw	x0,12(x10)
    aaa8:	00f52823          	sw	x15,16(x10)
    aaac:	00412483          	lw	x9,4(x2)
    aab0:	01010113          	addi	x2,x2,16
    aab4:	00008067          	jalr	x0,0(x1)
    aab8:	02100613          	addi	x12,x0,33
    aabc:	00400593          	addi	x11,x0,4
    aac0:	138010ef          	jal	x1,bbf8 <_calloc_r>
    aac4:	04a42223          	sw	x10,68(x8)
    aac8:	00050793          	addi	x15,x10,0
    aacc:	fa051ce3          	bne	x10,x0,aa84 <__i2b+0x20>
    aad0:	00007697          	auipc	x13,0x7
    aad4:	45868693          	addi	x13,x13,1112 # 11f28 <__clzsi2+0x370>
    aad8:	00000613          	addi	x12,x0,0
    aadc:	14500593          	addi	x11,x0,325
    aae0:	00007517          	auipc	x10,0x7
    aae4:	4d850513          	addi	x10,x10,1240 # 11fb8 <__clzsi2+0x400>
    aae8:	a71ff0ef          	jal	x1,a558 <__assert_func>
    aaec:	00040513          	addi	x10,x8,0
    aaf0:	01c00613          	addi	x12,x0,28
    aaf4:	00100593          	addi	x11,x0,1
    aaf8:	100010ef          	jal	x1,bbf8 <_calloc_r>
    aafc:	fc050ae3          	beq	x10,x0,aad0 <__i2b+0x6c>
    ab00:	00100713          	addi	x14,x0,1
    ab04:	00200793          	addi	x15,x0,2
    ab08:	00e52223          	sw	x14,4(x10)
    ab0c:	00f52423          	sw	x15,8(x10)
    ab10:	f85ff06f          	jal	x0,aa94 <__i2b+0x30>

0000ab14 <__multiply>:
    ab14:	fe010113          	addi	x2,x2,-32
    ab18:	01212823          	sw	x18,16(x2)
    ab1c:	01312623          	sw	x19,12(x2)
    ab20:	0105a903          	lw	x18,16(x11)
    ab24:	01062983          	lw	x19,16(x12)
    ab28:	00912a23          	sw	x9,20(x2)
    ab2c:	01412423          	sw	x20,8(x2)
    ab30:	00112e23          	sw	x1,28(x2)
    ab34:	00812c23          	sw	x8,24(x2)
    ab38:	00058a13          	addi	x20,x11,0
    ab3c:	00060493          	addi	x9,x12,0
    ab40:	01394c63          	blt	x18,x19,ab58 <__multiply+0x44>
    ab44:	00098713          	addi	x14,x19,0
    ab48:	00058493          	addi	x9,x11,0
    ab4c:	00090993          	addi	x19,x18,0
    ab50:	00060a13          	addi	x20,x12,0
    ab54:	00070913          	addi	x18,x14,0
    ab58:	0084a783          	lw	x15,8(x9)
    ab5c:	0044a583          	lw	x11,4(x9)
    ab60:	01298433          	add	x8,x19,x18
    ab64:	0087a7b3          	slt	x15,x15,x8
    ab68:	00f585b3          	add	x11,x11,x15
    ab6c:	a65ff0ef          	jal	x1,a5d0 <_Balloc>
    ab70:	1c050863          	beq	x10,x0,ad40 <__multiply+0x22c>
    ab74:	01450893          	addi	x17,x10,20
    ab78:	00241813          	slli	x16,x8,0x2
    ab7c:	01088833          	add	x16,x17,x16
    ab80:	00088793          	addi	x15,x17,0
    ab84:	0108f863          	bgeu	x17,x16,ab94 <__multiply+0x80>
    ab88:	0007a023          	sw	x0,0(x15)
    ab8c:	00478793          	addi	x15,x15,4
    ab90:	ff07ece3          	bltu	x15,x16,ab88 <__multiply+0x74>
    ab94:	014a0593          	addi	x11,x20,20
    ab98:	00291313          	slli	x6,x18,0x2
    ab9c:	00299693          	slli	x13,x19,0x2
    aba0:	01448e13          	addi	x28,x9,20
    aba4:	00658333          	add	x6,x11,x6
    aba8:	00de06b3          	add	x13,x28,x13
    abac:	1465fa63          	bgeu	x11,x6,ad00 <__multiply+0x1ec>
    abb0:	01548793          	addi	x15,x9,21
    abb4:	00400e93          	addi	x29,x0,4
    abb8:	02f6ec63          	bltu	x13,x15,abf0 <__multiply+0xdc>
    abbc:	0005af03          	lw	x30,0(x11)
    abc0:	409687b3          	sub	x15,x13,x9
    abc4:	feb78793          	addi	x15,x15,-21
    abc8:	010f1293          	slli	x5,x30,0x10
    abcc:	ffc7f793          	andi	x15,x15,-4
    abd0:	0102d293          	srli	x5,x5,0x10
    abd4:	01d78eb3          	add	x29,x15,x29
    abd8:	02029463          	bne	x5,x0,ac00 <__multiply+0xec>
    abdc:	010f5f13          	srli	x30,x30,0x10
    abe0:	0a0f1063          	bne	x30,x0,ac80 <__multiply+0x16c>
    abe4:	00458593          	addi	x11,x11,4
    abe8:	00488893          	addi	x17,x17,4
    abec:	1065fa63          	bgeu	x11,x6,ad00 <__multiply+0x1ec>
    abf0:	0005af03          	lw	x30,0(x11)
    abf4:	010f1293          	slli	x5,x30,0x10
    abf8:	0102d293          	srli	x5,x5,0x10
    abfc:	fe0280e3          	beq	x5,x0,abdc <__multiply+0xc8>
    ac00:	00088f93          	addi	x31,x17,0
    ac04:	000e0f13          	addi	x30,x28,0
    ac08:	00000393          	addi	x7,x0,0
    ac0c:	000f2783          	lw	x15,0(x30)
    ac10:	000fa603          	lw	x12,0(x31)
    ac14:	004f8f93          	addi	x31,x31,4
    ac18:	01079713          	slli	x14,x15,0x10
    ac1c:	01075713          	srli	x14,x14,0x10
    ac20:	02570733          	mul	x14,x14,x5
    ac24:	0107d793          	srli	x15,x15,0x10
    ac28:	01061493          	slli	x9,x12,0x10
    ac2c:	0104d493          	srli	x9,x9,0x10
    ac30:	01065613          	srli	x12,x12,0x10
    ac34:	004f0f13          	addi	x30,x30,4
    ac38:	025787b3          	mul	x15,x15,x5
    ac3c:	00970733          	add	x14,x14,x9
    ac40:	00770733          	add	x14,x14,x7
    ac44:	01075393          	srli	x7,x14,0x10
    ac48:	01071713          	slli	x14,x14,0x10
    ac4c:	01075713          	srli	x14,x14,0x10
    ac50:	00c787b3          	add	x15,x15,x12
    ac54:	007787b3          	add	x15,x15,x7
    ac58:	01079613          	slli	x12,x15,0x10
    ac5c:	00e66733          	or	x14,x12,x14
    ac60:	feefae23          	sw	x14,-4(x31)
    ac64:	0107d393          	srli	x7,x15,0x10
    ac68:	fadf62e3          	bltu	x30,x13,ac0c <__multiply+0xf8>
    ac6c:	01d887b3          	add	x15,x17,x29
    ac70:	0077a023          	sw	x7,0(x15)
    ac74:	0005af03          	lw	x30,0(x11)
    ac78:	010f5f13          	srli	x30,x30,0x10
    ac7c:	f60f04e3          	beq	x30,x0,abe4 <__multiply+0xd0>
    ac80:	0008a783          	lw	x15,0(x17)
    ac84:	00088f93          	addi	x31,x17,0
    ac88:	000e0613          	addi	x12,x28,0
    ac8c:	00078393          	addi	x7,x15,0
    ac90:	00000293          	addi	x5,x0,0
    ac94:	00065703          	lhu	x14,0(x12)
    ac98:	0103d913          	srli	x18,x7,0x10
    ac9c:	01079793          	slli	x15,x15,0x10
    aca0:	03e70733          	mul	x14,x14,x30
    aca4:	0107d793          	srli	x15,x15,0x10
    aca8:	00460613          	addi	x12,x12,4
    acac:	004fa383          	lw	x7,4(x31)
    acb0:	004f8f93          	addi	x31,x31,4
    acb4:	01039493          	slli	x9,x7,0x10
    acb8:	0104d493          	srli	x9,x9,0x10
    acbc:	00570733          	add	x14,x14,x5
    acc0:	01270733          	add	x14,x14,x18
    acc4:	01071293          	slli	x5,x14,0x10
    acc8:	00f2e7b3          	or	x15,x5,x15
    accc:	feffae23          	sw	x15,-4(x31)
    acd0:	ffe65783          	lhu	x15,-2(x12)
    acd4:	01075713          	srli	x14,x14,0x10
    acd8:	03e787b3          	mul	x15,x15,x30
    acdc:	009787b3          	add	x15,x15,x9
    ace0:	00e787b3          	add	x15,x15,x14
    ace4:	0107d293          	srli	x5,x15,0x10
    ace8:	fad666e3          	bltu	x12,x13,ac94 <__multiply+0x180>
    acec:	01d88733          	add	x14,x17,x29
    acf0:	00f72023          	sw	x15,0(x14)
    acf4:	00458593          	addi	x11,x11,4
    acf8:	00488893          	addi	x17,x17,4
    acfc:	ee65eae3          	bltu	x11,x6,abf0 <__multiply+0xdc>
    ad00:	00804863          	blt	x0,x8,ad10 <__multiply+0x1fc>
    ad04:	0180006f          	jal	x0,ad1c <__multiply+0x208>
    ad08:	fff40413          	addi	x8,x8,-1
    ad0c:	00040863          	beq	x8,x0,ad1c <__multiply+0x208>
    ad10:	ffc82783          	lw	x15,-4(x16)
    ad14:	ffc80813          	addi	x16,x16,-4
    ad18:	fe0788e3          	beq	x15,x0,ad08 <__multiply+0x1f4>
    ad1c:	01c12083          	lw	x1,28(x2)
    ad20:	00852823          	sw	x8,16(x10)
    ad24:	01812403          	lw	x8,24(x2)
    ad28:	01412483          	lw	x9,20(x2)
    ad2c:	01012903          	lw	x18,16(x2)
    ad30:	00c12983          	lw	x19,12(x2)
    ad34:	00812a03          	lw	x20,8(x2)
    ad38:	02010113          	addi	x2,x2,32
    ad3c:	00008067          	jalr	x0,0(x1)
    ad40:	00007697          	auipc	x13,0x7
    ad44:	1e868693          	addi	x13,x13,488 # 11f28 <__clzsi2+0x370>
    ad48:	00000613          	addi	x12,x0,0
    ad4c:	16200593          	addi	x11,x0,354
    ad50:	00007517          	auipc	x10,0x7
    ad54:	26850513          	addi	x10,x10,616 # 11fb8 <__clzsi2+0x400>
    ad58:	801ff0ef          	jal	x1,a558 <__assert_func>

0000ad5c <__pow5mult>:
    ad5c:	fe010113          	addi	x2,x2,-32
    ad60:	00812c23          	sw	x8,24(x2)
    ad64:	01212823          	sw	x18,16(x2)
    ad68:	01312623          	sw	x19,12(x2)
    ad6c:	00112e23          	sw	x1,28(x2)
    ad70:	00367793          	andi	x15,x12,3
    ad74:	00060413          	addi	x8,x12,0
    ad78:	00050993          	addi	x19,x10,0
    ad7c:	00058913          	addi	x18,x11,0
    ad80:	0a079c63          	bne	x15,x0,ae38 <__pow5mult+0xdc>
    ad84:	40245413          	srai	x8,x8,0x2
    ad88:	06040a63          	beq	x8,x0,adfc <__pow5mult+0xa0>
    ad8c:	00912a23          	sw	x9,20(x2)
    ad90:	0409a483          	lw	x9,64(x19)
    ad94:	0c048663          	beq	x9,x0,ae60 <__pow5mult+0x104>
    ad98:	00147793          	andi	x15,x8,1
    ad9c:	02079063          	bne	x15,x0,adbc <__pow5mult+0x60>
    ada0:	40145413          	srai	x8,x8,0x1
    ada4:	04040a63          	beq	x8,x0,adf8 <__pow5mult+0x9c>
    ada8:	0004a503          	lw	x10,0(x9)
    adac:	06050663          	beq	x10,x0,ae18 <__pow5mult+0xbc>
    adb0:	00050493          	addi	x9,x10,0
    adb4:	00147793          	andi	x15,x8,1
    adb8:	fe0784e3          	beq	x15,x0,ada0 <__pow5mult+0x44>
    adbc:	00048613          	addi	x12,x9,0
    adc0:	00090593          	addi	x11,x18,0
    adc4:	00098513          	addi	x10,x19,0
    adc8:	d4dff0ef          	jal	x1,ab14 <__multiply>
    adcc:	02090063          	beq	x18,x0,adec <__pow5mult+0x90>
    add0:	00492703          	lw	x14,4(x18)
    add4:	0449a783          	lw	x15,68(x19)
    add8:	00271713          	slli	x14,x14,0x2
    addc:	00e787b3          	add	x15,x15,x14
    ade0:	0007a703          	lw	x14,0(x15)
    ade4:	00e92023          	sw	x14,0(x18)
    ade8:	0127a023          	sw	x18,0(x15)
    adec:	40145413          	srai	x8,x8,0x1
    adf0:	00050913          	addi	x18,x10,0
    adf4:	fa041ae3          	bne	x8,x0,ada8 <__pow5mult+0x4c>
    adf8:	01412483          	lw	x9,20(x2)
    adfc:	01c12083          	lw	x1,28(x2)
    ae00:	01812403          	lw	x8,24(x2)
    ae04:	00c12983          	lw	x19,12(x2)
    ae08:	00090513          	addi	x10,x18,0
    ae0c:	01012903          	lw	x18,16(x2)
    ae10:	02010113          	addi	x2,x2,32
    ae14:	00008067          	jalr	x0,0(x1)
    ae18:	00048613          	addi	x12,x9,0
    ae1c:	00048593          	addi	x11,x9,0
    ae20:	00098513          	addi	x10,x19,0
    ae24:	cf1ff0ef          	jal	x1,ab14 <__multiply>
    ae28:	00a4a023          	sw	x10,0(x9)
    ae2c:	00052023          	sw	x0,0(x10)
    ae30:	00050493          	addi	x9,x10,0
    ae34:	f81ff06f          	jal	x0,adb4 <__pow5mult+0x58>
    ae38:	fff78793          	addi	x15,x15,-1
    ae3c:	00007717          	auipc	x14,0x7
    ae40:	76470713          	addi	x14,x14,1892 # 125a0 <p05.0>
    ae44:	00279793          	slli	x15,x15,0x2
    ae48:	00f707b3          	add	x15,x14,x15
    ae4c:	0007a603          	lw	x12,0(x15)
    ae50:	00000693          	addi	x13,x0,0
    ae54:	851ff0ef          	jal	x1,a6a4 <__multadd>
    ae58:	00050913          	addi	x18,x10,0
    ae5c:	f29ff06f          	jal	x0,ad84 <__pow5mult+0x28>
    ae60:	00100593          	addi	x11,x0,1
    ae64:	00098513          	addi	x10,x19,0
    ae68:	f68ff0ef          	jal	x1,a5d0 <_Balloc>
    ae6c:	00050493          	addi	x9,x10,0
    ae70:	02050063          	beq	x10,x0,ae90 <__pow5mult+0x134>
    ae74:	27100713          	addi	x14,x0,625
    ae78:	00100793          	addi	x15,x0,1
    ae7c:	00e52a23          	sw	x14,20(x10)
    ae80:	00f52823          	sw	x15,16(x10)
    ae84:	04a9a023          	sw	x10,64(x19)
    ae88:	00052023          	sw	x0,0(x10)
    ae8c:	f0dff06f          	jal	x0,ad98 <__pow5mult+0x3c>
    ae90:	00007697          	auipc	x13,0x7
    ae94:	09868693          	addi	x13,x13,152 # 11f28 <__clzsi2+0x370>
    ae98:	00000613          	addi	x12,x0,0
    ae9c:	14500593          	addi	x11,x0,325
    aea0:	00007517          	auipc	x10,0x7
    aea4:	11850513          	addi	x10,x10,280 # 11fb8 <__clzsi2+0x400>
    aea8:	eb0ff0ef          	jal	x1,a558 <__assert_func>

0000aeac <__lshift>:
    aeac:	fe010113          	addi	x2,x2,-32
    aeb0:	01512223          	sw	x21,4(x2)
    aeb4:	0105aa83          	lw	x21,16(x11)
    aeb8:	0085a783          	lw	x15,8(x11)
    aebc:	01312623          	sw	x19,12(x2)
    aec0:	40565993          	srai	x19,x12,0x5
    aec4:	01598ab3          	add	x21,x19,x21
    aec8:	00812c23          	sw	x8,24(x2)
    aecc:	00912a23          	sw	x9,20(x2)
    aed0:	01212823          	sw	x18,16(x2)
    aed4:	01412423          	sw	x20,8(x2)
    aed8:	00112e23          	sw	x1,28(x2)
    aedc:	001a8913          	addi	x18,x21,1
    aee0:	00058493          	addi	x9,x11,0
    aee4:	00060413          	addi	x8,x12,0
    aee8:	0045a583          	lw	x11,4(x11)
    aeec:	00050a13          	addi	x20,x10,0
    aef0:	0127d863          	bge	x15,x18,af00 <__lshift+0x54>
    aef4:	00179793          	slli	x15,x15,0x1
    aef8:	00158593          	addi	x11,x11,1
    aefc:	ff27cce3          	blt	x15,x18,aef4 <__lshift+0x48>
    af00:	000a0513          	addi	x10,x20,0
    af04:	eccff0ef          	jal	x1,a5d0 <_Balloc>
    af08:	10050c63          	beq	x10,x0,b020 <__lshift+0x174>
    af0c:	01450813          	addi	x16,x10,20
    af10:	03305463          	bge	x0,x19,af38 <__lshift+0x8c>
    af14:	00598993          	addi	x19,x19,5
    af18:	00299993          	slli	x19,x19,0x2
    af1c:	01350733          	add	x14,x10,x19
    af20:	00080793          	addi	x15,x16,0
    af24:	00478793          	addi	x15,x15,4
    af28:	fe07ae23          	sw	x0,-4(x15)
    af2c:	fee79ce3          	bne	x15,x14,af24 <__lshift+0x78>
    af30:	fec98993          	addi	x19,x19,-20
    af34:	01380833          	add	x16,x16,x19
    af38:	0104a883          	lw	x17,16(x9)
    af3c:	01448793          	addi	x15,x9,20
    af40:	01f47613          	andi	x12,x8,31
    af44:	00289893          	slli	x17,x17,0x2
    af48:	011788b3          	add	x17,x15,x17
    af4c:	0a060463          	beq	x12,x0,aff4 <__lshift+0x148>
    af50:	02000593          	addi	x11,x0,32
    af54:	40c585b3          	sub	x11,x11,x12
    af58:	00080313          	addi	x6,x16,0
    af5c:	00000693          	addi	x13,x0,0
    af60:	0007a703          	lw	x14,0(x15)
    af64:	00430313          	addi	x6,x6,4
    af68:	00478793          	addi	x15,x15,4
    af6c:	00c71733          	sll	x14,x14,x12
    af70:	00d76733          	or	x14,x14,x13
    af74:	fee32e23          	sw	x14,-4(x6)
    af78:	ffc7a683          	lw	x13,-4(x15)
    af7c:	00b6d6b3          	srl	x13,x13,x11
    af80:	ff17e0e3          	bltu	x15,x17,af60 <__lshift+0xb4>
    af84:	01548793          	addi	x15,x9,21
    af88:	00400713          	addi	x14,x0,4
    af8c:	00f8ea63          	bltu	x17,x15,afa0 <__lshift+0xf4>
    af90:	409887b3          	sub	x15,x17,x9
    af94:	feb78793          	addi	x15,x15,-21
    af98:	ffc7f793          	andi	x15,x15,-4
    af9c:	00e78733          	add	x14,x15,x14
    afa0:	00e80833          	add	x16,x16,x14
    afa4:	00d82023          	sw	x13,0(x16)
    afa8:	00069463          	bne	x13,x0,afb0 <__lshift+0x104>
    afac:	000a8913          	addi	x18,x21,0
    afb0:	0044a703          	lw	x14,4(x9)
    afb4:	044a2783          	lw	x15,68(x20)
    afb8:	01c12083          	lw	x1,28(x2)
    afbc:	00271713          	slli	x14,x14,0x2
    afc0:	00e787b3          	add	x15,x15,x14
    afc4:	0007a703          	lw	x14,0(x15)
    afc8:	01252823          	sw	x18,16(x10)
    afcc:	01812403          	lw	x8,24(x2)
    afd0:	00e4a023          	sw	x14,0(x9)
    afd4:	0097a023          	sw	x9,0(x15)
    afd8:	01012903          	lw	x18,16(x2)
    afdc:	01412483          	lw	x9,20(x2)
    afe0:	00c12983          	lw	x19,12(x2)
    afe4:	00812a03          	lw	x20,8(x2)
    afe8:	00412a83          	lw	x21,4(x2)
    afec:	02010113          	addi	x2,x2,32
    aff0:	00008067          	jalr	x0,0(x1)
    aff4:	0007a703          	lw	x14,0(x15)
    aff8:	00478793          	addi	x15,x15,4
    affc:	00480813          	addi	x16,x16,4
    b000:	fee82e23          	sw	x14,-4(x16)
    b004:	fb17f4e3          	bgeu	x15,x17,afac <__lshift+0x100>
    b008:	0007a703          	lw	x14,0(x15)
    b00c:	00478793          	addi	x15,x15,4
    b010:	00480813          	addi	x16,x16,4
    b014:	fee82e23          	sw	x14,-4(x16)
    b018:	fd17eee3          	bltu	x15,x17,aff4 <__lshift+0x148>
    b01c:	f91ff06f          	jal	x0,afac <__lshift+0x100>
    b020:	00007697          	auipc	x13,0x7
    b024:	f0868693          	addi	x13,x13,-248 # 11f28 <__clzsi2+0x370>
    b028:	00000613          	addi	x12,x0,0
    b02c:	1de00593          	addi	x11,x0,478
    b030:	00007517          	auipc	x10,0x7
    b034:	f8850513          	addi	x10,x10,-120 # 11fb8 <__clzsi2+0x400>
    b038:	d20ff0ef          	jal	x1,a558 <__assert_func>

0000b03c <__mcmp>:
    b03c:	01052703          	lw	x14,16(x10)
    b040:	0105a783          	lw	x15,16(x11)
    b044:	00050813          	addi	x16,x10,0
    b048:	40f70533          	sub	x10,x14,x15
    b04c:	04f71263          	bne	x14,x15,b090 <__mcmp+0x54>
    b050:	00279793          	slli	x15,x15,0x2
    b054:	01480813          	addi	x16,x16,20
    b058:	01458593          	addi	x11,x11,20
    b05c:	00f58733          	add	x14,x11,x15
    b060:	00f807b3          	add	x15,x16,x15
    b064:	0080006f          	jal	x0,b06c <__mcmp+0x30>
    b068:	02f87463          	bgeu	x16,x15,b090 <__mcmp+0x54>
    b06c:	ffc7a603          	lw	x12,-4(x15)
    b070:	ffc72683          	lw	x13,-4(x14)
    b074:	ffc78793          	addi	x15,x15,-4
    b078:	ffc70713          	addi	x14,x14,-4
    b07c:	fed606e3          	beq	x12,x13,b068 <__mcmp+0x2c>
    b080:	00100513          	addi	x10,x0,1
    b084:	00d67663          	bgeu	x12,x13,b090 <__mcmp+0x54>
    b088:	fff00513          	addi	x10,x0,-1
    b08c:	00008067          	jalr	x0,0(x1)
    b090:	00008067          	jalr	x0,0(x1)

0000b094 <__mdiff>:
    b094:	0105a703          	lw	x14,16(x11)
    b098:	01062783          	lw	x15,16(x12)
    b09c:	ff010113          	addi	x2,x2,-16
    b0a0:	00812423          	sw	x8,8(x2)
    b0a4:	00912223          	sw	x9,4(x2)
    b0a8:	00112623          	sw	x1,12(x2)
    b0ac:	01212023          	sw	x18,0(x2)
    b0b0:	00058413          	addi	x8,x11,0
    b0b4:	00060493          	addi	x9,x12,0
    b0b8:	40f706b3          	sub	x13,x14,x15
    b0bc:	18f71863          	bne	x14,x15,b24c <__mdiff+0x1b8>
    b0c0:	00279693          	slli	x13,x15,0x2
    b0c4:	01458613          	addi	x12,x11,20
    b0c8:	01448713          	addi	x14,x9,20
    b0cc:	00d607b3          	add	x15,x12,x13
    b0d0:	00d70733          	add	x14,x14,x13
    b0d4:	0080006f          	jal	x0,b0dc <__mdiff+0x48>
    b0d8:	18f67e63          	bgeu	x12,x15,b274 <__mdiff+0x1e0>
    b0dc:	ffc7a583          	lw	x11,-4(x15)
    b0e0:	ffc72683          	lw	x13,-4(x14)
    b0e4:	ffc78793          	addi	x15,x15,-4
    b0e8:	ffc70713          	addi	x14,x14,-4
    b0ec:	fed586e3          	beq	x11,x13,b0d8 <__mdiff+0x44>
    b0f0:	00100913          	addi	x18,x0,1
    b0f4:	16d5f063          	bgeu	x11,x13,b254 <__mdiff+0x1c0>
    b0f8:	0044a583          	lw	x11,4(x9)
    b0fc:	cd4ff0ef          	jal	x1,a5d0 <_Balloc>
    b100:	1c050063          	beq	x10,x0,b2c0 <__mdiff+0x22c>
    b104:	0104a883          	lw	x17,16(x9)
    b108:	01042f83          	lw	x31,16(x8)
    b10c:	01448f13          	addi	x30,x9,20
    b110:	00289313          	slli	x6,x17,0x2
    b114:	002f9f93          	slli	x31,x31,0x2
    b118:	01440813          	addi	x16,x8,20
    b11c:	01450593          	addi	x11,x10,20
    b120:	01252623          	sw	x18,12(x10)
    b124:	006f0333          	add	x6,x30,x6
    b128:	01f80fb3          	add	x31,x16,x31
    b12c:	000f0e93          	addi	x29,x30,0
    b130:	00058e13          	addi	x28,x11,0
    b134:	00000693          	addi	x13,x0,0
    b138:	000ea703          	lw	x14,0(x29)
    b13c:	00082603          	lw	x12,0(x16)
    b140:	004e0e13          	addi	x28,x28,4
    b144:	01071793          	slli	x15,x14,0x10
    b148:	01061293          	slli	x5,x12,0x10
    b14c:	0107d793          	srli	x15,x15,0x10
    b150:	0102d293          	srli	x5,x5,0x10
    b154:	405787b3          	sub	x15,x15,x5
    b158:	00d787b3          	add	x15,x15,x13
    b15c:	01075713          	srli	x14,x14,0x10
    b160:	01065613          	srli	x12,x12,0x10
    b164:	4107d693          	srai	x13,x15,0x10
    b168:	40c70733          	sub	x14,x14,x12
    b16c:	00d70733          	add	x14,x14,x13
    b170:	01079793          	slli	x15,x15,0x10
    b174:	01071693          	slli	x13,x14,0x10
    b178:	0107d793          	srli	x15,x15,0x10
    b17c:	00d7e7b3          	or	x15,x15,x13
    b180:	00480813          	addi	x16,x16,4
    b184:	fefe2e23          	sw	x15,-4(x28)
    b188:	004e8e93          	addi	x29,x29,4
    b18c:	41075693          	srai	x13,x14,0x10
    b190:	fbf864e3          	bltu	x16,x31,b138 <__mdiff+0xa4>
    b194:	01540713          	addi	x14,x8,21
    b198:	408f8433          	sub	x8,x31,x8
    b19c:	feb40413          	addi	x8,x8,-21
    b1a0:	00efbfb3          	sltu	x31,x31,x14
    b1a4:	00245413          	srli	x8,x8,0x2
    b1a8:	001fce93          	xori	x29,x31,1
    b1ac:	00400713          	addi	x14,x0,4
    b1b0:	0a0f8c63          	beq	x31,x0,b268 <__mdiff+0x1d4>
    b1b4:	00ef0f33          	add	x30,x30,x14
    b1b8:	00e58833          	add	x16,x11,x14
    b1bc:	00080e13          	addi	x28,x16,0
    b1c0:	000f0613          	addi	x12,x30,0
    b1c4:	0e6f7063          	bgeu	x30,x6,b2a4 <__mdiff+0x210>
    b1c8:	00062783          	lw	x15,0(x12)
    b1cc:	004e0e13          	addi	x28,x28,4
    b1d0:	00460613          	addi	x12,x12,4
    b1d4:	01079713          	slli	x14,x15,0x10
    b1d8:	01075713          	srli	x14,x14,0x10
    b1dc:	00d70733          	add	x14,x14,x13
    b1e0:	0107d593          	srli	x11,x15,0x10
    b1e4:	41075713          	srai	x14,x14,0x10
    b1e8:	00d787b3          	add	x15,x15,x13
    b1ec:	00b70733          	add	x14,x14,x11
    b1f0:	01079793          	slli	x15,x15,0x10
    b1f4:	01071693          	slli	x13,x14,0x10
    b1f8:	0107d793          	srli	x15,x15,0x10
    b1fc:	00d7e7b3          	or	x15,x15,x13
    b200:	fefe2e23          	sw	x15,-4(x28)
    b204:	41075693          	srai	x13,x14,0x10
    b208:	fc6660e3          	bltu	x12,x6,b1c8 <__mdiff+0x134>
    b20c:	fff30313          	addi	x6,x6,-1
    b210:	41e30333          	sub	x6,x6,x30
    b214:	ffc37313          	andi	x6,x6,-4
    b218:	00680733          	add	x14,x16,x6
    b21c:	00079a63          	bne	x15,x0,b230 <__mdiff+0x19c>
    b220:	ffc72783          	lw	x15,-4(x14)
    b224:	ffc70713          	addi	x14,x14,-4
    b228:	fff88893          	addi	x17,x17,-1
    b22c:	fe078ae3          	beq	x15,x0,b220 <__mdiff+0x18c>
    b230:	00c12083          	lw	x1,12(x2)
    b234:	00812403          	lw	x8,8(x2)
    b238:	01152823          	sw	x17,16(x10)
    b23c:	00412483          	lw	x9,4(x2)
    b240:	00012903          	lw	x18,0(x2)
    b244:	01010113          	addi	x2,x2,16
    b248:	00008067          	jalr	x0,0(x1)
    b24c:	00100913          	addi	x18,x0,1
    b250:	ea06c4e3          	blt	x13,x0,b0f8 <__mdiff+0x64>
    b254:	00048793          	addi	x15,x9,0
    b258:	00000913          	addi	x18,x0,0
    b25c:	00040493          	addi	x9,x8,0
    b260:	00078413          	addi	x8,x15,0
    b264:	e95ff06f          	jal	x0,b0f8 <__mdiff+0x64>
    b268:	00140713          	addi	x14,x8,1
    b26c:	00271713          	slli	x14,x14,0x2
    b270:	f45ff06f          	jal	x0,b1b4 <__mdiff+0x120>
    b274:	00000593          	addi	x11,x0,0
    b278:	b58ff0ef          	jal	x1,a5d0 <_Balloc>
    b27c:	06050063          	beq	x10,x0,b2dc <__mdiff+0x248>
    b280:	00c12083          	lw	x1,12(x2)
    b284:	00812403          	lw	x8,8(x2)
    b288:	00100793          	addi	x15,x0,1
    b28c:	00052a23          	sw	x0,20(x10)
    b290:	00f52823          	sw	x15,16(x10)
    b294:	00412483          	lw	x9,4(x2)
    b298:	00012903          	lw	x18,0(x2)
    b29c:	01010113          	addi	x2,x2,16
    b2a0:	00008067          	jalr	x0,0(x1)
    b2a4:	00000713          	addi	x14,x0,0
    b2a8:	000e9663          	bne	x29,x0,b2b4 <__mdiff+0x220>
    b2ac:	00e58733          	add	x14,x11,x14
    b2b0:	f6dff06f          	jal	x0,b21c <__mdiff+0x188>
    b2b4:	00241713          	slli	x14,x8,0x2
    b2b8:	00e58733          	add	x14,x11,x14
    b2bc:	f61ff06f          	jal	x0,b21c <__mdiff+0x188>
    b2c0:	00007697          	auipc	x13,0x7
    b2c4:	c6868693          	addi	x13,x13,-920 # 11f28 <__clzsi2+0x370>
    b2c8:	00000613          	addi	x12,x0,0
    b2cc:	24500593          	addi	x11,x0,581
    b2d0:	00007517          	auipc	x10,0x7
    b2d4:	ce850513          	addi	x10,x10,-792 # 11fb8 <__clzsi2+0x400>
    b2d8:	a80ff0ef          	jal	x1,a558 <__assert_func>
    b2dc:	00007697          	auipc	x13,0x7
    b2e0:	c4c68693          	addi	x13,x13,-948 # 11f28 <__clzsi2+0x370>
    b2e4:	00000613          	addi	x12,x0,0
    b2e8:	23700593          	addi	x11,x0,567
    b2ec:	00007517          	auipc	x10,0x7
    b2f0:	ccc50513          	addi	x10,x10,-820 # 11fb8 <__clzsi2+0x400>
    b2f4:	a64ff0ef          	jal	x1,a558 <__assert_func>

0000b2f8 <__ulp>:
    b2f8:	7ff007b7          	lui	x15,0x7ff00
    b2fc:	00b7f5b3          	and	x11,x15,x11
    b300:	fcc007b7          	lui	x15,0xfcc00
    b304:	00f585b3          	add	x11,x11,x15
    b308:	00000793          	addi	x15,x0,0
    b30c:	00b05663          	bge	x0,x11,b318 <__ulp+0x20>
    b310:	00078513          	addi	x10,x15,0 # fcc00000 <__heap_end+0xfc800000>
    b314:	00008067          	jalr	x0,0(x1)
    b318:	40b005b3          	sub	x11,x0,x11
    b31c:	4145d593          	srai	x11,x11,0x14
    b320:	01300793          	addi	x15,x0,19
    b324:	00b7cc63          	blt	x15,x11,b33c <__ulp+0x44>
    b328:	000807b7          	lui	x15,0x80
    b32c:	40b7d5b3          	sra	x11,x15,x11
    b330:	00000793          	addi	x15,x0,0
    b334:	00078513          	addi	x10,x15,0 # 80000 <__heap_start+0x6ccc0>
    b338:	00008067          	jalr	x0,0(x1)
    b33c:	fec58593          	addi	x11,x11,-20
    b340:	01e00713          	addi	x14,x0,30
    b344:	00100793          	addi	x15,x0,1
    b348:	00b74663          	blt	x14,x11,b354 <__ulp+0x5c>
    b34c:	800007b7          	lui	x15,0x80000
    b350:	00b7d7b3          	srl	x15,x15,x11
    b354:	00000593          	addi	x11,x0,0
    b358:	00078513          	addi	x10,x15,0 # 80000000 <__heap_end+0x7fc00000>
    b35c:	00008067          	jalr	x0,0(x1)

0000b360 <__b2d>:
    b360:	fe010113          	addi	x2,x2,-32
    b364:	00912a23          	sw	x9,20(x2)
    b368:	01052483          	lw	x9,16(x10)
    b36c:	00812c23          	sw	x8,24(x2)
    b370:	01450413          	addi	x8,x10,20
    b374:	00249493          	slli	x9,x9,0x2
    b378:	009404b3          	add	x9,x8,x9
    b37c:	01412423          	sw	x20,8(x2)
    b380:	ffc4aa03          	lw	x20,-4(x9)
    b384:	01512223          	sw	x21,4(x2)
    b388:	01612023          	sw	x22,0(x2)
    b38c:	000a0513          	addi	x10,x20,0
    b390:	00058a93          	addi	x21,x11,0
    b394:	00112e23          	sw	x1,28(x2)
    b398:	01212823          	sw	x18,16(x2)
    b39c:	01312623          	sw	x19,12(x2)
    b3a0:	d9cff0ef          	jal	x1,a93c <__hi0bits>
    b3a4:	02000713          	addi	x14,x0,32
    b3a8:	40a707b3          	sub	x15,x14,x10
    b3ac:	00faa023          	sw	x15,0(x21)
    b3b0:	00a00793          	addi	x15,x0,10
    b3b4:	ffc48b13          	addi	x22,x9,-4
    b3b8:	0aa7d063          	bge	x15,x10,b458 <__b2d+0xf8>
    b3bc:	ff550613          	addi	x12,x10,-11
    b3c0:	05647063          	bgeu	x8,x22,b400 <__b2d+0xa0>
    b3c4:	ff84a783          	lw	x15,-8(x9)
    b3c8:	04060c63          	beq	x12,x0,b420 <__b2d+0xc0>
    b3cc:	40c706b3          	sub	x13,x14,x12
    b3d0:	00d7d733          	srl	x14,x15,x13
    b3d4:	00ca1a33          	sll	x20,x20,x12
    b3d8:	00ea6a33          	or	x20,x20,x14
    b3dc:	ff848593          	addi	x11,x9,-8
    b3e0:	3ff00737          	lui	x14,0x3ff00
    b3e4:	00c797b3          	sll	x15,x15,x12
    b3e8:	00ea6733          	or	x14,x20,x14
    b3ec:	02b47e63          	bgeu	x8,x11,b428 <__b2d+0xc8>
    b3f0:	ff44a603          	lw	x12,-12(x9)
    b3f4:	00d656b3          	srl	x13,x12,x13
    b3f8:	00d7e7b3          	or	x15,x15,x13
    b3fc:	02c0006f          	jal	x0,b428 <__b2d+0xc8>
    b400:	00b00793          	addi	x15,x0,11
    b404:	00f50c63          	beq	x10,x15,b41c <__b2d+0xbc>
    b408:	00ca1a33          	sll	x20,x20,x12
    b40c:	3ff00737          	lui	x14,0x3ff00
    b410:	00ea6733          	or	x14,x20,x14
    b414:	00000793          	addi	x15,x0,0
    b418:	0100006f          	jal	x0,b428 <__b2d+0xc8>
    b41c:	00000793          	addi	x15,x0,0
    b420:	3ff00737          	lui	x14,0x3ff00
    b424:	00ea6733          	or	x14,x20,x14
    b428:	01c12083          	lw	x1,28(x2)
    b42c:	01812403          	lw	x8,24(x2)
    b430:	01412483          	lw	x9,20(x2)
    b434:	01012903          	lw	x18,16(x2)
    b438:	00c12983          	lw	x19,12(x2)
    b43c:	00812a03          	lw	x20,8(x2)
    b440:	00412a83          	lw	x21,4(x2)
    b444:	00012b03          	lw	x22,0(x2)
    b448:	00078513          	addi	x10,x15,0
    b44c:	00070593          	addi	x11,x14,0 # 3ff00000 <__heap_end+0x3fb00000>
    b450:	02010113          	addi	x2,x2,32
    b454:	00008067          	jalr	x0,0(x1)
    b458:	00b00693          	addi	x13,x0,11
    b45c:	40a686b3          	sub	x13,x13,x10
    b460:	3ff007b7          	lui	x15,0x3ff00
    b464:	00da5733          	srl	x14,x20,x13
    b468:	00f76733          	or	x14,x14,x15
    b46c:	00000793          	addi	x15,x0,0
    b470:	01647663          	bgeu	x8,x22,b47c <__b2d+0x11c>
    b474:	ff84a783          	lw	x15,-8(x9)
    b478:	00d7d7b3          	srl	x15,x15,x13
    b47c:	01550513          	addi	x10,x10,21
    b480:	00aa1a33          	sll	x20,x20,x10
    b484:	00fa67b3          	or	x15,x20,x15
    b488:	fa1ff06f          	jal	x0,b428 <__b2d+0xc8>

0000b48c <__d2b>:
    b48c:	fd010113          	addi	x2,x2,-48
    b490:	01512a23          	sw	x21,20(x2)
    b494:	00058a93          	addi	x21,x11,0
    b498:	00100593          	addi	x11,x0,1
    b49c:	02912223          	sw	x9,36(x2)
    b4a0:	01312e23          	sw	x19,28(x2)
    b4a4:	01412c23          	sw	x20,24(x2)
    b4a8:	02112623          	sw	x1,44(x2)
    b4ac:	02812423          	sw	x8,40(x2)
    b4b0:	03212023          	sw	x18,32(x2)
    b4b4:	00060493          	addi	x9,x12,0
    b4b8:	00068a13          	addi	x20,x13,0
    b4bc:	00070993          	addi	x19,x14,0
    b4c0:	910ff0ef          	jal	x1,a5d0 <_Balloc>
    b4c4:	0e050e63          	beq	x10,x0,b5c0 <__d2b+0x134>
    b4c8:	00100737          	lui	x14,0x100
    b4cc:	0144d913          	srli	x18,x9,0x14
    b4d0:	fff70793          	addi	x15,x14,-1 # fffff <__heap_start+0xeccbf>
    b4d4:	7ff97913          	andi	x18,x18,2047
    b4d8:	00050413          	addi	x8,x10,0
    b4dc:	0097f7b3          	and	x15,x15,x9
    b4e0:	00090463          	beq	x18,x0,b4e8 <__d2b+0x5c>
    b4e4:	00e7e7b3          	or	x15,x15,x14
    b4e8:	00f12623          	sw	x15,12(x2)
    b4ec:	060a9263          	bne	x21,x0,b550 <__d2b+0xc4>
    b4f0:	00c10513          	addi	x10,x2,12
    b4f4:	cc0ff0ef          	jal	x1,a9b4 <__lo0bits>
    b4f8:	00c12703          	lw	x14,12(x2)
    b4fc:	00100493          	addi	x9,x0,1
    b500:	00942823          	sw	x9,16(x8)
    b504:	00e42a23          	sw	x14,20(x8)
    b508:	02050793          	addi	x15,x10,32
    b50c:	08090863          	beq	x18,x0,b59c <__d2b+0x110>
    b510:	bcd90913          	addi	x18,x18,-1075
    b514:	00f90933          	add	x18,x18,x15
    b518:	03500493          	addi	x9,x0,53
    b51c:	012a2023          	sw	x18,0(x20)
    b520:	40f48533          	sub	x10,x9,x15
    b524:	00a9a023          	sw	x10,0(x19)
    b528:	02c12083          	lw	x1,44(x2)
    b52c:	00040513          	addi	x10,x8,0
    b530:	02812403          	lw	x8,40(x2)
    b534:	02412483          	lw	x9,36(x2)
    b538:	02012903          	lw	x18,32(x2)
    b53c:	01c12983          	lw	x19,28(x2)
    b540:	01812a03          	lw	x20,24(x2)
    b544:	01412a83          	lw	x21,20(x2)
    b548:	03010113          	addi	x2,x2,48
    b54c:	00008067          	jalr	x0,0(x1)
    b550:	00810513          	addi	x10,x2,8
    b554:	01512423          	sw	x21,8(x2)
    b558:	c5cff0ef          	jal	x1,a9b4 <__lo0bits>
    b55c:	00c12703          	lw	x14,12(x2)
    b560:	00812683          	lw	x13,8(x2)
    b564:	00050793          	addi	x15,x10,0
    b568:	00050e63          	beq	x10,x0,b584 <__d2b+0xf8>
    b56c:	02000613          	addi	x12,x0,32
    b570:	40a60633          	sub	x12,x12,x10
    b574:	00c71633          	sll	x12,x14,x12
    b578:	00a75733          	srl	x14,x14,x10
    b57c:	00c6e6b3          	or	x13,x13,x12
    b580:	00e12623          	sw	x14,12(x2)
    b584:	00e034b3          	sltu	x9,x0,x14
    b588:	00148493          	addi	x9,x9,1
    b58c:	00d42a23          	sw	x13,20(x8)
    b590:	00e42c23          	sw	x14,24(x8)
    b594:	00942823          	sw	x9,16(x8)
    b598:	f6091ce3          	bne	x18,x0,b510 <__d2b+0x84>
    b59c:	00249713          	slli	x14,x9,0x2
    b5a0:	00e40733          	add	x14,x8,x14
    b5a4:	01072503          	lw	x10,16(x14)
    b5a8:	bce78793          	addi	x15,x15,-1074 # 3feffbce <__heap_end+0x3faffbce>
    b5ac:	00fa2023          	sw	x15,0(x20)
    b5b0:	b8cff0ef          	jal	x1,a93c <__hi0bits>
    b5b4:	00549493          	slli	x9,x9,0x5
    b5b8:	40a48533          	sub	x10,x9,x10
    b5bc:	f69ff06f          	jal	x0,b524 <__d2b+0x98>
    b5c0:	00007697          	auipc	x13,0x7
    b5c4:	96868693          	addi	x13,x13,-1688 # 11f28 <__clzsi2+0x370>
    b5c8:	00000613          	addi	x12,x0,0
    b5cc:	30f00593          	addi	x11,x0,783
    b5d0:	00007517          	auipc	x10,0x7
    b5d4:	9e850513          	addi	x10,x10,-1560 # 11fb8 <__clzsi2+0x400>
    b5d8:	f81fe0ef          	jal	x1,a558 <__assert_func>

0000b5dc <__ratio>:
    b5dc:	fc010113          	addi	x2,x2,-64
    b5e0:	03612023          	sw	x22,32(x2)
    b5e4:	00058b13          	addi	x22,x11,0
    b5e8:	00810593          	addi	x11,x2,8
    b5ec:	02112e23          	sw	x1,60(x2)
    b5f0:	02812c23          	sw	x8,56(x2)
    b5f4:	02912a23          	sw	x9,52(x2)
    b5f8:	01712e23          	sw	x23,28(x2)
    b5fc:	03212823          	sw	x18,48(x2)
    b600:	00050b93          	addi	x23,x10,0
    b604:	03312623          	sw	x19,44(x2)
    b608:	03412423          	sw	x20,40(x2)
    b60c:	03512223          	sw	x21,36(x2)
    b610:	d51ff0ef          	jal	x1,b360 <__b2d>
    b614:	00050493          	addi	x9,x10,0
    b618:	00058413          	addi	x8,x11,0
    b61c:	000b0513          	addi	x10,x22,0
    b620:	00c10593          	addi	x11,x2,12
    b624:	d3dff0ef          	jal	x1,b360 <__b2d>
    b628:	010ba783          	lw	x15,16(x23)
    b62c:	010b2603          	lw	x12,16(x22)
    b630:	00812703          	lw	x14,8(x2)
    b634:	00c12683          	lw	x13,12(x2)
    b638:	40c787b3          	sub	x15,x15,x12
    b63c:	00579793          	slli	x15,x15,0x5
    b640:	40d70733          	sub	x14,x14,x13
    b644:	00e787b3          	add	x15,x15,x14
    b648:	04f05663          	bge	x0,x15,b694 <__ratio+0xb8>
    b64c:	01479793          	slli	x15,x15,0x14
    b650:	00878433          	add	x8,x15,x8
    b654:	00050613          	addi	x12,x10,0
    b658:	00058693          	addi	x13,x11,0
    b65c:	00048513          	addi	x10,x9,0
    b660:	00040593          	addi	x11,x8,0
    b664:	049010ef          	jal	x1,ceac <__divdf3>
    b668:	03c12083          	lw	x1,60(x2)
    b66c:	03812403          	lw	x8,56(x2)
    b670:	03412483          	lw	x9,52(x2)
    b674:	03012903          	lw	x18,48(x2)
    b678:	02c12983          	lw	x19,44(x2)
    b67c:	02812a03          	lw	x20,40(x2)
    b680:	02412a83          	lw	x21,36(x2)
    b684:	02012b03          	lw	x22,32(x2)
    b688:	01c12b83          	lw	x23,28(x2)
    b68c:	04010113          	addi	x2,x2,64
    b690:	00008067          	jalr	x0,0(x1)
    b694:	01479793          	slli	x15,x15,0x14
    b698:	40f585b3          	sub	x11,x11,x15
    b69c:	fb9ff06f          	jal	x0,b654 <__ratio+0x78>

0000b6a0 <_mprec_log10>:
    b6a0:	fe010113          	addi	x2,x2,-32
    b6a4:	01412423          	sw	x20,8(x2)
    b6a8:	00112e23          	sw	x1,28(x2)
    b6ac:	01212823          	sw	x18,16(x2)
    b6b0:	01312623          	sw	x19,12(x2)
    b6b4:	01700793          	addi	x15,x0,23
    b6b8:	00050a13          	addi	x20,x10,0
    b6bc:	06a7d863          	bge	x15,x10,b72c <_mprec_log10+0x8c>
    b6c0:	00008797          	auipc	x15,0x8
    b6c4:	92878793          	addi	x15,x15,-1752 # 12fe8 <__SDATA_BEGIN__+0x30>
    b6c8:	00008717          	auipc	x14,0x8
    b6cc:	92870713          	addi	x14,x14,-1752 # 12ff0 <__SDATA_BEGIN__+0x38>
    b6d0:	00812c23          	sw	x8,24(x2)
    b6d4:	00912a23          	sw	x9,20(x2)
    b6d8:	0007a503          	lw	x10,0(x15)
    b6dc:	0047a583          	lw	x11,4(x15)
    b6e0:	00072403          	lw	x8,0(x14)
    b6e4:	00472483          	lw	x9,4(x14)
    b6e8:	01612223          	sw	x22,4(x2)
    b6ec:	01712023          	sw	x23,0(x2)
    b6f0:	00040613          	addi	x12,x8,0
    b6f4:	00048693          	addi	x13,x9,0
    b6f8:	fffa0a13          	addi	x20,x20,-1
    b6fc:	1fc020ef          	jal	x1,d8f8 <__muldf3>
    b700:	fe0a18e3          	bne	x20,x0,b6f0 <_mprec_log10+0x50>
    b704:	01812403          	lw	x8,24(x2)
    b708:	01c12083          	lw	x1,28(x2)
    b70c:	01412483          	lw	x9,20(x2)
    b710:	00412b03          	lw	x22,4(x2)
    b714:	00012b83          	lw	x23,0(x2)
    b718:	01012903          	lw	x18,16(x2)
    b71c:	00c12983          	lw	x19,12(x2)
    b720:	00812a03          	lw	x20,8(x2)
    b724:	02010113          	addi	x2,x2,32
    b728:	00008067          	jalr	x0,0(x1)
    b72c:	01c12083          	lw	x1,28(x2)
    b730:	00351a13          	slli	x20,x10,0x3
    b734:	00007797          	auipc	x15,0x7
    b738:	e6c78793          	addi	x15,x15,-404 # 125a0 <p05.0>
    b73c:	014787b3          	add	x15,x15,x20
    b740:	0107a503          	lw	x10,16(x15)
    b744:	0147a583          	lw	x11,20(x15)
    b748:	01012903          	lw	x18,16(x2)
    b74c:	00c12983          	lw	x19,12(x2)
    b750:	00812a03          	lw	x20,8(x2)
    b754:	02010113          	addi	x2,x2,32
    b758:	00008067          	jalr	x0,0(x1)

0000b75c <__copybits>:
    b75c:	01062683          	lw	x13,16(x12)
    b760:	fff58593          	addi	x11,x11,-1
    b764:	4055d593          	srai	x11,x11,0x5
    b768:	00158593          	addi	x11,x11,1
    b76c:	00269693          	slli	x13,x13,0x2
    b770:	01460793          	addi	x15,x12,20
    b774:	00259593          	slli	x11,x11,0x2
    b778:	00d786b3          	add	x13,x15,x13
    b77c:	00b505b3          	add	x11,x10,x11
    b780:	02d7f863          	bgeu	x15,x13,b7b0 <__copybits+0x54>
    b784:	00050713          	addi	x14,x10,0
    b788:	0007a803          	lw	x16,0(x15)
    b78c:	00478793          	addi	x15,x15,4
    b790:	00470713          	addi	x14,x14,4
    b794:	ff072e23          	sw	x16,-4(x14)
    b798:	fed7e8e3          	bltu	x15,x13,b788 <__copybits+0x2c>
    b79c:	40c687b3          	sub	x15,x13,x12
    b7a0:	feb78793          	addi	x15,x15,-21
    b7a4:	ffc7f793          	andi	x15,x15,-4
    b7a8:	00478793          	addi	x15,x15,4
    b7ac:	00f50533          	add	x10,x10,x15
    b7b0:	00b57863          	bgeu	x10,x11,b7c0 <__copybits+0x64>
    b7b4:	00450513          	addi	x10,x10,4
    b7b8:	fe052e23          	sw	x0,-4(x10)
    b7bc:	feb56ce3          	bltu	x10,x11,b7b4 <__copybits+0x58>
    b7c0:	00008067          	jalr	x0,0(x1)

0000b7c4 <__any_on>:
    b7c4:	01052703          	lw	x14,16(x10)
    b7c8:	4055d613          	srai	x12,x11,0x5
    b7cc:	01450693          	addi	x13,x10,20
    b7d0:	02c75263          	bge	x14,x12,b7f4 <__any_on+0x30>
    b7d4:	00271713          	slli	x14,x14,0x2
    b7d8:	00e687b3          	add	x15,x13,x14
    b7dc:	04f6f263          	bgeu	x13,x15,b820 <__any_on+0x5c>
    b7e0:	ffc7a703          	lw	x14,-4(x15)
    b7e4:	ffc78793          	addi	x15,x15,-4
    b7e8:	fe070ae3          	beq	x14,x0,b7dc <__any_on+0x18>
    b7ec:	00100513          	addi	x10,x0,1
    b7f0:	00008067          	jalr	x0,0(x1)
    b7f4:	00261793          	slli	x15,x12,0x2
    b7f8:	00f687b3          	add	x15,x13,x15
    b7fc:	fee650e3          	bge	x12,x14,b7dc <__any_on+0x18>
    b800:	01f5f593          	andi	x11,x11,31
    b804:	fc058ce3          	beq	x11,x0,b7dc <__any_on+0x18>
    b808:	0007a603          	lw	x12,0(x15)
    b80c:	00100513          	addi	x10,x0,1
    b810:	00b65733          	srl	x14,x12,x11
    b814:	00b71733          	sll	x14,x14,x11
    b818:	fce602e3          	beq	x12,x14,b7dc <__any_on+0x18>
    b81c:	00008067          	jalr	x0,0(x1)
    b820:	00000513          	addi	x10,x0,0
    b824:	00008067          	jalr	x0,0(x1)

0000b828 <__rshift_D2A>:
    b828:	01052803          	lw	x16,16(x10)
    b82c:	4055de13          	srai	x28,x11,0x5
    b830:	010e4863          	blt	x28,x16,b840 <__rshift_D2A+0x18>
    b834:	00052823          	sw	x0,16(x10)
    b838:	00052a23          	sw	x0,20(x10)
    b83c:	00008067          	jalr	x0,0(x1)
    b840:	01450313          	addi	x6,x10,20
    b844:	00281613          	slli	x12,x16,0x2
    b848:	002e1793          	slli	x15,x28,0x2
    b84c:	01f5f593          	andi	x11,x11,31
    b850:	00c30633          	add	x12,x6,x12
    b854:	00f307b3          	add	x15,x6,x15
    b858:	06058263          	beq	x11,x0,b8bc <__rshift_D2A+0x94>
    b85c:	0007a683          	lw	x13,0(x15)
    b860:	02000e93          	addi	x29,x0,32
    b864:	00478793          	addi	x15,x15,4
    b868:	00b6d6b3          	srl	x13,x13,x11
    b86c:	40be8eb3          	sub	x29,x29,x11
    b870:	08c7f463          	bgeu	x15,x12,b8f8 <__rshift_D2A+0xd0>
    b874:	00030893          	addi	x17,x6,0
    b878:	0007a703          	lw	x14,0(x15)
    b87c:	00488893          	addi	x17,x17,4
    b880:	00478793          	addi	x15,x15,4
    b884:	01d71733          	sll	x14,x14,x29
    b888:	00d76733          	or	x14,x14,x13
    b88c:	fee8ae23          	sw	x14,-4(x17)
    b890:	ffc7a683          	lw	x13,-4(x15)
    b894:	00b6d6b3          	srl	x13,x13,x11
    b898:	fec7e0e3          	bltu	x15,x12,b878 <__rshift_D2A+0x50>
    b89c:	41c80833          	sub	x16,x16,x28
    b8a0:	00281813          	slli	x16,x16,0x2
    b8a4:	ffc80813          	addi	x16,x16,-4
    b8a8:	01030833          	add	x16,x6,x16
    b8ac:	00d82023          	sw	x13,0(x16)
    b8b0:	02068a63          	beq	x13,x0,b8e4 <__rshift_D2A+0xbc>
    b8b4:	00480813          	addi	x16,x16,4
    b8b8:	02c0006f          	jal	x0,b8e4 <__rshift_D2A+0xbc>
    b8bc:	00030713          	addi	x14,x6,0
    b8c0:	f6c7fae3          	bgeu	x15,x12,b834 <__rshift_D2A+0xc>
    b8c4:	0007a683          	lw	x13,0(x15)
    b8c8:	00478793          	addi	x15,x15,4
    b8cc:	00470713          	addi	x14,x14,4
    b8d0:	fed72e23          	sw	x13,-4(x14)
    b8d4:	fec7e8e3          	bltu	x15,x12,b8c4 <__rshift_D2A+0x9c>
    b8d8:	41c80833          	sub	x16,x16,x28
    b8dc:	00281813          	slli	x16,x16,0x2
    b8e0:	01030833          	add	x16,x6,x16
    b8e4:	406807b3          	sub	x15,x16,x6
    b8e8:	4027d793          	srai	x15,x15,0x2
    b8ec:	00f52823          	sw	x15,16(x10)
    b8f0:	f46804e3          	beq	x16,x6,b838 <__rshift_D2A+0x10>
    b8f4:	00008067          	jalr	x0,0(x1)
    b8f8:	00d52a23          	sw	x13,20(x10)
    b8fc:	f2068ce3          	beq	x13,x0,b834 <__rshift_D2A+0xc>
    b900:	00030813          	addi	x16,x6,0
    b904:	00480813          	addi	x16,x16,4
    b908:	fddff06f          	jal	x0,b8e4 <__rshift_D2A+0xbc>

0000b90c <__trailz_D2A>:
    b90c:	01052703          	lw	x14,16(x10)
    b910:	fe010113          	addi	x2,x2,-32
    b914:	01450513          	addi	x10,x10,20
    b918:	00271713          	slli	x14,x14,0x2
    b91c:	00812c23          	sw	x8,24(x2)
    b920:	00112e23          	sw	x1,28(x2)
    b924:	00e50733          	add	x14,x10,x14
    b928:	00000413          	addi	x8,x0,0
    b92c:	00e56a63          	bltu	x10,x14,b940 <__trailz_D2A+0x34>
    b930:	02c0006f          	jal	x0,b95c <__trailz_D2A+0x50>
    b934:	00450513          	addi	x10,x10,4
    b938:	02040413          	addi	x8,x8,32
    b93c:	02e57063          	bgeu	x10,x14,b95c <__trailz_D2A+0x50>
    b940:	00052783          	lw	x15,0(x10)
    b944:	fe0788e3          	beq	x15,x0,b934 <__trailz_D2A+0x28>
    b948:	00e57a63          	bgeu	x10,x14,b95c <__trailz_D2A+0x50>
    b94c:	00c10513          	addi	x10,x2,12
    b950:	00f12623          	sw	x15,12(x2)
    b954:	860ff0ef          	jal	x1,a9b4 <__lo0bits>
    b958:	00a40433          	add	x8,x8,x10
    b95c:	01c12083          	lw	x1,28(x2)
    b960:	00040513          	addi	x10,x8,0
    b964:	01812403          	lw	x8,24(x2)
    b968:	02010113          	addi	x2,x2,32
    b96c:	00008067          	jalr	x0,0(x1)

0000b970 <_isatty_r>:
    b970:	ff010113          	addi	x2,x2,-16
    b974:	00812423          	sw	x8,8(x2)
    b978:	00050413          	addi	x8,x10,0
    b97c:	00058513          	addi	x10,x11,0
    b980:	f001ac23          	sw	x0,-232(x3) # 13028 <errno>
    b984:	00112623          	sw	x1,12(x2)
    b988:	9ebf40ef          	jal	x1,372 <_isatty>
    b98c:	fff00793          	addi	x15,x0,-1
    b990:	00f50a63          	beq	x10,x15,b9a4 <_isatty_r+0x34>
    b994:	00c12083          	lw	x1,12(x2)
    b998:	00812403          	lw	x8,8(x2)
    b99c:	01010113          	addi	x2,x2,16
    b9a0:	00008067          	jalr	x0,0(x1)
    b9a4:	00912223          	sw	x9,4(x2)
    b9a8:	f1818493          	addi	x9,x3,-232 # 13028 <errno>
    b9ac:	0004a783          	lw	x15,0(x9)
    b9b0:	00078e63          	beq	x15,x0,b9cc <_isatty_r+0x5c>
    b9b4:	00c12083          	lw	x1,12(x2)
    b9b8:	00f42023          	sw	x15,0(x8)
    b9bc:	00812403          	lw	x8,8(x2)
    b9c0:	00412483          	lw	x9,4(x2)
    b9c4:	01010113          	addi	x2,x2,16
    b9c8:	00008067          	jalr	x0,0(x1)
    b9cc:	00c12083          	lw	x1,12(x2)
    b9d0:	00812403          	lw	x8,8(x2)
    b9d4:	00412483          	lw	x9,4(x2)
    b9d8:	01010113          	addi	x2,x2,16
    b9dc:	00008067          	jalr	x0,0(x1)

0000b9e0 <_wcrtomb_r>:
    b9e0:	fe010113          	addi	x2,x2,-32
    b9e4:	00812c23          	sw	x8,24(x2)
    b9e8:	00912a23          	sw	x9,20(x2)
    b9ec:	00112e23          	sw	x1,28(x2)
    b9f0:	00050413          	addi	x8,x10,0
    b9f4:	00068493          	addi	x9,x13,0
    b9f8:	e181a783          	lw	x15,-488(x3) # 12f28 <__global_locale+0xe0>
    b9fc:	02058263          	beq	x11,x0,ba20 <_wcrtomb_r+0x40>
    ba00:	000780e7          	jalr	x1,0(x15)
    ba04:	fff00793          	addi	x15,x0,-1
    ba08:	02f50663          	beq	x10,x15,ba34 <_wcrtomb_r+0x54>
    ba0c:	01c12083          	lw	x1,28(x2)
    ba10:	01812403          	lw	x8,24(x2)
    ba14:	01412483          	lw	x9,20(x2)
    ba18:	02010113          	addi	x2,x2,32
    ba1c:	00008067          	jalr	x0,0(x1)
    ba20:	00000613          	addi	x12,x0,0
    ba24:	00410593          	addi	x11,x2,4
    ba28:	000780e7          	jalr	x1,0(x15)
    ba2c:	fff00793          	addi	x15,x0,-1
    ba30:	fcf51ee3          	bne	x10,x15,ba0c <_wcrtomb_r+0x2c>
    ba34:	0004a023          	sw	x0,0(x9)
    ba38:	08a00793          	addi	x15,x0,138
    ba3c:	01c12083          	lw	x1,28(x2)
    ba40:	00f42023          	sw	x15,0(x8)
    ba44:	01812403          	lw	x8,24(x2)
    ba48:	01412483          	lw	x9,20(x2)
    ba4c:	02010113          	addi	x2,x2,32
    ba50:	00008067          	jalr	x0,0(x1)

0000ba54 <wcrtomb>:
    ba54:	fe010113          	addi	x2,x2,-32
    ba58:	00812c23          	sw	x8,24(x2)
    ba5c:	00912a23          	sw	x9,20(x2)
    ba60:	00112e23          	sw	x1,28(x2)
    ba64:	00060413          	addi	x8,x12,0
    ba68:	f141a483          	lw	x9,-236(x3) # 13024 <_impure_ptr>
    ba6c:	e181a783          	lw	x15,-488(x3) # 12f28 <__global_locale+0xe0>
    ba70:	02050a63          	beq	x10,x0,baa4 <wcrtomb+0x50>
    ba74:	00058613          	addi	x12,x11,0
    ba78:	00040693          	addi	x13,x8,0
    ba7c:	00050593          	addi	x11,x10,0
    ba80:	00048513          	addi	x10,x9,0
    ba84:	000780e7          	jalr	x1,0(x15)
    ba88:	fff00793          	addi	x15,x0,-1
    ba8c:	02f50a63          	beq	x10,x15,bac0 <wcrtomb+0x6c>
    ba90:	01c12083          	lw	x1,28(x2)
    ba94:	01812403          	lw	x8,24(x2)
    ba98:	01412483          	lw	x9,20(x2)
    ba9c:	02010113          	addi	x2,x2,32
    baa0:	00008067          	jalr	x0,0(x1)
    baa4:	00060693          	addi	x13,x12,0
    baa8:	00410593          	addi	x11,x2,4
    baac:	00000613          	addi	x12,x0,0
    bab0:	00048513          	addi	x10,x9,0
    bab4:	000780e7          	jalr	x1,0(x15)
    bab8:	fff00793          	addi	x15,x0,-1
    babc:	fcf51ae3          	bne	x10,x15,ba90 <wcrtomb+0x3c>
    bac0:	00042023          	sw	x0,0(x8)
    bac4:	01c12083          	lw	x1,28(x2)
    bac8:	01812403          	lw	x8,24(x2)
    bacc:	08a00793          	addi	x15,x0,138
    bad0:	00f4a023          	sw	x15,0(x9)
    bad4:	01412483          	lw	x9,20(x2)
    bad8:	02010113          	addi	x2,x2,32
    badc:	00008067          	jalr	x0,0(x1)

0000bae0 <_setlocale_r>:
    bae0:	04060063          	beq	x12,x0,bb20 <_setlocale_r+0x40>
    bae4:	ff010113          	addi	x2,x2,-16
    bae8:	00006597          	auipc	x11,0x6
    baec:	50858593          	addi	x11,x11,1288 # 11ff0 <__clzsi2+0x438>
    baf0:	00060513          	addi	x10,x12,0
    baf4:	00812423          	sw	x8,8(x2)
    baf8:	00112623          	sw	x1,12(x2)
    bafc:	00060413          	addi	x8,x12,0
    bb00:	31c000ef          	jal	x1,be1c <strcmp>
    bb04:	02051463          	bne	x10,x0,bb2c <_setlocale_r+0x4c>
    bb08:	00006517          	auipc	x10,0x6
    bb0c:	4e450513          	addi	x10,x10,1252 # 11fec <__clzsi2+0x434>
    bb10:	00c12083          	lw	x1,12(x2)
    bb14:	00812403          	lw	x8,8(x2)
    bb18:	01010113          	addi	x2,x2,16
    bb1c:	00008067          	jalr	x0,0(x1)
    bb20:	00006517          	auipc	x10,0x6
    bb24:	4cc50513          	addi	x10,x10,1228 # 11fec <__clzsi2+0x434>
    bb28:	00008067          	jalr	x0,0(x1)
    bb2c:	00006597          	auipc	x11,0x6
    bb30:	4c058593          	addi	x11,x11,1216 # 11fec <__clzsi2+0x434>
    bb34:	00040513          	addi	x10,x8,0
    bb38:	2e4000ef          	jal	x1,be1c <strcmp>
    bb3c:	fc0506e3          	beq	x10,x0,bb08 <_setlocale_r+0x28>
    bb40:	00040513          	addi	x10,x8,0
    bb44:	00006597          	auipc	x11,0x6
    bb48:	1e858593          	addi	x11,x11,488 # 11d2c <__clzsi2+0x174>
    bb4c:	2d0000ef          	jal	x1,be1c <strcmp>
    bb50:	fa050ce3          	beq	x10,x0,bb08 <_setlocale_r+0x28>
    bb54:	00000513          	addi	x10,x0,0
    bb58:	fb9ff06f          	jal	x0,bb10 <_setlocale_r+0x30>

0000bb5c <__locale_mb_cur_max>:
    bb5c:	e601c503          	lbu	x10,-416(x3) # 12f70 <__global_locale+0x128>
    bb60:	00008067          	jalr	x0,0(x1)

0000bb64 <setlocale>:
    bb64:	04058063          	beq	x11,x0,bba4 <setlocale+0x40>
    bb68:	ff010113          	addi	x2,x2,-16
    bb6c:	00812423          	sw	x8,8(x2)
    bb70:	00058413          	addi	x8,x11,0
    bb74:	00040513          	addi	x10,x8,0
    bb78:	00006597          	auipc	x11,0x6
    bb7c:	47858593          	addi	x11,x11,1144 # 11ff0 <__clzsi2+0x438>
    bb80:	00112623          	sw	x1,12(x2)
    bb84:	298000ef          	jal	x1,be1c <strcmp>
    bb88:	02051463          	bne	x10,x0,bbb0 <setlocale+0x4c>
    bb8c:	00006517          	auipc	x10,0x6
    bb90:	46050513          	addi	x10,x10,1120 # 11fec <__clzsi2+0x434>
    bb94:	00c12083          	lw	x1,12(x2)
    bb98:	00812403          	lw	x8,8(x2)
    bb9c:	01010113          	addi	x2,x2,16
    bba0:	00008067          	jalr	x0,0(x1)
    bba4:	00006517          	auipc	x10,0x6
    bba8:	44850513          	addi	x10,x10,1096 # 11fec <__clzsi2+0x434>
    bbac:	00008067          	jalr	x0,0(x1)
    bbb0:	00006597          	auipc	x11,0x6
    bbb4:	43c58593          	addi	x11,x11,1084 # 11fec <__clzsi2+0x434>
    bbb8:	00040513          	addi	x10,x8,0
    bbbc:	260000ef          	jal	x1,be1c <strcmp>
    bbc0:	fc0506e3          	beq	x10,x0,bb8c <setlocale+0x28>
    bbc4:	00040513          	addi	x10,x8,0
    bbc8:	00006597          	auipc	x11,0x6
    bbcc:	16458593          	addi	x11,x11,356 # 11d2c <__clzsi2+0x174>
    bbd0:	24c000ef          	jal	x1,be1c <strcmp>
    bbd4:	fa050ce3          	beq	x10,x0,bb8c <setlocale+0x28>
    bbd8:	00000513          	addi	x10,x0,0
    bbdc:	fb9ff06f          	jal	x0,bb94 <setlocale+0x30>

0000bbe0 <abort>:
    bbe0:	ff010113          	addi	x2,x2,-16
    bbe4:	00600513          	addi	x10,x0,6
    bbe8:	00112623          	sw	x1,12(x2)
    bbec:	650000ef          	jal	x1,c23c <raise>
    bbf0:	00100513          	addi	x10,x0,1
    bbf4:	f20f40ef          	jal	x1,314 <_exit>

0000bbf8 <_calloc_r>:
    bbf8:	02c5b7b3          	mulhu	x15,x11,x12
    bbfc:	ff010113          	addi	x2,x2,-16
    bc00:	00112623          	sw	x1,12(x2)
    bc04:	00812423          	sw	x8,8(x2)
    bc08:	02c585b3          	mul	x11,x11,x12
    bc0c:	0a079063          	bne	x15,x0,bcac <_calloc_r+0xb4>
    bc10:	d80f50ef          	jal	x1,1190 <_malloc_r>
    bc14:	00050413          	addi	x8,x10,0
    bc18:	0a050063          	beq	x10,x0,bcb8 <_calloc_r+0xc0>
    bc1c:	ffc52603          	lw	x12,-4(x10)
    bc20:	02400713          	addi	x14,x0,36
    bc24:	ffc67613          	andi	x12,x12,-4
    bc28:	ffc60613          	addi	x12,x12,-4
    bc2c:	04c76863          	bltu	x14,x12,bc7c <_calloc_r+0x84>
    bc30:	01300693          	addi	x13,x0,19
    bc34:	00050793          	addi	x15,x10,0
    bc38:	02c6f263          	bgeu	x13,x12,bc5c <_calloc_r+0x64>
    bc3c:	00052023          	sw	x0,0(x10)
    bc40:	00052223          	sw	x0,4(x10)
    bc44:	01b00793          	addi	x15,x0,27
    bc48:	04c7f863          	bgeu	x15,x12,bc98 <_calloc_r+0xa0>
    bc4c:	00052423          	sw	x0,8(x10)
    bc50:	00052623          	sw	x0,12(x10)
    bc54:	01050793          	addi	x15,x10,16
    bc58:	06e60c63          	beq	x12,x14,bcd0 <_calloc_r+0xd8>
    bc5c:	0007a023          	sw	x0,0(x15)
    bc60:	0007a223          	sw	x0,4(x15)
    bc64:	0007a423          	sw	x0,8(x15)
    bc68:	00c12083          	lw	x1,12(x2)
    bc6c:	00040513          	addi	x10,x8,0
    bc70:	00812403          	lw	x8,8(x2)
    bc74:	01010113          	addi	x2,x2,16
    bc78:	00008067          	jalr	x0,0(x1)
    bc7c:	00000593          	addi	x11,x0,0
    bc80:	895f40ef          	jal	x1,514 <memset>
    bc84:	00c12083          	lw	x1,12(x2)
    bc88:	00040513          	addi	x10,x8,0
    bc8c:	00812403          	lw	x8,8(x2)
    bc90:	01010113          	addi	x2,x2,16
    bc94:	00008067          	jalr	x0,0(x1)
    bc98:	00850793          	addi	x15,x10,8
    bc9c:	0007a023          	sw	x0,0(x15)
    bca0:	0007a223          	sw	x0,4(x15)
    bca4:	0007a423          	sw	x0,8(x15)
    bca8:	fc1ff06f          	jal	x0,bc68 <_calloc_r+0x70>
    bcac:	0ac000ef          	jal	x1,bd58 <__errno>
    bcb0:	00c00793          	addi	x15,x0,12
    bcb4:	00f52023          	sw	x15,0(x10)
    bcb8:	00000413          	addi	x8,x0,0
    bcbc:	00c12083          	lw	x1,12(x2)
    bcc0:	00040513          	addi	x10,x8,0
    bcc4:	00812403          	lw	x8,8(x2)
    bcc8:	01010113          	addi	x2,x2,16
    bccc:	00008067          	jalr	x0,0(x1)
    bcd0:	00052823          	sw	x0,16(x10)
    bcd4:	00052a23          	sw	x0,20(x10)
    bcd8:	01850793          	addi	x15,x10,24
    bcdc:	f81ff06f          	jal	x0,bc5c <_calloc_r+0x64>

0000bce0 <_fstat_r>:
    bce0:	ff010113          	addi	x2,x2,-16
    bce4:	00058713          	addi	x14,x11,0
    bce8:	00812423          	sw	x8,8(x2)
    bcec:	00060593          	addi	x11,x12,0
    bcf0:	00050413          	addi	x8,x10,0
    bcf4:	00070513          	addi	x10,x14,0
    bcf8:	f001ac23          	sw	x0,-232(x3) # 13028 <errno>
    bcfc:	00112623          	sw	x1,12(x2)
    bd00:	e36f40ef          	jal	x1,336 <_fstat>
    bd04:	fff00793          	addi	x15,x0,-1
    bd08:	00f50a63          	beq	x10,x15,bd1c <_fstat_r+0x3c>
    bd0c:	00c12083          	lw	x1,12(x2)
    bd10:	00812403          	lw	x8,8(x2)
    bd14:	01010113          	addi	x2,x2,16
    bd18:	00008067          	jalr	x0,0(x1)
    bd1c:	00912223          	sw	x9,4(x2)
    bd20:	f1818493          	addi	x9,x3,-232 # 13028 <errno>
    bd24:	0004a783          	lw	x15,0(x9)
    bd28:	00078e63          	beq	x15,x0,bd44 <_fstat_r+0x64>
    bd2c:	00c12083          	lw	x1,12(x2)
    bd30:	00f42023          	sw	x15,0(x8)
    bd34:	00812403          	lw	x8,8(x2)
    bd38:	00412483          	lw	x9,4(x2)
    bd3c:	01010113          	addi	x2,x2,16
    bd40:	00008067          	jalr	x0,0(x1)
    bd44:	00c12083          	lw	x1,12(x2)
    bd48:	00812403          	lw	x8,8(x2)
    bd4c:	00412483          	lw	x9,4(x2)
    bd50:	01010113          	addi	x2,x2,16
    bd54:	00008067          	jalr	x0,0(x1)

0000bd58 <__errno>:
    bd58:	f141a503          	lw	x10,-236(x3) # 13024 <_impure_ptr>
    bd5c:	00008067          	jalr	x0,0(x1)

0000bd60 <_fiprintf_r>:
    bd60:	fc010113          	addi	x2,x2,-64
    bd64:	02c10313          	addi	x6,x2,44
    bd68:	02d12623          	sw	x13,44(x2)
    bd6c:	00030693          	addi	x13,x6,0
    bd70:	00112e23          	sw	x1,28(x2)
    bd74:	02e12823          	sw	x14,48(x2)
    bd78:	02f12a23          	sw	x15,52(x2)
    bd7c:	03012c23          	sw	x16,56(x2)
    bd80:	03112e23          	sw	x17,60(x2)
    bd84:	00612623          	sw	x6,12(x2)
    bd88:	b48fa0ef          	jal	x1,60d0 <_vfiprintf_r>
    bd8c:	01c12083          	lw	x1,28(x2)
    bd90:	04010113          	addi	x2,x2,64
    bd94:	00008067          	jalr	x0,0(x1)

0000bd98 <fiprintf>:
    bd98:	fc010113          	addi	x2,x2,-64
    bd9c:	02810313          	addi	x6,x2,40
    bda0:	00058e13          	addi	x28,x11,0
    bda4:	02c12423          	sw	x12,40(x2)
    bda8:	02d12623          	sw	x13,44(x2)
    bdac:	00050593          	addi	x11,x10,0
    bdb0:	000e0613          	addi	x12,x28,0
    bdb4:	00030693          	addi	x13,x6,0
    bdb8:	f141a503          	lw	x10,-236(x3) # 13024 <_impure_ptr>
    bdbc:	00112e23          	sw	x1,28(x2)
    bdc0:	02e12823          	sw	x14,48(x2)
    bdc4:	02f12a23          	sw	x15,52(x2)
    bdc8:	03012c23          	sw	x16,56(x2)
    bdcc:	03112e23          	sw	x17,60(x2)
    bdd0:	00612623          	sw	x6,12(x2)
    bdd4:	afcfa0ef          	jal	x1,60d0 <_vfiprintf_r>
    bdd8:	01c12083          	lw	x1,28(x2)
    bddc:	04010113          	addi	x2,x2,64
    bde0:	00008067          	jalr	x0,0(x1)

0000bde4 <_wctomb_r>:
    bde4:	e181a783          	lw	x15,-488(x3) # 12f28 <__global_locale+0xe0>
    bde8:	00078067          	jalr	x0,0(x15)

0000bdec <__ascii_wctomb>:
    bdec:	02058463          	beq	x11,x0,be14 <__ascii_wctomb+0x28>
    bdf0:	0ff00793          	addi	x15,x0,255
    bdf4:	00c7e863          	bltu	x15,x12,be04 <__ascii_wctomb+0x18>
    bdf8:	00c58023          	sb	x12,0(x11)
    bdfc:	00100513          	addi	x10,x0,1
    be00:	00008067          	jalr	x0,0(x1)
    be04:	08a00793          	addi	x15,x0,138
    be08:	00f52023          	sw	x15,0(x10)
    be0c:	fff00513          	addi	x10,x0,-1
    be10:	00008067          	jalr	x0,0(x1)
    be14:	00000513          	addi	x10,x0,0
    be18:	00008067          	jalr	x0,0(x1)

0000be1c <strcmp>:
    be1c:	00b56733          	or	x14,x10,x11
    be20:	fff00393          	addi	x7,x0,-1
    be24:	00377713          	andi	x14,x14,3
    be28:	10071063          	bne	x14,x0,bf28 <strcmp+0x10c>
    be2c:	7f7f87b7          	lui	x15,0x7f7f8
    be30:	f7f78793          	addi	x15,x15,-129 # 7f7f7f7f <__heap_end+0x7f3f7f7f>
    be34:	00052603          	lw	x12,0(x10)
    be38:	0005a683          	lw	x13,0(x11)
    be3c:	00f672b3          	and	x5,x12,x15
    be40:	00f66333          	or	x6,x12,x15
    be44:	00f282b3          	add	x5,x5,x15
    be48:	0062e2b3          	or	x5,x5,x6
    be4c:	10729263          	bne	x5,x7,bf50 <strcmp+0x134>
    be50:	08d61663          	bne	x12,x13,bedc <strcmp+0xc0>
    be54:	00452603          	lw	x12,4(x10)
    be58:	0045a683          	lw	x13,4(x11)
    be5c:	00f672b3          	and	x5,x12,x15
    be60:	00f66333          	or	x6,x12,x15
    be64:	00f282b3          	add	x5,x5,x15
    be68:	0062e2b3          	or	x5,x5,x6
    be6c:	0c729e63          	bne	x5,x7,bf48 <strcmp+0x12c>
    be70:	06d61663          	bne	x12,x13,bedc <strcmp+0xc0>
    be74:	00852603          	lw	x12,8(x10)
    be78:	0085a683          	lw	x13,8(x11)
    be7c:	00f672b3          	and	x5,x12,x15
    be80:	00f66333          	or	x6,x12,x15
    be84:	00f282b3          	add	x5,x5,x15
    be88:	0062e2b3          	or	x5,x5,x6
    be8c:	0c729863          	bne	x5,x7,bf5c <strcmp+0x140>
    be90:	04d61663          	bne	x12,x13,bedc <strcmp+0xc0>
    be94:	00c52603          	lw	x12,12(x10)
    be98:	00c5a683          	lw	x13,12(x11)
    be9c:	00f672b3          	and	x5,x12,x15
    bea0:	00f66333          	or	x6,x12,x15
    bea4:	00f282b3          	add	x5,x5,x15
    bea8:	0062e2b3          	or	x5,x5,x6
    beac:	0c729263          	bne	x5,x7,bf70 <strcmp+0x154>
    beb0:	02d61663          	bne	x12,x13,bedc <strcmp+0xc0>
    beb4:	01052603          	lw	x12,16(x10)
    beb8:	0105a683          	lw	x13,16(x11)
    bebc:	00f672b3          	and	x5,x12,x15
    bec0:	00f66333          	or	x6,x12,x15
    bec4:	00f282b3          	add	x5,x5,x15
    bec8:	0062e2b3          	or	x5,x5,x6
    becc:	0a729c63          	bne	x5,x7,bf84 <strcmp+0x168>
    bed0:	01450513          	addi	x10,x10,20
    bed4:	01458593          	addi	x11,x11,20
    bed8:	f4d60ee3          	beq	x12,x13,be34 <strcmp+0x18>
    bedc:	01061713          	slli	x14,x12,0x10
    bee0:	01069793          	slli	x15,x13,0x10
    bee4:	00f71e63          	bne	x14,x15,bf00 <strcmp+0xe4>
    bee8:	01065713          	srli	x14,x12,0x10
    beec:	0106d793          	srli	x15,x13,0x10
    bef0:	40f70533          	sub	x10,x14,x15
    bef4:	0ff57593          	andi	x11,x10,255
    bef8:	02059063          	bne	x11,x0,bf18 <strcmp+0xfc>
    befc:	00008067          	jalr	x0,0(x1)
    bf00:	01075713          	srli	x14,x14,0x10
    bf04:	0107d793          	srli	x15,x15,0x10
    bf08:	40f70533          	sub	x10,x14,x15
    bf0c:	0ff57593          	andi	x11,x10,255
    bf10:	00059463          	bne	x11,x0,bf18 <strcmp+0xfc>
    bf14:	00008067          	jalr	x0,0(x1)
    bf18:	0ff77713          	andi	x14,x14,255
    bf1c:	0ff7f793          	andi	x15,x15,255
    bf20:	40f70533          	sub	x10,x14,x15
    bf24:	00008067          	jalr	x0,0(x1)
    bf28:	00054603          	lbu	x12,0(x10)
    bf2c:	0005c683          	lbu	x13,0(x11)
    bf30:	00150513          	addi	x10,x10,1
    bf34:	00158593          	addi	x11,x11,1
    bf38:	00d61463          	bne	x12,x13,bf40 <strcmp+0x124>
    bf3c:	fe0616e3          	bne	x12,x0,bf28 <strcmp+0x10c>
    bf40:	40d60533          	sub	x10,x12,x13
    bf44:	00008067          	jalr	x0,0(x1)
    bf48:	00450513          	addi	x10,x10,4
    bf4c:	00458593          	addi	x11,x11,4
    bf50:	fcd61ce3          	bne	x12,x13,bf28 <strcmp+0x10c>
    bf54:	00000513          	addi	x10,x0,0
    bf58:	00008067          	jalr	x0,0(x1)
    bf5c:	00850513          	addi	x10,x10,8
    bf60:	00858593          	addi	x11,x11,8
    bf64:	fcd612e3          	bne	x12,x13,bf28 <strcmp+0x10c>
    bf68:	00000513          	addi	x10,x0,0
    bf6c:	00008067          	jalr	x0,0(x1)
    bf70:	00c50513          	addi	x10,x10,12
    bf74:	00c58593          	addi	x11,x11,12
    bf78:	fad618e3          	bne	x12,x13,bf28 <strcmp+0x10c>
    bf7c:	00000513          	addi	x10,x0,0
    bf80:	00008067          	jalr	x0,0(x1)
    bf84:	01050513          	addi	x10,x10,16
    bf88:	01058593          	addi	x11,x11,16
    bf8c:	f8d61ee3          	bne	x12,x13,bf28 <strcmp+0x10c>
    bf90:	00000513          	addi	x10,x0,0
    bf94:	00008067          	jalr	x0,0(x1)

0000bf98 <_init_signal_r>:
    bf98:	11852783          	lw	x15,280(x10)
    bf9c:	00078663          	beq	x15,x0,bfa8 <_init_signal_r+0x10>
    bfa0:	00000513          	addi	x10,x0,0
    bfa4:	00008067          	jalr	x0,0(x1)
    bfa8:	ff010113          	addi	x2,x2,-16
    bfac:	08000593          	addi	x11,x0,128
    bfb0:	00812423          	sw	x8,8(x2)
    bfb4:	00112623          	sw	x1,12(x2)
    bfb8:	00050413          	addi	x8,x10,0
    bfbc:	9d4f50ef          	jal	x1,1190 <_malloc_r>
    bfc0:	10a42c23          	sw	x10,280(x8)
    bfc4:	02050463          	beq	x10,x0,bfec <_init_signal_r+0x54>
    bfc8:	08050793          	addi	x15,x10,128
    bfcc:	00052023          	sw	x0,0(x10)
    bfd0:	00450513          	addi	x10,x10,4
    bfd4:	fef51ce3          	bne	x10,x15,bfcc <_init_signal_r+0x34>
    bfd8:	00000513          	addi	x10,x0,0
    bfdc:	00c12083          	lw	x1,12(x2)
    bfe0:	00812403          	lw	x8,8(x2)
    bfe4:	01010113          	addi	x2,x2,16
    bfe8:	00008067          	jalr	x0,0(x1)
    bfec:	fff00513          	addi	x10,x0,-1
    bff0:	fedff06f          	jal	x0,bfdc <_init_signal_r+0x44>

0000bff4 <_signal_r>:
    bff4:	fe010113          	addi	x2,x2,-32
    bff8:	00912a23          	sw	x9,20(x2)
    bffc:	00112e23          	sw	x1,28(x2)
    c000:	01f00793          	addi	x15,x0,31
    c004:	00050493          	addi	x9,x10,0
    c008:	02b7ec63          	bltu	x15,x11,c040 <_signal_r+0x4c>
    c00c:	11852783          	lw	x15,280(x10)
    c010:	00812c23          	sw	x8,24(x2)
    c014:	00058413          	addi	x8,x11,0
    c018:	04078263          	beq	x15,x0,c05c <_signal_r+0x68>
    c01c:	00241413          	slli	x8,x8,0x2
    c020:	008787b3          	add	x15,x15,x8
    c024:	01c12083          	lw	x1,28(x2)
    c028:	01812403          	lw	x8,24(x2)
    c02c:	0007a503          	lw	x10,0(x15)
    c030:	00c7a023          	sw	x12,0(x15)
    c034:	01412483          	lw	x9,20(x2)
    c038:	02010113          	addi	x2,x2,32
    c03c:	00008067          	jalr	x0,0(x1)
    c040:	01600793          	addi	x15,x0,22
    c044:	00f52023          	sw	x15,0(x10)
    c048:	fff00513          	addi	x10,x0,-1
    c04c:	01c12083          	lw	x1,28(x2)
    c050:	01412483          	lw	x9,20(x2)
    c054:	02010113          	addi	x2,x2,32
    c058:	00008067          	jalr	x0,0(x1)
    c05c:	08000593          	addi	x11,x0,128
    c060:	00c12623          	sw	x12,12(x2)
    c064:	92cf50ef          	jal	x1,1190 <_malloc_r>
    c068:	10a4ac23          	sw	x10,280(x9)
    c06c:	00c12603          	lw	x12,12(x2)
    c070:	00050793          	addi	x15,x10,0
    c074:	00050713          	addi	x14,x10,0
    c078:	08050693          	addi	x13,x10,128
    c07c:	00050a63          	beq	x10,x0,c090 <_signal_r+0x9c>
    c080:	00072023          	sw	x0,0(x14)
    c084:	00470713          	addi	x14,x14,4
    c088:	fed71ce3          	bne	x14,x13,c080 <_signal_r+0x8c>
    c08c:	f91ff06f          	jal	x0,c01c <_signal_r+0x28>
    c090:	01812403          	lw	x8,24(x2)
    c094:	fff00513          	addi	x10,x0,-1
    c098:	fb5ff06f          	jal	x0,c04c <_signal_r+0x58>

0000c09c <_raise_r>:
    c09c:	ff010113          	addi	x2,x2,-16
    c0a0:	00912223          	sw	x9,4(x2)
    c0a4:	00112623          	sw	x1,12(x2)
    c0a8:	01f00793          	addi	x15,x0,31
    c0ac:	00050493          	addi	x9,x10,0
    c0b0:	08b7ee63          	bltu	x15,x11,c14c <_raise_r+0xb0>
    c0b4:	11852783          	lw	x15,280(x10)
    c0b8:	00812423          	sw	x8,8(x2)
    c0bc:	00058413          	addi	x8,x11,0
    c0c0:	04078463          	beq	x15,x0,c108 <_raise_r+0x6c>
    c0c4:	00259713          	slli	x14,x11,0x2
    c0c8:	00e787b3          	add	x15,x15,x14
    c0cc:	0007a703          	lw	x14,0(x15)
    c0d0:	02070c63          	beq	x14,x0,c108 <_raise_r+0x6c>
    c0d4:	00100513          	addi	x10,x0,1
    c0d8:	00a70c63          	beq	x14,x10,c0f0 <_raise_r+0x54>
    c0dc:	fff00693          	addi	x13,x0,-1
    c0e0:	04d70863          	beq	x14,x13,c130 <_raise_r+0x94>
    c0e4:	0007a023          	sw	x0,0(x15)
    c0e8:	00058513          	addi	x10,x11,0
    c0ec:	000700e7          	jalr	x1,0(x14)
    c0f0:	00812403          	lw	x8,8(x2)
    c0f4:	00000513          	addi	x10,x0,0
    c0f8:	00c12083          	lw	x1,12(x2)
    c0fc:	00412483          	lw	x9,4(x2)
    c100:	01010113          	addi	x2,x2,16
    c104:	00008067          	jalr	x0,0(x1)
    c108:	00048513          	addi	x10,x9,0
    c10c:	4c8000ef          	jal	x1,c5d4 <_getpid_r>
    c110:	00040613          	addi	x12,x8,0
    c114:	00812403          	lw	x8,8(x2)
    c118:	00c12083          	lw	x1,12(x2)
    c11c:	00050593          	addi	x11,x10,0
    c120:	00048513          	addi	x10,x9,0
    c124:	00412483          	lw	x9,4(x2)
    c128:	01010113          	addi	x2,x2,16
    c12c:	4300006f          	jal	x0,c55c <_kill_r>
    c130:	00812403          	lw	x8,8(x2)
    c134:	00c12083          	lw	x1,12(x2)
    c138:	01600793          	addi	x15,x0,22
    c13c:	00f4a023          	sw	x15,0(x9)
    c140:	00412483          	lw	x9,4(x2)
    c144:	01010113          	addi	x2,x2,16
    c148:	00008067          	jalr	x0,0(x1)
    c14c:	01600793          	addi	x15,x0,22
    c150:	00f52023          	sw	x15,0(x10)
    c154:	fff00513          	addi	x10,x0,-1
    c158:	fa1ff06f          	jal	x0,c0f8 <_raise_r+0x5c>

0000c15c <__sigtramp_r>:
    c15c:	01f00793          	addi	x15,x0,31
    c160:	0cb7ea63          	bltu	x15,x11,c234 <__sigtramp_r+0xd8>
    c164:	11852783          	lw	x15,280(x10)
    c168:	ff010113          	addi	x2,x2,-16
    c16c:	00812423          	sw	x8,8(x2)
    c170:	00912223          	sw	x9,4(x2)
    c174:	00112623          	sw	x1,12(x2)
    c178:	00058413          	addi	x8,x11,0
    c17c:	00050493          	addi	x9,x10,0
    c180:	08078063          	beq	x15,x0,c200 <__sigtramp_r+0xa4>
    c184:	00241713          	slli	x14,x8,0x2
    c188:	00e787b3          	add	x15,x15,x14
    c18c:	0007a703          	lw	x14,0(x15)
    c190:	02070c63          	beq	x14,x0,c1c8 <__sigtramp_r+0x6c>
    c194:	fff00693          	addi	x13,x0,-1
    c198:	06d70063          	beq	x14,x13,c1f8 <__sigtramp_r+0x9c>
    c19c:	00100693          	addi	x13,x0,1
    c1a0:	04d70063          	beq	x14,x13,c1e0 <__sigtramp_r+0x84>
    c1a4:	00040513          	addi	x10,x8,0
    c1a8:	0007a023          	sw	x0,0(x15)
    c1ac:	000700e7          	jalr	x1,0(x14)
    c1b0:	00000513          	addi	x10,x0,0
    c1b4:	00c12083          	lw	x1,12(x2)
    c1b8:	00812403          	lw	x8,8(x2)
    c1bc:	00412483          	lw	x9,4(x2)
    c1c0:	01010113          	addi	x2,x2,16
    c1c4:	00008067          	jalr	x0,0(x1)
    c1c8:	00c12083          	lw	x1,12(x2)
    c1cc:	00812403          	lw	x8,8(x2)
    c1d0:	00412483          	lw	x9,4(x2)
    c1d4:	00100513          	addi	x10,x0,1
    c1d8:	01010113          	addi	x2,x2,16
    c1dc:	00008067          	jalr	x0,0(x1)
    c1e0:	00c12083          	lw	x1,12(x2)
    c1e4:	00812403          	lw	x8,8(x2)
    c1e8:	00412483          	lw	x9,4(x2)
    c1ec:	00300513          	addi	x10,x0,3
    c1f0:	01010113          	addi	x2,x2,16
    c1f4:	00008067          	jalr	x0,0(x1)
    c1f8:	00200513          	addi	x10,x0,2
    c1fc:	fb9ff06f          	jal	x0,c1b4 <__sigtramp_r+0x58>
    c200:	08000593          	addi	x11,x0,128
    c204:	f8df40ef          	jal	x1,1190 <_malloc_r>
    c208:	10a4ac23          	sw	x10,280(x9)
    c20c:	00050793          	addi	x15,x10,0
    c210:	00050e63          	beq	x10,x0,c22c <__sigtramp_r+0xd0>
    c214:	00050713          	addi	x14,x10,0
    c218:	08050693          	addi	x13,x10,128
    c21c:	00072023          	sw	x0,0(x14)
    c220:	00470713          	addi	x14,x14,4
    c224:	fed71ce3          	bne	x14,x13,c21c <__sigtramp_r+0xc0>
    c228:	f5dff06f          	jal	x0,c184 <__sigtramp_r+0x28>
    c22c:	fff00513          	addi	x10,x0,-1
    c230:	f85ff06f          	jal	x0,c1b4 <__sigtramp_r+0x58>
    c234:	fff00513          	addi	x10,x0,-1
    c238:	00008067          	jalr	x0,0(x1)

0000c23c <raise>:
    c23c:	ff010113          	addi	x2,x2,-16
    c240:	00912223          	sw	x9,4(x2)
    c244:	00112623          	sw	x1,12(x2)
    c248:	01f00793          	addi	x15,x0,31
    c24c:	f141a483          	lw	x9,-236(x3) # 13024 <_impure_ptr>
    c250:	08a7ee63          	bltu	x15,x10,c2ec <raise+0xb0>
    c254:	1184a783          	lw	x15,280(x9)
    c258:	00812423          	sw	x8,8(x2)
    c25c:	00050413          	addi	x8,x10,0
    c260:	04078263          	beq	x15,x0,c2a4 <raise+0x68>
    c264:	00251713          	slli	x14,x10,0x2
    c268:	00e787b3          	add	x15,x15,x14
    c26c:	0007a703          	lw	x14,0(x15)
    c270:	02070a63          	beq	x14,x0,c2a4 <raise+0x68>
    c274:	00100693          	addi	x13,x0,1
    c278:	00d70a63          	beq	x14,x13,c28c <raise+0x50>
    c27c:	fff00613          	addi	x12,x0,-1
    c280:	04c70663          	beq	x14,x12,c2cc <raise+0x90>
    c284:	0007a023          	sw	x0,0(x15)
    c288:	000700e7          	jalr	x1,0(x14)
    c28c:	00812403          	lw	x8,8(x2)
    c290:	00000513          	addi	x10,x0,0
    c294:	00c12083          	lw	x1,12(x2)
    c298:	00412483          	lw	x9,4(x2)
    c29c:	01010113          	addi	x2,x2,16
    c2a0:	00008067          	jalr	x0,0(x1)
    c2a4:	00048513          	addi	x10,x9,0
    c2a8:	32c000ef          	jal	x1,c5d4 <_getpid_r>
    c2ac:	00040613          	addi	x12,x8,0
    c2b0:	00812403          	lw	x8,8(x2)
    c2b4:	00c12083          	lw	x1,12(x2)
    c2b8:	00050593          	addi	x11,x10,0
    c2bc:	00048513          	addi	x10,x9,0
    c2c0:	00412483          	lw	x9,4(x2)
    c2c4:	01010113          	addi	x2,x2,16
    c2c8:	2940006f          	jal	x0,c55c <_kill_r>
    c2cc:	00812403          	lw	x8,8(x2)
    c2d0:	00c12083          	lw	x1,12(x2)
    c2d4:	01600793          	addi	x15,x0,22
    c2d8:	00f4a023          	sw	x15,0(x9)
    c2dc:	00068513          	addi	x10,x13,0
    c2e0:	00412483          	lw	x9,4(x2)
    c2e4:	01010113          	addi	x2,x2,16
    c2e8:	00008067          	jalr	x0,0(x1)
    c2ec:	01600793          	addi	x15,x0,22
    c2f0:	00f4a023          	sw	x15,0(x9)
    c2f4:	fff00513          	addi	x10,x0,-1
    c2f8:	f9dff06f          	jal	x0,c294 <raise+0x58>

0000c2fc <signal>:
    c2fc:	ff010113          	addi	x2,x2,-16
    c300:	01212023          	sw	x18,0(x2)
    c304:	00112623          	sw	x1,12(x2)
    c308:	01f00793          	addi	x15,x0,31
    c30c:	f141a903          	lw	x18,-236(x3) # 13024 <_impure_ptr>
    c310:	04a7e263          	bltu	x15,x10,c354 <signal+0x58>
    c314:	00812423          	sw	x8,8(x2)
    c318:	00050413          	addi	x8,x10,0
    c31c:	11892503          	lw	x10,280(x18)
    c320:	00912223          	sw	x9,4(x2)
    c324:	00058493          	addi	x9,x11,0
    c328:	04050463          	beq	x10,x0,c370 <signal+0x74>
    c32c:	00241413          	slli	x8,x8,0x2
    c330:	008507b3          	add	x15,x10,x8
    c334:	00c12083          	lw	x1,12(x2)
    c338:	00812403          	lw	x8,8(x2)
    c33c:	0007a503          	lw	x10,0(x15)
    c340:	0097a023          	sw	x9,0(x15)
    c344:	00012903          	lw	x18,0(x2)
    c348:	00412483          	lw	x9,4(x2)
    c34c:	01010113          	addi	x2,x2,16
    c350:	00008067          	jalr	x0,0(x1)
    c354:	01600793          	addi	x15,x0,22
    c358:	00f92023          	sw	x15,0(x18)
    c35c:	fff00513          	addi	x10,x0,-1
    c360:	00c12083          	lw	x1,12(x2)
    c364:	00012903          	lw	x18,0(x2)
    c368:	01010113          	addi	x2,x2,16
    c36c:	00008067          	jalr	x0,0(x1)
    c370:	08000593          	addi	x11,x0,128
    c374:	00090513          	addi	x10,x18,0
    c378:	e19f40ef          	jal	x1,1190 <_malloc_r>
    c37c:	10a92c23          	sw	x10,280(x18)
    c380:	00050793          	addi	x15,x10,0
    c384:	08050713          	addi	x14,x10,128
    c388:	00050a63          	beq	x10,x0,c39c <signal+0xa0>
    c38c:	0007a023          	sw	x0,0(x15)
    c390:	00478793          	addi	x15,x15,4
    c394:	fef71ce3          	bne	x14,x15,c38c <signal+0x90>
    c398:	f95ff06f          	jal	x0,c32c <signal+0x30>
    c39c:	00812403          	lw	x8,8(x2)
    c3a0:	00412483          	lw	x9,4(x2)
    c3a4:	fff00513          	addi	x10,x0,-1
    c3a8:	fb9ff06f          	jal	x0,c360 <signal+0x64>

0000c3ac <_init_signal>:
    c3ac:	ff010113          	addi	x2,x2,-16
    c3b0:	00812423          	sw	x8,8(x2)
    c3b4:	f141a403          	lw	x8,-236(x3) # 13024 <_impure_ptr>
    c3b8:	11842783          	lw	x15,280(x8)
    c3bc:	00112623          	sw	x1,12(x2)
    c3c0:	00078c63          	beq	x15,x0,c3d8 <_init_signal+0x2c>
    c3c4:	00000513          	addi	x10,x0,0
    c3c8:	00c12083          	lw	x1,12(x2)
    c3cc:	00812403          	lw	x8,8(x2)
    c3d0:	01010113          	addi	x2,x2,16
    c3d4:	00008067          	jalr	x0,0(x1)
    c3d8:	08000593          	addi	x11,x0,128
    c3dc:	00040513          	addi	x10,x8,0
    c3e0:	db1f40ef          	jal	x1,1190 <_malloc_r>
    c3e4:	10a42c23          	sw	x10,280(x8)
    c3e8:	00050c63          	beq	x10,x0,c400 <_init_signal+0x54>
    c3ec:	08050793          	addi	x15,x10,128
    c3f0:	00052023          	sw	x0,0(x10)
    c3f4:	00450513          	addi	x10,x10,4
    c3f8:	fef51ce3          	bne	x10,x15,c3f0 <_init_signal+0x44>
    c3fc:	fc9ff06f          	jal	x0,c3c4 <_init_signal+0x18>
    c400:	fff00513          	addi	x10,x0,-1
    c404:	fc5ff06f          	jal	x0,c3c8 <_init_signal+0x1c>

0000c408 <__sigtramp>:
    c408:	ff010113          	addi	x2,x2,-16
    c40c:	00912223          	sw	x9,4(x2)
    c410:	00112623          	sw	x1,12(x2)
    c414:	01f00793          	addi	x15,x0,31
    c418:	f141a483          	lw	x9,-236(x3) # 13024 <_impure_ptr>
    c41c:	0ca7e463          	bltu	x15,x10,c4e4 <__sigtramp+0xdc>
    c420:	1184a783          	lw	x15,280(x9)
    c424:	00812423          	sw	x8,8(x2)
    c428:	00050413          	addi	x8,x10,0
    c42c:	08078263          	beq	x15,x0,c4b0 <__sigtramp+0xa8>
    c430:	00241713          	slli	x14,x8,0x2
    c434:	00e787b3          	add	x15,x15,x14
    c438:	0007a703          	lw	x14,0(x15)
    c43c:	02070c63          	beq	x14,x0,c474 <__sigtramp+0x6c>
    c440:	fff00693          	addi	x13,x0,-1
    c444:	06d70063          	beq	x14,x13,c4a4 <__sigtramp+0x9c>
    c448:	00100693          	addi	x13,x0,1
    c44c:	04d70063          	beq	x14,x13,c48c <__sigtramp+0x84>
    c450:	00040513          	addi	x10,x8,0
    c454:	0007a023          	sw	x0,0(x15)
    c458:	000700e7          	jalr	x1,0(x14)
    c45c:	00812403          	lw	x8,8(x2)
    c460:	00000513          	addi	x10,x0,0
    c464:	00c12083          	lw	x1,12(x2)
    c468:	00412483          	lw	x9,4(x2)
    c46c:	01010113          	addi	x2,x2,16
    c470:	00008067          	jalr	x0,0(x1)
    c474:	00812403          	lw	x8,8(x2)
    c478:	00c12083          	lw	x1,12(x2)
    c47c:	00412483          	lw	x9,4(x2)
    c480:	00100513          	addi	x10,x0,1
    c484:	01010113          	addi	x2,x2,16
    c488:	00008067          	jalr	x0,0(x1)
    c48c:	00812403          	lw	x8,8(x2)
    c490:	00c12083          	lw	x1,12(x2)
    c494:	00412483          	lw	x9,4(x2)
    c498:	00300513          	addi	x10,x0,3
    c49c:	01010113          	addi	x2,x2,16
    c4a0:	00008067          	jalr	x0,0(x1)
    c4a4:	00812403          	lw	x8,8(x2)
    c4a8:	00200513          	addi	x10,x0,2
    c4ac:	fb9ff06f          	jal	x0,c464 <__sigtramp+0x5c>
    c4b0:	08000593          	addi	x11,x0,128
    c4b4:	00048513          	addi	x10,x9,0
    c4b8:	cd9f40ef          	jal	x1,1190 <_malloc_r>
    c4bc:	10a4ac23          	sw	x10,280(x9)
    c4c0:	00050793          	addi	x15,x10,0
    c4c4:	00050e63          	beq	x10,x0,c4e0 <__sigtramp+0xd8>
    c4c8:	00050713          	addi	x14,x10,0
    c4cc:	08050693          	addi	x13,x10,128
    c4d0:	00072023          	sw	x0,0(x14)
    c4d4:	00470713          	addi	x14,x14,4
    c4d8:	fee69ce3          	bne	x13,x14,c4d0 <__sigtramp+0xc8>
    c4dc:	f55ff06f          	jal	x0,c430 <__sigtramp+0x28>
    c4e0:	00812403          	lw	x8,8(x2)
    c4e4:	fff00513          	addi	x10,x0,-1
    c4e8:	f7dff06f          	jal	x0,c464 <__sigtramp+0x5c>

0000c4ec <_mbtowc_r>:
    c4ec:	e1c1a783          	lw	x15,-484(x3) # 12f2c <__global_locale+0xe4>
    c4f0:	00078067          	jalr	x0,0(x15)

0000c4f4 <__ascii_mbtowc>:
    c4f4:	02058063          	beq	x11,x0,c514 <__ascii_mbtowc+0x20>
    c4f8:	04060263          	beq	x12,x0,c53c <__ascii_mbtowc+0x48>
    c4fc:	04068863          	beq	x13,x0,c54c <__ascii_mbtowc+0x58>
    c500:	00064783          	lbu	x15,0(x12)
    c504:	00f5a023          	sw	x15,0(x11)
    c508:	00064503          	lbu	x10,0(x12)
    c50c:	00a03533          	sltu	x10,x0,x10
    c510:	00008067          	jalr	x0,0(x1)
    c514:	ff010113          	addi	x2,x2,-16
    c518:	00c10593          	addi	x11,x2,12
    c51c:	02060463          	beq	x12,x0,c544 <__ascii_mbtowc+0x50>
    c520:	02068a63          	beq	x13,x0,c554 <__ascii_mbtowc+0x60>
    c524:	00064783          	lbu	x15,0(x12)
    c528:	00f5a023          	sw	x15,0(x11)
    c52c:	00064503          	lbu	x10,0(x12)
    c530:	00a03533          	sltu	x10,x0,x10
    c534:	01010113          	addi	x2,x2,16
    c538:	00008067          	jalr	x0,0(x1)
    c53c:	00000513          	addi	x10,x0,0
    c540:	00008067          	jalr	x0,0(x1)
    c544:	00000513          	addi	x10,x0,0
    c548:	fedff06f          	jal	x0,c534 <__ascii_mbtowc+0x40>
    c54c:	ffe00513          	addi	x10,x0,-2
    c550:	00008067          	jalr	x0,0(x1)
    c554:	ffe00513          	addi	x10,x0,-2
    c558:	fddff06f          	jal	x0,c534 <__ascii_mbtowc+0x40>

0000c55c <_kill_r>:
    c55c:	ff010113          	addi	x2,x2,-16
    c560:	00058713          	addi	x14,x11,0
    c564:	00812423          	sw	x8,8(x2)
    c568:	00060593          	addi	x11,x12,0
    c56c:	00050413          	addi	x8,x10,0
    c570:	00070513          	addi	x10,x14,0
    c574:	f001ac23          	sw	x0,-232(x3) # 13028 <errno>
    c578:	00112623          	sw	x1,12(x2)
    c57c:	dfff30ef          	jal	x1,37a <_kill>
    c580:	fff00793          	addi	x15,x0,-1
    c584:	00f50a63          	beq	x10,x15,c598 <_kill_r+0x3c>
    c588:	00c12083          	lw	x1,12(x2)
    c58c:	00812403          	lw	x8,8(x2)
    c590:	01010113          	addi	x2,x2,16
    c594:	00008067          	jalr	x0,0(x1)
    c598:	00912223          	sw	x9,4(x2)
    c59c:	f1818493          	addi	x9,x3,-232 # 13028 <errno>
    c5a0:	0004a783          	lw	x15,0(x9)
    c5a4:	00078e63          	beq	x15,x0,c5c0 <_kill_r+0x64>
    c5a8:	00c12083          	lw	x1,12(x2)
    c5ac:	00f42023          	sw	x15,0(x8)
    c5b0:	00812403          	lw	x8,8(x2)
    c5b4:	00412483          	lw	x9,4(x2)
    c5b8:	01010113          	addi	x2,x2,16
    c5bc:	00008067          	jalr	x0,0(x1)
    c5c0:	00c12083          	lw	x1,12(x2)
    c5c4:	00812403          	lw	x8,8(x2)
    c5c8:	00412483          	lw	x9,4(x2)
    c5cc:	01010113          	addi	x2,x2,16
    c5d0:	00008067          	jalr	x0,0(x1)

0000c5d4 <_getpid_r>:
    c5d4:	d8ff306f          	jal	x0,362 <_getpid>

0000c5d8 <__adddf3>:
    c5d8:	001007b7          	lui	x15,0x100
    c5dc:	fff78e13          	addi	x28,x15,-1 # fffff <__heap_start+0xeccbf>
    c5e0:	fe010113          	addi	x2,x2,-32
    c5e4:	00be77b3          	and	x15,x28,x11
    c5e8:	0145d313          	srli	x6,x11,0x14
    c5ec:	0146d893          	srli	x17,x13,0x14
    c5f0:	00de7833          	and	x16,x28,x13
    c5f4:	00379793          	slli	x15,x15,0x3
    c5f8:	01212823          	sw	x18,16(x2)
    c5fc:	01412423          	sw	x20,8(x2)
    c600:	01d55713          	srli	x14,x10,0x1d
    c604:	7ff37a13          	andi	x20,x6,2047
    c608:	01f5d913          	srli	x18,x11,0x1f
    c60c:	7ff8f893          	andi	x17,x17,2047
    c610:	00381813          	slli	x16,x16,0x3
    c614:	01d65593          	srli	x11,x12,0x1d
    c618:	00112e23          	sw	x1,28(x2)
    c61c:	00812c23          	sw	x8,24(x2)
    c620:	00912a23          	sw	x9,20(x2)
    c624:	01312623          	sw	x19,12(x2)
    c628:	01512223          	sw	x21,4(x2)
    c62c:	01f6d693          	srli	x13,x13,0x1f
    c630:	00f76733          	or	x14,x14,x15
    c634:	0105eeb3          	or	x29,x11,x16
    c638:	411a07b3          	sub	x15,x20,x17
    c63c:	00351f93          	slli	x31,x10,0x3
    c640:	00361f13          	slli	x30,x12,0x3
    c644:	1ed90863          	beq	x18,x13,c834 <__adddf3+0x25c>
    c648:	16f05663          	bge	x0,x15,c7b4 <__adddf3+0x1dc>
    c64c:	28088a63          	beq	x17,x0,c8e0 <__adddf3+0x308>
    c650:	7ff00693          	addi	x13,x0,2047
    c654:	42da0863          	beq	x20,x13,ca84 <__adddf3+0x4ac>
    c658:	03800693          	addi	x13,x0,56
    c65c:	00100613          	addi	x12,x0,1
    c660:	02f6ce63          	blt	x13,x15,c69c <__adddf3+0xc4>
    c664:	008006b7          	lui	x13,0x800
    c668:	00deeeb3          	or	x29,x29,x13
    c66c:	01f00693          	addi	x13,x0,31
    c670:	54f6c063          	blt	x13,x15,cbb0 <__adddf3+0x5d8>
    c674:	02000693          	addi	x13,x0,32
    c678:	40f686b3          	sub	x13,x13,x15
    c67c:	00de9633          	sll	x12,x29,x13
    c680:	00ff55b3          	srl	x11,x30,x15
    c684:	00df16b3          	sll	x13,x30,x13
    c688:	00d036b3          	sltu	x13,x0,x13
    c68c:	00b66633          	or	x12,x12,x11
    c690:	00fed7b3          	srl	x15,x29,x15
    c694:	00d66633          	or	x12,x12,x13
    c698:	40f70733          	sub	x14,x14,x15
    c69c:	40cf8633          	sub	x12,x31,x12
    c6a0:	00cfb5b3          	sltu	x11,x31,x12
    c6a4:	40b70ab3          	sub	x21,x14,x11
    c6a8:	00060993          	addi	x19,x12,0
    c6ac:	008a9713          	slli	x14,x21,0x8
    c6b0:	008007b7          	lui	x15,0x800
    c6b4:	32075c63          	bge	x14,x0,c9ec <__adddf3+0x414>
    c6b8:	fff78793          	addi	x15,x15,-1 # 7fffff <__heap_end+0x3fffff>
    c6bc:	00fafab3          	and	x21,x21,x15
    c6c0:	2c0a8c63          	beq	x21,x0,c998 <__adddf3+0x3c0>
    c6c4:	000a8513          	addi	x10,x21,0
    c6c8:	4f0050ef          	jal	x1,11bb8 <__clzsi2>
    c6cc:	ff850793          	addi	x15,x10,-8
    c6d0:	02000693          	addi	x13,x0,32
    c6d4:	40f68733          	sub	x14,x13,x15
    c6d8:	00e9d733          	srl	x14,x19,x14
    c6dc:	00fa9ab3          	sll	x21,x21,x15
    c6e0:	01576733          	or	x14,x14,x21
    c6e4:	00f999b3          	sll	x19,x19,x15
    c6e8:	4b47ca63          	blt	x15,x20,cb9c <__adddf3+0x5c4>
    c6ec:	414787b3          	sub	x15,x15,x20
    c6f0:	00178793          	addi	x15,x15,1
    c6f4:	40f686b3          	sub	x13,x13,x15
    c6f8:	00d99633          	sll	x12,x19,x13
    c6fc:	00c03633          	sltu	x12,x0,x12
    c700:	00f9dab3          	srl	x21,x19,x15
    c704:	01566633          	or	x12,x12,x21
    c708:	00d716b3          	sll	x13,x14,x13
    c70c:	00c6e9b3          	or	x19,x13,x12
    c710:	00f75ab3          	srl	x21,x14,x15
    c714:	00000a13          	addi	x20,x0,0
    c718:	0079f793          	andi	x15,x19,7
    c71c:	02078063          	beq	x15,x0,c73c <__adddf3+0x164>
    c720:	00f9f793          	andi	x15,x19,15
    c724:	00400713          	addi	x14,x0,4
    c728:	00e78a63          	beq	x15,x14,c73c <__adddf3+0x164>
    c72c:	00e987b3          	add	x15,x19,x14
    c730:	0137b633          	sltu	x12,x15,x19
    c734:	00ca8ab3          	add	x21,x21,x12
    c738:	00078993          	addi	x19,x15,0
    c73c:	008a9793          	slli	x15,x21,0x8
    c740:	6c07d663          	bge	x15,x0,ce0c <__adddf3+0x834>
    c744:	001a0793          	addi	x15,x20,1
    c748:	7ff00693          	addi	x13,x0,2047
    c74c:	00090313          	addi	x6,x18,0
    c750:	2ad78a63          	beq	x15,x13,ca04 <__adddf3+0x42c>
    c754:	ff800737          	lui	x14,0xff800
    c758:	fff70713          	addi	x14,x14,-1 # ff7fffff <__heap_end+0xff3fffff>
    c75c:	00d7f7b3          	and	x15,x15,x13
    c760:	00eaf733          	and	x14,x21,x14
    c764:	01d71813          	slli	x16,x14,0x1d
    c768:	0039d613          	srli	x12,x19,0x3
    c76c:	00971713          	slli	x14,x14,0x9
    c770:	00c86833          	or	x16,x16,x12
    c774:	00c75713          	srli	x14,x14,0xc
    c778:	01c12083          	lw	x1,28(x2)
    c77c:	01812403          	lw	x8,24(x2)
    c780:	01479793          	slli	x15,x15,0x14
    c784:	00e7e7b3          	or	x15,x15,x14
    c788:	01f31713          	slli	x14,x6,0x1f
    c78c:	00e7e7b3          	or	x15,x15,x14
    c790:	01412483          	lw	x9,20(x2)
    c794:	01012903          	lw	x18,16(x2)
    c798:	00c12983          	lw	x19,12(x2)
    c79c:	00812a03          	lw	x20,8(x2)
    c7a0:	00412a83          	lw	x21,4(x2)
    c7a4:	00080513          	addi	x10,x16,0
    c7a8:	00078593          	addi	x11,x15,0
    c7ac:	02010113          	addi	x2,x2,32
    c7b0:	00008067          	jalr	x0,0(x1)
    c7b4:	14078c63          	beq	x15,x0,c90c <__adddf3+0x334>
    c7b8:	414887b3          	sub	x15,x17,x20
    c7bc:	3c0a1063          	bne	x20,x0,cb7c <__adddf3+0x5a4>
    c7c0:	01f765b3          	or	x11,x14,x31
    c7c4:	4c058263          	beq	x11,x0,cc88 <__adddf3+0x6b0>
    c7c8:	fff78593          	addi	x11,x15,-1
    c7cc:	60058063          	beq	x11,x0,cdcc <__adddf3+0x7f4>
    c7d0:	7ff00513          	addi	x10,x0,2047
    c7d4:	56a78463          	beq	x15,x10,cd3c <__adddf3+0x764>
    c7d8:	03800793          	addi	x15,x0,56
    c7dc:	00100613          	addi	x12,x0,1
    c7e0:	02b7cc63          	blt	x15,x11,c818 <__adddf3+0x240>
    c7e4:	00058793          	addi	x15,x11,0
    c7e8:	01f00613          	addi	x12,x0,31
    c7ec:	56f64a63          	blt	x12,x15,cd60 <__adddf3+0x788>
    c7f0:	02000593          	addi	x11,x0,32
    c7f4:	40f585b3          	sub	x11,x11,x15
    c7f8:	00b71633          	sll	x12,x14,x11
    c7fc:	00bf9533          	sll	x10,x31,x11
    c800:	00ffd5b3          	srl	x11,x31,x15
    c804:	00a03533          	sltu	x10,x0,x10
    c808:	00b66633          	or	x12,x12,x11
    c80c:	00f75733          	srl	x14,x14,x15
    c810:	00a66633          	or	x12,x12,x10
    c814:	40ee8eb3          	sub	x29,x29,x14
    c818:	40cf0633          	sub	x12,x30,x12
    c81c:	00cf35b3          	sltu	x11,x30,x12
    c820:	40be8ab3          	sub	x21,x29,x11
    c824:	00060993          	addi	x19,x12,0
    c828:	00088a13          	addi	x20,x17,0
    c82c:	00068913          	addi	x18,x13,0 # 800000 <__heap_end+0x400000>
    c830:	e7dff06f          	jal	x0,c6ac <__adddf3+0xd4>
    c834:	1cf05e63          	bge	x0,x15,ca10 <__adddf3+0x438>
    c838:	14089063          	bne	x17,x0,c978 <__adddf3+0x3a0>
    c83c:	01eee6b3          	or	x13,x29,x30
    c840:	26068a63          	beq	x13,x0,cab4 <__adddf3+0x4dc>
    c844:	fff78693          	addi	x13,x15,-1
    c848:	46068e63          	beq	x13,x0,ccc4 <__adddf3+0x6ec>
    c84c:	7ff00613          	addi	x12,x0,2047
    c850:	22c78a63          	beq	x15,x12,ca84 <__adddf3+0x4ac>
    c854:	03800793          	addi	x15,x0,56
    c858:	00100a93          	addi	x21,x0,1
    c85c:	02d7cc63          	blt	x15,x13,c894 <__adddf3+0x2bc>
    c860:	00068793          	addi	x15,x13,0
    c864:	01f00693          	addi	x13,x0,31
    c868:	48f6ce63          	blt	x13,x15,cd04 <__adddf3+0x72c>
    c86c:	02000693          	addi	x13,x0,32
    c870:	40f686b3          	sub	x13,x13,x15
    c874:	00de9ab3          	sll	x21,x29,x13
    c878:	00ff55b3          	srl	x11,x30,x15
    c87c:	00df16b3          	sll	x13,x30,x13
    c880:	00d036b3          	sltu	x13,x0,x13
    c884:	00baeab3          	or	x21,x21,x11
    c888:	00fed7b3          	srl	x15,x29,x15
    c88c:	00daeab3          	or	x21,x21,x13
    c890:	00f70733          	add	x14,x14,x15
    c894:	01fa8633          	add	x12,x21,x31
    c898:	01563ab3          	sltu	x21,x12,x21
    c89c:	00ea8ab3          	add	x21,x21,x14
    c8a0:	00060993          	addi	x19,x12,0
    c8a4:	008a9793          	slli	x15,x21,0x8
    c8a8:	1407d263          	bge	x15,x0,c9ec <__adddf3+0x414>
    c8ac:	001a0a13          	addi	x20,x20,1
    c8b0:	7ff00793          	addi	x15,x0,2047
    c8b4:	36fa0a63          	beq	x20,x15,cc28 <__adddf3+0x650>
    c8b8:	ff8007b7          	lui	x15,0xff800
    c8bc:	fff78793          	addi	x15,x15,-1 # ff7fffff <__heap_end+0xff3fffff>
    c8c0:	00faf7b3          	and	x15,x21,x15
    c8c4:	0019d713          	srli	x14,x19,0x1
    c8c8:	0019f613          	andi	x12,x19,1
    c8cc:	01f79693          	slli	x13,x15,0x1f
    c8d0:	00c76733          	or	x14,x14,x12
    c8d4:	0017da93          	srli	x21,x15,0x1
    c8d8:	00e6e9b3          	or	x19,x13,x14
    c8dc:	e3dff06f          	jal	x0,c718 <__adddf3+0x140>
    c8e0:	01eee6b3          	or	x13,x29,x30
    c8e4:	1c068863          	beq	x13,x0,cab4 <__adddf3+0x4dc>
    c8e8:	fff78693          	addi	x13,x15,-1
    c8ec:	3e068e63          	beq	x13,x0,cce8 <__adddf3+0x710>
    c8f0:	7ff00613          	addi	x12,x0,2047
    c8f4:	18c78863          	beq	x15,x12,ca84 <__adddf3+0x4ac>
    c8f8:	03800793          	addi	x15,x0,56
    c8fc:	00100613          	addi	x12,x0,1
    c900:	d8d7cee3          	blt	x15,x13,c69c <__adddf3+0xc4>
    c904:	00068793          	addi	x15,x13,0
    c908:	d65ff06f          	jal	x0,c66c <__adddf3+0x94>
    c90c:	001a0593          	addi	x11,x20,1
    c910:	7fe5f593          	andi	x11,x11,2046
    c914:	22059a63          	bne	x11,x0,cb48 <__adddf3+0x570>
    c918:	01f765b3          	or	x11,x14,x31
    c91c:	01eee833          	or	x16,x29,x30
    c920:	360a1e63          	bne	x20,x0,cc9c <__adddf3+0x6c4>
    c924:	46058c63          	beq	x11,x0,cd9c <__adddf3+0x7c4>
    c928:	40080463          	beq	x16,x0,cd30 <__adddf3+0x758>
    c92c:	41ef8ab3          	sub	x21,x31,x30
    c930:	015fb5b3          	sltu	x11,x31,x21
    c934:	41d70633          	sub	x12,x14,x29
    c938:	40b60633          	sub	x12,x12,x11
    c93c:	00861593          	slli	x11,x12,0x8
    c940:	5005dc63          	bge	x11,x0,ce58 <__adddf3+0x880>
    c944:	41ff05b3          	sub	x11,x30,x31
    c948:	00bf3f33          	sltu	x30,x30,x11
    c94c:	40ee8733          	sub	x14,x29,x14
    c950:	41e70733          	sub	x14,x14,x30
    c954:	00871613          	slli	x12,x14,0x8
    c958:	00058993          	addi	x19,x11,0
    c95c:	52065c63          	bge	x12,x0,ce94 <__adddf3+0x8bc>
    c960:	ff8007b7          	lui	x15,0xff800
    c964:	fff78793          	addi	x15,x15,-1 # ff7fffff <__heap_end+0xff3fffff>
    c968:	00f77733          	and	x14,x14,x15
    c96c:	00068313          	addi	x6,x13,0
    c970:	00100793          	addi	x15,x0,1
    c974:	df1ff06f          	jal	x0,c764 <__adddf3+0x18c>
    c978:	7ff00693          	addi	x13,x0,2047
    c97c:	10da0463          	beq	x20,x13,ca84 <__adddf3+0x4ac>
    c980:	03800693          	addi	x13,x0,56
    c984:	00100a93          	addi	x21,x0,1
    c988:	f0f6c6e3          	blt	x13,x15,c894 <__adddf3+0x2bc>
    c98c:	008006b7          	lui	x13,0x800
    c990:	00deeeb3          	or	x29,x29,x13
    c994:	ed1ff06f          	jal	x0,c864 <__adddf3+0x28c>
    c998:	00098513          	addi	x10,x19,0
    c99c:	21c050ef          	jal	x1,11bb8 <__clzsi2>
    c9a0:	01850793          	addi	x15,x10,24
    c9a4:	01f00693          	addi	x13,x0,31
    c9a8:	d2f6d4e3          	bge	x13,x15,c6d0 <__adddf3+0xf8>
    c9ac:	ff850713          	addi	x14,x10,-8
    c9b0:	00e99733          	sll	x14,x19,x14
    c9b4:	2347c463          	blt	x15,x20,cbdc <__adddf3+0x604>
    c9b8:	41478633          	sub	x12,x15,x20
    c9bc:	00160793          	addi	x15,x12,1
    c9c0:	48f6d463          	bge	x13,x15,ce48 <__adddf3+0x870>
    c9c4:	fe160613          	addi	x12,x12,-31
    c9c8:	02000693          	addi	x13,x0,32
    c9cc:	00c759b3          	srl	x19,x14,x12
    c9d0:	00d78c63          	beq	x15,x13,c9e8 <__adddf3+0x410>
    c9d4:	04000693          	addi	x13,x0,64
    c9d8:	40f687b3          	sub	x15,x13,x15
    c9dc:	00f717b3          	sll	x15,x14,x15
    c9e0:	00f037b3          	sltu	x15,x0,x15
    c9e4:	00f9e9b3          	or	x19,x19,x15
    c9e8:	00000a13          	addi	x20,x0,0
    c9ec:	0079f793          	andi	x15,x19,7
    c9f0:	d20798e3          	bne	x15,x0,c720 <__adddf3+0x148>
    c9f4:	000a0793          	addi	x15,x20,0
    c9f8:	0039d613          	srli	x12,x19,0x3
    c9fc:	000a8713          	addi	x14,x21,0
    ca00:	0bc0006f          	jal	x0,cabc <__adddf3+0x4e4>
    ca04:	00000713          	addi	x14,x0,0
    ca08:	00000813          	addi	x16,x0,0
    ca0c:	d6dff06f          	jal	x0,c778 <__adddf3+0x1a0>
    ca10:	0c078a63          	beq	x15,x0,cae4 <__adddf3+0x50c>
    ca14:	414887b3          	sub	x15,x17,x20
    ca18:	1e0a0263          	beq	x20,x0,cbfc <__adddf3+0x624>
    ca1c:	7ff00693          	addi	x13,x0,2047
    ca20:	32d88863          	beq	x17,x13,cd50 <__adddf3+0x778>
    ca24:	03800693          	addi	x13,x0,56
    ca28:	00100a93          	addi	x21,x0,1
    ca2c:	02f6ce63          	blt	x13,x15,ca68 <__adddf3+0x490>
    ca30:	008006b7          	lui	x13,0x800
    ca34:	00d76733          	or	x14,x14,x13
    ca38:	01f00693          	addi	x13,x0,31
    ca3c:	3ef6c063          	blt	x13,x15,ce1c <__adddf3+0x844>
    ca40:	02000693          	addi	x13,x0,32
    ca44:	40f686b3          	sub	x13,x13,x15
    ca48:	00d71ab3          	sll	x21,x14,x13
    ca4c:	00ffd633          	srl	x12,x31,x15
    ca50:	00df96b3          	sll	x13,x31,x13
    ca54:	00d036b3          	sltu	x13,x0,x13
    ca58:	00caeab3          	or	x21,x21,x12
    ca5c:	00f75733          	srl	x14,x14,x15
    ca60:	00daeab3          	or	x21,x21,x13
    ca64:	00ee8eb3          	add	x29,x29,x14
    ca68:	01ea85b3          	add	x11,x21,x30
    ca6c:	0155bab3          	sltu	x21,x11,x21
    ca70:	01da8ab3          	add	x21,x21,x29
    ca74:	00058993          	addi	x19,x11,0
    ca78:	00088a13          	addi	x20,x17,0
    ca7c:	e29ff06f          	jal	x0,c8a4 <__adddf3+0x2cc>
    ca80:	02081063          	bne	x16,x0,caa0 <__adddf3+0x4c8>
    ca84:	00351793          	slli	x15,x10,0x3
    ca88:	0037d793          	srli	x15,x15,0x3
    ca8c:	01d71813          	slli	x16,x14,0x1d
    ca90:	00f86833          	or	x16,x16,x15
    ca94:	00375713          	srli	x14,x14,0x3
    ca98:	01076733          	or	x14,x14,x16
    ca9c:	18070663          	beq	x14,x0,cc28 <__adddf3+0x650>
    caa0:	00000313          	addi	x6,x0,0
    caa4:	7ff00793          	addi	x15,x0,2047
    caa8:	00080737          	lui	x14,0x80
    caac:	00000813          	addi	x16,x0,0
    cab0:	cc9ff06f          	jal	x0,c778 <__adddf3+0x1a0>
    cab4:	00351613          	slli	x12,x10,0x3
    cab8:	00365613          	srli	x12,x12,0x3
    cabc:	01d71813          	slli	x16,x14,0x1d
    cac0:	7ff00693          	addi	x13,x0,2047
    cac4:	00c86833          	or	x16,x16,x12
    cac8:	00375713          	srli	x14,x14,0x3
    cacc:	fcd786e3          	beq	x15,x13,ca98 <__adddf3+0x4c0>
    cad0:	00c71713          	slli	x14,x14,0xc
    cad4:	00c75713          	srli	x14,x14,0xc
    cad8:	7ff7f793          	andi	x15,x15,2047
    cadc:	00090313          	addi	x6,x18,0
    cae0:	c99ff06f          	jal	x0,c778 <__adddf3+0x1a0>
    cae4:	001a0693          	addi	x13,x20,1
    cae8:	7fe6f593          	andi	x11,x13,2046
    caec:	14059863          	bne	x11,x0,cc3c <__adddf3+0x664>
    caf0:	01f766b3          	or	x13,x14,x31
    caf4:	280a1c63          	bne	x20,x0,cd8c <__adddf3+0x7b4>
    caf8:	30068263          	beq	x13,x0,cdfc <__adddf3+0x824>
    cafc:	01eee6b3          	or	x13,x29,x30
    cb00:	22068863          	beq	x13,x0,cd30 <__adddf3+0x758>
    cb04:	01ef87b3          	add	x15,x31,x30
    cb08:	01f7b633          	sltu	x12,x15,x31
    cb0c:	01d70733          	add	x14,x14,x29
    cb10:	00c70733          	add	x14,x14,x12
    cb14:	0037d813          	srli	x16,x15,0x3
    cb18:	00871793          	slli	x15,x14,0x8
    cb1c:	00090313          	addi	x6,x18,0
    cb20:	3407de63          	bge	x15,x0,ce7c <__adddf3+0x8a4>
    cb24:	ff8007b7          	lui	x15,0xff800
    cb28:	fff78793          	addi	x15,x15,-1 # ff7fffff <__heap_end+0xff3fffff>
    cb2c:	00f77733          	and	x14,x14,x15
    cb30:	01d71793          	slli	x15,x14,0x1d
    cb34:	00375713          	srli	x14,x14,0x3
    cb38:	0107e833          	or	x16,x15,x16
    cb3c:	01c77733          	and	x14,x14,x28
    cb40:	00100793          	addi	x15,x0,1
    cb44:	c35ff06f          	jal	x0,c778 <__adddf3+0x1a0>
    cb48:	41ef8833          	sub	x16,x31,x30
    cb4c:	010fb7b3          	sltu	x15,x31,x16
    cb50:	41d70ab3          	sub	x21,x14,x29
    cb54:	40fa8ab3          	sub	x21,x21,x15
    cb58:	008a9793          	slli	x15,x21,0x8
    cb5c:	00080993          	addi	x19,x16,0
    cb60:	1007c663          	blt	x15,x0,cc6c <__adddf3+0x694>
    cb64:	01586833          	or	x16,x16,x21
    cb68:	b4081ce3          	bne	x16,x0,c6c0 <__adddf3+0xe8>
    cb6c:	00000313          	addi	x6,x0,0
    cb70:	00000793          	addi	x15,x0,0
    cb74:	00000713          	addi	x14,x0,0
    cb78:	c01ff06f          	jal	x0,c778 <__adddf3+0x1a0>
    cb7c:	7ff00593          	addi	x11,x0,2047
    cb80:	1ab88e63          	beq	x17,x11,cd3c <__adddf3+0x764>
    cb84:	03800593          	addi	x11,x0,56
    cb88:	00100613          	addi	x12,x0,1
    cb8c:	c8f5c6e3          	blt	x11,x15,c818 <__adddf3+0x240>
    cb90:	00800637          	lui	x12,0x800
    cb94:	00c76733          	or	x14,x14,x12
    cb98:	c51ff06f          	jal	x0,c7e8 <__adddf3+0x210>
    cb9c:	ff800ab7          	lui	x21,0xff800
    cba0:	fffa8a93          	addi	x21,x21,-1 # ff7fffff <__heap_end+0xff3fffff>
    cba4:	40fa0a33          	sub	x20,x20,x15
    cba8:	01577ab3          	and	x21,x14,x21
    cbac:	b6dff06f          	jal	x0,c718 <__adddf3+0x140>
    cbb0:	fe078693          	addi	x13,x15,-32
    cbb4:	02000613          	addi	x12,x0,32
    cbb8:	00ded6b3          	srl	x13,x29,x13
    cbbc:	00c78a63          	beq	x15,x12,cbd0 <__adddf3+0x5f8>
    cbc0:	04000613          	addi	x12,x0,64
    cbc4:	40f607b3          	sub	x15,x12,x15
    cbc8:	00fe97b3          	sll	x15,x29,x15
    cbcc:	00ff6f33          	or	x30,x30,x15
    cbd0:	01e03633          	sltu	x12,x0,x30
    cbd4:	00d66633          	or	x12,x12,x13
    cbd8:	ac5ff06f          	jal	x0,c69c <__adddf3+0xc4>
    cbdc:	ff8006b7          	lui	x13,0xff800
    cbe0:	fff68693          	addi	x13,x13,-1 # ff7fffff <__heap_end+0xff3fffff>
    cbe4:	40fa07b3          	sub	x15,x20,x15
    cbe8:	00d77733          	and	x14,x14,x13
    cbec:	01d71813          	slli	x16,x14,0x1d
    cbf0:	01586833          	or	x16,x16,x21
    cbf4:	00375713          	srli	x14,x14,0x3
    cbf8:	ed9ff06f          	jal	x0,cad0 <__adddf3+0x4f8>
    cbfc:	01f766b3          	or	x13,x14,x31
    cc00:	1e068663          	beq	x13,x0,cdec <__adddf3+0x814>
    cc04:	fff78693          	addi	x13,x15,-1
    cc08:	0a068e63          	beq	x13,x0,ccc4 <__adddf3+0x6ec>
    cc0c:	7ff00593          	addi	x11,x0,2047
    cc10:	14b78063          	beq	x15,x11,cd50 <__adddf3+0x778>
    cc14:	03800793          	addi	x15,x0,56
    cc18:	00100a93          	addi	x21,x0,1
    cc1c:	e4d7c6e3          	blt	x15,x13,ca68 <__adddf3+0x490>
    cc20:	00068793          	addi	x15,x13,0
    cc24:	e15ff06f          	jal	x0,ca38 <__adddf3+0x460>
    cc28:	00090313          	addi	x6,x18,0
    cc2c:	7ff00793          	addi	x15,x0,2047
    cc30:	00000713          	addi	x14,x0,0
    cc34:	00000813          	addi	x16,x0,0
    cc38:	b41ff06f          	jal	x0,c778 <__adddf3+0x1a0>
    cc3c:	7ff00793          	addi	x15,x0,2047
    cc40:	fef684e3          	beq	x13,x15,cc28 <__adddf3+0x650>
    cc44:	01ef8f33          	add	x30,x31,x30
    cc48:	01ff3633          	sltu	x12,x30,x31
    cc4c:	01d707b3          	add	x15,x14,x29
    cc50:	00c787b3          	add	x15,x15,x12
    cc54:	001f5f13          	srli	x30,x30,0x1
    cc58:	01f79613          	slli	x12,x15,0x1f
    cc5c:	00068a13          	addi	x20,x13,0
    cc60:	01e669b3          	or	x19,x12,x30
    cc64:	0017da93          	srli	x21,x15,0x1
    cc68:	ab1ff06f          	jal	x0,c718 <__adddf3+0x140>
    cc6c:	41ff0633          	sub	x12,x30,x31
    cc70:	00cf35b3          	sltu	x11,x30,x12
    cc74:	40ee87b3          	sub	x15,x29,x14
    cc78:	00060993          	addi	x19,x12,0 # 800000 <__heap_end+0x400000>
    cc7c:	40b78ab3          	sub	x21,x15,x11
    cc80:	00068913          	addi	x18,x13,0
    cc84:	a3dff06f          	jal	x0,c6c0 <__adddf3+0xe8>
    cc88:	00361613          	slli	x12,x12,0x3
    cc8c:	00365613          	srli	x12,x12,0x3
    cc90:	00068913          	addi	x18,x13,0
    cc94:	000e8713          	addi	x14,x29,0
    cc98:	e25ff06f          	jal	x0,cabc <__adddf3+0x4e4>
    cc9c:	de0592e3          	bne	x11,x0,ca80 <__adddf3+0x4a8>
    cca0:	1c080663          	beq	x16,x0,ce6c <__adddf3+0x894>
    cca4:	00361613          	slli	x12,x12,0x3
    cca8:	003ed713          	srli	x14,x29,0x3
    ccac:	01de9793          	slli	x15,x29,0x1d
    ccb0:	00365613          	srli	x12,x12,0x3
    ccb4:	00f76733          	or	x14,x14,x15
    ccb8:	00068913          	addi	x18,x13,0
    ccbc:	00c76733          	or	x14,x14,x12
    ccc0:	dddff06f          	jal	x0,ca9c <__adddf3+0x4c4>
    ccc4:	01ef8f33          	add	x30,x31,x30
    ccc8:	01d707b3          	add	x15,x14,x29
    cccc:	01ff3633          	sltu	x12,x30,x31
    ccd0:	00c78ab3          	add	x21,x15,x12
    ccd4:	008a9793          	slli	x15,x21,0x8
    ccd8:	000f0993          	addi	x19,x30,0
    ccdc:	0e07d463          	bge	x15,x0,cdc4 <__adddf3+0x7ec>
    cce0:	00200a13          	addi	x20,x0,2
    cce4:	bd5ff06f          	jal	x0,c8b8 <__adddf3+0x2e0>
    cce8:	41ef8f33          	sub	x30,x31,x30
    ccec:	01efb633          	sltu	x12,x31,x30
    ccf0:	41d707b3          	sub	x15,x14,x29
    ccf4:	000f0993          	addi	x19,x30,0
    ccf8:	40c78ab3          	sub	x21,x15,x12
    ccfc:	00100a13          	addi	x20,x0,1
    cd00:	9adff06f          	jal	x0,c6ac <__adddf3+0xd4>
    cd04:	fe078693          	addi	x13,x15,-32
    cd08:	02000613          	addi	x12,x0,32
    cd0c:	00ded6b3          	srl	x13,x29,x13
    cd10:	00c78a63          	beq	x15,x12,cd24 <__adddf3+0x74c>
    cd14:	04000613          	addi	x12,x0,64
    cd18:	40f607b3          	sub	x15,x12,x15
    cd1c:	00fe97b3          	sll	x15,x29,x15
    cd20:	00ff6f33          	or	x30,x30,x15
    cd24:	01e03ab3          	sltu	x21,x0,x30
    cd28:	00daeab3          	or	x21,x21,x13
    cd2c:	b69ff06f          	jal	x0,c894 <__adddf3+0x2bc>
    cd30:	00351613          	slli	x12,x10,0x3
    cd34:	00365a93          	srli	x21,x12,0x3
    cd38:	eb5ff06f          	jal	x0,cbec <__adddf3+0x614>
    cd3c:	00361613          	slli	x12,x12,0x3
    cd40:	00365793          	srli	x15,x12,0x3
    cd44:	00068913          	addi	x18,x13,0
    cd48:	000e8713          	addi	x14,x29,0
    cd4c:	d41ff06f          	jal	x0,ca8c <__adddf3+0x4b4>
    cd50:	00361613          	slli	x12,x12,0x3
    cd54:	00365793          	srli	x15,x12,0x3
    cd58:	000e8713          	addi	x14,x29,0
    cd5c:	d31ff06f          	jal	x0,ca8c <__adddf3+0x4b4>
    cd60:	fe078593          	addi	x11,x15,-32
    cd64:	02000613          	addi	x12,x0,32
    cd68:	00b755b3          	srl	x11,x14,x11
    cd6c:	00c78a63          	beq	x15,x12,cd80 <__adddf3+0x7a8>
    cd70:	04000613          	addi	x12,x0,64
    cd74:	40f607b3          	sub	x15,x12,x15
    cd78:	00f717b3          	sll	x15,x14,x15
    cd7c:	00ffefb3          	or	x31,x31,x15
    cd80:	01f03633          	sltu	x12,x0,x31
    cd84:	00b66633          	or	x12,x12,x11
    cd88:	a91ff06f          	jal	x0,c818 <__adddf3+0x240>
    cd8c:	fc0682e3          	beq	x13,x0,cd50 <__adddf3+0x778>
    cd90:	01eee5b3          	or	x11,x29,x30
    cd94:	d00596e3          	bne	x11,x0,caa0 <__adddf3+0x4c8>
    cd98:	cedff06f          	jal	x0,ca84 <__adddf3+0x4ac>
    cd9c:	dc0808e3          	beq	x16,x0,cb6c <__adddf3+0x594>
    cda0:	00361813          	slli	x16,x12,0x3
    cda4:	01de9793          	slli	x15,x29,0x1d
    cda8:	00385813          	srli	x16,x16,0x3
    cdac:	003ed713          	srli	x14,x29,0x3
    cdb0:	00f86833          	or	x16,x16,x15
    cdb4:	00068313          	addi	x6,x13,0
    cdb8:	01c77733          	and	x14,x14,x28
    cdbc:	00000793          	addi	x15,x0,0
    cdc0:	9b9ff06f          	jal	x0,c778 <__adddf3+0x1a0>
    cdc4:	00100793          	addi	x15,x0,1
    cdc8:	c31ff06f          	jal	x0,c9f8 <__adddf3+0x420>
    cdcc:	41ff0633          	sub	x12,x30,x31
    cdd0:	00cf3f33          	sltu	x30,x30,x12
    cdd4:	40ee87b3          	sub	x15,x29,x14
    cdd8:	00060993          	addi	x19,x12,0
    cddc:	41e78ab3          	sub	x21,x15,x30
    cde0:	00068913          	addi	x18,x13,0
    cde4:	00100a13          	addi	x20,x0,1
    cde8:	8c5ff06f          	jal	x0,c6ac <__adddf3+0xd4>
    cdec:	00361613          	slli	x12,x12,0x3
    cdf0:	00365613          	srli	x12,x12,0x3
    cdf4:	000e8713          	addi	x14,x29,0
    cdf8:	cc5ff06f          	jal	x0,cabc <__adddf3+0x4e4>
    cdfc:	00361613          	slli	x12,x12,0x3
    ce00:	00365a93          	srli	x21,x12,0x3
    ce04:	000e8713          	addi	x14,x29,0
    ce08:	de5ff06f          	jal	x0,cbec <__adddf3+0x614>
    ce0c:	0039d613          	srli	x12,x19,0x3
    ce10:	000a0793          	addi	x15,x20,0
    ce14:	000a8713          	addi	x14,x21,0
    ce18:	ca5ff06f          	jal	x0,cabc <__adddf3+0x4e4>
    ce1c:	fe078693          	addi	x13,x15,-32
    ce20:	02000613          	addi	x12,x0,32
    ce24:	00d756b3          	srl	x13,x14,x13
    ce28:	00c78a63          	beq	x15,x12,ce3c <__adddf3+0x864>
    ce2c:	04000613          	addi	x12,x0,64
    ce30:	40f607b3          	sub	x15,x12,x15
    ce34:	00f717b3          	sll	x15,x14,x15
    ce38:	00ffefb3          	or	x31,x31,x15
    ce3c:	01f03ab3          	sltu	x21,x0,x31
    ce40:	00daeab3          	or	x21,x21,x13
    ce44:	c25ff06f          	jal	x0,ca68 <__adddf3+0x490>
    ce48:	02000693          	addi	x13,x0,32
    ce4c:	40f686b3          	sub	x13,x13,x15
    ce50:	00000613          	addi	x12,x0,0
    ce54:	8b1ff06f          	jal	x0,c704 <__adddf3+0x12c>
    ce58:	00cae833          	or	x16,x21,x12
    ce5c:	d00808e3          	beq	x16,x0,cb6c <__adddf3+0x594>
    ce60:	003ada93          	srli	x21,x21,0x3
    ce64:	00060713          	addi	x14,x12,0
    ce68:	d85ff06f          	jal	x0,cbec <__adddf3+0x614>
    ce6c:	00000313          	addi	x6,x0,0
    ce70:	7ff00793          	addi	x15,x0,2047
    ce74:	00080737          	lui	x14,0x80
    ce78:	901ff06f          	jal	x0,c778 <__adddf3+0x1a0>
    ce7c:	01d71793          	slli	x15,x14,0x1d
    ce80:	00375713          	srli	x14,x14,0x3
    ce84:	0107e833          	or	x16,x15,x16
    ce88:	01c77733          	and	x14,x14,x28
    ce8c:	00000793          	addi	x15,x0,0
    ce90:	8e9ff06f          	jal	x0,c778 <__adddf3+0x1a0>
    ce94:	01d71813          	slli	x16,x14,0x1d
    ce98:	0035d613          	srli	x12,x11,0x3
    ce9c:	00068913          	addi	x18,x13,0
    cea0:	00c86833          	or	x16,x16,x12
    cea4:	00375713          	srli	x14,x14,0x3
    cea8:	c29ff06f          	jal	x0,cad0 <__adddf3+0x4f8>

0000ceac <__divdf3>:
    ceac:	fd010113          	addi	x2,x2,-48
    ceb0:	0145d793          	srli	x15,x11,0x14
    ceb4:	02812423          	sw	x8,40(x2)
    ceb8:	02912223          	sw	x9,36(x2)
    cebc:	03212023          	sw	x18,32(x2)
    cec0:	01612823          	sw	x22,16(x2)
    cec4:	01912223          	sw	x25,4(x2)
    cec8:	00c59493          	slli	x9,x11,0xc
    cecc:	02112623          	sw	x1,44(x2)
    ced0:	01312e23          	sw	x19,28(x2)
    ced4:	01412c23          	sw	x20,24(x2)
    ced8:	01512a23          	sw	x21,20(x2)
    cedc:	01712623          	sw	x23,12(x2)
    cee0:	01812423          	sw	x24,8(x2)
    cee4:	01a12023          	sw	x26,0(x2)
    cee8:	7ff7f793          	andi	x15,x15,2047
    ceec:	00050413          	addi	x8,x10,0
    cef0:	00060c93          	addi	x25,x12,0
    cef4:	00068913          	addi	x18,x13,0
    cef8:	00c4d493          	srli	x9,x9,0xc
    cefc:	01f5db13          	srli	x22,x11,0x1f
    cf00:	1a078263          	beq	x15,x0,d0a4 <__divdf3+0x1f8>
    cf04:	7ff00713          	addi	x14,x0,2047
    cf08:	08e78863          	beq	x15,x14,cf98 <__divdf3+0xec>
    cf0c:	00349493          	slli	x9,x9,0x3
    cf10:	01d55713          	srli	x14,x10,0x1d
    cf14:	00976733          	or	x14,x14,x9
    cf18:	008006b7          	lui	x13,0x800
    cf1c:	c0178993          	addi	x19,x15,-1023
    cf20:	00351c13          	slli	x24,x10,0x3
    cf24:	00d76bb3          	or	x23,x14,x13
    cf28:	00000493          	addi	x9,x0,0
    cf2c:	00000d13          	addi	x26,x0,0
    cf30:	01495793          	srli	x15,x18,0x14
    cf34:	00c91413          	slli	x8,x18,0xc
    cf38:	7ff7f793          	andi	x15,x15,2047
    cf3c:	00c45413          	srli	x8,x8,0xc
    cf40:	01f95913          	srli	x18,x18,0x1f
    cf44:	08078263          	beq	x15,x0,cfc8 <__divdf3+0x11c>
    cf48:	7ff00713          	addi	x14,x0,2047
    cf4c:	1ae78263          	beq	x15,x14,d0f0 <__divdf3+0x244>
    cf50:	00341413          	slli	x8,x8,0x3
    cf54:	01dcd713          	srli	x14,x25,0x1d
    cf58:	00876733          	or	x14,x14,x8
    cf5c:	c0178793          	addi	x15,x15,-1023
    cf60:	00800437          	lui	x8,0x800
    cf64:	00876433          	or	x8,x14,x8
    cf68:	40f989b3          	sub	x19,x19,x15
    cf6c:	003c9593          	slli	x11,x25,0x3
    cf70:	00000713          	addi	x14,x0,0
    cf74:	00f00793          	addi	x15,x0,15
    cf78:	012b46b3          	xor	x13,x22,x18
    cf7c:	2497ec63          	bltu	x15,x9,d1d4 <__divdf3+0x328>
    cf80:	000127b7          	lui	x15,0x12
    cf84:	7cc78793          	addi	x15,x15,1996 # 127cc <_ctype_+0x104>
    cf88:	00249493          	slli	x9,x9,0x2
    cf8c:	00f484b3          	add	x9,x9,x15
    cf90:	0004a783          	lw	x15,0(x9)
    cf94:	00078067          	jalr	x0,0(x15)
    cf98:	00a4ebb3          	or	x23,x9,x10
    cf9c:	1e0b9663          	bne	x23,x0,d188 <__divdf3+0x2dc>
    cfa0:	00078993          	addi	x19,x15,0
    cfa4:	01495793          	srli	x15,x18,0x14
    cfa8:	00c91413          	slli	x8,x18,0xc
    cfac:	7ff7f793          	andi	x15,x15,2047
    cfb0:	00000c13          	addi	x24,x0,0
    cfb4:	00800493          	addi	x9,x0,8
    cfb8:	00200d13          	addi	x26,x0,2
    cfbc:	00c45413          	srli	x8,x8,0xc
    cfc0:	01f95913          	srli	x18,x18,0x1f
    cfc4:	f80792e3          	bne	x15,x0,cf48 <__divdf3+0x9c>
    cfc8:	019465b3          	or	x11,x8,x25
    cfcc:	1c058a63          	beq	x11,x0,d1a0 <__divdf3+0x2f4>
    cfd0:	44040a63          	beq	x8,x0,d424 <__divdf3+0x578>
    cfd4:	00040513          	addi	x10,x8,0 # 800000 <__heap_end+0x400000>
    cfd8:	3e1040ef          	jal	x1,11bb8 <__clzsi2>
    cfdc:	00050793          	addi	x15,x10,0
    cfe0:	ff550693          	addi	x13,x10,-11
    cfe4:	01d00713          	addi	x14,x0,29
    cfe8:	ff878593          	addi	x11,x15,-8
    cfec:	40d70733          	sub	x14,x14,x13
    cff0:	00b41433          	sll	x8,x8,x11
    cff4:	00ecd733          	srl	x14,x25,x14
    cff8:	00876433          	or	x8,x14,x8
    cffc:	00bc95b3          	sll	x11,x25,x11
    d000:	013787b3          	add	x15,x15,x19
    d004:	3f378993          	addi	x19,x15,1011
    d008:	00000713          	addi	x14,x0,0
    d00c:	f69ff06f          	jal	x0,cf74 <__divdf3+0xc8>
    d010:	46078e63          	beq	x15,x0,d48c <__divdf3+0x5e0>
    d014:	00100613          	addi	x12,x0,1
    d018:	40f60633          	sub	x12,x12,x15
    d01c:	03800713          	addi	x14,x0,56
    d020:	4cc75863          	bge	x14,x12,d4f0 <__divdf3+0x644>
    d024:	00000793          	addi	x15,x0,0
    d028:	00000413          	addi	x8,x0,0
    d02c:	00000713          	addi	x14,x0,0
    d030:	01479793          	slli	x15,x15,0x14
    d034:	02c12083          	lw	x1,44(x2)
    d038:	0087e7b3          	or	x15,x15,x8
    d03c:	02812403          	lw	x8,40(x2)
    d040:	01f69693          	slli	x13,x13,0x1f
    d044:	00d7e7b3          	or	x15,x15,x13
    d048:	02412483          	lw	x9,36(x2)
    d04c:	02012903          	lw	x18,32(x2)
    d050:	01c12983          	lw	x19,28(x2)
    d054:	01812a03          	lw	x20,24(x2)
    d058:	01412a83          	lw	x21,20(x2)
    d05c:	01012b03          	lw	x22,16(x2)
    d060:	00c12b83          	lw	x23,12(x2)
    d064:	00812c03          	lw	x24,8(x2)
    d068:	00412c83          	lw	x25,4(x2)
    d06c:	00012d03          	lw	x26,0(x2)
    d070:	00070513          	addi	x10,x14,0 # 80000 <__heap_start+0x6ccc0>
    d074:	00078593          	addi	x11,x15,0
    d078:	03010113          	addi	x2,x2,48
    d07c:	00008067          	jalr	x0,0(x1)
    d080:	7ff00793          	addi	x15,x0,2047
    d084:	00000413          	addi	x8,x0,0
    d088:	00000713          	addi	x14,x0,0
    d08c:	fa5ff06f          	jal	x0,d030 <__divdf3+0x184>
    d090:	00000693          	addi	x13,x0,0
    d094:	7ff00793          	addi	x15,x0,2047
    d098:	00080437          	lui	x8,0x80
    d09c:	00000713          	addi	x14,x0,0
    d0a0:	f91ff06f          	jal	x0,d030 <__divdf3+0x184>
    d0a4:	00a4ebb3          	or	x23,x9,x10
    d0a8:	100b8c63          	beq	x23,x0,d1c0 <__divdf3+0x314>
    d0ac:	3a048063          	beq	x9,x0,d44c <__divdf3+0x5a0>
    d0b0:	00048513          	addi	x10,x9,0
    d0b4:	305040ef          	jal	x1,11bb8 <__clzsi2>
    d0b8:	00050693          	addi	x13,x10,0
    d0bc:	ff550793          	addi	x15,x10,-11
    d0c0:	01d00713          	addi	x14,x0,29
    d0c4:	ff868c13          	addi	x24,x13,-8 # 7ffff8 <__heap_end+0x3ffff8>
    d0c8:	40f70733          	sub	x14,x14,x15
    d0cc:	018494b3          	sll	x9,x9,x24
    d0d0:	00e45733          	srl	x14,x8,x14
    d0d4:	00976bb3          	or	x23,x14,x9
    d0d8:	01841c33          	sll	x24,x8,x24
    d0dc:	c0d00793          	addi	x15,x0,-1011
    d0e0:	40d789b3          	sub	x19,x15,x13
    d0e4:	00000493          	addi	x9,x0,0
    d0e8:	00000d13          	addi	x26,x0,0
    d0ec:	e45ff06f          	jal	x0,cf30 <__divdf3+0x84>
    d0f0:	019465b3          	or	x11,x8,x25
    d0f4:	80198993          	addi	x19,x19,-2047
    d0f8:	0a059c63          	bne	x11,x0,d1b0 <__divdf3+0x304>
    d0fc:	0024e493          	ori	x9,x9,2
    d100:	00000413          	addi	x8,x0,0
    d104:	00200713          	addi	x14,x0,2
    d108:	e6dff06f          	jal	x0,cf74 <__divdf3+0xc8>
    d10c:	000b0913          	addi	x18,x22,0
    d110:	000b8413          	addi	x8,x23,0
    d114:	000c0593          	addi	x11,x24,0
    d118:	00200793          	addi	x15,x0,2
    d11c:	4cfd0263          	beq	x26,x15,d5e0 <__divdf3+0x734>
    d120:	00300793          	addi	x15,x0,3
    d124:	f6fd06e3          	beq	x26,x15,d090 <__divdf3+0x1e4>
    d128:	00100793          	addi	x15,x0,1
    d12c:	00090693          	addi	x13,x18,0
    d130:	eefd0ae3          	beq	x26,x15,d024 <__divdf3+0x178>
    d134:	3ff98793          	addi	x15,x19,1023
    d138:	ecf05ce3          	bge	x0,x15,d010 <__divdf3+0x164>
    d13c:	0075f713          	andi	x14,x11,7
    d140:	48071063          	bne	x14,x0,d5c0 <__divdf3+0x714>
    d144:	00741713          	slli	x14,x8,0x7
    d148:	00075a63          	bge	x14,x0,d15c <__divdf3+0x2b0>
    d14c:	ff000737          	lui	x14,0xff000
    d150:	fff70713          	addi	x14,x14,-1 # feffffff <__heap_end+0xfebfffff>
    d154:	40098793          	addi	x15,x19,1024
    d158:	00e47433          	and	x8,x8,x14
    d15c:	7fe00713          	addi	x14,x0,2046
    d160:	f2f740e3          	blt	x14,x15,d080 <__divdf3+0x1d4>
    d164:	01d41713          	slli	x14,x8,0x1d
    d168:	0035d593          	srli	x11,x11,0x3
    d16c:	00941413          	slli	x8,x8,0x9
    d170:	7ff7f793          	andi	x15,x15,2047
    d174:	00b76733          	or	x14,x14,x11
    d178:	00c45413          	srli	x8,x8,0xc
    d17c:	eb5ff06f          	jal	x0,d030 <__divdf3+0x184>
    d180:	00070d13          	addi	x26,x14,0
    d184:	f95ff06f          	jal	x0,d118 <__divdf3+0x26c>
    d188:	00048b93          	addi	x23,x9,0
    d18c:	00050c13          	addi	x24,x10,0
    d190:	00078993          	addi	x19,x15,0
    d194:	00c00493          	addi	x9,x0,12
    d198:	00300d13          	addi	x26,x0,3
    d19c:	d95ff06f          	jal	x0,cf30 <__divdf3+0x84>
    d1a0:	0014e493          	ori	x9,x9,1
    d1a4:	00000413          	addi	x8,x0,0
    d1a8:	00100713          	addi	x14,x0,1
    d1ac:	dc9ff06f          	jal	x0,cf74 <__divdf3+0xc8>
    d1b0:	0034e493          	ori	x9,x9,3
    d1b4:	000c8593          	addi	x11,x25,0
    d1b8:	00300713          	addi	x14,x0,3
    d1bc:	db9ff06f          	jal	x0,cf74 <__divdf3+0xc8>
    d1c0:	00000c13          	addi	x24,x0,0
    d1c4:	00400493          	addi	x9,x0,4
    d1c8:	00000993          	addi	x19,x0,0
    d1cc:	00100d13          	addi	x26,x0,1
    d1d0:	d61ff06f          	jal	x0,cf30 <__divdf3+0x84>
    d1d4:	23746c63          	bltu	x8,x23,d40c <__divdf3+0x560>
    d1d8:	228b8863          	beq	x23,x8,d408 <__divdf3+0x55c>
    d1dc:	000c0793          	addi	x15,x24,0
    d1e0:	fff98993          	addi	x19,x19,-1
    d1e4:	000b8713          	addi	x14,x23,0
    d1e8:	00000c13          	addi	x24,x0,0
    d1ec:	00841613          	slli	x12,x8,0x8
    d1f0:	01065893          	srli	x17,x12,0x10
    d1f4:	03175433          	divu	x8,x14,x17
    d1f8:	0185d513          	srli	x10,x11,0x18
    d1fc:	00c56533          	or	x10,x10,x12
    d200:	01051313          	slli	x6,x10,0x10
    d204:	01035313          	srli	x6,x6,0x10
    d208:	00859813          	slli	x16,x11,0x8
    d20c:	0107d613          	srli	x12,x15,0x10
    d210:	03177733          	remu	x14,x14,x17
    d214:	028305b3          	mul	x11,x6,x8
    d218:	01071713          	slli	x14,x14,0x10
    d21c:	00e66733          	or	x14,x12,x14
    d220:	00b77a63          	bgeu	x14,x11,d234 <__divdf3+0x388>
    d224:	00e50733          	add	x14,x10,x14
    d228:	fff40613          	addi	x12,x8,-1 # 7ffff <__heap_start+0x6ccbf>
    d22c:	2aa77263          	bgeu	x14,x10,d4d0 <__divdf3+0x624>
    d230:	00060413          	addi	x8,x12,0
    d234:	40b70733          	sub	x14,x14,x11
    d238:	03175633          	divu	x12,x14,x17
    d23c:	01079793          	slli	x15,x15,0x10
    d240:	0107d793          	srli	x15,x15,0x10
    d244:	03177733          	remu	x14,x14,x17
    d248:	02c30eb3          	mul	x29,x6,x12
    d24c:	01071713          	slli	x14,x14,0x10
    d250:	00e7e7b3          	or	x15,x15,x14
    d254:	01d7fa63          	bgeu	x15,x29,d268 <__divdf3+0x3bc>
    d258:	00f507b3          	add	x15,x10,x15
    d25c:	fff60713          	addi	x14,x12,-1
    d260:	28a7f063          	bgeu	x15,x10,d4e0 <__divdf3+0x634>
    d264:	00070613          	addi	x12,x14,0
    d268:	01041413          	slli	x8,x8,0x10
    d26c:	00c46433          	or	x8,x8,x12
    d270:	01041593          	slli	x11,x8,0x10
    d274:	01081613          	slli	x12,x16,0x10
    d278:	01045f93          	srli	x31,x8,0x10
    d27c:	01065613          	srli	x12,x12,0x10
    d280:	0105d593          	srli	x11,x11,0x10
    d284:	01085e13          	srli	x28,x16,0x10
    d288:	02cf8f33          	mul	x30,x31,x12
    d28c:	41d787b3          	sub	x15,x15,x29
    d290:	02be0eb3          	mul	x29,x28,x11
    d294:	02c585b3          	mul	x11,x11,x12
    d298:	01ee8eb3          	add	x29,x29,x30
    d29c:	0105d713          	srli	x14,x11,0x10
    d2a0:	01d70733          	add	x14,x14,x29
    d2a4:	03cf8fb3          	mul	x31,x31,x28
    d2a8:	01e77663          	bgeu	x14,x30,d2b4 <__divdf3+0x408>
    d2ac:	00010eb7          	lui	x29,0x10
    d2b0:	01df8fb3          	add	x31,x31,x29
    d2b4:	01075f13          	srli	x30,x14,0x10
    d2b8:	01059593          	slli	x11,x11,0x10
    d2bc:	01071e93          	slli	x29,x14,0x10
    d2c0:	0105d593          	srli	x11,x11,0x10
    d2c4:	01ff0733          	add	x14,x30,x31
    d2c8:	00be8eb3          	add	x29,x29,x11
    d2cc:	10e7e863          	bltu	x15,x14,d3dc <__divdf3+0x530>
    d2d0:	10e78463          	beq	x15,x14,d3d8 <__divdf3+0x52c>
    d2d4:	41dc0eb3          	sub	x29,x24,x29
    d2d8:	01dc3c33          	sltu	x24,x24,x29
    d2dc:	40e787b3          	sub	x15,x15,x14
    d2e0:	418787b3          	sub	x15,x15,x24
    d2e4:	2af50c63          	beq	x10,x15,d59c <__divdf3+0x6f0>
    d2e8:	0317d5b3          	divu	x11,x15,x17
    d2ec:	010ed713          	srli	x14,x29,0x10
    d2f0:	0317f7b3          	remu	x15,x15,x17
    d2f4:	02b30f33          	mul	x30,x6,x11
    d2f8:	01079793          	slli	x15,x15,0x10
    d2fc:	00f76733          	or	x14,x14,x15
    d300:	01e77e63          	bgeu	x14,x30,d31c <__divdf3+0x470>
    d304:	00e50733          	add	x14,x10,x14
    d308:	fff58793          	addi	x15,x11,-1
    d30c:	2ca76663          	bltu	x14,x10,d5d8 <__divdf3+0x72c>
    d310:	2de77463          	bgeu	x14,x30,d5d8 <__divdf3+0x72c>
    d314:	ffe58593          	addi	x11,x11,-2
    d318:	00a70733          	add	x14,x14,x10
    d31c:	41e70733          	sub	x14,x14,x30
    d320:	03175f33          	divu	x30,x14,x17
    d324:	010e9793          	slli	x15,x29,0x10
    d328:	0107d793          	srli	x15,x15,0x10
    d32c:	03177733          	remu	x14,x14,x17
    d330:	03e30333          	mul	x6,x6,x30
    d334:	01071713          	slli	x14,x14,0x10
    d338:	00e7e7b3          	or	x15,x15,x14
    d33c:	0067fe63          	bgeu	x15,x6,d358 <__divdf3+0x4ac>
    d340:	00f507b3          	add	x15,x10,x15
    d344:	ffff0713          	addi	x14,x30,-1
    d348:	28a7e463          	bltu	x15,x10,d5d0 <__divdf3+0x724>
    d34c:	2867f263          	bgeu	x15,x6,d5d0 <__divdf3+0x724>
    d350:	ffef0f13          	addi	x30,x30,-2
    d354:	00a787b3          	add	x15,x15,x10
    d358:	01059593          	slli	x11,x11,0x10
    d35c:	01e5e5b3          	or	x11,x11,x30
    d360:	01059713          	slli	x14,x11,0x10
    d364:	01075713          	srli	x14,x14,0x10
    d368:	0105df13          	srli	x30,x11,0x10
    d36c:	02ee08b3          	mul	x17,x28,x14
    d370:	406787b3          	sub	x15,x15,x6
    d374:	02cf0eb3          	mul	x29,x30,x12
    d378:	02e60633          	mul	x12,x12,x14
    d37c:	01d888b3          	add	x17,x17,x29
    d380:	01065713          	srli	x14,x12,0x10
    d384:	01170733          	add	x14,x14,x17
    d388:	03ee0e33          	mul	x28,x28,x30
    d38c:	01d77663          	bgeu	x14,x29,d398 <__divdf3+0x4ec>
    d390:	000108b7          	lui	x17,0x10
    d394:	011e0e33          	add	x28,x28,x17
    d398:	01075893          	srli	x17,x14,0x10
    d39c:	01061613          	slli	x12,x12,0x10
    d3a0:	01065613          	srli	x12,x12,0x10
    d3a4:	01071713          	slli	x14,x14,0x10
    d3a8:	01c888b3          	add	x17,x17,x28
    d3ac:	00c70733          	add	x14,x14,x12
    d3b0:	0d17f063          	bgeu	x15,x17,d470 <__divdf3+0x5c4>
    d3b4:	00f507b3          	add	x15,x10,x15
    d3b8:	00078613          	addi	x12,x15,0
    d3bc:	fff58313          	addi	x6,x11,-1
    d3c0:	1aa7e463          	bltu	x15,x10,d568 <__divdf3+0x6bc>
    d3c4:	2317e863          	bltu	x15,x17,d5f4 <__divdf3+0x748>
    d3c8:	27178e63          	beq	x15,x17,d644 <__divdf3+0x798>
    d3cc:	00030593          	addi	x11,x6,0
    d3d0:	0015e593          	ori	x11,x11,1
    d3d4:	d61ff06f          	jal	x0,d134 <__divdf3+0x288>
    d3d8:	efdc7ee3          	bgeu	x24,x29,d2d4 <__divdf3+0x428>
    d3dc:	010c05b3          	add	x11,x24,x16
    d3e0:	0185bf33          	sltu	x30,x11,x24
    d3e4:	00af0fb3          	add	x31,x30,x10
    d3e8:	01f787b3          	add	x15,x15,x31
    d3ec:	00058c13          	addi	x24,x11,0
    d3f0:	fff40f93          	addi	x31,x8,-1
    d3f4:	08f57463          	bgeu	x10,x15,d47c <__divdf3+0x5d0>
    d3f8:	18e7e463          	bltu	x15,x14,d580 <__divdf3+0x6d4>
    d3fc:	18f70063          	beq	x14,x15,d57c <__divdf3+0x6d0>
    d400:	000f8413          	addi	x8,x31,0
    d404:	ed1ff06f          	jal	x0,d2d4 <__divdf3+0x428>
    d408:	dcbc6ae3          	bltu	x24,x11,d1dc <__divdf3+0x330>
    d40c:	001c5613          	srli	x12,x24,0x1
    d410:	01fb9793          	slli	x15,x23,0x1f
    d414:	001bd713          	srli	x14,x23,0x1
    d418:	00c7e7b3          	or	x15,x15,x12
    d41c:	01fc1c13          	slli	x24,x24,0x1f
    d420:	dcdff06f          	jal	x0,d1ec <__divdf3+0x340>
    d424:	000c8513          	addi	x10,x25,0
    d428:	790040ef          	jal	x1,11bb8 <__clzsi2>
    d42c:	01550693          	addi	x13,x10,21
    d430:	01c00713          	addi	x14,x0,28
    d434:	02050793          	addi	x15,x10,32
    d438:	bad756e3          	bge	x14,x13,cfe4 <__divdf3+0x138>
    d43c:	ff850513          	addi	x10,x10,-8
    d440:	00ac9433          	sll	x8,x25,x10
    d444:	00000593          	addi	x11,x0,0
    d448:	bb9ff06f          	jal	x0,d000 <__divdf3+0x154>
    d44c:	76c040ef          	jal	x1,11bb8 <__clzsi2>
    d450:	01550793          	addi	x15,x10,21
    d454:	01c00713          	addi	x14,x0,28
    d458:	02050693          	addi	x13,x10,32
    d45c:	c6f752e3          	bge	x14,x15,d0c0 <__divdf3+0x214>
    d460:	ff850713          	addi	x14,x10,-8
    d464:	00e41bb3          	sll	x23,x8,x14
    d468:	00000c13          	addi	x24,x0,0
    d46c:	c71ff06f          	jal	x0,d0dc <__divdf3+0x230>
    d470:	f71790e3          	bne	x15,x17,d3d0 <__divdf3+0x524>
    d474:	cc0700e3          	beq	x14,x0,d134 <__divdf3+0x288>
    d478:	f3dff06f          	jal	x0,d3b4 <__divdf3+0x508>
    d47c:	f8f512e3          	bne	x10,x15,d400 <__divdf3+0x554>
    d480:	f60f0ce3          	beq	x30,x0,d3f8 <__divdf3+0x54c>
    d484:	000f8413          	addi	x8,x31,0
    d488:	e4dff06f          	jal	x0,d2d4 <__divdf3+0x428>
    d48c:	00100613          	addi	x12,x0,1
    d490:	41e98793          	addi	x15,x19,1054
    d494:	00f59733          	sll	x14,x11,x15
    d498:	00e03733          	sltu	x14,x0,x14
    d49c:	00f417b3          	sll	x15,x8,x15
    d4a0:	00f767b3          	or	x15,x14,x15
    d4a4:	00c5d733          	srl	x14,x11,x12
    d4a8:	00f76733          	or	x14,x14,x15
    d4ac:	00777793          	andi	x15,x14,7
    d4b0:	00c45633          	srl	x12,x8,x12
    d4b4:	1a079063          	bne	x15,x0,d654 <__divdf3+0x7a8>
    d4b8:	00861793          	slli	x15,x12,0x8
    d4bc:	0807d863          	bge	x15,x0,d54c <__divdf3+0x6a0>
    d4c0:	00100793          	addi	x15,x0,1
    d4c4:	00000413          	addi	x8,x0,0
    d4c8:	00000713          	addi	x14,x0,0
    d4cc:	b65ff06f          	jal	x0,d030 <__divdf3+0x184>
    d4d0:	d6b770e3          	bgeu	x14,x11,d230 <__divdf3+0x384>
    d4d4:	ffe40413          	addi	x8,x8,-2
    d4d8:	00a70733          	add	x14,x14,x10
    d4dc:	d59ff06f          	jal	x0,d234 <__divdf3+0x388>
    d4e0:	d9d7f2e3          	bgeu	x15,x29,d264 <__divdf3+0x3b8>
    d4e4:	ffe60613          	addi	x12,x12,-2
    d4e8:	00a787b3          	add	x15,x15,x10
    d4ec:	d7dff06f          	jal	x0,d268 <__divdf3+0x3bc>
    d4f0:	01f00713          	addi	x14,x0,31
    d4f4:	f8c75ee3          	bge	x14,x12,d490 <__divdf3+0x5e4>
    d4f8:	fe100513          	addi	x10,x0,-31
    d4fc:	40f50533          	sub	x10,x10,x15
    d500:	02000793          	addi	x15,x0,32
    d504:	00a45533          	srl	x10,x8,x10
    d508:	00f60863          	beq	x12,x15,d518 <__divdf3+0x66c>
    d50c:	43e98793          	addi	x15,x19,1086
    d510:	00f417b3          	sll	x15,x8,x15
    d514:	00f5e5b3          	or	x11,x11,x15
    d518:	00b03733          	sltu	x14,x0,x11
    d51c:	00a76733          	or	x14,x14,x10
    d520:	00777613          	andi	x12,x14,7
    d524:	00000413          	addi	x8,x0,0
    d528:	02060863          	beq	x12,x0,d558 <__divdf3+0x6ac>
    d52c:	00f77793          	andi	x15,x14,15
    d530:	00400593          	addi	x11,x0,4
    d534:	00000613          	addi	x12,x0,0
    d538:	00b78a63          	beq	x15,x11,d54c <__divdf3+0x6a0>
    d53c:	00b707b3          	add	x15,x14,x11
    d540:	00e7b733          	sltu	x14,x15,x14
    d544:	00e03633          	sltu	x12,x0,x14
    d548:	00078713          	addi	x14,x15,0
    d54c:	00961413          	slli	x8,x12,0x9
    d550:	00c45413          	srli	x8,x8,0xc
    d554:	01d61613          	slli	x12,x12,0x1d
    d558:	00375713          	srli	x14,x14,0x3
    d55c:	00c76733          	or	x14,x14,x12
    d560:	00000793          	addi	x15,x0,0
    d564:	acdff06f          	jal	x0,d030 <__divdf3+0x184>
    d568:	00030593          	addi	x11,x6,0
    d56c:	e71612e3          	bne	x12,x17,d3d0 <__divdf3+0x524>
    d570:	bd0702e3          	beq	x14,x16,d134 <__divdf3+0x288>
    d574:	0015e593          	ori	x11,x11,1
    d578:	bbdff06f          	jal	x0,d134 <__divdf3+0x288>
    d57c:	e9d5f2e3          	bgeu	x11,x29,d400 <__divdf3+0x554>
    d580:	00b805b3          	add	x11,x16,x11
    d584:	0105bf33          	sltu	x30,x11,x16
    d588:	00af0f33          	add	x30,x30,x10
    d58c:	ffe40413          	addi	x8,x8,-2
    d590:	01e787b3          	add	x15,x15,x30
    d594:	00058c13          	addi	x24,x11,0
    d598:	d3dff06f          	jal	x0,d2d4 <__divdf3+0x428>
    d59c:	c0200713          	addi	x14,x0,-1022
    d5a0:	3ff98793          	addi	x15,x19,1023
    d5a4:	fff00593          	addi	x11,x0,-1
    d5a8:	06e9c663          	blt	x19,x14,d614 <__divdf3+0x768>
    d5ac:	00458713          	addi	x14,x11,4
    d5b0:	00b735b3          	sltu	x11,x14,x11
    d5b4:	00b40433          	add	x8,x8,x11
    d5b8:	00070593          	addi	x11,x14,0
    d5bc:	b89ff06f          	jal	x0,d144 <__divdf3+0x298>
    d5c0:	00f5f713          	andi	x14,x11,15
    d5c4:	00400613          	addi	x12,x0,4
    d5c8:	b6c70ee3          	beq	x14,x12,d144 <__divdf3+0x298>
    d5cc:	fe1ff06f          	jal	x0,d5ac <__divdf3+0x700>
    d5d0:	00070f13          	addi	x30,x14,0
    d5d4:	d85ff06f          	jal	x0,d358 <__divdf3+0x4ac>
    d5d8:	00078593          	addi	x11,x15,0
    d5dc:	d41ff06f          	jal	x0,d31c <__divdf3+0x470>
    d5e0:	00090693          	addi	x13,x18,0
    d5e4:	7ff00793          	addi	x15,x0,2047
    d5e8:	00000413          	addi	x8,x0,0
    d5ec:	00000713          	addi	x14,x0,0
    d5f0:	a41ff06f          	jal	x0,d030 <__divdf3+0x184>
    d5f4:	00181313          	slli	x6,x16,0x1
    d5f8:	01033633          	sltu	x12,x6,x16
    d5fc:	00a60633          	add	x12,x12,x10
    d600:	00c78633          	add	x12,x15,x12
    d604:	ffe58593          	addi	x11,x11,-2
    d608:	00030813          	addi	x16,x6,0
    d60c:	f71602e3          	beq	x12,x17,d570 <__divdf3+0x6c4>
    d610:	dc1ff06f          	jal	x0,d3d0 <__divdf3+0x524>
    d614:	a00790e3          	bne	x15,x0,d014 <__divdf3+0x168>
    d618:	41e98793          	addi	x15,x19,1054
    d61c:	80000637          	lui	x12,0x80000
    d620:	00f41733          	sll	x14,x8,x15
    d624:	fff60793          	addi	x15,x12,-1 # 7fffffff <__heap_end+0x7fbfffff>
    d628:	00f76733          	or	x14,x14,x15
    d62c:	00145613          	srli	x12,x8,0x1
    d630:	00470793          	addi	x15,x14,4
    d634:	00e7b733          	sltu	x14,x15,x14
    d638:	00e60633          	add	x12,x12,x14
    d63c:	00078713          	addi	x14,x15,0
    d640:	e79ff06f          	jal	x0,d4b8 <__divdf3+0x60c>
    d644:	fae868e3          	bltu	x16,x14,d5f4 <__divdf3+0x748>
    d648:	00030593          	addi	x11,x6,0
    d64c:	f30714e3          	bne	x14,x16,d574 <__divdf3+0x6c8>
    d650:	ae5ff06f          	jal	x0,d134 <__divdf3+0x288>
    d654:	00f77793          	andi	x15,x14,15
    d658:	00400593          	addi	x11,x0,4
    d65c:	e4b78ee3          	beq	x15,x11,d4b8 <__divdf3+0x60c>
    d660:	fd1ff06f          	jal	x0,d630 <__divdf3+0x784>

0000d664 <__eqdf2>:
    d664:	0145d713          	srli	x14,x11,0x14
    d668:	001007b7          	lui	x15,0x100
    d66c:	0146d813          	srli	x16,x13,0x14
    d670:	fff78793          	addi	x15,x15,-1 # fffff <__heap_start+0xeccbf>
    d674:	7ff00313          	addi	x6,x0,2047
    d678:	7ff77713          	andi	x14,x14,2047
    d67c:	00b7fe33          	and	x28,x15,x11
    d680:	00050893          	addi	x17,x10,0
    d684:	00d7f7b3          	and	x15,x15,x13
    d688:	00687833          	and	x16,x16,x6
    d68c:	01f5d593          	srli	x11,x11,0x1f
    d690:	01f6d693          	srli	x13,x13,0x1f
    d694:	00100513          	addi	x10,x0,1
    d698:	00670c63          	beq	x14,x6,d6b0 <__eqdf2+0x4c>
    d69c:	00680863          	beq	x16,x6,d6ac <__eqdf2+0x48>
    d6a0:	01071463          	bne	x14,x16,d6a8 <__eqdf2+0x44>
    d6a4:	02fe0663          	beq	x28,x15,d6d0 <__eqdf2+0x6c>
    d6a8:	00008067          	jalr	x0,0(x1)
    d6ac:	00008067          	jalr	x0,0(x1)
    d6b0:	fee81ce3          	bne	x16,x14,d6a8 <__eqdf2+0x44>
    d6b4:	00fe67b3          	or	x15,x28,x15
    d6b8:	00c7e7b3          	or	x15,x15,x12
    d6bc:	0117e7b3          	or	x15,x15,x17
    d6c0:	fe0794e3          	bne	x15,x0,d6a8 <__eqdf2+0x44>
    d6c4:	40d585b3          	sub	x11,x11,x13
    d6c8:	00b03533          	sltu	x10,x0,x11
    d6cc:	00008067          	jalr	x0,0(x1)
    d6d0:	fd161ce3          	bne	x12,x17,d6a8 <__eqdf2+0x44>
    d6d4:	00d58a63          	beq	x11,x13,d6e8 <__eqdf2+0x84>
    d6d8:	fc0718e3          	bne	x14,x0,d6a8 <__eqdf2+0x44>
    d6dc:	00ce6e33          	or	x28,x28,x12
    d6e0:	01c03533          	sltu	x10,x0,x28
    d6e4:	00008067          	jalr	x0,0(x1)
    d6e8:	00000513          	addi	x10,x0,0
    d6ec:	00008067          	jalr	x0,0(x1)

0000d6f0 <__gedf2>:
    d6f0:	0145d893          	srli	x17,x11,0x14
    d6f4:	001007b7          	lui	x15,0x100
    d6f8:	0146d713          	srli	x14,x13,0x14
    d6fc:	00050813          	addi	x16,x10,0
    d700:	fff78793          	addi	x15,x15,-1 # fffff <__heap_start+0xeccbf>
    d704:	7ff00313          	addi	x6,x0,2047
    d708:	7ff8f893          	andi	x17,x17,2047
    d70c:	00677533          	and	x10,x14,x6
    d710:	00080e13          	addi	x28,x16,0
    d714:	00b7f733          	and	x14,x15,x11
    d718:	00060e93          	addi	x29,x12,0
    d71c:	00d7f7b3          	and	x15,x15,x13
    d720:	01f5d593          	srli	x11,x11,0x1f
    d724:	01f6d693          	srli	x13,x13,0x1f
    d728:	04688863          	beq	x17,x6,d778 <__gedf2+0x88>
    d72c:	02650463          	beq	x10,x6,d754 <__gedf2+0x64>
    d730:	06089a63          	bne	x17,x0,d7a4 <__gedf2+0xb4>
    d734:	01076833          	or	x16,x14,x16
    d738:	06051063          	bne	x10,x0,d798 <__gedf2+0xa8>
    d73c:	00c7e633          	or	x12,x15,x12
    d740:	08060c63          	beq	x12,x0,d7d8 <__gedf2+0xe8>
    d744:	0a081263          	bne	x16,x0,d7e8 <__gedf2+0xf8>
    d748:	00100513          	addi	x10,x0,1
    d74c:	08068263          	beq	x13,x0,d7d0 <__gedf2+0xe0>
    d750:	00008067          	jalr	x0,0(x1)
    d754:	00c7e633          	or	x12,x15,x12
    d758:	08061463          	bne	x12,x0,d7e0 <__gedf2+0xf0>
    d75c:	00089663          	bne	x17,x0,d768 <__gedf2+0x78>
    d760:	01076733          	or	x14,x14,x16
    d764:	fe0702e3          	beq	x14,x0,d748 <__gedf2+0x58>
    d768:	06d58063          	beq	x11,x13,d7c8 <__gedf2+0xd8>
    d76c:	06059263          	bne	x11,x0,d7d0 <__gedf2+0xe0>
    d770:	00100513          	addi	x10,x0,1
    d774:	00008067          	jalr	x0,0(x1)
    d778:	01076733          	or	x14,x14,x16
    d77c:	06071263          	bne	x14,x0,d7e0 <__gedf2+0xf0>
    d780:	ff1516e3          	bne	x10,x17,d76c <__gedf2+0x7c>
    d784:	00c7e7b3          	or	x15,x15,x12
    d788:	04079c63          	bne	x15,x0,d7e0 <__gedf2+0xf0>
    d78c:	fed590e3          	bne	x11,x13,d76c <__gedf2+0x7c>
    d790:	00000513          	addi	x10,x0,0
    d794:	00008067          	jalr	x0,0(x1)
    d798:	fa0808e3          	beq	x16,x0,d748 <__gedf2+0x58>
    d79c:	fcd598e3          	bne	x11,x13,d76c <__gedf2+0x7c>
    d7a0:	0280006f          	jal	x0,d7c8 <__gedf2+0xd8>
    d7a4:	fc0504e3          	beq	x10,x0,d76c <__gedf2+0x7c>
    d7a8:	fcd592e3          	bne	x11,x13,d76c <__gedf2+0x7c>
    d7ac:	fd1540e3          	blt	x10,x17,d76c <__gedf2+0x7c>
    d7b0:	00a8cc63          	blt	x17,x10,d7c8 <__gedf2+0xd8>
    d7b4:	fae7ece3          	bltu	x15,x14,d76c <__gedf2+0x7c>
    d7b8:	00f71863          	bne	x14,x15,d7c8 <__gedf2+0xd8>
    d7bc:	fbcee8e3          	bltu	x29,x28,d76c <__gedf2+0x7c>
    d7c0:	00000513          	addi	x10,x0,0
    d7c4:	f9de76e3          	bgeu	x28,x29,d750 <__gedf2+0x60>
    d7c8:	00100513          	addi	x10,x0,1
    d7cc:	f80592e3          	bne	x11,x0,d750 <__gedf2+0x60>
    d7d0:	fff00513          	addi	x10,x0,-1
    d7d4:	00008067          	jalr	x0,0(x1)
    d7d8:	f8081ae3          	bne	x16,x0,d76c <__gedf2+0x7c>
    d7dc:	00008067          	jalr	x0,0(x1)
    d7e0:	ffe00513          	addi	x10,x0,-2
    d7e4:	00008067          	jalr	x0,0(x1)
    d7e8:	fcd586e3          	beq	x11,x13,d7b4 <__gedf2+0xc4>
    d7ec:	f81ff06f          	jal	x0,d76c <__gedf2+0x7c>

0000d7f0 <__ledf2>:
    d7f0:	0145d893          	srli	x17,x11,0x14
    d7f4:	001007b7          	lui	x15,0x100
    d7f8:	0146d713          	srli	x14,x13,0x14
    d7fc:	00050813          	addi	x16,x10,0
    d800:	fff78793          	addi	x15,x15,-1 # fffff <__heap_start+0xeccbf>
    d804:	7ff00313          	addi	x6,x0,2047
    d808:	7ff8f893          	andi	x17,x17,2047
    d80c:	00677533          	and	x10,x14,x6
    d810:	00080e13          	addi	x28,x16,0
    d814:	00b7f733          	and	x14,x15,x11
    d818:	00060e93          	addi	x29,x12,0
    d81c:	00d7f7b3          	and	x15,x15,x13
    d820:	01f5d593          	srli	x11,x11,0x1f
    d824:	01f6d693          	srli	x13,x13,0x1f
    d828:	04688a63          	beq	x17,x6,d87c <__ledf2+0x8c>
    d82c:	02650463          	beq	x10,x6,d854 <__ledf2+0x64>
    d830:	06089863          	bne	x17,x0,d8a0 <__ledf2+0xb0>
    d834:	01076833          	or	x16,x14,x16
    d838:	08051e63          	bne	x10,x0,d8d4 <__ledf2+0xe4>
    d83c:	00c7e633          	or	x12,x15,x12
    d840:	0a060463          	beq	x12,x0,d8e8 <__ledf2+0xf8>
    d844:	0a081663          	bne	x16,x0,d8f0 <__ledf2+0x100>
    d848:	00100513          	addi	x10,x0,1
    d84c:	08068063          	beq	x13,x0,d8cc <__ledf2+0xdc>
    d850:	00008067          	jalr	x0,0(x1)
    d854:	00c7e633          	or	x12,x15,x12
    d858:	00200513          	addi	x10,x0,2
    d85c:	fe061ae3          	bne	x12,x0,d850 <__ledf2+0x60>
    d860:	00089663          	bne	x17,x0,d86c <__ledf2+0x7c>
    d864:	01076733          	or	x14,x14,x16
    d868:	fe0700e3          	beq	x14,x0,d848 <__ledf2+0x58>
    d86c:	04d58c63          	beq	x11,x13,d8c4 <__ledf2+0xd4>
    d870:	04059e63          	bne	x11,x0,d8cc <__ledf2+0xdc>
    d874:	00100513          	addi	x10,x0,1
    d878:	00008067          	jalr	x0,0(x1)
    d87c:	01076733          	or	x14,x14,x16
    d880:	06071063          	bne	x14,x0,d8e0 <__ledf2+0xf0>
    d884:	ff1516e3          	bne	x10,x17,d870 <__ledf2+0x80>
    d888:	00c7e7b3          	or	x15,x15,x12
    d88c:	00200513          	addi	x10,x0,2
    d890:	fc0790e3          	bne	x15,x0,d850 <__ledf2+0x60>
    d894:	fcd59ee3          	bne	x11,x13,d870 <__ledf2+0x80>
    d898:	00000513          	addi	x10,x0,0
    d89c:	00008067          	jalr	x0,0(x1)
    d8a0:	fc0508e3          	beq	x10,x0,d870 <__ledf2+0x80>
    d8a4:	fcd596e3          	bne	x11,x13,d870 <__ledf2+0x80>
    d8a8:	fd1544e3          	blt	x10,x17,d870 <__ledf2+0x80>
    d8ac:	00a8cc63          	blt	x17,x10,d8c4 <__ledf2+0xd4>
    d8b0:	fce7e0e3          	bltu	x15,x14,d870 <__ledf2+0x80>
    d8b4:	00f71863          	bne	x14,x15,d8c4 <__ledf2+0xd4>
    d8b8:	fbceece3          	bltu	x29,x28,d870 <__ledf2+0x80>
    d8bc:	00000513          	addi	x10,x0,0
    d8c0:	f9de78e3          	bgeu	x28,x29,d850 <__ledf2+0x60>
    d8c4:	00100513          	addi	x10,x0,1
    d8c8:	f80594e3          	bne	x11,x0,d850 <__ledf2+0x60>
    d8cc:	fff00513          	addi	x10,x0,-1
    d8d0:	00008067          	jalr	x0,0(x1)
    d8d4:	f6080ae3          	beq	x16,x0,d848 <__ledf2+0x58>
    d8d8:	f8d59ce3          	bne	x11,x13,d870 <__ledf2+0x80>
    d8dc:	fe9ff06f          	jal	x0,d8c4 <__ledf2+0xd4>
    d8e0:	00200513          	addi	x10,x0,2
    d8e4:	00008067          	jalr	x0,0(x1)
    d8e8:	f80814e3          	bne	x16,x0,d870 <__ledf2+0x80>
    d8ec:	00008067          	jalr	x0,0(x1)
    d8f0:	fcd580e3          	beq	x11,x13,d8b0 <__ledf2+0xc0>
    d8f4:	f7dff06f          	jal	x0,d870 <__ledf2+0x80>

0000d8f8 <__muldf3>:
    d8f8:	fd010113          	addi	x2,x2,-48
    d8fc:	0145d793          	srli	x15,x11,0x14
    d900:	02812423          	sw	x8,40(x2)
    d904:	02912223          	sw	x9,36(x2)
    d908:	01412c23          	sw	x20,24(x2)
    d90c:	01512a23          	sw	x21,20(x2)
    d910:	01812423          	sw	x24,8(x2)
    d914:	00c59a13          	slli	x20,x11,0xc
    d918:	02112623          	sw	x1,44(x2)
    d91c:	03212023          	sw	x18,32(x2)
    d920:	01312e23          	sw	x19,28(x2)
    d924:	01612823          	sw	x22,16(x2)
    d928:	01712623          	sw	x23,12(x2)
    d92c:	01912223          	sw	x25,4(x2)
    d930:	01a12023          	sw	x26,0(x2)
    d934:	7ff7f793          	andi	x15,x15,2047
    d938:	00050493          	addi	x9,x10,0
    d93c:	00060c13          	addi	x24,x12,0
    d940:	00068413          	addi	x8,x13,0
    d944:	00ca5a13          	srli	x20,x20,0xc
    d948:	01f5da93          	srli	x21,x11,0x1f
    d94c:	42078263          	beq	x15,x0,dd70 <__muldf3+0x478>
    d950:	7ff00713          	addi	x14,x0,2047
    d954:	0ae78663          	beq	x15,x14,da00 <__muldf3+0x108>
    d958:	003a1693          	slli	x13,x20,0x3
    d95c:	01d55713          	srli	x14,x10,0x1d
    d960:	00d76733          	or	x14,x14,x13
    d964:	008006b7          	lui	x13,0x800
    d968:	c0178b13          	addi	x22,x15,-1023
    d96c:	00351b93          	slli	x23,x10,0x3
    d970:	00d76a33          	or	x20,x14,x13
    d974:	00000c93          	addi	x25,x0,0
    d978:	00000d13          	addi	x26,x0,0
    d97c:	01445713          	srli	x14,x8,0x14
    d980:	7ff77793          	andi	x15,x14,2047
    d984:	00c41713          	slli	x14,x8,0xc
    d988:	00c75493          	srli	x9,x14,0xc
    d98c:	01f45413          	srli	x8,x8,0x1f
    d990:	000c0613          	addi	x12,x24,0
    d994:	0a078063          	beq	x15,x0,da34 <__muldf3+0x13c>
    d998:	7ff00713          	addi	x14,x0,2047
    d99c:	16e78063          	beq	x15,x14,dafc <__muldf3+0x204>
    d9a0:	00349713          	slli	x14,x9,0x3
    d9a4:	01dc5693          	srli	x13,x24,0x1d
    d9a8:	00e6e6b3          	or	x13,x13,x14
    d9ac:	c0178793          	addi	x15,x15,-1023
    d9b0:	00800737          	lui	x14,0x800
    d9b4:	01678533          	add	x10,x15,x22
    d9b8:	003c1613          	slli	x12,x24,0x3
    d9bc:	00e6e4b3          	or	x9,x13,x14
    d9c0:	00000893          	addi	x17,x0,0
    d9c4:	00a00793          	addi	x15,x0,10
    d9c8:	00150b13          	addi	x22,x10,1
    d9cc:	0b97ca63          	blt	x15,x25,da80 <__muldf3+0x188>
    d9d0:	008ac5b3          	xor	x11,x21,x8
    d9d4:	00200793          	addi	x15,x0,2
    d9d8:	00058813          	addi	x16,x11,0
    d9dc:	1597c863          	blt	x15,x25,db2c <__muldf3+0x234>
    d9e0:	fffc8c93          	addi	x25,x25,-1
    d9e4:	00100713          	addi	x14,x0,1
    d9e8:	17976263          	bltu	x14,x25,db4c <__muldf3+0x254>
    d9ec:	3cf88863          	beq	x17,x15,ddbc <__muldf3+0x4c4>
    d9f0:	00048a13          	addi	x20,x9,0
    d9f4:	00060b93          	addi	x23,x12,0
    d9f8:	00088d13          	addi	x26,x17,0 # 10000 <__subtf3+0xd8>
    d9fc:	0980006f          	jal	x0,da94 <__muldf3+0x19c>
    da00:	00aa6bb3          	or	x23,x20,x10
    da04:	3c0b9663          	bne	x23,x0,ddd0 <__muldf3+0x4d8>
    da08:	01445713          	srli	x14,x8,0x14
    da0c:	00078b13          	addi	x22,x15,0
    da10:	7ff77793          	andi	x15,x14,2047
    da14:	00c41713          	slli	x14,x8,0xc
    da18:	00000a13          	addi	x20,x0,0
    da1c:	00800c93          	addi	x25,x0,8
    da20:	00200d13          	addi	x26,x0,2
    da24:	00c75493          	srli	x9,x14,0xc
    da28:	01f45413          	srli	x8,x8,0x1f
    da2c:	000c0613          	addi	x12,x24,0
    da30:	f60794e3          	bne	x15,x0,d998 <__muldf3+0xa0>
    da34:	0184e7b3          	or	x15,x9,x24
    da38:	3c078063          	beq	x15,x0,ddf8 <__muldf3+0x500>
    da3c:	4a048263          	beq	x9,x0,dee0 <__muldf3+0x5e8>
    da40:	00048513          	addi	x10,x9,0
    da44:	174040ef          	jal	x1,11bb8 <__clzsi2>
    da48:	ff550713          	addi	x14,x10,-11
    da4c:	01d00793          	addi	x15,x0,29
    da50:	40e787b3          	sub	x15,x15,x14
    da54:	ff850613          	addi	x12,x10,-8
    da58:	00c49733          	sll	x14,x9,x12
    da5c:	00fc57b3          	srl	x15,x24,x15
    da60:	00e7e4b3          	or	x9,x15,x14
    da64:	00cc1633          	sll	x12,x24,x12
    da68:	40ab0533          	sub	x10,x22,x10
    da6c:	c0d50513          	addi	x10,x10,-1011
    da70:	00a00793          	addi	x15,x0,10
    da74:	00000893          	addi	x17,x0,0
    da78:	00150b13          	addi	x22,x10,1
    da7c:	f597dae3          	bge	x15,x25,d9d0 <__muldf3+0xd8>
    da80:	000a8593          	addi	x11,x21,0
    da84:	00200793          	addi	x15,x0,2
    da88:	32fd0a63          	beq	x26,x15,ddbc <__muldf3+0x4c4>
    da8c:	00300793          	addi	x15,x0,3
    da90:	46fd0e63          	beq	x26,x15,df0c <__muldf3+0x614>
    da94:	00100793          	addi	x15,x0,1
    da98:	00058813          	addi	x16,x11,0
    da9c:	42fd1e63          	bne	x26,x15,ded8 <__muldf3+0x5e0>
    daa0:	00000793          	addi	x15,x0,0
    daa4:	00000693          	addi	x13,x0,0
    daa8:	00000713          	addi	x14,x0,0
    daac:	02c12083          	lw	x1,44(x2)
    dab0:	02812403          	lw	x8,40(x2)
    dab4:	01479793          	slli	x15,x15,0x14
    dab8:	00d7e7b3          	or	x15,x15,x13
    dabc:	01f81813          	slli	x16,x16,0x1f
    dac0:	0107e7b3          	or	x15,x15,x16
    dac4:	02412483          	lw	x9,36(x2)
    dac8:	02012903          	lw	x18,32(x2)
    dacc:	01c12983          	lw	x19,28(x2)
    dad0:	01812a03          	lw	x20,24(x2)
    dad4:	01412a83          	lw	x21,20(x2)
    dad8:	01012b03          	lw	x22,16(x2)
    dadc:	00c12b83          	lw	x23,12(x2)
    dae0:	00812c03          	lw	x24,8(x2)
    dae4:	00412c83          	lw	x25,4(x2)
    dae8:	00012d03          	lw	x26,0(x2)
    daec:	00070513          	addi	x10,x14,0 # 800000 <__heap_end+0x400000>
    daf0:	00078593          	addi	x11,x15,0
    daf4:	03010113          	addi	x2,x2,48
    daf8:	00008067          	jalr	x0,0(x1)
    dafc:	0184e733          	or	x14,x9,x24
    db00:	7ffb0513          	addi	x10,x22,2047
    db04:	30070663          	beq	x14,x0,de10 <__muldf3+0x518>
    db08:	00001737          	lui	x14,0x1
    db0c:	008ac833          	xor	x16,x21,x8
    db10:	80070713          	addi	x14,x14,-2048 # 800 <_puts_r+0xc0>
    db14:	003cec93          	ori	x25,x25,3
    db18:	00a00693          	addi	x13,x0,10
    db1c:	00eb0b33          	add	x22,x22,x14
    db20:	00080593          	addi	x11,x16,0
    db24:	3796cc63          	blt	x13,x25,de9c <__muldf3+0x5a4>
    db28:	00300893          	addi	x17,x0,3
    db2c:	00100693          	addi	x13,x0,1
    db30:	019696b3          	sll	x13,x13,x25
    db34:	5306f713          	andi	x14,x13,1328
    db38:	f40716e3          	bne	x14,x0,da84 <__muldf3+0x18c>
    db3c:	2406f793          	andi	x15,x13,576
    db40:	3e079063          	bne	x15,x0,df20 <__muldf3+0x628>
    db44:	0886f693          	andi	x13,x13,136
    db48:	2c069e63          	bne	x13,x0,de24 <__muldf3+0x52c>
    db4c:	010bd713          	srli	x14,x23,0x10
    db50:	01061313          	slli	x6,x12,0x10
    db54:	010b9b93          	slli	x23,x23,0x10
    db58:	010bdb93          	srli	x23,x23,0x10
    db5c:	01035313          	srli	x6,x6,0x10
    db60:	01065613          	srli	x12,x12,0x10
    db64:	026b86b3          	mul	x13,x23,x6
    db68:	026708b3          	mul	x17,x14,x6
    db6c:	0106d793          	srli	x15,x13,0x10
    db70:	037605b3          	mul	x11,x12,x23
    db74:	011585b3          	add	x11,x11,x17
    db78:	00b787b3          	add	x15,x15,x11
    db7c:	02c70f33          	mul	x30,x14,x12
    db80:	0117f663          	bgeu	x15,x17,db8c <__muldf3+0x294>
    db84:	000105b7          	lui	x11,0x10
    db88:	00bf0f33          	add	x30,x30,x11
    db8c:	0104de13          	srli	x28,x9,0x10
    db90:	01069693          	slli	x13,x13,0x10
    db94:	01049493          	slli	x9,x9,0x10
    db98:	0104d493          	srli	x9,x9,0x10
    db9c:	0106d693          	srli	x13,x13,0x10
    dba0:	01079593          	slli	x11,x15,0x10
    dba4:	029b82b3          	mul	x5,x23,x9
    dba8:	00d585b3          	add	x11,x11,x13
    dbac:	0107d793          	srli	x15,x15,0x10
    dbb0:	037e0bb3          	mul	x23,x28,x23
    dbb4:	0102d893          	srli	x17,x5,0x10
    dbb8:	029706b3          	mul	x13,x14,x9
    dbbc:	00db8bb3          	add	x23,x23,x13
    dbc0:	017888b3          	add	x17,x17,x23
    dbc4:	03c70eb3          	mul	x29,x14,x28
    dbc8:	00d8f663          	bgeu	x17,x13,dbd4 <__muldf3+0x2dc>
    dbcc:	00010737          	lui	x14,0x10
    dbd0:	00ee8eb3          	add	x29,x29,x14
    dbd4:	010a1693          	slli	x13,x20,0x10
    dbd8:	01029293          	slli	x5,x5,0x10
    dbdc:	010a5f93          	srli	x31,x20,0x10
    dbe0:	0106d693          	srli	x13,x13,0x10
    dbe4:	0102d293          	srli	x5,x5,0x10
    dbe8:	01089713          	slli	x14,x17,0x10
    dbec:	02d603b3          	mul	x7,x12,x13
    dbf0:	00570733          	add	x14,x14,x5
    dbf4:	0108d893          	srli	x17,x17,0x10
    dbf8:	01d888b3          	add	x17,x17,x29
    dbfc:	00e787b3          	add	x15,x15,x14
    dc00:	026682b3          	mul	x5,x13,x6
    dc04:	026f8333          	mul	x6,x31,x6
    dc08:	0102de93          	srli	x29,x5,0x10
    dc0c:	006383b3          	add	x7,x7,x6
    dc10:	007e8eb3          	add	x29,x29,x7
    dc14:	03f60633          	mul	x12,x12,x31
    dc18:	006ef663          	bgeu	x29,x6,dc24 <__muldf3+0x32c>
    dc1c:	00010337          	lui	x6,0x10
    dc20:	00660633          	add	x12,x12,x6
    dc24:	01029293          	slli	x5,x5,0x10
    dc28:	0102d293          	srli	x5,x5,0x10
    dc2c:	010e9313          	slli	x6,x29,0x10
    dc30:	00530333          	add	x6,x6,x5
    dc34:	010ede93          	srli	x29,x29,0x10
    dc38:	00ce8633          	add	x12,x29,x12
    dc3c:	029682b3          	mul	x5,x13,x9
    dc40:	02de06b3          	mul	x13,x28,x13
    dc44:	0102de93          	srli	x29,x5,0x10
    dc48:	029f84b3          	mul	x9,x31,x9
    dc4c:	009686b3          	add	x13,x13,x9
    dc50:	00de8eb3          	add	x29,x29,x13
    dc54:	03fe0e33          	mul	x28,x28,x31
    dc58:	009ef663          	bgeu	x29,x9,dc64 <__muldf3+0x36c>
    dc5c:	000106b7          	lui	x13,0x10
    dc60:	00de0e33          	add	x28,x28,x13
    dc64:	01029293          	slli	x5,x5,0x10
    dc68:	010e9693          	slli	x13,x29,0x10
    dc6c:	0102d293          	srli	x5,x5,0x10
    dc70:	01e787b3          	add	x15,x15,x30
    dc74:	005686b3          	add	x13,x13,x5
    dc78:	011688b3          	add	x17,x13,x17
    dc7c:	00e7b733          	sltu	x14,x15,x14
    dc80:	00678333          	add	x6,x15,x6
    dc84:	00e88733          	add	x14,x17,x14
    dc88:	00c70633          	add	x12,x14,x12
    dc8c:	00f337b3          	sltu	x15,x6,x15
    dc90:	00f607b3          	add	x15,x12,x15
    dc94:	00d8b6b3          	sltu	x13,x17,x13
    dc98:	011738b3          	sltu	x17,x14,x17
    dc9c:	0116e6b3          	or	x13,x13,x17
    dca0:	00e63733          	sltu	x14,x12,x14
    dca4:	010ede93          	srli	x29,x29,0x10
    dca8:	00c7b633          	sltu	x12,x15,x12
    dcac:	01d686b3          	add	x13,x13,x29
    dcb0:	00931b93          	slli	x23,x6,0x9
    dcb4:	00c76733          	or	x14,x14,x12
    dcb8:	00d70733          	add	x14,x14,x13
    dcbc:	00bbebb3          	or	x23,x23,x11
    dcc0:	01c70733          	add	x14,x14,x28
    dcc4:	01703bb3          	sltu	x23,x0,x23
    dcc8:	01735313          	srli	x6,x6,0x17
    dccc:	00971713          	slli	x14,x14,0x9
    dcd0:	0177d693          	srli	x13,x15,0x17
    dcd4:	006bebb3          	or	x23,x23,x6
    dcd8:	00979793          	slli	x15,x15,0x9
    dcdc:	00fbebb3          	or	x23,x23,x15
    dce0:	00771793          	slli	x15,x14,0x7
    dce4:	00d76a33          	or	x20,x14,x13
    dce8:	0207d063          	bge	x15,x0,dd08 <__muldf3+0x410>
    dcec:	001bd793          	srli	x15,x23,0x1
    dcf0:	001bfb93          	andi	x23,x23,1
    dcf4:	0177e7b3          	or	x15,x15,x23
    dcf8:	01fa1b93          	slli	x23,x20,0x1f
    dcfc:	000b0513          	addi	x10,x22,0
    dd00:	0177ebb3          	or	x23,x15,x23
    dd04:	001a5a13          	srli	x20,x20,0x1
    dd08:	3ff50793          	addi	x15,x10,1023
    dd0c:	12f05663          	bge	x0,x15,de38 <__muldf3+0x540>
    dd10:	007bf713          	andi	x14,x23,7
    dd14:	02070063          	beq	x14,x0,dd34 <__muldf3+0x43c>
    dd18:	00fbf713          	andi	x14,x23,15
    dd1c:	00400693          	addi	x13,x0,4
    dd20:	00d70a63          	beq	x14,x13,dd34 <__muldf3+0x43c>
    dd24:	00db8733          	add	x14,x23,x13
    dd28:	01773bb3          	sltu	x23,x14,x23
    dd2c:	017a0a33          	add	x20,x20,x23
    dd30:	00070b93          	addi	x23,x14,0 # 10000 <__subtf3+0xd8>
    dd34:	007a1713          	slli	x14,x20,0x7
    dd38:	00075a63          	bge	x14,x0,dd4c <__muldf3+0x454>
    dd3c:	ff000737          	lui	x14,0xff000
    dd40:	fff70713          	addi	x14,x14,-1 # feffffff <__heap_end+0xfebfffff>
    dd44:	40050793          	addi	x15,x10,1024
    dd48:	00ea7a33          	and	x20,x20,x14
    dd4c:	7fe00713          	addi	x14,x0,2046
    dd50:	1ef74063          	blt	x14,x15,df30 <__muldf3+0x638>
    dd54:	003bdb93          	srli	x23,x23,0x3
    dd58:	01da1713          	slli	x14,x20,0x1d
    dd5c:	009a1693          	slli	x13,x20,0x9
    dd60:	7ff7f793          	andi	x15,x15,2047
    dd64:	01776733          	or	x14,x14,x23
    dd68:	00c6d693          	srli	x13,x13,0xc
    dd6c:	d41ff06f          	jal	x0,daac <__muldf3+0x1b4>
    dd70:	00aa6bb3          	or	x23,x20,x10
    dd74:	060b8863          	beq	x23,x0,dde4 <__muldf3+0x4ec>
    dd78:	120a0e63          	beq	x20,x0,deb4 <__muldf3+0x5bc>
    dd7c:	000a0513          	addi	x10,x20,0
    dd80:	639030ef          	jal	x1,11bb8 <__clzsi2>
    dd84:	00050713          	addi	x14,x10,0
    dd88:	ff550693          	addi	x13,x10,-11
    dd8c:	01d00793          	addi	x15,x0,29
    dd90:	40d787b3          	sub	x15,x15,x13
    dd94:	ff870b93          	addi	x23,x14,-8
    dd98:	017a16b3          	sll	x13,x20,x23
    dd9c:	00f4d7b3          	srl	x15,x9,x15
    dda0:	00d7ea33          	or	x20,x15,x13
    dda4:	01749bb3          	sll	x23,x9,x23
    dda8:	c0d00793          	addi	x15,x0,-1011
    ddac:	40e78b33          	sub	x22,x15,x14
    ddb0:	00000c93          	addi	x25,x0,0
    ddb4:	00000d13          	addi	x26,x0,0
    ddb8:	bc5ff06f          	jal	x0,d97c <__muldf3+0x84>
    ddbc:	00058813          	addi	x16,x11,0 # 10000 <__subtf3+0xd8>
    ddc0:	7ff00793          	addi	x15,x0,2047
    ddc4:	00000693          	addi	x13,x0,0
    ddc8:	00000713          	addi	x14,x0,0
    ddcc:	ce1ff06f          	jal	x0,daac <__muldf3+0x1b4>
    ddd0:	00050b93          	addi	x23,x10,0
    ddd4:	00078b13          	addi	x22,x15,0
    ddd8:	00c00c93          	addi	x25,x0,12
    dddc:	00300d13          	addi	x26,x0,3
    dde0:	b9dff06f          	jal	x0,d97c <__muldf3+0x84>
    dde4:	00000a13          	addi	x20,x0,0
    dde8:	00400c93          	addi	x25,x0,4
    ddec:	00000b13          	addi	x22,x0,0
    ddf0:	00100d13          	addi	x26,x0,1
    ddf4:	b89ff06f          	jal	x0,d97c <__muldf3+0x84>
    ddf8:	001cec93          	ori	x25,x25,1
    ddfc:	000b0513          	addi	x10,x22,0
    de00:	00000493          	addi	x9,x0,0
    de04:	00000613          	addi	x12,x0,0
    de08:	00100893          	addi	x17,x0,1
    de0c:	bb9ff06f          	jal	x0,d9c4 <__muldf3+0xcc>
    de10:	002cec93          	ori	x25,x25,2
    de14:	00000493          	addi	x9,x0,0
    de18:	00000613          	addi	x12,x0,0
    de1c:	00200893          	addi	x17,x0,2
    de20:	ba5ff06f          	jal	x0,d9c4 <__muldf3+0xcc>
    de24:	00048a13          	addi	x20,x9,0
    de28:	00060b93          	addi	x23,x12,0
    de2c:	00088d13          	addi	x26,x17,0
    de30:	00040593          	addi	x11,x8,0
    de34:	c51ff06f          	jal	x0,da84 <__muldf3+0x18c>
    de38:	00100693          	addi	x13,x0,1
    de3c:	10079263          	bne	x15,x0,df40 <__muldf3+0x648>
    de40:	41e50513          	addi	x10,x10,1054
    de44:	00ab97b3          	sll	x15,x23,x10
    de48:	00f037b3          	sltu	x15,x0,x15
    de4c:	00aa1533          	sll	x10,x20,x10
    de50:	00a7e7b3          	or	x15,x15,x10
    de54:	00dbd733          	srl	x14,x23,x13
    de58:	00f76733          	or	x14,x14,x15
    de5c:	00777613          	andi	x12,x14,7
    de60:	00da57b3          	srl	x15,x20,x13
    de64:	02060063          	beq	x12,x0,de84 <__muldf3+0x58c>
    de68:	00f77693          	andi	x13,x14,15
    de6c:	00400613          	addi	x12,x0,4
    de70:	00c68a63          	beq	x13,x12,de84 <__muldf3+0x58c>
    de74:	00c706b3          	add	x13,x14,x12
    de78:	00e6b733          	sltu	x14,x13,x14
    de7c:	00e787b3          	add	x15,x15,x14
    de80:	00068713          	addi	x14,x13,0 # 10000 <__subtf3+0xd8>
    de84:	00879693          	slli	x13,x15,0x8
    de88:	1206d063          	bge	x13,x0,dfa8 <__muldf3+0x6b0>
    de8c:	00100793          	addi	x15,x0,1
    de90:	00000693          	addi	x13,x0,0
    de94:	00000713          	addi	x14,x0,0
    de98:	c15ff06f          	jal	x0,daac <__muldf3+0x1b4>
    de9c:	00f00713          	addi	x14,x0,15
    dea0:	12ec9263          	bne	x25,x14,dfc4 <__muldf3+0x6cc>
    dea4:	00000813          	addi	x16,x0,0
    dea8:	000806b7          	lui	x13,0x80
    deac:	00000713          	addi	x14,x0,0
    deb0:	bfdff06f          	jal	x0,daac <__muldf3+0x1b4>
    deb4:	505030ef          	jal	x1,11bb8 <__clzsi2>
    deb8:	01550693          	addi	x13,x10,21
    debc:	01c00793          	addi	x15,x0,28
    dec0:	02050713          	addi	x14,x10,32
    dec4:	ecd7d4e3          	bge	x15,x13,dd8c <__muldf3+0x494>
    dec8:	ff850513          	addi	x10,x10,-8
    decc:	00a49a33          	sll	x20,x9,x10
    ded0:	00000b93          	addi	x23,x0,0
    ded4:	ed5ff06f          	jal	x0,dda8 <__muldf3+0x4b0>
    ded8:	000b0513          	addi	x10,x22,0
    dedc:	e2dff06f          	jal	x0,dd08 <__muldf3+0x410>
    dee0:	000c0513          	addi	x10,x24,0
    dee4:	4d5030ef          	jal	x1,11bb8 <__clzsi2>
    dee8:	01550713          	addi	x14,x10,21
    deec:	01c00693          	addi	x13,x0,28
    def0:	00050793          	addi	x15,x10,0
    def4:	02050513          	addi	x10,x10,32
    def8:	b4e6dae3          	bge	x13,x14,da4c <__muldf3+0x154>
    defc:	ff878793          	addi	x15,x15,-8
    df00:	00fc14b3          	sll	x9,x24,x15
    df04:	00000613          	addi	x12,x0,0
    df08:	b61ff06f          	jal	x0,da68 <__muldf3+0x170>
    df0c:	00000813          	addi	x16,x0,0
    df10:	7ff00793          	addi	x15,x0,2047
    df14:	000806b7          	lui	x13,0x80
    df18:	00000713          	addi	x14,x0,0
    df1c:	b91ff06f          	jal	x0,daac <__muldf3+0x1b4>
    df20:	00000813          	addi	x16,x0,0
    df24:	7ff00793          	addi	x15,x0,2047
    df28:	000806b7          	lui	x13,0x80
    df2c:	b81ff06f          	jal	x0,daac <__muldf3+0x1b4>
    df30:	7ff00793          	addi	x15,x0,2047
    df34:	00000693          	addi	x13,x0,0
    df38:	00000713          	addi	x14,x0,0
    df3c:	b71ff06f          	jal	x0,daac <__muldf3+0x1b4>
    df40:	40f686b3          	sub	x13,x13,x15
    df44:	03800713          	addi	x14,x0,56
    df48:	b4d74ce3          	blt	x14,x13,daa0 <__muldf3+0x1a8>
    df4c:	01f00713          	addi	x14,x0,31
    df50:	eed758e3          	bge	x14,x13,de40 <__muldf3+0x548>
    df54:	fe100713          	addi	x14,x0,-31
    df58:	40f707b3          	sub	x15,x14,x15
    df5c:	02000713          	addi	x14,x0,32
    df60:	00fa57b3          	srl	x15,x20,x15
    df64:	00e68863          	beq	x13,x14,df74 <__muldf3+0x67c>
    df68:	43e50513          	addi	x10,x10,1086
    df6c:	00aa1533          	sll	x10,x20,x10
    df70:	00abebb3          	or	x23,x23,x10
    df74:	01703733          	sltu	x14,x0,x23
    df78:	00f76733          	or	x14,x14,x15
    df7c:	00777793          	andi	x15,x14,7
    df80:	00000693          	addi	x13,x0,0
    df84:	02078863          	beq	x15,x0,dfb4 <__muldf3+0x6bc>
    df88:	00f77693          	andi	x13,x14,15
    df8c:	00400613          	addi	x12,x0,4
    df90:	00000793          	addi	x15,x0,0
    df94:	00c68a63          	beq	x13,x12,dfa8 <__muldf3+0x6b0>
    df98:	00c706b3          	add	x13,x14,x12
    df9c:	00e6b733          	sltu	x14,x13,x14
    dfa0:	00e037b3          	sltu	x15,x0,x14
    dfa4:	00068713          	addi	x14,x13,0 # 80000 <__heap_start+0x6ccc0>
    dfa8:	00979693          	slli	x13,x15,0x9
    dfac:	00c6d693          	srli	x13,x13,0xc
    dfb0:	01d79793          	slli	x15,x15,0x1d
    dfb4:	00375713          	srli	x14,x14,0x3
    dfb8:	00f76733          	or	x14,x14,x15
    dfbc:	00000793          	addi	x15,x0,0
    dfc0:	aedff06f          	jal	x0,daac <__muldf3+0x1b4>
    dfc4:	00048a13          	addi	x20,x9,0
    dfc8:	000c0b93          	addi	x23,x24,0
    dfcc:	00300d13          	addi	x26,x0,3
    dfd0:	00040593          	addi	x11,x8,0
    dfd4:	ab1ff06f          	jal	x0,da84 <__muldf3+0x18c>

0000dfd8 <__subdf3>:
    dfd8:	001007b7          	lui	x15,0x100
    dfdc:	fff78793          	addi	x15,x15,-1 # fffff <__heap_start+0xeccbf>
    dfe0:	fe010113          	addi	x2,x2,-32
    dfe4:	00b7f333          	and	x6,x15,x11
    dfe8:	0146d893          	srli	x17,x13,0x14
    dfec:	00d7f7b3          	and	x15,x15,x13
    dff0:	00060e93          	addi	x29,x12,0
    dff4:	00331313          	slli	x6,x6,0x3
    dff8:	00379813          	slli	x16,x15,0x3
    dffc:	01312623          	sw	x19,12(x2)
    e000:	01512223          	sw	x21,4(x2)
    e004:	01f5d993          	srli	x19,x11,0x1f
    e008:	0145da93          	srli	x21,x11,0x14
    e00c:	01d55713          	srli	x14,x10,0x1d
    e010:	01d65613          	srli	x12,x12,0x1d
    e014:	7ff00e13          	addi	x28,x0,2047
    e018:	00112e23          	sw	x1,28(x2)
    e01c:	00812c23          	sw	x8,24(x2)
    e020:	00912a23          	sw	x9,20(x2)
    e024:	01212823          	sw	x18,16(x2)
    e028:	01412423          	sw	x20,8(x2)
    e02c:	7ff8f893          	andi	x17,x17,2047
    e030:	00676733          	or	x14,x14,x6
    e034:	01f6d693          	srli	x13,x13,0x1f
    e038:	01066333          	or	x6,x12,x16
    e03c:	01cafab3          	and	x21,x21,x28
    e040:	00098813          	addi	x16,x19,0
    e044:	00351f13          	slli	x30,x10,0x3
    e048:	003e9593          	slli	x11,x29,0x3
    e04c:	23c88063          	beq	x17,x28,e26c <__subdf3+0x294>
    e050:	0016c693          	xori	x13,x13,1
    e054:	411a87b3          	sub	x15,x21,x17
    e058:	16d98663          	beq	x19,x13,e1c4 <__subdf3+0x1ec>
    e05c:	62f05463          	bge	x0,x15,e684 <__subdf3+0x6ac>
    e060:	24088e63          	beq	x17,x0,e2bc <__subdf3+0x2e4>
    e064:	3dca8863          	beq	x21,x28,e434 <__subdf3+0x45c>
    e068:	03800693          	addi	x13,x0,56
    e06c:	00100513          	addi	x10,x0,1
    e070:	02f6ce63          	blt	x13,x15,e0ac <__subdf3+0xd4>
    e074:	008006b7          	lui	x13,0x800
    e078:	00d36333          	or	x6,x6,x13
    e07c:	01f00693          	addi	x13,x0,31
    e080:	4ef6ca63          	blt	x13,x15,e574 <__subdf3+0x59c>
    e084:	02000693          	addi	x13,x0,32
    e088:	40f686b3          	sub	x13,x13,x15
    e08c:	00d31533          	sll	x10,x6,x13
    e090:	00d596b3          	sll	x13,x11,x13
    e094:	00f5d5b3          	srl	x11,x11,x15
    e098:	00d036b3          	sltu	x13,x0,x13
    e09c:	00b56533          	or	x10,x10,x11
    e0a0:	00f357b3          	srl	x15,x6,x15
    e0a4:	00d56533          	or	x10,x10,x13
    e0a8:	40f70733          	sub	x14,x14,x15
    e0ac:	40af0533          	sub	x10,x30,x10
    e0b0:	00af3633          	sltu	x12,x30,x10
    e0b4:	40c70933          	sub	x18,x14,x12
    e0b8:	00050a13          	addi	x20,x10,0
    e0bc:	00891713          	slli	x14,x18,0x8
    e0c0:	008007b7          	lui	x15,0x800
    e0c4:	34075263          	bge	x14,x0,e408 <__subdf3+0x430>
    e0c8:	fff78793          	addi	x15,x15,-1 # 7fffff <__heap_end+0x3fffff>
    e0cc:	00f97933          	and	x18,x18,x15
    e0d0:	2e090263          	beq	x18,x0,e3b4 <__subdf3+0x3dc>
    e0d4:	00090513          	addi	x10,x18,0
    e0d8:	2e1030ef          	jal	x1,11bb8 <__clzsi2>
    e0dc:	ff850793          	addi	x15,x10,-8
    e0e0:	02000693          	addi	x13,x0,32
    e0e4:	40f68733          	sub	x14,x13,x15
    e0e8:	00ea5733          	srl	x14,x20,x14
    e0ec:	00f91933          	sll	x18,x18,x15
    e0f0:	01276733          	or	x14,x14,x18
    e0f4:	00fa1a33          	sll	x20,x20,x15
    e0f8:	3f57c863          	blt	x15,x21,e4e8 <__subdf3+0x510>
    e0fc:	415787b3          	sub	x15,x15,x21
    e100:	00178793          	addi	x15,x15,1
    e104:	40f686b3          	sub	x13,x13,x15
    e108:	00da1633          	sll	x12,x20,x13
    e10c:	00c03633          	sltu	x12,x0,x12
    e110:	00fa5933          	srl	x18,x20,x15
    e114:	00c96633          	or	x12,x18,x12
    e118:	00d716b3          	sll	x13,x14,x13
    e11c:	00c6ea33          	or	x20,x13,x12
    e120:	00f75933          	srl	x18,x14,x15
    e124:	00000a93          	addi	x21,x0,0
    e128:	007a7793          	andi	x15,x20,7
    e12c:	02078063          	beq	x15,x0,e14c <__subdf3+0x174>
    e130:	00fa7793          	andi	x15,x20,15
    e134:	00400713          	addi	x14,x0,4
    e138:	00e78a63          	beq	x15,x14,e14c <__subdf3+0x174>
    e13c:	00ea07b3          	add	x15,x20,x14
    e140:	0147b533          	sltu	x10,x15,x20
    e144:	00a90933          	add	x18,x18,x10
    e148:	00078a13          	addi	x20,x15,0
    e14c:	00891793          	slli	x15,x18,0x8
    e150:	6c07d463          	bge	x15,x0,e818 <__subdf3+0x840>
    e154:	001a8793          	addi	x15,x21,1
    e158:	7ff00713          	addi	x14,x0,2047
    e15c:	2ce78263          	beq	x15,x14,e420 <__subdf3+0x448>
    e160:	ff800737          	lui	x14,0xff800
    e164:	fff70713          	addi	x14,x14,-1 # ff7fffff <__heap_end+0xff3fffff>
    e168:	7ff7f793          	andi	x15,x15,2047
    e16c:	00e97733          	and	x14,x18,x14
    e170:	01d71613          	slli	x12,x14,0x1d
    e174:	003a5513          	srli	x10,x20,0x3
    e178:	00971713          	slli	x14,x14,0x9
    e17c:	0019f813          	andi	x16,x19,1
    e180:	00a66633          	or	x12,x12,x10
    e184:	00c75713          	srli	x14,x14,0xc
    e188:	01c12083          	lw	x1,28(x2)
    e18c:	01812403          	lw	x8,24(x2)
    e190:	01479793          	slli	x15,x15,0x14
    e194:	00e7e7b3          	or	x15,x15,x14
    e198:	01f81813          	slli	x16,x16,0x1f
    e19c:	0107e7b3          	or	x15,x15,x16
    e1a0:	01412483          	lw	x9,20(x2)
    e1a4:	01012903          	lw	x18,16(x2)
    e1a8:	00c12983          	lw	x19,12(x2)
    e1ac:	00812a03          	lw	x20,8(x2)
    e1b0:	00412a83          	lw	x21,4(x2)
    e1b4:	00060513          	addi	x10,x12,0
    e1b8:	00078593          	addi	x11,x15,0
    e1bc:	02010113          	addi	x2,x2,32
    e1c0:	00008067          	jalr	x0,0(x1)
    e1c4:	52f05c63          	bge	x0,x15,e6fc <__subdf3+0x724>
    e1c8:	1c089863          	bne	x17,x0,e398 <__subdf3+0x3c0>
    e1cc:	00b366b3          	or	x13,x6,x11
    e1d0:	26068e63          	beq	x13,x0,e44c <__subdf3+0x474>
    e1d4:	fff78693          	addi	x13,x15,-1
    e1d8:	48068463          	beq	x13,x0,e660 <__subdf3+0x688>
    e1dc:	25c78c63          	beq	x15,x28,e434 <__subdf3+0x45c>
    e1e0:	03800793          	addi	x15,x0,56
    e1e4:	00100913          	addi	x18,x0,1
    e1e8:	02d7cc63          	blt	x15,x13,e220 <__subdf3+0x248>
    e1ec:	00068793          	addi	x15,x13,0 # 800000 <__heap_end+0x400000>
    e1f0:	01f00693          	addi	x13,x0,31
    e1f4:	4cf6c863          	blt	x13,x15,e6c4 <__subdf3+0x6ec>
    e1f8:	02000693          	addi	x13,x0,32
    e1fc:	40f686b3          	sub	x13,x13,x15
    e200:	00d31933          	sll	x18,x6,x13
    e204:	00d596b3          	sll	x13,x11,x13
    e208:	00f5d5b3          	srl	x11,x11,x15
    e20c:	00d036b3          	sltu	x13,x0,x13
    e210:	00b96933          	or	x18,x18,x11
    e214:	00f357b3          	srl	x15,x6,x15
    e218:	00d96933          	or	x18,x18,x13
    e21c:	00f70733          	add	x14,x14,x15
    e220:	01e90633          	add	x12,x18,x30
    e224:	01263933          	sltu	x18,x12,x18
    e228:	00e90933          	add	x18,x18,x14
    e22c:	00060a13          	addi	x20,x12,0
    e230:	00891793          	slli	x15,x18,0x8
    e234:	1c07da63          	bge	x15,x0,e408 <__subdf3+0x430>
    e238:	001a8a93          	addi	x21,x21,1
    e23c:	7ff00793          	addi	x15,x0,2047
    e240:	36fa8a63          	beq	x21,x15,e5b4 <__subdf3+0x5dc>
    e244:	ff8007b7          	lui	x15,0xff800
    e248:	fff78793          	addi	x15,x15,-1 # ff7fffff <__heap_end+0xff3fffff>
    e24c:	00f977b3          	and	x15,x18,x15
    e250:	001a5713          	srli	x14,x20,0x1
    e254:	001a7513          	andi	x10,x20,1
    e258:	01f79693          	slli	x13,x15,0x1f
    e25c:	00a76733          	or	x14,x14,x10
    e260:	0017d913          	srli	x18,x15,0x1
    e264:	00e6ea33          	or	x20,x13,x14
    e268:	ec1ff06f          	jal	x0,e128 <__subdf3+0x150>
    e26c:	00b367b3          	or	x15,x6,x11
    e270:	801a8613          	addi	x12,x21,-2047
    e274:	06078863          	beq	x15,x0,e2e4 <__subdf3+0x30c>
    e278:	06d98a63          	beq	x19,x13,e2ec <__subdf3+0x314>
    e27c:	0e060663          	beq	x12,x0,e368 <__subdf3+0x390>
    e280:	260a8e63          	beq	x21,x0,e4fc <__subdf3+0x524>
    e284:	003e9513          	slli	x10,x29,0x3
    e288:	00355513          	srli	x10,x10,0x3
    e28c:	00068993          	addi	x19,x13,0
    e290:	00030713          	addi	x14,x6,0 # 10000 <__subtf3+0xd8>
    e294:	01d71613          	slli	x12,x14,0x1d
    e298:	00a66633          	or	x12,x12,x10
    e29c:	00375713          	srli	x14,x14,0x3
    e2a0:	00c76733          	or	x14,x14,x12
    e2a4:	30070863          	beq	x14,x0,e5b4 <__subdf3+0x5dc>
    e2a8:	00000813          	addi	x16,x0,0
    e2ac:	7ff00793          	addi	x15,x0,2047
    e2b0:	00080737          	lui	x14,0x80
    e2b4:	00000613          	addi	x12,x0,0
    e2b8:	ed1ff06f          	jal	x0,e188 <__subdf3+0x1b0>
    e2bc:	00b366b3          	or	x13,x6,x11
    e2c0:	18068663          	beq	x13,x0,e44c <__subdf3+0x474>
    e2c4:	fff78693          	addi	x13,x15,-1
    e2c8:	3e068063          	beq	x13,x0,e6a8 <__subdf3+0x6d0>
    e2cc:	17c78463          	beq	x15,x28,e434 <__subdf3+0x45c>
    e2d0:	03800793          	addi	x15,x0,56
    e2d4:	00100513          	addi	x10,x0,1
    e2d8:	dcd7cae3          	blt	x15,x13,e0ac <__subdf3+0xd4>
    e2dc:	00068793          	addi	x15,x13,0
    e2e0:	d9dff06f          	jal	x0,e07c <__subdf3+0xa4>
    e2e4:	0016c693          	xori	x13,x13,1
    e2e8:	f8d99ae3          	bne	x19,x13,e27c <__subdf3+0x2a4>
    e2ec:	18060863          	beq	x12,x0,e47c <__subdf3+0x4a4>
    e2f0:	2c0a9c63          	bne	x21,x0,e5c8 <__subdf3+0x5f0>
    e2f4:	00088793          	addi	x15,x17,0
    e2f8:	01e766b3          	or	x13,x14,x30
    e2fc:	4e068e63          	beq	x13,x0,e7f8 <__subdf3+0x820>
    e300:	fff78693          	addi	x13,x15,-1
    e304:	34068e63          	beq	x13,x0,e660 <__subdf3+0x688>
    e308:	7ff00613          	addi	x12,x0,2047
    e30c:	2ac78e63          	beq	x15,x12,e5c8 <__subdf3+0x5f0>
    e310:	03800793          	addi	x15,x0,56
    e314:	00100913          	addi	x18,x0,1
    e318:	02d7cc63          	blt	x15,x13,e350 <__subdf3+0x378>
    e31c:	00068793          	addi	x15,x13,0
    e320:	01f00693          	addi	x13,x0,31
    e324:	54f6c263          	blt	x13,x15,e868 <__subdf3+0x890>
    e328:	02000693          	addi	x13,x0,32
    e32c:	40f686b3          	sub	x13,x13,x15
    e330:	00d71933          	sll	x18,x14,x13
    e334:	00ff5633          	srl	x12,x30,x15
    e338:	00df16b3          	sll	x13,x30,x13
    e33c:	00d036b3          	sltu	x13,x0,x13
    e340:	00c96933          	or	x18,x18,x12
    e344:	00f757b3          	srl	x15,x14,x15
    e348:	00d96933          	or	x18,x18,x13
    e34c:	00f30333          	add	x6,x6,x15
    e350:	00b905b3          	add	x11,x18,x11
    e354:	0125b933          	sltu	x18,x11,x18
    e358:	00690933          	add	x18,x18,x6
    e35c:	00058a13          	addi	x20,x11,0
    e360:	00088a93          	addi	x21,x17,0
    e364:	ecdff06f          	jal	x0,e230 <__subdf3+0x258>
    e368:	001a8793          	addi	x15,x21,1
    e36c:	7fe7f793          	andi	x15,x15,2046
    e370:	14079263          	bne	x15,x0,e4b4 <__subdf3+0x4dc>
    e374:	00b36633          	or	x12,x6,x11
    e378:	01e767b3          	or	x15,x14,x30
    e37c:	2a0a9e63          	bne	x21,x0,e638 <__subdf3+0x660>
    e380:	40078263          	beq	x15,x0,e784 <__subdf3+0x7ac>
    e384:	42061463          	bne	x12,x0,e7ac <__subdf3+0x7d4>
    e388:	00351913          	slli	x18,x10,0x3
    e38c:	00395913          	srli	x18,x18,0x3
    e390:	00000793          	addi	x15,x0,0
    e394:	1100006f          	jal	x0,e4a4 <__subdf3+0x4cc>
    e398:	09ca8e63          	beq	x21,x28,e434 <__subdf3+0x45c>
    e39c:	03800693          	addi	x13,x0,56
    e3a0:	00100913          	addi	x18,x0,1
    e3a4:	e6f6cee3          	blt	x13,x15,e220 <__subdf3+0x248>
    e3a8:	008006b7          	lui	x13,0x800
    e3ac:	00d36333          	or	x6,x6,x13
    e3b0:	e41ff06f          	jal	x0,e1f0 <__subdf3+0x218>
    e3b4:	000a0513          	addi	x10,x20,0
    e3b8:	001030ef          	jal	x1,11bb8 <__clzsi2>
    e3bc:	01850793          	addi	x15,x10,24
    e3c0:	01f00693          	addi	x13,x0,31
    e3c4:	d0f6dee3          	bge	x13,x15,e0e0 <__subdf3+0x108>
    e3c8:	ff850713          	addi	x14,x10,-8
    e3cc:	00ea1733          	sll	x14,x20,x14
    e3d0:	1d57c863          	blt	x15,x21,e5a0 <__subdf3+0x5c8>
    e3d4:	41578ab3          	sub	x21,x15,x21
    e3d8:	001a8793          	addi	x15,x21,1
    e3dc:	4af6dc63          	bge	x13,x15,e894 <__subdf3+0x8bc>
    e3e0:	fe1a8a93          	addi	x21,x21,-31
    e3e4:	02000693          	addi	x13,x0,32
    e3e8:	01575a33          	srl	x20,x14,x21
    e3ec:	00d78c63          	beq	x15,x13,e404 <__subdf3+0x42c>
    e3f0:	04000693          	addi	x13,x0,64
    e3f4:	40f687b3          	sub	x15,x13,x15
    e3f8:	00f717b3          	sll	x15,x14,x15
    e3fc:	00f037b3          	sltu	x15,x0,x15
    e400:	00fa6a33          	or	x20,x20,x15
    e404:	00000a93          	addi	x21,x0,0
    e408:	007a7793          	andi	x15,x20,7
    e40c:	d20792e3          	bne	x15,x0,e130 <__subdf3+0x158>
    e410:	000a8793          	addi	x15,x21,0
    e414:	003a5513          	srli	x10,x20,0x3
    e418:	00090713          	addi	x14,x18,0
    e41c:	0380006f          	jal	x0,e454 <__subdf3+0x47c>
    e420:	0019f813          	andi	x16,x19,1
    e424:	00000713          	addi	x14,x0,0
    e428:	00000613          	addi	x12,x0,0
    e42c:	d5dff06f          	jal	x0,e188 <__subdf3+0x1b0>
    e430:	e6061ce3          	bne	x12,x0,e2a8 <__subdf3+0x2d0>
    e434:	00351513          	slli	x10,x10,0x3
    e438:	01d71613          	slli	x12,x14,0x1d
    e43c:	00355513          	srli	x10,x10,0x3
    e440:	00a66633          	or	x12,x12,x10
    e444:	00375713          	srli	x14,x14,0x3
    e448:	e59ff06f          	jal	x0,e2a0 <__subdf3+0x2c8>
    e44c:	00351513          	slli	x10,x10,0x3
    e450:	00355513          	srli	x10,x10,0x3
    e454:	01d71613          	slli	x12,x14,0x1d
    e458:	7ff00693          	addi	x13,x0,2047
    e45c:	00a66633          	or	x12,x12,x10
    e460:	00375713          	srli	x14,x14,0x3
    e464:	e2d78ee3          	beq	x15,x13,e2a0 <__subdf3+0x2c8>
    e468:	00c71713          	slli	x14,x14,0xc
    e46c:	00c75713          	srli	x14,x14,0xc
    e470:	7ff7f793          	andi	x15,x15,2047
    e474:	0019f813          	andi	x16,x19,1
    e478:	d11ff06f          	jal	x0,e188 <__subdf3+0x1b0>
    e47c:	001a8793          	addi	x15,x21,1
    e480:	7fe7f693          	andi	x13,x15,2046
    e484:	14069a63          	bne	x13,x0,e5d8 <__subdf3+0x600>
    e488:	01e767b3          	or	x15,x14,x30
    e48c:	2c0a9063          	bne	x21,x0,e74c <__subdf3+0x774>
    e490:	36078c63          	beq	x15,x0,e808 <__subdf3+0x830>
    e494:	00b367b3          	or	x15,x6,x11
    e498:	38079863          	bne	x15,x0,e828 <__subdf3+0x850>
    e49c:	00351913          	slli	x18,x10,0x3
    e4a0:	00395913          	srli	x18,x18,0x3
    e4a4:	01d71613          	slli	x12,x14,0x1d
    e4a8:	01266633          	or	x12,x12,x18
    e4ac:	00375713          	srli	x14,x14,0x3
    e4b0:	fb9ff06f          	jal	x0,e468 <__subdf3+0x490>
    e4b4:	40bf0633          	sub	x12,x30,x11
    e4b8:	00cf37b3          	sltu	x15,x30,x12
    e4bc:	40670933          	sub	x18,x14,x6
    e4c0:	40f90933          	sub	x18,x18,x15
    e4c4:	00891793          	slli	x15,x18,0x8
    e4c8:	00060a13          	addi	x20,x12,0
    e4cc:	1207ce63          	blt	x15,x0,e608 <__subdf3+0x630>
    e4d0:	01266633          	or	x12,x12,x18
    e4d4:	be061ee3          	bne	x12,x0,e0d0 <__subdf3+0xf8>
    e4d8:	00000813          	addi	x16,x0,0
    e4dc:	00000793          	addi	x15,x0,0
    e4e0:	00000713          	addi	x14,x0,0
    e4e4:	ca5ff06f          	jal	x0,e188 <__subdf3+0x1b0>
    e4e8:	ff800937          	lui	x18,0xff800
    e4ec:	fff90913          	addi	x18,x18,-1 # ff7fffff <__heap_end+0xff3fffff>
    e4f0:	40fa8ab3          	sub	x21,x21,x15
    e4f4:	01277933          	and	x18,x14,x18
    e4f8:	c31ff06f          	jal	x0,e128 <__subdf3+0x150>
    e4fc:	00088793          	addi	x15,x17,0
    e500:	01e76633          	or	x12,x14,x30
    e504:	12060063          	beq	x12,x0,e624 <__subdf3+0x64c>
    e508:	fff78613          	addi	x12,x15,-1
    e50c:	24060863          	beq	x12,x0,e75c <__subdf3+0x784>
    e510:	7ff00513          	addi	x10,x0,2047
    e514:	d6a788e3          	beq	x15,x10,e284 <__subdf3+0x2ac>
    e518:	03800793          	addi	x15,x0,56
    e51c:	00068993          	addi	x19,x13,0 # 800000 <__heap_end+0x400000>
    e520:	00100513          	addi	x10,x0,1
    e524:	02c7cc63          	blt	x15,x12,e55c <__subdf3+0x584>
    e528:	00060793          	addi	x15,x12,0
    e52c:	01f00693          	addi	x13,x0,31
    e530:	1ef6c863          	blt	x13,x15,e720 <__subdf3+0x748>
    e534:	02000693          	addi	x13,x0,32
    e538:	40f686b3          	sub	x13,x13,x15
    e53c:	00d71533          	sll	x10,x14,x13
    e540:	00ff5633          	srl	x12,x30,x15
    e544:	00df16b3          	sll	x13,x30,x13
    e548:	00d036b3          	sltu	x13,x0,x13
    e54c:	00c56533          	or	x10,x10,x12
    e550:	00f757b3          	srl	x15,x14,x15
    e554:	00d56533          	or	x10,x10,x13
    e558:	40f30333          	sub	x6,x6,x15
    e55c:	40a58533          	sub	x10,x11,x10
    e560:	00a5b5b3          	sltu	x11,x11,x10
    e564:	40b30933          	sub	x18,x6,x11
    e568:	00050a13          	addi	x20,x10,0
    e56c:	00088a93          	addi	x21,x17,0
    e570:	b4dff06f          	jal	x0,e0bc <__subdf3+0xe4>
    e574:	fe078693          	addi	x13,x15,-32
    e578:	02000613          	addi	x12,x0,32
    e57c:	00d356b3          	srl	x13,x6,x13
    e580:	00c78a63          	beq	x15,x12,e594 <__subdf3+0x5bc>
    e584:	04000613          	addi	x12,x0,64
    e588:	40f607b3          	sub	x15,x12,x15
    e58c:	00f317b3          	sll	x15,x6,x15
    e590:	00f5e5b3          	or	x11,x11,x15
    e594:	00b03533          	sltu	x10,x0,x11
    e598:	00d56533          	or	x10,x10,x13
    e59c:	b11ff06f          	jal	x0,e0ac <__subdf3+0xd4>
    e5a0:	ff8006b7          	lui	x13,0xff800
    e5a4:	fff68693          	addi	x13,x13,-1 # ff7fffff <__heap_end+0xff3fffff>
    e5a8:	40fa87b3          	sub	x15,x21,x15
    e5ac:	00d77733          	and	x14,x14,x13
    e5b0:	ef5ff06f          	jal	x0,e4a4 <__subdf3+0x4cc>
    e5b4:	0019f813          	andi	x16,x19,1
    e5b8:	7ff00793          	addi	x15,x0,2047
    e5bc:	00000713          	addi	x14,x0,0
    e5c0:	00000613          	addi	x12,x0,0
    e5c4:	bc5ff06f          	jal	x0,e188 <__subdf3+0x1b0>
    e5c8:	003e9513          	slli	x10,x29,0x3
    e5cc:	00355513          	srli	x10,x10,0x3
    e5d0:	00030713          	addi	x14,x6,0
    e5d4:	cc1ff06f          	jal	x0,e294 <__subdf3+0x2bc>
    e5d8:	7ff00693          	addi	x13,x0,2047
    e5dc:	fcd78ce3          	beq	x15,x13,e5b4 <__subdf3+0x5dc>
    e5e0:	00bf05b3          	add	x11,x30,x11
    e5e4:	01e5b633          	sltu	x12,x11,x30
    e5e8:	00670933          	add	x18,x14,x6
    e5ec:	00c90933          	add	x18,x18,x12
    e5f0:	01f91513          	slli	x10,x18,0x1f
    e5f4:	0015d593          	srli	x11,x11,0x1
    e5f8:	00078a93          	addi	x21,x15,0
    e5fc:	00b56a33          	or	x20,x10,x11
    e600:	00195913          	srli	x18,x18,0x1
    e604:	b25ff06f          	jal	x0,e128 <__subdf3+0x150>
    e608:	41e58633          	sub	x12,x11,x30
    e60c:	00c5b5b3          	sltu	x11,x11,x12
    e610:	40e307b3          	sub	x15,x6,x14
    e614:	00060a13          	addi	x20,x12,0
    e618:	40b78933          	sub	x18,x15,x11
    e61c:	00068993          	addi	x19,x13,0
    e620:	ab1ff06f          	jal	x0,e0d0 <__subdf3+0xf8>
    e624:	003e9613          	slli	x12,x29,0x3
    e628:	00365513          	srli	x10,x12,0x3
    e62c:	00068993          	addi	x19,x13,0
    e630:	00030713          	addi	x14,x6,0
    e634:	e21ff06f          	jal	x0,e454 <__subdf3+0x47c>
    e638:	de079ce3          	bne	x15,x0,e430 <__subdf3+0x458>
    e63c:	28060063          	beq	x12,x0,e8bc <__subdf3+0x8e4>
    e640:	003e9613          	slli	x12,x29,0x3
    e644:	00335713          	srli	x14,x6,0x3
    e648:	01d31793          	slli	x15,x6,0x1d
    e64c:	00365613          	srli	x12,x12,0x3
    e650:	00f76733          	or	x14,x14,x15
    e654:	00068993          	addi	x19,x13,0
    e658:	00c76733          	or	x14,x14,x12
    e65c:	c49ff06f          	jal	x0,e2a4 <__subdf3+0x2cc>
    e660:	00bf05b3          	add	x11,x30,x11
    e664:	01e5b633          	sltu	x12,x11,x30
    e668:	00670933          	add	x18,x14,x6
    e66c:	00c90933          	add	x18,x18,x12
    e670:	00891793          	slli	x15,x18,0x8
    e674:	00058a13          	addi	x20,x11,0
    e678:	1007d263          	bge	x15,x0,e77c <__subdf3+0x7a4>
    e67c:	00200a93          	addi	x21,x0,2
    e680:	bc5ff06f          	jal	x0,e244 <__subdf3+0x26c>
    e684:	ce0782e3          	beq	x15,x0,e368 <__subdf3+0x390>
    e688:	415887b3          	sub	x15,x17,x21
    e68c:	e60a8ae3          	beq	x21,x0,e500 <__subdf3+0x528>
    e690:	03800613          	addi	x12,x0,56
    e694:	04f64e63          	blt	x12,x15,e6f0 <__subdf3+0x718>
    e698:	00800637          	lui	x12,0x800
    e69c:	00068993          	addi	x19,x13,0
    e6a0:	00c76733          	or	x14,x14,x12
    e6a4:	e89ff06f          	jal	x0,e52c <__subdf3+0x554>
    e6a8:	40bf05b3          	sub	x11,x30,x11
    e6ac:	00bf3633          	sltu	x12,x30,x11
    e6b0:	40670933          	sub	x18,x14,x6
    e6b4:	00058a13          	addi	x20,x11,0
    e6b8:	40c90933          	sub	x18,x18,x12
    e6bc:	00100a93          	addi	x21,x0,1
    e6c0:	9fdff06f          	jal	x0,e0bc <__subdf3+0xe4>
    e6c4:	fe078693          	addi	x13,x15,-32
    e6c8:	02000613          	addi	x12,x0,32
    e6cc:	00d356b3          	srl	x13,x6,x13
    e6d0:	00c78a63          	beq	x15,x12,e6e4 <__subdf3+0x70c>
    e6d4:	04000613          	addi	x12,x0,64
    e6d8:	40f607b3          	sub	x15,x12,x15
    e6dc:	00f317b3          	sll	x15,x6,x15
    e6e0:	00f5e5b3          	or	x11,x11,x15
    e6e4:	00b03933          	sltu	x18,x0,x11
    e6e8:	00d96933          	or	x18,x18,x13
    e6ec:	b35ff06f          	jal	x0,e220 <__subdf3+0x248>
    e6f0:	00068993          	addi	x19,x13,0
    e6f4:	00100513          	addi	x10,x0,1
    e6f8:	e65ff06f          	jal	x0,e55c <__subdf3+0x584>
    e6fc:	d80780e3          	beq	x15,x0,e47c <__subdf3+0x4a4>
    e700:	415887b3          	sub	x15,x17,x21
    e704:	be0a8ae3          	beq	x21,x0,e2f8 <__subdf3+0x320>
    e708:	03800693          	addi	x13,x0,56
    e70c:	00100913          	addi	x18,x0,1
    e710:	c4f6c0e3          	blt	x13,x15,e350 <__subdf3+0x378>
    e714:	008006b7          	lui	x13,0x800
    e718:	00d76733          	or	x14,x14,x13
    e71c:	c05ff06f          	jal	x0,e320 <__subdf3+0x348>
    e720:	fe078693          	addi	x13,x15,-32
    e724:	02000613          	addi	x12,x0,32
    e728:	00d756b3          	srl	x13,x14,x13
    e72c:	00c78a63          	beq	x15,x12,e740 <__subdf3+0x768>
    e730:	04000613          	addi	x12,x0,64
    e734:	40f607b3          	sub	x15,x12,x15
    e738:	00f717b3          	sll	x15,x14,x15
    e73c:	00ff6f33          	or	x30,x30,x15
    e740:	01e03533          	sltu	x10,x0,x30
    e744:	00d56533          	or	x10,x10,x13
    e748:	e15ff06f          	jal	x0,e55c <__subdf3+0x584>
    e74c:	e6078ee3          	beq	x15,x0,e5c8 <__subdf3+0x5f0>
    e750:	00b365b3          	or	x11,x6,x11
    e754:	b4059ae3          	bne	x11,x0,e2a8 <__subdf3+0x2d0>
    e758:	cddff06f          	jal	x0,e434 <__subdf3+0x45c>
    e75c:	41e58633          	sub	x12,x11,x30
    e760:	00c5b5b3          	sltu	x11,x11,x12
    e764:	40e30933          	sub	x18,x6,x14
    e768:	00060a13          	addi	x20,x12,0 # 800000 <__heap_end+0x400000>
    e76c:	40b90933          	sub	x18,x18,x11
    e770:	00068993          	addi	x19,x13,0 # 800000 <__heap_end+0x400000>
    e774:	00100a93          	addi	x21,x0,1
    e778:	945ff06f          	jal	x0,e0bc <__subdf3+0xe4>
    e77c:	00100793          	addi	x15,x0,1
    e780:	c95ff06f          	jal	x0,e414 <__subdf3+0x43c>
    e784:	d4060ae3          	beq	x12,x0,e4d8 <__subdf3+0x500>
    e788:	003e9793          	slli	x15,x29,0x3
    e78c:	0037d793          	srli	x15,x15,0x3
    e790:	01d31613          	slli	x12,x6,0x1d
    e794:	00931713          	slli	x14,x6,0x9
    e798:	00c7e633          	or	x12,x15,x12
    e79c:	00068813          	addi	x16,x13,0
    e7a0:	00c75713          	srli	x14,x14,0xc
    e7a4:	00000793          	addi	x15,x0,0
    e7a8:	9e1ff06f          	jal	x0,e188 <__subdf3+0x1b0>
    e7ac:	40bf0933          	sub	x18,x30,x11
    e7b0:	012f3633          	sltu	x12,x30,x18
    e7b4:	406707b3          	sub	x15,x14,x6
    e7b8:	40c787b3          	sub	x15,x15,x12
    e7bc:	00879613          	slli	x12,x15,0x8
    e7c0:	0e065263          	bge	x12,x0,e8a4 <__subdf3+0x8cc>
    e7c4:	41e58633          	sub	x12,x11,x30
    e7c8:	00c5b5b3          	sltu	x11,x11,x12
    e7cc:	40e30733          	sub	x14,x6,x14
    e7d0:	40b70733          	sub	x14,x14,x11
    e7d4:	00871793          	slli	x15,x14,0x8
    e7d8:	00060a13          	addi	x20,x12,0
    e7dc:	1007d463          	bge	x15,x0,e8e4 <__subdf3+0x90c>
    e7e0:	ff8007b7          	lui	x15,0xff800
    e7e4:	fff78793          	addi	x15,x15,-1 # ff7fffff <__heap_end+0xff3fffff>
    e7e8:	00f77733          	and	x14,x14,x15
    e7ec:	00068993          	addi	x19,x13,0
    e7f0:	00100793          	addi	x15,x0,1
    e7f4:	97dff06f          	jal	x0,e170 <__subdf3+0x198>
    e7f8:	003e9613          	slli	x12,x29,0x3
    e7fc:	00365513          	srli	x10,x12,0x3
    e800:	00030713          	addi	x14,x6,0
    e804:	c51ff06f          	jal	x0,e454 <__subdf3+0x47c>
    e808:	003e9613          	slli	x12,x29,0x3
    e80c:	00365913          	srli	x18,x12,0x3
    e810:	00030713          	addi	x14,x6,0
    e814:	c91ff06f          	jal	x0,e4a4 <__subdf3+0x4cc>
    e818:	003a5513          	srli	x10,x20,0x3
    e81c:	000a8793          	addi	x15,x21,0
    e820:	00090713          	addi	x14,x18,0
    e824:	c31ff06f          	jal	x0,e454 <__subdf3+0x47c>
    e828:	00bf05b3          	add	x11,x30,x11
    e82c:	01e5b633          	sltu	x12,x11,x30
    e830:	006707b3          	add	x15,x14,x6
    e834:	00c787b3          	add	x15,x15,x12
    e838:	00879713          	slli	x14,x15,0x8
    e83c:	0035d593          	srli	x11,x11,0x3
    e840:	08075663          	bge	x14,x0,e8cc <__subdf3+0x8f4>
    e844:	ff800737          	lui	x14,0xff800
    e848:	fff70713          	addi	x14,x14,-1 # ff7fffff <__heap_end+0xff3fffff>
    e84c:	00e7f7b3          	and	x15,x15,x14
    e850:	01d79613          	slli	x12,x15,0x1d
    e854:	00979793          	slli	x15,x15,0x9
    e858:	00c7d713          	srli	x14,x15,0xc
    e85c:	00b66633          	or	x12,x12,x11
    e860:	00100793          	addi	x15,x0,1
    e864:	925ff06f          	jal	x0,e188 <__subdf3+0x1b0>
    e868:	fe078693          	addi	x13,x15,-32
    e86c:	02000613          	addi	x12,x0,32
    e870:	00d756b3          	srl	x13,x14,x13
    e874:	00c78a63          	beq	x15,x12,e888 <__subdf3+0x8b0>
    e878:	04000613          	addi	x12,x0,64
    e87c:	40f607b3          	sub	x15,x12,x15
    e880:	00f717b3          	sll	x15,x14,x15
    e884:	00ff6f33          	or	x30,x30,x15
    e888:	01e03933          	sltu	x18,x0,x30
    e88c:	00d96933          	or	x18,x18,x13
    e890:	ac1ff06f          	jal	x0,e350 <__subdf3+0x378>
    e894:	02000693          	addi	x13,x0,32
    e898:	40f686b3          	sub	x13,x13,x15
    e89c:	00000613          	addi	x12,x0,0
    e8a0:	875ff06f          	jal	x0,e114 <__subdf3+0x13c>
    e8a4:	00f96633          	or	x12,x18,x15
    e8a8:	c20608e3          	beq	x12,x0,e4d8 <__subdf3+0x500>
    e8ac:	00078713          	addi	x14,x15,0
    e8b0:	00395913          	srli	x18,x18,0x3
    e8b4:	00000793          	addi	x15,x0,0
    e8b8:	bedff06f          	jal	x0,e4a4 <__subdf3+0x4cc>
    e8bc:	00000813          	addi	x16,x0,0
    e8c0:	7ff00793          	addi	x15,x0,2047
    e8c4:	00080737          	lui	x14,0x80
    e8c8:	8c1ff06f          	jal	x0,e188 <__subdf3+0x1b0>
    e8cc:	01d79613          	slli	x12,x15,0x1d
    e8d0:	00979793          	slli	x15,x15,0x9
    e8d4:	00c7d713          	srli	x14,x15,0xc
    e8d8:	00b66633          	or	x12,x12,x11
    e8dc:	00000793          	addi	x15,x0,0
    e8e0:	8a9ff06f          	jal	x0,e188 <__subdf3+0x1b0>
    e8e4:	01d71793          	slli	x15,x14,0x1d
    e8e8:	00365613          	srli	x12,x12,0x3
    e8ec:	00c7e633          	or	x12,x15,x12
    e8f0:	00068993          	addi	x19,x13,0
    e8f4:	00375713          	srli	x14,x14,0x3
    e8f8:	00000793          	addi	x15,x0,0
    e8fc:	b6dff06f          	jal	x0,e468 <__subdf3+0x490>

0000e900 <__fixdfsi>:
    e900:	0145d793          	srli	x15,x11,0x14
    e904:	001006b7          	lui	x13,0x100
    e908:	fff68713          	addi	x14,x13,-1 # fffff <__heap_start+0xeccbf>
    e90c:	7ff7f793          	andi	x15,x15,2047
    e910:	3fe00613          	addi	x12,x0,1022
    e914:	00b77733          	and	x14,x14,x11
    e918:	01f5d593          	srli	x11,x11,0x1f
    e91c:	00f65e63          	bge	x12,x15,e938 <__fixdfsi+0x38>
    e920:	41d00613          	addi	x12,x0,1053
    e924:	00f65e63          	bge	x12,x15,e940 <__fixdfsi+0x40>
    e928:	80000537          	lui	x10,0x80000
    e92c:	fff50513          	addi	x10,x10,-1 # 7fffffff <__heap_end+0x7fbfffff>
    e930:	00a58533          	add	x10,x11,x10
    e934:	00008067          	jalr	x0,0(x1)
    e938:	00000513          	addi	x10,x0,0
    e93c:	00008067          	jalr	x0,0(x1)
    e940:	43300613          	addi	x12,x0,1075
    e944:	40f60633          	sub	x12,x12,x15
    e948:	01f00813          	addi	x16,x0,31
    e94c:	00d76733          	or	x14,x14,x13
    e950:	02c85063          	bge	x16,x12,e970 <__fixdfsi+0x70>
    e954:	41300693          	addi	x13,x0,1043
    e958:	40f687b3          	sub	x15,x13,x15
    e95c:	00f75733          	srl	x14,x14,x15
    e960:	40e00533          	sub	x10,x0,x14
    e964:	fc059ce3          	bne	x11,x0,e93c <__fixdfsi+0x3c>
    e968:	00070513          	addi	x10,x14,0 # 80000 <__heap_start+0x6ccc0>
    e96c:	00008067          	jalr	x0,0(x1)
    e970:	bed78793          	addi	x15,x15,-1043
    e974:	00f71733          	sll	x14,x14,x15
    e978:	00c55533          	srl	x10,x10,x12
    e97c:	00a76733          	or	x14,x14,x10
    e980:	fe1ff06f          	jal	x0,e960 <__fixdfsi+0x60>

0000e984 <__floatsidf>:
    e984:	fe010113          	addi	x2,x2,-32
    e988:	00112e23          	sw	x1,28(x2)
    e98c:	00812c23          	sw	x8,24(x2)
    e990:	00912a23          	sw	x9,20(x2)
    e994:	01212823          	sw	x18,16(x2)
    e998:	01312623          	sw	x19,12(x2)
    e99c:	04050a63          	beq	x10,x0,e9f0 <__floatsidf+0x6c>
    e9a0:	41f55713          	srai	x14,x10,0x1f
    e9a4:	00a744b3          	xor	x9,x14,x10
    e9a8:	40e484b3          	sub	x9,x9,x14
    e9ac:	00050793          	addi	x15,x10,0
    e9b0:	00048513          	addi	x10,x9,0
    e9b4:	01f7d413          	srli	x8,x15,0x1f
    e9b8:	200030ef          	jal	x1,11bb8 <__clzsi2>
    e9bc:	41e00793          	addi	x15,x0,1054
    e9c0:	40a787b3          	sub	x15,x15,x10
    e9c4:	00a00713          	addi	x14,x0,10
    e9c8:	7ff7f793          	andi	x15,x15,2047
    e9cc:	06a74463          	blt	x14,x10,ea34 <__floatsidf+0xb0>
    e9d0:	00b00713          	addi	x14,x0,11
    e9d4:	40a70733          	sub	x14,x14,x10
    e9d8:	00e4d733          	srl	x14,x9,x14
    e9dc:	00c71713          	slli	x14,x14,0xc
    e9e0:	01550513          	addi	x10,x10,21
    e9e4:	00c75713          	srli	x14,x14,0xc
    e9e8:	00a494b3          	sll	x9,x9,x10
    e9ec:	0140006f          	jal	x0,ea00 <__floatsidf+0x7c>
    e9f0:	00000413          	addi	x8,x0,0
    e9f4:	00000793          	addi	x15,x0,0
    e9f8:	00000713          	addi	x14,x0,0
    e9fc:	00000493          	addi	x9,x0,0
    ea00:	01479793          	slli	x15,x15,0x14
    ea04:	01f41413          	slli	x8,x8,0x1f
    ea08:	00e7e7b3          	or	x15,x15,x14
    ea0c:	01c12083          	lw	x1,28(x2)
    ea10:	0087e7b3          	or	x15,x15,x8
    ea14:	01812403          	lw	x8,24(x2)
    ea18:	01012903          	lw	x18,16(x2)
    ea1c:	00c12983          	lw	x19,12(x2)
    ea20:	00048513          	addi	x10,x9,0
    ea24:	00078593          	addi	x11,x15,0
    ea28:	01412483          	lw	x9,20(x2)
    ea2c:	02010113          	addi	x2,x2,32
    ea30:	00008067          	jalr	x0,0(x1)
    ea34:	ff550513          	addi	x10,x10,-11
    ea38:	00a49733          	sll	x14,x9,x10
    ea3c:	00c71713          	slli	x14,x14,0xc
    ea40:	00c75713          	srli	x14,x14,0xc
    ea44:	00000493          	addi	x9,x0,0
    ea48:	fb9ff06f          	jal	x0,ea00 <__floatsidf+0x7c>

0000ea4c <__eqtf2>:
    ea4c:	00c52703          	lw	x14,12(x10)
    ea50:	00c5a683          	lw	x13,12(x11)
    ea54:	000087b7          	lui	x15,0x8
    ea58:	01075613          	srli	x12,x14,0x10
    ea5c:	fff78793          	addi	x15,x15,-1 # 7fff <__gdtoa+0x84b>
    ea60:	0106d813          	srli	x16,x13,0x10
    ea64:	01071f93          	slli	x31,x14,0x10
    ea68:	01069293          	slli	x5,x13,0x10
    ea6c:	00f67633          	and	x12,x12,x15
    ea70:	00052303          	lw	x6,0(x10)
    ea74:	00452883          	lw	x17,4(x10)
    ea78:	00852f03          	lw	x30,8(x10)
    ea7c:	0005ae03          	lw	x28,0(x11)
    ea80:	0045ae83          	lw	x29,4(x11)
    ea84:	ff010113          	addi	x2,x2,-16
    ea88:	0085a583          	lw	x11,8(x11)
    ea8c:	00f87833          	and	x16,x16,x15
    ea90:	010fdf93          	srli	x31,x31,0x10
    ea94:	01f75713          	srli	x14,x14,0x1f
    ea98:	0102d293          	srli	x5,x5,0x10
    ea9c:	01f6d693          	srli	x13,x13,0x1f
    eaa0:	00100513          	addi	x10,x0,1
    eaa4:	00f60c63          	beq	x12,x15,eabc <__eqtf2+0x70>
    eaa8:	00f80663          	beq	x16,x15,eab4 <__eqtf2+0x68>
    eaac:	00c81463          	bne	x16,x12,eab4 <__eqtf2+0x68>
    eab0:	03c30e63          	beq	x6,x28,eaec <__eqtf2+0xa0>
    eab4:	01010113          	addi	x2,x2,16
    eab8:	00008067          	jalr	x0,0(x1)
    eabc:	fec81ce3          	bne	x16,x12,eab4 <__eqtf2+0x68>
    eac0:	0068e7b3          	or	x15,x17,x6
    eac4:	01e7e7b3          	or	x15,x15,x30
    eac8:	01f7e7b3          	or	x15,x15,x31
    eacc:	01c7e7b3          	or	x15,x15,x28
    ead0:	01d7e7b3          	or	x15,x15,x29
    ead4:	00b7e7b3          	or	x15,x15,x11
    ead8:	0057e7b3          	or	x15,x15,x5
    eadc:	fc079ce3          	bne	x15,x0,eab4 <__eqtf2+0x68>
    eae0:	40d70733          	sub	x14,x14,x13
    eae4:	00e03533          	sltu	x10,x0,x14
    eae8:	fcdff06f          	jal	x0,eab4 <__eqtf2+0x68>
    eaec:	fdd894e3          	bne	x17,x29,eab4 <__eqtf2+0x68>
    eaf0:	fcbf12e3          	bne	x30,x11,eab4 <__eqtf2+0x68>
    eaf4:	fc5f90e3          	bne	x31,x5,eab4 <__eqtf2+0x68>
    eaf8:	00d70e63          	beq	x14,x13,eb14 <__eqtf2+0xc8>
    eafc:	fa081ce3          	bne	x16,x0,eab4 <__eqtf2+0x68>
    eb00:	0068e7b3          	or	x15,x17,x6
    eb04:	01e7e7b3          	or	x15,x15,x30
    eb08:	01f7e7b3          	or	x15,x15,x31
    eb0c:	00f03533          	sltu	x10,x0,x15
    eb10:	fa5ff06f          	jal	x0,eab4 <__eqtf2+0x68>
    eb14:	00000513          	addi	x10,x0,0
    eb18:	f9dff06f          	jal	x0,eab4 <__eqtf2+0x68>

0000eb1c <__getf2>:
    eb1c:	00c52683          	lw	x13,12(x10)
    eb20:	00c5a803          	lw	x16,12(x11)
    eb24:	00008737          	lui	x14,0x8
    eb28:	0106d613          	srli	x12,x13,0x10
    eb2c:	fff70713          	addi	x14,x14,-1 # 7fff <__gdtoa+0x84b>
    eb30:	00050793          	addi	x15,x10,0
    eb34:	01069e93          	slli	x29,x13,0x10
    eb38:	01085513          	srli	x10,x16,0x10
    eb3c:	01081313          	slli	x6,x16,0x10
    eb40:	00e67633          	and	x12,x12,x14
    eb44:	0047af83          	lw	x31,4(x15)
    eb48:	0087af03          	lw	x30,8(x15)
    eb4c:	0005ae03          	lw	x28,0(x11)
    eb50:	01f85893          	srli	x17,x16,0x1f
    eb54:	ff010113          	addi	x2,x2,-16
    eb58:	0007a803          	lw	x16,0(x15)
    eb5c:	00e57533          	and	x10,x10,x14
    eb60:	0045a783          	lw	x15,4(x11)
    eb64:	010ede93          	srli	x29,x29,0x10
    eb68:	0085a583          	lw	x11,8(x11)
    eb6c:	01f6d693          	srli	x13,x13,0x1f
    eb70:	01035313          	srli	x6,x6,0x10
    eb74:	06e60a63          	beq	x12,x14,ebe8 <__getf2+0xcc>
    eb78:	02e50e63          	beq	x10,x14,ebb4 <__getf2+0x98>
    eb7c:	0c061c63          	bne	x12,x0,ec54 <__getf2+0x138>
    eb80:	01f86733          	or	x14,x16,x31
    eb84:	01e76733          	or	x14,x14,x30
    eb88:	01d76733          	or	x14,x14,x29
    eb8c:	0e051263          	bne	x10,x0,ec70 <__getf2+0x154>
    eb90:	01c7e633          	or	x12,x15,x28
    eb94:	00b66633          	or	x12,x12,x11
    eb98:	00666633          	or	x12,x12,x6
    eb9c:	06061e63          	bne	x12,x0,ec18 <__getf2+0xfc>
    eba0:	00070663          	beq	x14,x0,ebac <__getf2+0x90>
    eba4:	02069e63          	bne	x13,x0,ebe0 <__getf2+0xc4>
    eba8:	00100513          	addi	x10,x0,1
    ebac:	01010113          	addi	x2,x2,16
    ebb0:	00008067          	jalr	x0,0(x1)
    ebb4:	01c7e7b3          	or	x15,x15,x28
    ebb8:	00b7e7b3          	or	x15,x15,x11
    ebbc:	0067e7b3          	or	x15,x15,x6
    ebc0:	0a079463          	bne	x15,x0,ec68 <__getf2+0x14c>
    ebc4:	08061463          	bne	x12,x0,ec4c <__getf2+0x130>
    ebc8:	01f86833          	or	x16,x16,x31
    ebcc:	01e86833          	or	x16,x16,x30
    ebd0:	01d86833          	or	x16,x16,x29
    ebd4:	06081c63          	bne	x16,x0,ec4c <__getf2+0x130>
    ebd8:	00100513          	addi	x10,x0,1
    ebdc:	fc0898e3          	bne	x17,x0,ebac <__getf2+0x90>
    ebe0:	fff00513          	addi	x10,x0,-1
    ebe4:	fc9ff06f          	jal	x0,ebac <__getf2+0x90>
    ebe8:	01f86833          	or	x16,x16,x31
    ebec:	01e86833          	or	x16,x16,x30
    ebf0:	01d86833          	or	x16,x16,x29
    ebf4:	06081a63          	bne	x16,x0,ec68 <__getf2+0x14c>
    ebf8:	fac516e3          	bne	x10,x12,eba4 <__getf2+0x88>
    ebfc:	01c7e7b3          	or	x15,x15,x28
    ec00:	00b7e7b3          	or	x15,x15,x11
    ec04:	0067e7b3          	or	x15,x15,x6
    ec08:	06079063          	bne	x15,x0,ec68 <__getf2+0x14c>
    ec0c:	f8d89ce3          	bne	x17,x13,eba4 <__getf2+0x88>
    ec10:	00000513          	addi	x10,x0,0
    ec14:	f99ff06f          	jal	x0,ebac <__getf2+0x90>
    ec18:	fc0700e3          	beq	x14,x0,ebd8 <__getf2+0xbc>
    ec1c:	f8d894e3          	bne	x17,x13,eba4 <__getf2+0x88>
    ec20:	f9d362e3          	bltu	x6,x29,eba4 <__getf2+0x88>
    ec24:	006e9e63          	bne	x29,x6,ec40 <__getf2+0x124>
    ec28:	f7e5eee3          	bltu	x11,x30,eba4 <__getf2+0x88>
    ec2c:	00bf1a63          	bne	x30,x11,ec40 <__getf2+0x124>
    ec30:	f7f7eae3          	bltu	x15,x31,eba4 <__getf2+0x88>
    ec34:	01f79663          	bne	x15,x31,ec40 <__getf2+0x124>
    ec38:	f70e66e3          	bltu	x28,x16,eba4 <__getf2+0x88>
    ec3c:	fdc87ae3          	bgeu	x16,x28,ec10 <__getf2+0xf4>
    ec40:	00100513          	addi	x10,x0,1
    ec44:	f60694e3          	bne	x13,x0,ebac <__getf2+0x90>
    ec48:	f99ff06f          	jal	x0,ebe0 <__getf2+0xc4>
    ec4c:	f4d89ce3          	bne	x17,x13,eba4 <__getf2+0x88>
    ec50:	ff1ff06f          	jal	x0,ec40 <__getf2+0x124>
    ec54:	f40508e3          	beq	x10,x0,eba4 <__getf2+0x88>
    ec58:	f4d896e3          	bne	x17,x13,eba4 <__getf2+0x88>
    ec5c:	f4c544e3          	blt	x10,x12,eba4 <__getf2+0x88>
    ec60:	fca650e3          	bge	x12,x10,ec20 <__getf2+0x104>
    ec64:	fddff06f          	jal	x0,ec40 <__getf2+0x124>
    ec68:	ffe00513          	addi	x10,x0,-2
    ec6c:	f41ff06f          	jal	x0,ebac <__getf2+0x90>
    ec70:	f60704e3          	beq	x14,x0,ebd8 <__getf2+0xbc>
    ec74:	f2d898e3          	bne	x17,x13,eba4 <__getf2+0x88>
    ec78:	faa654e3          	bge	x12,x10,ec20 <__getf2+0x104>
    ec7c:	fc5ff06f          	jal	x0,ec40 <__getf2+0x124>

0000ec80 <__letf2>:
    ec80:	00c52603          	lw	x12,12(x10)
    ec84:	00c5a683          	lw	x13,12(x11)
    ec88:	00008737          	lui	x14,0x8
    ec8c:	01065893          	srli	x17,x12,0x10
    ec90:	fff70713          	addi	x14,x14,-1 # 7fff <__gdtoa+0x84b>
    ec94:	00050793          	addi	x15,x10,0
    ec98:	01061e93          	slli	x29,x12,0x10
    ec9c:	0106d513          	srli	x10,x13,0x10
    eca0:	01069313          	slli	x6,x13,0x10
    eca4:	00e8f8b3          	and	x17,x17,x14
    eca8:	0047af83          	lw	x31,4(x15)
    ecac:	0087af03          	lw	x30,8(x15)
    ecb0:	0005ae03          	lw	x28,0(x11)
    ecb4:	01f6d813          	srli	x16,x13,0x1f
    ecb8:	ff010113          	addi	x2,x2,-16
    ecbc:	0007a683          	lw	x13,0(x15)
    ecc0:	00e57533          	and	x10,x10,x14
    ecc4:	0045a783          	lw	x15,4(x11)
    ecc8:	010ede93          	srli	x29,x29,0x10
    eccc:	0085a583          	lw	x11,8(x11)
    ecd0:	01f65613          	srli	x12,x12,0x1f
    ecd4:	01035313          	srli	x6,x6,0x10
    ecd8:	08e88463          	beq	x17,x14,ed60 <__letf2+0xe0>
    ecdc:	02e50a63          	beq	x10,x14,ed10 <__letf2+0x90>
    ece0:	0a089a63          	bne	x17,x0,ed94 <__letf2+0x114>
    ece4:	01f6e733          	or	x14,x13,x31
    ece8:	01e76733          	or	x14,x14,x30
    ecec:	01d76733          	or	x14,x14,x29
    ecf0:	04051e63          	bne	x10,x0,ed4c <__letf2+0xcc>
    ecf4:	01c7e2b3          	or	x5,x15,x28
    ecf8:	00b2e2b3          	or	x5,x5,x11
    ecfc:	0062e2b3          	or	x5,x5,x6
    ed00:	04029663          	bne	x5,x0,ed4c <__letf2+0xcc>
    ed04:	02071c63          	bne	x14,x0,ed3c <__letf2+0xbc>
    ed08:	01010113          	addi	x2,x2,16
    ed0c:	00008067          	jalr	x0,0(x1)
    ed10:	01c7e7b3          	or	x15,x15,x28
    ed14:	00b7e7b3          	or	x15,x15,x11
    ed18:	0067e7b3          	or	x15,x15,x6
    ed1c:	00200513          	addi	x10,x0,2
    ed20:	fe0794e3          	bne	x15,x0,ed08 <__letf2+0x88>
    ed24:	00089a63          	bne	x17,x0,ed38 <__letf2+0xb8>
    ed28:	01f6e6b3          	or	x13,x13,x31
    ed2c:	01e6e6b3          	or	x13,x13,x30
    ed30:	01d6e6b3          	or	x13,x13,x29
    ed34:	00068e63          	beq	x13,x0,ed50 <__letf2+0xd0>
    ed38:	08c80663          	beq	x16,x12,edc4 <__letf2+0x144>
    ed3c:	00061e63          	bne	x12,x0,ed58 <__letf2+0xd8>
    ed40:	00100513          	addi	x10,x0,1
    ed44:	01010113          	addi	x2,x2,16
    ed48:	00008067          	jalr	x0,0(x1)
    ed4c:	08071863          	bne	x14,x0,eddc <__letf2+0x15c>
    ed50:	00100513          	addi	x10,x0,1
    ed54:	fa081ae3          	bne	x16,x0,ed08 <__letf2+0x88>
    ed58:	fff00513          	addi	x10,x0,-1
    ed5c:	fadff06f          	jal	x0,ed08 <__letf2+0x88>
    ed60:	01f6e6b3          	or	x13,x13,x31
    ed64:	01e6e6b3          	or	x13,x13,x30
    ed68:	01d6e6b3          	or	x13,x13,x29
    ed6c:	06069263          	bne	x13,x0,edd0 <__letf2+0x150>
    ed70:	fd1516e3          	bne	x10,x17,ed3c <__letf2+0xbc>
    ed74:	01c7e7b3          	or	x15,x15,x28
    ed78:	00b7e7b3          	or	x15,x15,x11
    ed7c:	0067e7b3          	or	x15,x15,x6
    ed80:	00200513          	addi	x10,x0,2
    ed84:	f80792e3          	bne	x15,x0,ed08 <__letf2+0x88>
    ed88:	fac81ae3          	bne	x16,x12,ed3c <__letf2+0xbc>
    ed8c:	00000513          	addi	x10,x0,0
    ed90:	f79ff06f          	jal	x0,ed08 <__letf2+0x88>
    ed94:	fa0504e3          	beq	x10,x0,ed3c <__letf2+0xbc>
    ed98:	fac812e3          	bne	x16,x12,ed3c <__letf2+0xbc>
    ed9c:	fb1540e3          	blt	x10,x17,ed3c <__letf2+0xbc>
    eda0:	02a8c263          	blt	x17,x10,edc4 <__letf2+0x144>
    eda4:	f9d36ce3          	bltu	x6,x29,ed3c <__letf2+0xbc>
    eda8:	006e9e63          	bne	x29,x6,edc4 <__letf2+0x144>
    edac:	f9e5e8e3          	bltu	x11,x30,ed3c <__letf2+0xbc>
    edb0:	00bf1a63          	bne	x30,x11,edc4 <__letf2+0x144>
    edb4:	f9f7e4e3          	bltu	x15,x31,ed3c <__letf2+0xbc>
    edb8:	01f79663          	bne	x15,x31,edc4 <__letf2+0x144>
    edbc:	f8de60e3          	bltu	x28,x13,ed3c <__letf2+0xbc>
    edc0:	fdc6f6e3          	bgeu	x13,x28,ed8c <__letf2+0x10c>
    edc4:	00100513          	addi	x10,x0,1
    edc8:	f40610e3          	bne	x12,x0,ed08 <__letf2+0x88>
    edcc:	f8dff06f          	jal	x0,ed58 <__letf2+0xd8>
    edd0:	00200513          	addi	x10,x0,2
    edd4:	01010113          	addi	x2,x2,16
    edd8:	00008067          	jalr	x0,0(x1)
    eddc:	f6c810e3          	bne	x16,x12,ed3c <__letf2+0xbc>
    ede0:	fc1ff06f          	jal	x0,eda0 <__letf2+0x120>

0000ede4 <__multf3>:
    ede4:	00c5a803          	lw	x16,12(x11)
    ede8:	f5010113          	addi	x2,x2,-176
    edec:	0045a703          	lw	x14,4(x11)
    edf0:	0085a883          	lw	x17,8(x11)
    edf4:	0a912223          	sw	x9,164(x2)
    edf8:	0005a483          	lw	x9,0(x11)
    edfc:	01081793          	slli	x15,x16,0x10
    ee00:	000085b7          	lui	x11,0x8
    ee04:	0107d793          	srli	x15,x15,0x10
    ee08:	01085693          	srli	x13,x16,0x10
    ee0c:	fff58593          	addi	x11,x11,-1 # 7fff <__gdtoa+0x84b>
    ee10:	0a812423          	sw	x8,168(x2)
    ee14:	0b212023          	sw	x18,160(x2)
    ee18:	09312e23          	sw	x19,156(x2)
    ee1c:	09412c23          	sw	x20,152(x2)
    ee20:	09512a23          	sw	x21,148(x2)
    ee24:	09712623          	sw	x23,140(x2)
    ee28:	0a112623          	sw	x1,172(x2)
    ee2c:	09612823          	sw	x22,144(x2)
    ee30:	09812423          	sw	x24,136(x2)
    ee34:	05012e23          	sw	x16,92(x2)
    ee38:	02f12623          	sw	x15,44(x2)
    ee3c:	00b6f6b3          	and	x13,x13,x11
    ee40:	04912823          	sw	x9,80(x2)
    ee44:	02912023          	sw	x9,32(x2)
    ee48:	04e12a23          	sw	x14,84(x2)
    ee4c:	02e12223          	sw	x14,36(x2)
    ee50:	05112c23          	sw	x17,88(x2)
    ee54:	03112423          	sw	x17,40(x2)
    ee58:	00062a83          	lw	x21,0(x12)
    ee5c:	00462983          	lw	x19,4(x12)
    ee60:	00862b83          	lw	x23,8(x12)
    ee64:	00c62903          	lw	x18,12(x12)
    ee68:	00050413          	addi	x8,x10,0
    ee6c:	01f85a13          	srli	x20,x16,0x1f
    ee70:	32068863          	beq	x13,x0,f1a0 <__multf3+0x3bc>
    ee74:	18b68863          	beq	x13,x11,f004 <__multf3+0x220>
    ee78:	00010737          	lui	x14,0x10
    ee7c:	00e7e7b3          	or	x15,x15,x14
    ee80:	02f12623          	sw	x15,44(x2)
    ee84:	02010513          	addi	x10,x2,32
    ee88:	02c10713          	addi	x14,x2,44
    ee8c:	00379593          	slli	x11,x15,0x3
    ee90:	ffc72783          	lw	x15,-4(x14) # fffc <__subtf3+0xd4>
    ee94:	ffc70713          	addi	x14,x14,-4
    ee98:	01d7d613          	srli	x12,x15,0x1d
    ee9c:	00b66633          	or	x12,x12,x11
    eea0:	00c72223          	sw	x12,4(x14)
    eea4:	fee514e3          	bne	x10,x14,ee8c <__multf3+0xa8>
    eea8:	ffffc7b7          	lui	x15,0xffffc
    eeac:	00349493          	slli	x9,x9,0x3
    eeb0:	00178793          	addi	x15,x15,1 # ffffc001 <__heap_end+0xffbfc001>
    eeb4:	02912023          	sw	x9,32(x2)
    eeb8:	00000b13          	addi	x22,x0,0
    eebc:	00f684b3          	add	x9,x13,x15
    eec0:	00000c13          	addi	x24,x0,0
    eec4:	01091513          	slli	x10,x18,0x10
    eec8:	000086b7          	lui	x13,0x8
    eecc:	01095793          	srli	x15,x18,0x10
    eed0:	fff68713          	addi	x14,x13,-1 # 7fff <__gdtoa+0x84b>
    eed4:	01055513          	srli	x10,x10,0x10
    eed8:	05212e23          	sw	x18,92(x2)
    eedc:	05512823          	sw	x21,80(x2)
    eee0:	05312a23          	sw	x19,84(x2)
    eee4:	05712c23          	sw	x23,88(x2)
    eee8:	03512823          	sw	x21,48(x2)
    eeec:	03312a23          	sw	x19,52(x2)
    eef0:	03712c23          	sw	x23,56(x2)
    eef4:	00e7f7b3          	and	x15,x15,x14
    eef8:	02a12e23          	sw	x10,60(x2)
    eefc:	01f95913          	srli	x18,x18,0x1f
    ef00:	1c078063          	beq	x15,x0,f0c0 <__multf3+0x2dc>
    ef04:	12e78063          	beq	x15,x14,f024 <__multf3+0x240>
    ef08:	00010737          	lui	x14,0x10
    ef0c:	00e56533          	or	x10,x10,x14
    ef10:	02a12e23          	sw	x10,60(x2)
    ef14:	03010593          	addi	x11,x2,48
    ef18:	03c10713          	addi	x14,x2,60
    ef1c:	00351613          	slli	x12,x10,0x3
    ef20:	ffc72503          	lw	x10,-4(x14) # fffc <__subtf3+0xd4>
    ef24:	ffc70713          	addi	x14,x14,-4
    ef28:	01d55693          	srli	x13,x10,0x1d
    ef2c:	00c6e6b3          	or	x13,x13,x12
    ef30:	00d72223          	sw	x13,4(x14)
    ef34:	fee594e3          	bne	x11,x14,ef1c <__multf3+0x138>
    ef38:	ffffc737          	lui	x14,0xffffc
    ef3c:	00170713          	addi	x14,x14,1 # ffffc001 <__heap_end+0xffbfc001>
    ef40:	003a9a93          	slli	x21,x21,0x3
    ef44:	00e787b3          	add	x15,x15,x14
    ef48:	03512823          	sw	x21,48(x2)
    ef4c:	009787b3          	add	x15,x15,x9
    ef50:	00000613          	addi	x12,x0,0
    ef54:	00178693          	addi	x13,x15,1
    ef58:	00a00713          	addi	x14,x0,10
    ef5c:	00d12423          	sw	x13,8(x2)
    ef60:	23674c63          	blt	x14,x22,f198 <__multf3+0x3b4>
    ef64:	012a4733          	xor	x14,x20,x18
    ef68:	00200693          	addi	x13,x0,2
    ef6c:	00070813          	addi	x16,x14,0
    ef70:	3366d063          	bge	x13,x22,f290 <__multf3+0x4ac>
    ef74:	00100693          	addi	x13,x0,1
    ef78:	016696b3          	sll	x13,x13,x22
    ef7c:	5306f593          	andi	x11,x13,1328
    ef80:	0e059463          	bne	x11,x0,f068 <__multf3+0x284>
    ef84:	0886f593          	andi	x11,x13,136
    ef88:	3c0592e3          	bne	x11,x0,fb4c <__multf3+0xd68>
    ef8c:	2406f693          	andi	x13,x13,576
    ef90:	36068263          	beq	x13,x0,f2f4 <__multf3+0x510>
    ef94:	000086b7          	lui	x13,0x8
    ef98:	fff68793          	addi	x15,x13,-1 # 7fff <__gdtoa+0x84b>
    ef9c:	00000713          	addi	x14,x0,0
    efa0:	00000613          	addi	x12,x0,0
    efa4:	00000593          	addi	x11,x0,0
    efa8:	00000513          	addi	x10,x0,0
    efac:	00f71713          	slli	x14,x14,0xf
    efb0:	00e7e7b3          	or	x15,x15,x14
    efb4:	04f11f23          	sh	x15,94(x2)
    efb8:	04d11e23          	sh	x13,92(x2)
    efbc:	05c12783          	lw	x15,92(x2)
    efc0:	00a42023          	sw	x10,0(x8)
    efc4:	0ac12083          	lw	x1,172(x2)
    efc8:	00b42223          	sw	x11,4(x8)
    efcc:	00c42423          	sw	x12,8(x8)
    efd0:	00f42623          	sw	x15,12(x8)
    efd4:	00040513          	addi	x10,x8,0
    efd8:	0a812403          	lw	x8,168(x2)
    efdc:	0a412483          	lw	x9,164(x2)
    efe0:	0a012903          	lw	x18,160(x2)
    efe4:	09c12983          	lw	x19,156(x2)
    efe8:	09812a03          	lw	x20,152(x2)
    efec:	09412a83          	lw	x21,148(x2)
    eff0:	09012b03          	lw	x22,144(x2)
    eff4:	08c12b83          	lw	x23,140(x2)
    eff8:	08812c03          	lw	x24,136(x2)
    effc:	0b010113          	addi	x2,x2,176
    f000:	00008067          	jalr	x0,0(x1)
    f004:	00e4e733          	or	x14,x9,x14
    f008:	01176733          	or	x14,x14,x17
    f00c:	00f76733          	or	x14,x14,x15
    f010:	00068493          	addi	x9,x13,0
    f014:	2c071463          	bne	x14,x0,f2dc <__multf3+0x4f8>
    f018:	00800b13          	addi	x22,x0,8
    f01c:	00200c13          	addi	x24,x0,2
    f020:	ea5ff06f          	jal	x0,eec4 <__multf3+0xe0>
    f024:	013ae9b3          	or	x19,x21,x19
    f028:	0179e9b3          	or	x19,x19,x23
    f02c:	00a9e9b3          	or	x19,x19,x10
    f030:	00f487b3          	add	x15,x9,x15
    f034:	2a098a63          	beq	x19,x0,f2e8 <__multf3+0x504>
    f038:	00d486b3          	add	x13,x9,x13
    f03c:	012a4733          	xor	x14,x20,x18
    f040:	003b6b13          	ori	x22,x22,3
    f044:	00a00613          	addi	x12,x0,10
    f048:	00d12423          	sw	x13,8(x2)
    f04c:	00070813          	addi	x16,x14,0
    f050:	2f6648e3          	blt	x12,x22,fb40 <__multf3+0xd5c>
    f054:	00100693          	addi	x13,x0,1
    f058:	016696b3          	sll	x13,x13,x22
    f05c:	5306f593          	andi	x11,x13,1328
    f060:	00300613          	addi	x12,x0,3
    f064:	f20580e3          	beq	x11,x0,ef84 <__multf3+0x1a0>
    f068:	02012783          	lw	x15,32(x2)
    f06c:	02412683          	lw	x13,36(x2)
    f070:	02812703          	lw	x14,40(x2)
    f074:	04f12023          	sw	x15,64(x2)
    f078:	02c12783          	lw	x15,44(x2)
    f07c:	000c0613          	addi	x12,x24,0
    f080:	04d12223          	sw	x13,68(x2)
    f084:	04e12423          	sw	x14,72(x2)
    f088:	04f12623          	sw	x15,76(x2)
    f08c:	00200793          	addi	x15,x0,2
    f090:	1ef60063          	beq	x12,x15,f270 <__multf3+0x48c>
    f094:	00300793          	addi	x15,x0,3
    f098:	eef60ee3          	beq	x12,x15,ef94 <__multf3+0x1b0>
    f09c:	00100793          	addi	x15,x0,1
    f0a0:	00080713          	addi	x14,x16,0
    f0a4:	1af61ae3          	bne	x12,x15,fa58 <__multf3+0xc74>
    f0a8:	00000793          	addi	x15,x0,0
    f0ac:	00000693          	addi	x13,x0,0
    f0b0:	00000613          	addi	x12,x0,0
    f0b4:	00000593          	addi	x11,x0,0
    f0b8:	00000513          	addi	x10,x0,0
    f0bc:	ef1ff06f          	jal	x0,efac <__multf3+0x1c8>
    f0c0:	013ae7b3          	or	x15,x21,x19
    f0c4:	0177e7b3          	or	x15,x15,x23
    f0c8:	00a7e7b3          	or	x15,x15,x10
    f0cc:	20078063          	beq	x15,x0,f2cc <__multf3+0x4e8>
    f0d0:	3e050ae3          	beq	x10,x0,fcc4 <__multf3+0xee0>
    f0d4:	2e5020ef          	jal	x1,11bb8 <__clzsi2>
    f0d8:	ff450813          	addi	x16,x10,-12
    f0dc:	02000313          	addi	x6,x0,32
    f0e0:	010a9ab3          	sll	x21,x21,x16
    f0e4:	41030333          	sub	x6,x6,x16
    f0e8:	00000613          	addi	x12,x0,0
    f0ec:	40c008b3          	sub	x17,x0,x12
    f0f0:	00289893          	slli	x17,x17,0x2
    f0f4:	03010693          	addi	x13,x2,48
    f0f8:	01168733          	add	x14,x13,x17
    f0fc:	00300593          	addi	x11,x0,3
    f100:	411008b3          	sub	x17,x0,x17
    f104:	00c72783          	lw	x15,12(x14)
    f108:	00872e03          	lw	x28,8(x14)
    f10c:	fff58593          	addi	x11,x11,-1
    f110:	010797b3          	sll	x15,x15,x16
    f114:	006e5e33          	srl	x28,x28,x6
    f118:	01c7e7b3          	or	x15,x15,x28
    f11c:	01170e33          	add	x28,x14,x17
    f120:	00fe2623          	sw	x15,12(x28)
    f124:	ffc70713          	addi	x14,x14,-4
    f128:	fcb64ee3          	blt	x12,x11,f104 <__multf3+0x320>
    f12c:	00261793          	slli	x15,x12,0x2
    f130:	00f687b3          	add	x15,x13,x15
    f134:	0157a023          	sw	x21,0(x15)
    f138:	fff60793          	addi	x15,x12,-1
    f13c:	fff00713          	addi	x14,x0,-1
    f140:	02e78a63          	beq	x15,x14,f174 <__multf3+0x390>
    f144:	00178793          	addi	x15,x15,1
    f148:	00279793          	slli	x15,x15,0x2
    f14c:	00800613          	addi	x12,x0,8
    f150:	00068713          	addi	x14,x13,0
    f154:	00c7ea63          	bltu	x15,x12,f168 <__multf3+0x384>
    f158:	02012823          	sw	x0,48(x2)
    f15c:	0006a223          	sw	x0,4(x13)
    f160:	ff878793          	addi	x15,x15,-8
    f164:	03810713          	addi	x14,x2,56
    f168:	00400693          	addi	x13,x0,4
    f16c:	00d7e463          	bltu	x15,x13,f174 <__multf3+0x390>
    f170:	00072023          	sw	x0,0(x14)
    f174:	ffffc7b7          	lui	x15,0xffffc
    f178:	01178793          	addi	x15,x15,17 # ffffc011 <__heap_end+0xffbfc011>
    f17c:	40a787b3          	sub	x15,x15,x10
    f180:	009787b3          	add	x15,x15,x9
    f184:	00178693          	addi	x13,x15,1
    f188:	00a00713          	addi	x14,x0,10
    f18c:	00d12423          	sw	x13,8(x2)
    f190:	00000613          	addi	x12,x0,0
    f194:	dd6758e3          	bge	x14,x22,ef64 <__multf3+0x180>
    f198:	000a0813          	addi	x16,x20,0
    f19c:	ecdff06f          	jal	x0,f068 <__multf3+0x284>
    f1a0:	00e4e6b3          	or	x13,x9,x14
    f1a4:	0116e6b3          	or	x13,x13,x17
    f1a8:	00f6e6b3          	or	x13,x13,x15
    f1ac:	10068863          	beq	x13,x0,f2bc <__multf3+0x4d8>
    f1b0:	360786e3          	beq	x15,x0,fd1c <__multf3+0xf38>
    f1b4:	00078513          	addi	x10,x15,0
    f1b8:	201020ef          	jal	x1,11bb8 <__clzsi2>
    f1bc:	ff450e13          	addi	x28,x10,-12
    f1c0:	02000893          	addi	x17,x0,32
    f1c4:	01c494b3          	sll	x9,x9,x28
    f1c8:	41c888b3          	sub	x17,x17,x28
    f1cc:	00000613          	addi	x12,x0,0
    f1d0:	40c00833          	sub	x16,x0,x12
    f1d4:	00281813          	slli	x16,x16,0x2
    f1d8:	02010693          	addi	x13,x2,32
    f1dc:	01068733          	add	x14,x13,x16
    f1e0:	00300593          	addi	x11,x0,3
    f1e4:	41000833          	sub	x16,x0,x16
    f1e8:	00c72783          	lw	x15,12(x14)
    f1ec:	00872303          	lw	x6,8(x14)
    f1f0:	fff58593          	addi	x11,x11,-1
    f1f4:	01c797b3          	sll	x15,x15,x28
    f1f8:	01135333          	srl	x6,x6,x17
    f1fc:	0067e7b3          	or	x15,x15,x6
    f200:	01070333          	add	x6,x14,x16
    f204:	00f32623          	sw	x15,12(x6)
    f208:	ffc70713          	addi	x14,x14,-4
    f20c:	fcb64ee3          	blt	x12,x11,f1e8 <__multf3+0x404>
    f210:	00261793          	slli	x15,x12,0x2
    f214:	00f687b3          	add	x15,x13,x15
    f218:	0097a023          	sw	x9,0(x15)
    f21c:	fff60793          	addi	x15,x12,-1
    f220:	fff00713          	addi	x14,x0,-1
    f224:	02e78a63          	beq	x15,x14,f258 <__multf3+0x474>
    f228:	00178793          	addi	x15,x15,1
    f22c:	00279793          	slli	x15,x15,0x2
    f230:	00800613          	addi	x12,x0,8
    f234:	00068713          	addi	x14,x13,0
    f238:	00c7ea63          	bltu	x15,x12,f24c <__multf3+0x468>
    f23c:	02012023          	sw	x0,32(x2)
    f240:	0006a223          	sw	x0,4(x13)
    f244:	ff878793          	addi	x15,x15,-8
    f248:	02810713          	addi	x14,x2,40
    f24c:	00400693          	addi	x13,x0,4
    f250:	00d7e463          	bltu	x15,x13,f258 <__multf3+0x474>
    f254:	00072023          	sw	x0,0(x14)
    f258:	ffffc6b7          	lui	x13,0xffffc
    f25c:	01168693          	addi	x13,x13,17 # ffffc011 <__heap_end+0xffbfc011>
    f260:	40a684b3          	sub	x9,x13,x10
    f264:	00000b13          	addi	x22,x0,0
    f268:	00000c13          	addi	x24,x0,0
    f26c:	c59ff06f          	jal	x0,eec4 <__multf3+0xe0>
    f270:	000087b7          	lui	x15,0x8
    f274:	00080713          	addi	x14,x16,0
    f278:	fff78793          	addi	x15,x15,-1 # 7fff <__gdtoa+0x84b>
    f27c:	00000693          	addi	x13,x0,0
    f280:	00000613          	addi	x12,x0,0
    f284:	00000593          	addi	x11,x0,0
    f288:	00000513          	addi	x10,x0,0
    f28c:	d21ff06f          	jal	x0,efac <__multf3+0x1c8>
    f290:	fffb0b13          	addi	x22,x22,-1
    f294:	00100693          	addi	x13,x0,1
    f298:	0566ee63          	bltu	x13,x22,f2f4 <__multf3+0x510>
    f29c:	03412583          	lw	x11,52(x2)
    f2a0:	03812683          	lw	x13,56(x2)
    f2a4:	03012703          	lw	x14,48(x2)
    f2a8:	03c12783          	lw	x15,60(x2)
    f2ac:	04b12223          	sw	x11,68(x2)
    f2b0:	04d12423          	sw	x13,72(x2)
    f2b4:	04e12023          	sw	x14,64(x2)
    f2b8:	dd1ff06f          	jal	x0,f088 <__multf3+0x2a4>
    f2bc:	00400b13          	addi	x22,x0,4
    f2c0:	00000493          	addi	x9,x0,0
    f2c4:	00100c13          	addi	x24,x0,1
    f2c8:	bfdff06f          	jal	x0,eec4 <__multf3+0xe0>
    f2cc:	001b6b13          	ori	x22,x22,1
    f2d0:	00048793          	addi	x15,x9,0
    f2d4:	00100613          	addi	x12,x0,1
    f2d8:	c7dff06f          	jal	x0,ef54 <__multf3+0x170>
    f2dc:	00c00b13          	addi	x22,x0,12
    f2e0:	00300c13          	addi	x24,x0,3
    f2e4:	be1ff06f          	jal	x0,eec4 <__multf3+0xe0>
    f2e8:	002b6b13          	ori	x22,x22,2
    f2ec:	00200613          	addi	x12,x0,2
    f2f0:	c65ff06f          	jal	x0,ef54 <__multf3+0x170>
    f2f4:	02012683          	lw	x13,32(x2)
    f2f8:	03012f03          	lw	x30,48(x2)
    f2fc:	09912223          	sw	x25,132(x2)
    f300:	0106de93          	srli	x29,x13,0x10
    f304:	010f1f93          	slli	x31,x30,0x10
    f308:	01069693          	slli	x13,x13,0x10
    f30c:	0106d693          	srli	x13,x13,0x10
    f310:	010fdf93          	srli	x31,x31,0x10
    f314:	010f5f13          	srli	x30,x30,0x10
    f318:	02df8633          	mul	x12,x31,x13
    f31c:	09a12023          	sw	x26,128(x2)
    f320:	07b12e23          	sw	x27,124(x2)
    f324:	03fe8533          	mul	x10,x29,x31
    f328:	01065393          	srli	x7,x12,0x10
    f32c:	02df05b3          	mul	x11,x30,x13
    f330:	00a585b3          	add	x11,x11,x10
    f334:	00b383b3          	add	x7,x7,x11
    f338:	03ee88b3          	mul	x17,x29,x30
    f33c:	00a3f663          	bgeu	x7,x10,f348 <__multf3+0x564>
    f340:	000105b7          	lui	x11,0x10
    f344:	00b888b3          	add	x17,x17,x11
    f348:	03412903          	lw	x18,52(x2)
    f34c:	01061613          	slli	x12,x12,0x10
    f350:	01039593          	slli	x11,x7,0x10
    f354:	01065613          	srli	x12,x12,0x10
    f358:	01095a13          	srli	x20,x18,0x10
    f35c:	00c58633          	add	x12,x11,x12
    f360:	01091913          	slli	x18,x18,0x10
    f364:	00060593          	addi	x11,x12,0
    f368:	01095913          	srli	x18,x18,0x10
    f36c:	032e8533          	mul	x10,x29,x18
    f370:	00c12a23          	sw	x12,20(x2)
    f374:	04b12823          	sw	x11,80(x2)
    f378:	0103d393          	srli	x7,x7,0x10
    f37c:	02d90633          	mul	x12,x18,x13
    f380:	02da05b3          	mul	x11,x20,x13
    f384:	01065e13          	srli	x28,x12,0x10
    f388:	00a585b3          	add	x11,x11,x10
    f38c:	00be0e33          	add	x28,x28,x11
    f390:	034e8bb3          	mul	x23,x29,x20
    f394:	00ae7663          	bgeu	x28,x10,f3a0 <__multf3+0x5bc>
    f398:	000105b7          	lui	x11,0x10
    f39c:	00bb8bb3          	add	x23,x23,x11
    f3a0:	02412503          	lw	x10,36(x2)
    f3a4:	01061613          	slli	x12,x12,0x10
    f3a8:	01065613          	srli	x12,x12,0x10
    f3ac:	01055a93          	srli	x21,x10,0x10
    f3b0:	01051513          	slli	x10,x10,0x10
    f3b4:	01055513          	srli	x10,x10,0x10
    f3b8:	03f505b3          	mul	x11,x10,x31
    f3bc:	010e1293          	slli	x5,x28,0x10
    f3c0:	00c282b3          	add	x5,x5,x12
    f3c4:	005383b3          	add	x7,x7,x5
    f3c8:	010e5e13          	srli	x28,x28,0x10
    f3cc:	03fa8333          	mul	x6,x21,x31
    f3d0:	0105d613          	srli	x12,x11,0x10
    f3d4:	02af0833          	mul	x16,x30,x10
    f3d8:	00680833          	add	x16,x16,x6
    f3dc:	01060633          	add	x12,x12,x16
    f3e0:	035f0833          	mul	x16,x30,x21
    f3e4:	00667663          	bgeu	x12,x6,f3f0 <__multf3+0x60c>
    f3e8:	00010337          	lui	x6,0x10
    f3ec:	00680833          	add	x16,x16,x6
    f3f0:	01061b13          	slli	x22,x12,0x10
    f3f4:	01065613          	srli	x12,x12,0x10
    f3f8:	01060633          	add	x12,x12,x16
    f3fc:	01059593          	slli	x11,x11,0x10
    f400:	0105d593          	srli	x11,x11,0x10
    f404:	00bb0b33          	add	x22,x22,x11
    f408:	02a90833          	mul	x16,x18,x10
    f40c:	032a84b3          	mul	x9,x21,x18
    f410:	01085593          	srli	x11,x16,0x10
    f414:	02aa0333          	mul	x6,x20,x10
    f418:	00930333          	add	x6,x6,x9
    f41c:	006585b3          	add	x11,x11,x6
    f420:	035a0333          	mul	x6,x20,x21
    f424:	0095f663          	bgeu	x11,x9,f430 <__multf3+0x64c>
    f428:	000104b7          	lui	x9,0x10
    f42c:	00930333          	add	x6,x6,x9
    f430:	03812483          	lw	x9,56(x2)
    f434:	01059993          	slli	x19,x11,0x10
    f438:	01081813          	slli	x16,x16,0x10
    f43c:	0104dc13          	srli	x24,x9,0x10
    f440:	0105d593          	srli	x11,x11,0x10
    f444:	01049493          	slli	x9,x9,0x10
    f448:	006585b3          	add	x11,x11,x6
    f44c:	01085813          	srli	x16,x16,0x10
    f450:	0104d493          	srli	x9,x9,0x10
    f454:	02d48cb3          	mul	x25,x9,x13
    f458:	01098db3          	add	x27,x19,x16
    f45c:	00b12c23          	sw	x11,24(x2)
    f460:	01812623          	sw	x24,12(x2)
    f464:	029e85b3          	mul	x11,x29,x9
    f468:	010cd313          	srli	x6,x25,0x10
    f46c:	02dc0833          	mul	x16,x24,x13
    f470:	00b80833          	add	x16,x16,x11
    f474:	01030333          	add	x6,x6,x16
    f478:	038e8d33          	mul	x26,x29,x24
    f47c:	00b37663          	bgeu	x6,x11,f488 <__multf3+0x6a4>
    f480:	000105b7          	lui	x11,0x10
    f484:	00bd0d33          	add	x26,x26,x11
    f488:	02812803          	lw	x16,40(x2)
    f48c:	010c9c93          	slli	x25,x25,0x10
    f490:	010cdc93          	srli	x25,x25,0x10
    f494:	01085993          	srli	x19,x16,0x10
    f498:	01081813          	slli	x16,x16,0x10
    f49c:	01031593          	slli	x11,x6,0x10
    f4a0:	01085813          	srli	x16,x16,0x10
    f4a4:	01035313          	srli	x6,x6,0x10
    f4a8:	01a30333          	add	x6,x6,x26
    f4ac:	03f80c33          	mul	x24,x16,x31
    f4b0:	019585b3          	add	x11,x11,x25
    f4b4:	00612e23          	sw	x6,28(x2)
    f4b8:	03f98cb3          	mul	x25,x19,x31
    f4bc:	010c5313          	srli	x6,x24,0x10
    f4c0:	030f0d33          	mul	x26,x30,x16
    f4c4:	019d0d33          	add	x26,x26,x25
    f4c8:	01a30333          	add	x6,x6,x26
    f4cc:	033f0d33          	mul	x26,x30,x19
    f4d0:	01937663          	bgeu	x6,x25,f4dc <__multf3+0x6f8>
    f4d4:	00010cb7          	lui	x25,0x10
    f4d8:	019d0d33          	add	x26,x26,x25
    f4dc:	007888b3          	add	x17,x17,x7
    f4e0:	0058b2b3          	sltu	x5,x17,x5
    f4e4:	005e0e33          	add	x28,x28,x5
    f4e8:	017e0e33          	add	x28,x28,x23
    f4ec:	01688b33          	add	x22,x17,x22
    f4f0:	03c12383          	lw	x7,60(x2)
    f4f4:	00ce0633          	add	x12,x28,x12
    f4f8:	011b38b3          	sltu	x17,x22,x17
    f4fc:	011608b3          	add	x17,x12,x17
    f500:	005e32b3          	sltu	x5,x28,x5
    f504:	01612823          	sw	x22,16(x2)
    f508:	01c63e33          	sltu	x28,x12,x28
    f50c:	0103db13          	srli	x22,x7,0x10
    f510:	00c8b633          	sltu	x12,x17,x12
    f514:	01039393          	slli	x7,x7,0x10
    f518:	0103d393          	srli	x7,x7,0x10
    f51c:	00ce6633          	or	x12,x28,x12
    f520:	01b88e33          	add	x28,x17,x27
    f524:	01031d93          	slli	x27,x6,0x10
    f528:	01035313          	srli	x6,x6,0x10
    f52c:	02d38cb3          	mul	x25,x7,x13
    f530:	01a30333          	add	x6,x6,x26
    f534:	00560633          	add	x12,x12,x5
    f538:	01812283          	lw	x5,24(x2)
    f53c:	01c12b83          	lw	x23,28(x2)
    f540:	011e38b3          	sltu	x17,x28,x17
    f544:	005602b3          	add	x5,x12,x5
    f548:	010c1c13          	slli	x24,x24,0x10
    f54c:	00be05b3          	add	x11,x28,x11
    f550:	011288b3          	add	x17,x5,x17
    f554:	02db06b3          	mul	x13,x22,x13
    f558:	010c5c13          	srli	x24,x24,0x10
    f55c:	01788bb3          	add	x23,x17,x23
    f560:	01c5be33          	sltu	x28,x11,x28
    f564:	018d8c33          	add	x24,x27,x24
    f568:	01858db3          	add	x27,x11,x24
    f56c:	01cb8e33          	add	x28,x23,x28
    f570:	00c2b633          	sltu	x12,x5,x12
    f574:	0058b2b3          	sltu	x5,x17,x5
    f578:	006e0333          	add	x6,x28,x6
    f57c:	027e8d33          	mul	x26,x29,x7
    f580:	00bdb5b3          	sltu	x11,x27,x11
    f584:	005662b3          	or	x5,x12,x5
    f588:	01012603          	lw	x12,16(x2)
    f58c:	011bb8b3          	sltu	x17,x23,x17
    f590:	00b30c33          	add	x24,x6,x11
    f594:	017e3bb3          	sltu	x23,x28,x23
    f598:	0178ebb3          	or	x23,x17,x23
    f59c:	01c33e33          	sltu	x28,x6,x28
    f5a0:	006c3333          	sltu	x6,x24,x6
    f5a4:	01a685b3          	add	x11,x13,x26
    f5a8:	010cd693          	srli	x13,x25,0x10
    f5ac:	01b12e23          	sw	x27,28(x2)
    f5b0:	017282b3          	add	x5,x5,x23
    f5b4:	006e6e33          	or	x28,x28,x6
    f5b8:	05b12c23          	sw	x27,88(x2)
    f5bc:	00b685b3          	add	x11,x13,x11
    f5c0:	04c12a23          	sw	x12,84(x2)
    f5c4:	036e86b3          	mul	x13,x29,x22
    f5c8:	005e0db3          	add	x27,x28,x5
    f5cc:	01a5f663          	bgeu	x11,x26,f5d8 <__multf3+0x7f4>
    f5d0:	00010637          	lui	x12,0x10
    f5d4:	00c686b3          	add	x13,x13,x12
    f5d8:	02c12e83          	lw	x29,44(x2)
    f5dc:	01059893          	slli	x17,x11,0x10
    f5e0:	0105d593          	srli	x11,x11,0x10
    f5e4:	010edb93          	srli	x23,x29,0x10
    f5e8:	010e9e93          	slli	x29,x29,0x10
    f5ec:	010ede93          	srli	x29,x29,0x10
    f5f0:	03fe8633          	mul	x12,x29,x31
    f5f4:	00d585b3          	add	x11,x11,x13
    f5f8:	010c9c93          	slli	x25,x25,0x10
    f5fc:	010cdc93          	srli	x25,x25,0x10
    f600:	019888b3          	add	x17,x17,x25
    f604:	03df06b3          	mul	x13,x30,x29
    f608:	01065313          	srli	x6,x12,0x10
    f60c:	03fb8fb3          	mul	x31,x23,x31
    f610:	01f686b3          	add	x13,x13,x31
    f614:	00d30333          	add	x6,x6,x13
    f618:	037f0f33          	mul	x30,x30,x23
    f61c:	01f37663          	bgeu	x6,x31,f628 <__multf3+0x844>
    f620:	000106b7          	lui	x13,0x10
    f624:	00df0f33          	add	x30,x30,x13
    f628:	00c12f83          	lw	x31,12(x2)
    f62c:	01061613          	slli	x12,x12,0x10
    f630:	01065613          	srli	x12,x12,0x10
    f634:	01031693          	slli	x13,x6,0x10
    f638:	01035313          	srli	x6,x6,0x10
    f63c:	00c686b3          	add	x13,x13,x12
    f640:	01e30633          	add	x12,x6,x30
    f644:	00c12c23          	sw	x12,24(x2)
    f648:	02950333          	mul	x6,x10,x9
    f64c:	029a8633          	mul	x12,x21,x9
    f650:	01035e13          	srli	x28,x6,0x10
    f654:	02af8f33          	mul	x30,x31,x10
    f658:	00cf0f33          	add	x30,x30,x12
    f65c:	01ee0e33          	add	x28,x28,x30
    f660:	03fa8f33          	mul	x30,x21,x31
    f664:	00ce7663          	bgeu	x28,x12,f670 <__multf3+0x88c>
    f668:	00010637          	lui	x12,0x10
    f66c:	00cf0f33          	add	x30,x30,x12
    f670:	01031313          	slli	x6,x6,0x10
    f674:	01035313          	srli	x6,x6,0x10
    f678:	010e1613          	slli	x12,x28,0x10
    f67c:	00660633          	add	x12,x12,x6
    f680:	010e5e13          	srli	x28,x28,0x10
    f684:	01ee0e33          	add	x28,x28,x30
    f688:	03090d33          	mul	x26,x18,x16
    f68c:	03298fb3          	mul	x31,x19,x18
    f690:	010d5f13          	srli	x30,x26,0x10
    f694:	030a0333          	mul	x6,x20,x16
    f698:	01f30333          	add	x6,x6,x31
    f69c:	006f0f33          	add	x30,x30,x6
    f6a0:	033a0333          	mul	x6,x20,x19
    f6a4:	01ff7663          	bgeu	x30,x31,f6b0 <__multf3+0x8cc>
    f6a8:	00010fb7          	lui	x31,0x10
    f6ac:	01f30333          	add	x6,x6,x31
    f6b0:	011c0fb3          	add	x31,x24,x17
    f6b4:	01812883          	lw	x17,24(x2)
    f6b8:	018fb2b3          	sltu	x5,x31,x24
    f6bc:	00bd85b3          	add	x11,x27,x11
    f6c0:	005582b3          	add	x5,x11,x5
    f6c4:	01128c33          	add	x24,x5,x17
    f6c8:	010f1893          	slli	x17,x30,0x10
    f6cc:	010f5f13          	srli	x30,x30,0x10
    f6d0:	006f0f33          	add	x30,x30,x6
    f6d4:	00c12303          	lw	x6,12(x2)
    f6d8:	010d1d13          	slli	x26,x26,0x10
    f6dc:	010d5d13          	srli	x26,x26,0x10
    f6e0:	00df86b3          	add	x13,x31,x13
    f6e4:	01a888b3          	add	x17,x17,x26
    f6e8:	03048cb3          	mul	x25,x9,x16
    f6ec:	01f6bfb3          	sltu	x31,x13,x31
    f6f0:	01fc0fb3          	add	x31,x24,x31
    f6f4:	00c68633          	add	x12,x13,x12
    f6f8:	01cf8e33          	add	x28,x31,x28
    f6fc:	00d636b3          	sltu	x13,x12,x13
    f700:	00de06b3          	add	x13,x28,x13
    f704:	011608b3          	add	x17,x12,x17
    f708:	01e68f33          	add	x30,x13,x30
    f70c:	01b5bdb3          	sltu	x27,x11,x27
    f710:	02998d33          	mul	x26,x19,x9
    f714:	00b2b5b3          	sltu	x11,x5,x11
    f718:	00c8b633          	sltu	x12,x17,x12
    f71c:	005c32b3          	sltu	x5,x24,x5
    f720:	018fbc33          	sltu	x24,x31,x24
    f724:	0182ec33          	or	x24,x5,x24
    f728:	01fe3fb3          	sltu	x31,x28,x31
    f72c:	00bde5b3          	or	x11,x27,x11
    f730:	01c6be33          	sltu	x28,x13,x28
    f734:	00cf0633          	add	x12,x30,x12
    f738:	03030333          	mul	x6,x6,x16
    f73c:	01cfee33          	or	x28,x31,x28
    f740:	00df36b3          	sltu	x13,x30,x13
    f744:	018585b3          	add	x11,x11,x24
    f748:	01e63f33          	sltu	x30,x12,x30
    f74c:	00be05b3          	add	x11,x28,x11
    f750:	01e6e6b3          	or	x13,x13,x30
    f754:	00b686b3          	add	x13,x13,x11
    f758:	00c12583          	lw	x11,12(x2)
    f75c:	010cdf93          	srli	x31,x25,0x10
    f760:	01a30333          	add	x6,x6,x26
    f764:	05112e23          	sw	x17,92(x2)
    f768:	006f8333          	add	x6,x31,x6
    f76c:	033585b3          	mul	x11,x11,x19
    f770:	00088f13          	addi	x30,x17,0
    f774:	01a37663          	bgeu	x6,x26,f780 <__multf3+0x99c>
    f778:	00010e37          	lui	x28,0x10
    f77c:	01c585b3          	add	x11,x11,x28
    f780:	01031e13          	slli	x28,x6,0x10
    f784:	01035313          	srli	x6,x6,0x10
    f788:	00b30333          	add	x6,x6,x11
    f78c:	010c9c93          	slli	x25,x25,0x10
    f790:	010cdc93          	srli	x25,x25,0x10
    f794:	02a385b3          	mul	x11,x7,x10
    f798:	019e0e33          	add	x28,x28,x25
    f79c:	027a8fb3          	mul	x31,x21,x7
    f7a0:	0105d293          	srli	x5,x11,0x10
    f7a4:	02ab0533          	mul	x10,x22,x10
    f7a8:	01f50533          	add	x10,x10,x31
    f7ac:	00a28533          	add	x10,x5,x10
    f7b0:	036a8ab3          	mul	x21,x21,x22
    f7b4:	01f57663          	bgeu	x10,x31,f7c0 <__multf3+0x9dc>
    f7b8:	00010fb7          	lui	x31,0x10
    f7bc:	01fa8ab3          	add	x21,x21,x31
    f7c0:	01059593          	slli	x11,x11,0x10
    f7c4:	0105d593          	srli	x11,x11,0x10
    f7c8:	01051f93          	slli	x31,x10,0x10
    f7cc:	01055513          	srli	x10,x10,0x10
    f7d0:	00bf8fb3          	add	x31,x31,x11
    f7d4:	01550533          	add	x10,x10,x21
    f7d8:	032e85b3          	mul	x11,x29,x18
    f7dc:	03da0ab3          	mul	x21,x20,x29
    f7e0:	0105d293          	srli	x5,x11,0x10
    f7e4:	032b8933          	mul	x18,x23,x18
    f7e8:	012a8ab3          	add	x21,x21,x18
    f7ec:	015282b3          	add	x5,x5,x21
    f7f0:	037a0a33          	mul	x20,x20,x23
    f7f4:	0122f663          	bgeu	x5,x18,f800 <__multf3+0xa1c>
    f7f8:	00010937          	lui	x18,0x10
    f7fc:	012a0a33          	add	x20,x20,x18
    f800:	01059593          	slli	x11,x11,0x10
    f804:	0105d593          	srli	x11,x11,0x10
    f808:	01029913          	slli	x18,x5,0x10
    f80c:	0102d293          	srli	x5,x5,0x10
    f810:	00b90933          	add	x18,x18,x11
    f814:	014282b3          	add	x5,x5,x20
    f818:	030385b3          	mul	x11,x7,x16
    f81c:	02798a33          	mul	x20,x19,x7
    f820:	0105da93          	srli	x21,x11,0x10
    f824:	030b0833          	mul	x16,x22,x16
    f828:	01480833          	add	x16,x16,x20
    f82c:	010a8833          	add	x16,x21,x16
    f830:	036989b3          	mul	x19,x19,x22
    f834:	01487663          	bgeu	x16,x20,f840 <__multf3+0xa5c>
    f838:	00010a37          	lui	x20,0x10
    f83c:	014989b3          	add	x19,x19,x20
    f840:	00c12c03          	lw	x24,12(x2)
    f844:	01059593          	slli	x11,x11,0x10
    f848:	01081a13          	slli	x20,x16,0x10
    f84c:	0105d593          	srli	x11,x11,0x10
    f850:	01085813          	srli	x16,x16,0x10
    f854:	00ba05b3          	add	x11,x20,x11
    f858:	01380833          	add	x16,x16,x19
    f85c:	029e8a33          	mul	x20,x29,x9
    f860:	03dc09b3          	mul	x19,x24,x29
    f864:	010a5a93          	srli	x21,x20,0x10
    f868:	029b84b3          	mul	x9,x23,x9
    f86c:	009989b3          	add	x19,x19,x9
    f870:	013a89b3          	add	x19,x21,x19
    f874:	037c0ab3          	mul	x21,x24,x23
    f878:	0099f663          	bgeu	x19,x9,f884 <__multf3+0xaa0>
    f87c:	000104b7          	lui	x9,0x10
    f880:	009a8ab3          	add	x21,x21,x9
    f884:	01c60e33          	add	x28,x12,x28
    f888:	00668333          	add	x6,x13,x6
    f88c:	00ce3633          	sltu	x12,x28,x12
    f890:	01fe0fb3          	add	x31,x28,x31
    f894:	00c30633          	add	x12,x6,x12
    f898:	00a60533          	add	x10,x12,x10
    f89c:	03d384b3          	mul	x9,x7,x29
    f8a0:	01cfbe33          	sltu	x28,x31,x28
    f8a4:	01c50e33          	add	x28,x10,x28
    f8a8:	012f8933          	add	x18,x31,x18
    f8ac:	005e02b3          	add	x5,x28,x5
    f8b0:	01f93fb3          	sltu	x31,x18,x31
    f8b4:	01f28fb3          	add	x31,x5,x31
    f8b8:	00d336b3          	sltu	x13,x6,x13
    f8bc:	00663333          	sltu	x6,x12,x6
    f8c0:	00c53633          	sltu	x12,x10,x12
    f8c4:	027b83b3          	mul	x7,x23,x7
    f8c8:	00ae3533          	sltu	x10,x28,x10
    f8cc:	00a66633          	or	x12,x12,x10
    f8d0:	01c2be33          	sltu	x28,x5,x28
    f8d4:	0066e6b3          	or	x13,x13,x6
    f8d8:	005fb2b3          	sltu	x5,x31,x5
    f8dc:	00c686b3          	add	x13,x13,x12
    f8e0:	005e6e33          	or	x28,x28,x5
    f8e4:	010a1a13          	slli	x20,x20,0x10
    f8e8:	00bf85b3          	add	x11,x31,x11
    f8ec:	03db0eb3          	mul	x29,x22,x29
    f8f0:	00de0533          	add	x10,x28,x13
    f8f4:	01099313          	slli	x6,x19,0x10
    f8f8:	010a5a13          	srli	x20,x20,0x10
    f8fc:	01050833          	add	x16,x10,x16
    f900:	01f5b6b3          	sltu	x13,x11,x31
    f904:	01430333          	add	x6,x6,x20
    f908:	0109d993          	srli	x19,x19,0x10
    f90c:	00d806b3          	add	x13,x16,x13
    f910:	00658333          	add	x6,x11,x6
    f914:	015989b3          	add	x19,x19,x21
    f918:	013689b3          	add	x19,x13,x19
    f91c:	00b335b3          	sltu	x11,x6,x11
    f920:	00b985b3          	add	x11,x19,x11
    f924:	007e8eb3          	add	x29,x29,x7
    f928:	0104d613          	srli	x12,x9,0x10
    f92c:	00a83533          	sltu	x10,x16,x10
    f930:	07212023          	sw	x18,96(x2)
    f934:	0106b833          	sltu	x16,x13,x16
    f938:	06612223          	sw	x6,100(x2)
    f93c:	00d9b6b3          	sltu	x13,x19,x13
    f940:	01d60633          	add	x12,x12,x29
    f944:	0135b9b3          	sltu	x19,x11,x19
    f948:	037b0bb3          	mul	x23,x22,x23
    f94c:	01056833          	or	x16,x10,x16
    f950:	0136e6b3          	or	x13,x13,x19
    f954:	00767663          	bgeu	x12,x7,f960 <__multf3+0xb7c>
    f958:	00010537          	lui	x10,0x10
    f95c:	00ab8bb3          	add	x23,x23,x10
    f960:	01049493          	slli	x9,x9,0x10
    f964:	01061513          	slli	x10,x12,0x10
    f968:	0104d493          	srli	x9,x9,0x10
    f96c:	00950533          	add	x10,x10,x9
    f970:	01065613          	srli	x12,x12,0x10
    f974:	00a58533          	add	x10,x11,x10
    f978:	01060633          	add	x12,x12,x16
    f97c:	00c686b3          	add	x13,x13,x12
    f980:	00b535b3          	sltu	x11,x10,x11
    f984:	01412603          	lw	x12,20(x2)
    f988:	01012803          	lw	x16,16(x2)
    f98c:	00d585b3          	add	x11,x11,x13
    f990:	01c12683          	lw	x13,28(x2)
    f994:	01066633          	or	x12,x12,x16
    f998:	00d89893          	slli	x17,x17,0xd
    f99c:	00c6e6b3          	or	x13,x13,x12
    f9a0:	017585b3          	add	x11,x11,x23
    f9a4:	00d8e8b3          	or	x17,x17,x13
    f9a8:	06a12423          	sw	x10,104(x2)
    f9ac:	06b12623          	sw	x11,108(x2)
    f9b0:	05010693          	addi	x13,x2,80
    f9b4:	06010513          	addi	x10,x2,96
    f9b8:	013f5593          	srli	x11,x30,0x13
    f9bc:	0106af03          	lw	x30,16(x13) # 10010 <__subtf3+0xe8>
    f9c0:	00468693          	addi	x13,x13,4
    f9c4:	00df1613          	slli	x12,x30,0xd
    f9c8:	00b66633          	or	x12,x12,x11
    f9cc:	fec6ae23          	sw	x12,-4(x13)
    f9d0:	fed514e3          	bne	x10,x13,f9b8 <__multf3+0xbd4>
    f9d4:	05012803          	lw	x16,80(x2)
    f9d8:	05c12583          	lw	x11,92(x2)
    f9dc:	05412603          	lw	x12,84(x2)
    f9e0:	05812503          	lw	x10,88(x2)
    f9e4:	011036b3          	sltu	x13,x0,x17
    f9e8:	0106e6b3          	or	x13,x13,x16
    f9ec:	04c12223          	sw	x12,68(x2)
    f9f0:	04d12023          	sw	x13,64(x2)
    f9f4:	04b12623          	sw	x11,76(x2)
    f9f8:	04a12423          	sw	x10,72(x2)
    f9fc:	00b59613          	slli	x12,x11,0xb
    fa00:	36065a63          	bge	x12,x0,fd74 <__multf3+0xf90>
    fa04:	01f69513          	slli	x10,x13,0x1f
    fa08:	04010793          	addi	x15,x2,64
    fa0c:	04c10813          	addi	x16,x2,76
    fa10:	0016d893          	srli	x17,x13,0x1
    fa14:	0047a683          	lw	x13,4(x15)
    fa18:	00478793          	addi	x15,x15,4
    fa1c:	01f69613          	slli	x12,x13,0x1f
    fa20:	01166633          	or	x12,x12,x17
    fa24:	fec7ae23          	sw	x12,-4(x15)
    fa28:	ff0794e3          	bne	x15,x16,fa10 <__multf3+0xc2c>
    fa2c:	04012683          	lw	x13,64(x2)
    fa30:	01f55793          	srli	x15,x10,0x1f
    fa34:	0015d593          	srli	x11,x11,0x1
    fa38:	00f6e6b3          	or	x13,x13,x15
    fa3c:	08412c83          	lw	x25,132(x2)
    fa40:	00812783          	lw	x15,8(x2)
    fa44:	08012d03          	lw	x26,128(x2)
    fa48:	07c12d83          	lw	x27,124(x2)
    fa4c:	04b12623          	sw	x11,76(x2)
    fa50:	04d12023          	sw	x13,64(x2)
    fa54:	0080006f          	jal	x0,fa5c <__multf3+0xc78>
    fa58:	00812783          	lw	x15,8(x2)
    fa5c:	00004637          	lui	x12,0x4
    fa60:	fff60613          	addi	x12,x12,-1 # 3fff <_vfprintf_r+0x10ff>
    fa64:	00c78633          	add	x12,x15,x12
    fa68:	10c05463          	bge	x0,x12,fb70 <__multf3+0xd8c>
    fa6c:	04012583          	lw	x11,64(x2)
    fa70:	04c12683          	lw	x13,76(x2)
    fa74:	0075f513          	andi	x10,x11,7
    fa78:	04050263          	beq	x10,x0,fabc <__multf3+0xcd8>
    fa7c:	00f5f513          	andi	x10,x11,15
    fa80:	00400813          	addi	x16,x0,4
    fa84:	03050c63          	beq	x10,x16,fabc <__multf3+0xcd8>
    fa88:	04412803          	lw	x16,68(x2)
    fa8c:	00458593          	addi	x11,x11,4 # 10004 <__subtf3+0xdc>
    fa90:	04812883          	lw	x17,72(x2)
    fa94:	0045b513          	sltiu	x10,x11,4
    fa98:	01050833          	add	x16,x10,x16
    fa9c:	00a83533          	sltu	x10,x16,x10
    faa0:	00a88533          	add	x10,x17,x10
    faa4:	011538b3          	sltu	x17,x10,x17
    faa8:	011686b3          	add	x13,x13,x17
    faac:	04b12023          	sw	x11,64(x2)
    fab0:	05012223          	sw	x16,68(x2)
    fab4:	04d12623          	sw	x13,76(x2)
    fab8:	04a12423          	sw	x10,72(x2)
    fabc:	00b69593          	slli	x11,x13,0xb
    fac0:	0005de63          	bge	x11,x0,fadc <__multf3+0xcf8>
    fac4:	fff00637          	lui	x12,0xfff00
    fac8:	fff60613          	addi	x12,x12,-1 # ffefffff <__heap_end+0xffafffff>
    facc:	00c6f6b3          	and	x13,x13,x12
    fad0:	00004637          	lui	x12,0x4
    fad4:	04d12623          	sw	x13,76(x2)
    fad8:	00c78633          	add	x12,x15,x12
    fadc:	04012503          	lw	x10,64(x2)
    fae0:	04010793          	addi	x15,x2,64
    fae4:	04c10893          	addi	x17,x2,76
    fae8:	00355813          	srli	x16,x10,0x3
    faec:	0047a503          	lw	x10,4(x15)
    faf0:	00478793          	addi	x15,x15,4
    faf4:	01d51593          	slli	x11,x10,0x1d
    faf8:	0105e5b3          	or	x11,x11,x16
    fafc:	feb7ae23          	sw	x11,-4(x15)
    fb00:	ff1794e3          	bne	x15,x17,fae8 <__multf3+0xd04>
    fb04:	000085b7          	lui	x11,0x8
    fb08:	000087b7          	lui	x15,0x8
    fb0c:	ffe58593          	addi	x11,x11,-2 # 7ffe <__gdtoa+0x84a>
    fb10:	fff78793          	addi	x15,x15,-1 # 7fff <__gdtoa+0x84b>
    fb14:	d8c5cc63          	blt	x11,x12,f0ac <__multf3+0x2c8>
    fb18:	00f677b3          	and	x15,x12,x15
    fb1c:	0036d693          	srli	x13,x13,0x3
    fb20:	01079793          	slli	x15,x15,0x10
    fb24:	01069693          	slli	x13,x13,0x10
    fb28:	04012503          	lw	x10,64(x2)
    fb2c:	04412583          	lw	x11,68(x2)
    fb30:	04812603          	lw	x12,72(x2)
    fb34:	0107d793          	srli	x15,x15,0x10
    fb38:	0106d693          	srli	x13,x13,0x10
    fb3c:	c70ff06f          	jal	x0,efac <__multf3+0x1c8>
    fb40:	00f00793          	addi	x15,x0,15
    fb44:	00300613          	addi	x12,x0,3
    fb48:	c4fb0663          	beq	x22,x15,ef94 <__multf3+0x1b0>
    fb4c:	03412583          	lw	x11,52(x2)
    fb50:	03812683          	lw	x13,56(x2)
    fb54:	03012703          	lw	x14,48(x2)
    fb58:	03c12783          	lw	x15,60(x2)
    fb5c:	00090813          	addi	x16,x18,0 # 10000 <__subtf3+0xd8>
    fb60:	04b12223          	sw	x11,68(x2)
    fb64:	04d12423          	sw	x13,72(x2)
    fb68:	04e12023          	sw	x14,64(x2)
    fb6c:	d1cff06f          	jal	x0,f088 <__multf3+0x2a4>
    fb70:	20061a63          	bne	x12,x0,fd84 <__multf3+0xfa0>
    fb74:	04012783          	lw	x15,64(x2)
    fb78:	04c12303          	lw	x6,76(x2)
    fb7c:	00300693          	addi	x13,x0,3
    fb80:	01f79793          	slli	x15,x15,0x1f
    fb84:	00135313          	srli	x6,x6,0x1
    fb88:	01f00e13          	addi	x28,x0,31
    fb8c:	00100513          	addi	x10,x0,1
    fb90:	04010593          	addi	x11,x2,64
    fb94:	00261613          	slli	x12,x12,0x2
    fb98:	00269f13          	slli	x30,x13,0x2
    fb9c:	00c58833          	add	x16,x11,x12
    fba0:	01e58eb3          	add	x29,x11,x30
    fba4:	00058893          	addi	x17,x11,0
    fba8:	00082603          	lw	x12,0(x16)
    fbac:	00482f83          	lw	x31,4(x16)
    fbb0:	00488893          	addi	x17,x17,4
    fbb4:	00a65633          	srl	x12,x12,x10
    fbb8:	01cf9fb3          	sll	x31,x31,x28
    fbbc:	01f66633          	or	x12,x12,x31
    fbc0:	fec8ae23          	sw	x12,-4(x17)
    fbc4:	00480813          	addi	x16,x16,4
    fbc8:	ffd890e3          	bne	x17,x29,fba8 <__multf3+0xdc4>
    fbcc:	00bf0f33          	add	x30,x30,x11
    fbd0:	006f2023          	sw	x6,0(x30)
    fbd4:	00168693          	addi	x13,x13,1
    fbd8:	00400613          	addi	x12,x0,4
    fbdc:	04012303          	lw	x6,64(x2)
    fbe0:	02c68e63          	beq	x13,x12,fc1c <__multf3+0xe38>
    fbe4:	00400613          	addi	x12,x0,4
    fbe8:	40d60633          	sub	x12,x12,x13
    fbec:	00261613          	slli	x12,x12,0x2
    fbf0:	00269693          	slli	x13,x13,0x2
    fbf4:	00800513          	addi	x10,x0,8
    fbf8:	00d586b3          	add	x13,x11,x13
    fbfc:	00a66a63          	bltu	x12,x10,fc10 <__multf3+0xe2c>
    fc00:	0006a023          	sw	x0,0(x13)
    fc04:	0006a223          	sw	x0,4(x13)
    fc08:	ff860613          	addi	x12,x12,-8 # 3ff8 <_vfprintf_r+0x10f8>
    fc0c:	00a686b3          	add	x13,x13,x10
    fc10:	00400513          	addi	x10,x0,4
    fc14:	00a66463          	bltu	x12,x10,fc1c <__multf3+0xe38>
    fc18:	0006a023          	sw	x0,0(x13)
    fc1c:	00f037b3          	sltu	x15,x0,x15
    fc20:	0067e7b3          	or	x15,x15,x6
    fc24:	04f12023          	sw	x15,64(x2)
    fc28:	0077f613          	andi	x12,x15,7
    fc2c:	04c12683          	lw	x13,76(x2)
    fc30:	04060263          	beq	x12,x0,fc74 <__multf3+0xe90>
    fc34:	00f7f613          	andi	x12,x15,15
    fc38:	00400513          	addi	x10,x0,4
    fc3c:	02a60c63          	beq	x12,x10,fc74 <__multf3+0xe90>
    fc40:	04412603          	lw	x12,68(x2)
    fc44:	00a787b3          	add	x15,x15,x10
    fc48:	04812803          	lw	x16,72(x2)
    fc4c:	0047b513          	sltiu	x10,x15,4
    fc50:	00a60533          	add	x10,x12,x10
    fc54:	00c53633          	sltu	x12,x10,x12
    fc58:	00c80633          	add	x12,x16,x12
    fc5c:	01063833          	sltu	x16,x12,x16
    fc60:	010686b3          	add	x13,x13,x16
    fc64:	04f12023          	sw	x15,64(x2)
    fc68:	04a12223          	sw	x10,68(x2)
    fc6c:	04d12623          	sw	x13,76(x2)
    fc70:	04c12423          	sw	x12,72(x2)
    fc74:	00c69793          	slli	x15,x13,0xc
    fc78:	1a07c863          	blt	x15,x0,fe28 <__multf3+0x1044>
    fc7c:	04012503          	lw	x10,64(x2)
    fc80:	00058793          	addi	x15,x11,0
    fc84:	04c10813          	addi	x16,x2,76
    fc88:	00355593          	srli	x11,x10,0x3
    fc8c:	0047a503          	lw	x10,4(x15)
    fc90:	00478793          	addi	x15,x15,4
    fc94:	01d51613          	slli	x12,x10,0x1d
    fc98:	00b66633          	or	x12,x12,x11
    fc9c:	fec7ae23          	sw	x12,-4(x15)
    fca0:	ff0794e3          	bne	x15,x16,fc88 <__multf3+0xea4>
    fca4:	0036d693          	srli	x13,x13,0x3
    fca8:	01069693          	slli	x13,x13,0x10
    fcac:	04012503          	lw	x10,64(x2)
    fcb0:	04412583          	lw	x11,68(x2)
    fcb4:	04812603          	lw	x12,72(x2)
    fcb8:	0106d693          	srli	x13,x13,0x10
    fcbc:	00000793          	addi	x15,x0,0
    fcc0:	aecff06f          	jal	x0,efac <__multf3+0x1c8>
    fcc4:	140b9a63          	bne	x23,x0,fe18 <__multf3+0x1034>
    fcc8:	1a098663          	beq	x19,x0,fe74 <__multf3+0x1090>
    fccc:	00098513          	addi	x10,x19,0
    fcd0:	6e9010ef          	jal	x1,11bb8 <__clzsi2>
    fcd4:	04050513          	addi	x10,x10,64 # 10040 <__subtf3+0x118>
    fcd8:	ff450613          	addi	x12,x10,-12
    fcdc:	01f67813          	andi	x16,x12,31
    fce0:	40565613          	srai	x12,x12,0x5
    fce4:	1a081c63          	bne	x16,x0,fe9c <__multf3+0x10b8>
    fce8:	40c00733          	sub	x14,x0,x12
    fcec:	00271713          	slli	x14,x14,0x2
    fcf0:	00c70793          	addi	x15,x14,12
    fcf4:	03010693          	addi	x13,x2,48
    fcf8:	40e00733          	sub	x14,x0,x14
    fcfc:	00f687b3          	add	x15,x13,x15
    fd00:	0007a883          	lw	x17,0(x15)
    fd04:	00e78833          	add	x16,x15,x14
    fd08:	00078593          	addi	x11,x15,0
    fd0c:	01182023          	sw	x17,0(x16)
    fd10:	ffc78793          	addi	x15,x15,-4
    fd14:	feb696e3          	bne	x13,x11,fd00 <__multf3+0xf1c>
    fd18:	c20ff06f          	jal	x0,f138 <__multf3+0x354>
    fd1c:	0e089663          	bne	x17,x0,fe08 <__multf3+0x1024>
    fd20:	12070063          	beq	x14,x0,fe40 <__multf3+0x105c>
    fd24:	00070513          	addi	x10,x14,0
    fd28:	691010ef          	jal	x1,11bb8 <__clzsi2>
    fd2c:	04050513          	addi	x10,x10,64
    fd30:	ff450613          	addi	x12,x10,-12
    fd34:	01f67e13          	andi	x28,x12,31
    fd38:	40565613          	srai	x12,x12,0x5
    fd3c:	1a0e1463          	bne	x28,x0,fee4 <__multf3+0x1100>
    fd40:	40c00733          	sub	x14,x0,x12
    fd44:	00271713          	slli	x14,x14,0x2
    fd48:	00c70793          	addi	x15,x14,12
    fd4c:	02010693          	addi	x13,x2,32
    fd50:	40e00733          	sub	x14,x0,x14
    fd54:	00f687b3          	add	x15,x13,x15
    fd58:	0007a883          	lw	x17,0(x15)
    fd5c:	00e78833          	add	x16,x15,x14
    fd60:	00078593          	addi	x11,x15,0
    fd64:	01182023          	sw	x17,0(x16)
    fd68:	ffc78793          	addi	x15,x15,-4
    fd6c:	feb696e3          	bne	x13,x11,fd58 <__multf3+0xf74>
    fd70:	cacff06f          	jal	x0,f21c <__multf3+0x438>
    fd74:	08412c83          	lw	x25,132(x2)
    fd78:	08012d03          	lw	x26,128(x2)
    fd7c:	07c12d83          	lw	x27,124(x2)
    fd80:	cddff06f          	jal	x0,fa5c <__multf3+0xc78>
    fd84:	00100793          	addi	x15,x0,1
    fd88:	40c787b3          	sub	x15,x15,x12
    fd8c:	07400693          	addi	x13,x0,116
    fd90:	b0f6cc63          	blt	x13,x15,f0a8 <__multf3+0x2c4>
    fd94:	01f7f513          	andi	x10,x15,31
    fd98:	02000e13          	addi	x28,x0,32
    fd9c:	4057d613          	srai	x12,x15,0x5
    fda0:	40ae0e33          	sub	x28,x28,x10
    fda4:	12060863          	beq	x12,x0,fed4 <__multf3+0x10f0>
    fda8:	04010593          	addi	x11,x2,64
    fdac:	00261893          	slli	x17,x12,0x2
    fdb0:	00058693          	addi	x13,x11,0
    fdb4:	00b888b3          	add	x17,x17,x11
    fdb8:	00000793          	addi	x15,x0,0
    fdbc:	0006a803          	lw	x16,0(x13)
    fdc0:	00468693          	addi	x13,x13,4
    fdc4:	0107e7b3          	or	x15,x15,x16
    fdc8:	ff169ae3          	bne	x13,x17,fdbc <__multf3+0xfd8>
    fdcc:	00060893          	addi	x17,x12,0
    fdd0:	00300693          	addi	x13,x0,3
    fdd4:	40c686b3          	sub	x13,x13,x12
    fdd8:	00058813          	addi	x16,x11,0
    fddc:	00261313          	slli	x6,x12,0x2
    fde0:	0c051663          	bne	x10,x0,feac <__multf3+0x10c8>
    fde4:	006808b3          	add	x17,x16,x6
    fde8:	0008a883          	lw	x17,0(x17)
    fdec:	00150513          	addi	x10,x10,1
    fdf0:	00480813          	addi	x16,x16,4
    fdf4:	ff182e23          	sw	x17,-4(x16)
    fdf8:	fea6d6e3          	bge	x13,x10,fde4 <__multf3+0x1000>
    fdfc:	00400693          	addi	x13,x0,4
    fe00:	40c686b3          	sub	x13,x13,x12
    fe04:	dd5ff06f          	jal	x0,fbd8 <__multf3+0xdf4>
    fe08:	00088513          	addi	x10,x17,0
    fe0c:	5ad010ef          	jal	x1,11bb8 <__clzsi2>
    fe10:	02050513          	addi	x10,x10,32
    fe14:	f1dff06f          	jal	x0,fd30 <__multf3+0xf4c>
    fe18:	000b8513          	addi	x10,x23,0
    fe1c:	59d010ef          	jal	x1,11bb8 <__clzsi2>
    fe20:	02050513          	addi	x10,x10,32
    fe24:	eb5ff06f          	jal	x0,fcd8 <__multf3+0xef4>
    fe28:	00100793          	addi	x15,x0,1
    fe2c:	00000693          	addi	x13,x0,0
    fe30:	00000613          	addi	x12,x0,0
    fe34:	00000593          	addi	x11,x0,0
    fe38:	00000513          	addi	x10,x0,0
    fe3c:	970ff06f          	jal	x0,efac <__multf3+0x1c8>
    fe40:	00048513          	addi	x10,x9,0 # 10000 <__subtf3+0xd8>
    fe44:	575010ef          	jal	x1,11bb8 <__clzsi2>
    fe48:	05450613          	addi	x12,x10,84
    fe4c:	01f67e13          	andi	x28,x12,31
    fe50:	40565613          	srai	x12,x12,0x5
    fe54:	040e0063          	beq	x28,x0,fe94 <__multf3+0x10b0>
    fe58:	00200793          	addi	x15,x0,2
    fe5c:	06050513          	addi	x10,x10,96
    fe60:	01c494b3          	sll	x9,x9,x28
    fe64:	08f61863          	bne	x12,x15,fef4 <__multf3+0x1110>
    fe68:	02000893          	addi	x17,x0,32
    fe6c:	41c888b3          	sub	x17,x17,x28
    fe70:	b60ff06f          	jal	x0,f1d0 <__multf3+0x3ec>
    fe74:	000a8513          	addi	x10,x21,0
    fe78:	541010ef          	jal	x1,11bb8 <__clzsi2>
    fe7c:	05450613          	addi	x12,x10,84
    fe80:	01f67813          	andi	x16,x12,31
    fe84:	40565613          	srai	x12,x12,0x5
    fe88:	06081c63          	bne	x16,x0,ff00 <__multf3+0x111c>
    fe8c:	06c00513          	addi	x10,x0,108
    fe90:	e59ff06f          	jal	x0,fce8 <__multf3+0xf04>
    fe94:	06c00513          	addi	x10,x0,108
    fe98:	ea9ff06f          	jal	x0,fd40 <__multf3+0xf5c>
    fe9c:	02000313          	addi	x6,x0,32
    fea0:	010a9ab3          	sll	x21,x21,x16
    fea4:	41030333          	sub	x6,x6,x16
    fea8:	a44ff06f          	jal	x0,f0ec <__multf3+0x308>
    feac:	00289813          	slli	x16,x17,0x2
    feb0:	00b80833          	add	x16,x16,x11
    feb4:	00082803          	lw	x16,0(x16)
    feb8:	04c12303          	lw	x6,76(x2)
    febc:	01c81833          	sll	x16,x16,x28
    fec0:	0107e7b3          	or	x15,x15,x16
    fec4:	00a35333          	srl	x6,x6,x10
    fec8:	cc0696e3          	bne	x13,x0,fb94 <__multf3+0xdb0>
    fecc:	00100693          	addi	x13,x0,1
    fed0:	d15ff06f          	jal	x0,fbe4 <__multf3+0xe00>
    fed4:	00000893          	addi	x17,x0,0
    fed8:	00000793          	addi	x15,x0,0
    fedc:	04010593          	addi	x11,x2,64
    fee0:	ef1ff06f          	jal	x0,fdd0 <__multf3+0xfec>
    fee4:	02000893          	addi	x17,x0,32
    fee8:	01c494b3          	sll	x9,x9,x28
    feec:	41c888b3          	sub	x17,x17,x28
    fef0:	ae0ff06f          	jal	x0,f1d0 <__multf3+0x3ec>
    fef4:	02912623          	sw	x9,44(x2)
    fef8:	02010693          	addi	x13,x2,32
    fefc:	b2cff06f          	jal	x0,f228 <__multf3+0x444>
    ff00:	00200793          	addi	x15,x0,2
    ff04:	06050513          	addi	x10,x10,96
    ff08:	010a9ab3          	sll	x21,x21,x16
    ff0c:	00f61863          	bne	x12,x15,ff1c <__multf3+0x1138>
    ff10:	02000313          	addi	x6,x0,32
    ff14:	41030333          	sub	x6,x6,x16
    ff18:	9d4ff06f          	jal	x0,f0ec <__multf3+0x308>
    ff1c:	03512e23          	sw	x21,60(x2)
    ff20:	03010693          	addi	x13,x2,48
    ff24:	a20ff06f          	jal	x0,f144 <__multf3+0x360>

0000ff28 <__subtf3>:
    ff28:	00c5a783          	lw	x15,12(x11)
    ff2c:	0085a703          	lw	x14,8(x11)
    ff30:	0005a803          	lw	x16,0(x11)
    ff34:	0045a883          	lw	x17,4(x11)
    ff38:	fa010113          	addi	x2,x2,-96
    ff3c:	01079693          	slli	x13,x15,0x10
    ff40:	00062303          	lw	x6,0(x12)
    ff44:	00462283          	lw	x5,4(x12)
    ff48:	00862e03          	lw	x28,8(x12)
    ff4c:	00c62583          	lw	x11,12(x12)
    ff50:	04812c23          	sw	x8,88(x2)
    ff54:	0106d693          	srli	x13,x13,0x10
    ff58:	00179413          	slli	x8,x15,0x1
    ff5c:	01f7de93          	srli	x29,x15,0x1f
    ff60:	04912a23          	sw	x9,84(x2)
    ff64:	05212823          	sw	x18,80(x2)
    ff68:	02e12c23          	sw	x14,56(x2)
    ff6c:	00e12c23          	sw	x14,24(x2)
    ff70:	04112e23          	sw	x1,92(x2)
    ff74:	00050913          	addi	x18,x10,0
    ff78:	02f12e23          	sw	x15,60(x2)
    ff7c:	00d12e23          	sw	x13,28(x2)
    ff80:	01145413          	srli	x8,x8,0x11
    ff84:	000e8493          	addi	x9,x29,0 # 10000 <__subtf3+0xd8>
    ff88:	03012823          	sw	x16,48(x2)
    ff8c:	01012823          	sw	x16,16(x2)
    ff90:	03112a23          	sw	x17,52(x2)
    ff94:	01112a23          	sw	x17,20(x2)
    ff98:	01010f13          	addi	x30,x2,16
    ff9c:	01c10713          	addi	x14,x2,28
    ffa0:	00369613          	slli	x12,x13,0x3
    ffa4:	ffc72683          	lw	x13,-4(x14)
    ffa8:	00070f93          	addi	x31,x14,0
    ffac:	ffc70713          	addi	x14,x14,-4
    ffb0:	01d6d793          	srli	x15,x13,0x1d
    ffb4:	00c7e7b3          	or	x15,x15,x12
    ffb8:	00f72223          	sw	x15,4(x14)
    ffbc:	feef12e3          	bne	x30,x14,ffa0 <__subtf3+0x78>
    ffc0:	01059613          	slli	x12,x11,0x10
    ffc4:	00159513          	slli	x10,x11,0x1
    ffc8:	00381893          	slli	x17,x16,0x3
    ffcc:	01065613          	srli	x12,x12,0x10
    ffd0:	02512a23          	sw	x5,52(x2)
    ffd4:	02b12e23          	sw	x11,60(x2)
    ffd8:	02512223          	sw	x5,36(x2)
    ffdc:	01112823          	sw	x17,16(x2)
    ffe0:	02612823          	sw	x6,48(x2)
    ffe4:	03c12c23          	sw	x28,56(x2)
    ffe8:	02612023          	sw	x6,32(x2)
    ffec:	03c12423          	sw	x28,40(x2)
    fff0:	02c12623          	sw	x12,44(x2)
    fff4:	01155513          	srli	x10,x10,0x11
    fff8:	01f5d593          	srli	x11,x11,0x1f
    fffc:	02010293          	addi	x5,x2,32
   10000:	02c10793          	addi	x15,x2,44
   10004:	00361813          	slli	x16,x12,0x3
   10008:	ffc7a603          	lw	x12,-4(x15)
   1000c:	ffc78793          	addi	x15,x15,-4
   10010:	01d65693          	srli	x13,x12,0x1d
   10014:	0106e6b3          	or	x13,x13,x16
   10018:	00d7a223          	sw	x13,4(x15)
   1001c:	fef294e3          	bne	x5,x15,10004 <__subtf3+0xdc>
   10020:	00331313          	slli	x6,x6,0x3
   10024:	00008637          	lui	x12,0x8
   10028:	02612023          	sw	x6,32(x2)
   1002c:	fff60613          	addi	x12,x12,-1 # 7fff <__gdtoa+0x84b>
   10030:	1cc50863          	beq	x10,x12,10200 <__subtf3+0x2d8>
   10034:	0015c593          	xori	x11,x11,1
   10038:	40a406b3          	sub	x13,x8,x10
   1003c:	0cbe8663          	beq	x29,x11,10108 <__subtf3+0x1e0>
   10040:	68d05ae3          	bge	x0,x13,10ed4 <__subtf3+0xfac>
   10044:	01412803          	lw	x16,20(x2)
   10048:	01812583          	lw	x11,24(x2)
   1004c:	01c12e03          	lw	x28,28(x2)
   10050:	2e050c63          	beq	x10,x0,10348 <__subtf3+0x420>
   10054:	74c402e3          	beq	x8,x12,10f98 <__subtf3+0x1070>
   10058:	02c12503          	lw	x10,44(x2)
   1005c:	00080637          	lui	x12,0x80
   10060:	07400713          	addi	x14,x0,116
   10064:	00c56533          	or	x10,x10,x12
   10068:	02a12623          	sw	x10,44(x2)
   1006c:	30d75863          	bge	x14,x13,1037c <__subtf3+0x454>
   10070:	00000513          	addi	x10,x0,0
   10074:	00000613          	addi	x12,x0,0
   10078:	00000793          	addi	x15,x0,0
   1007c:	00100713          	addi	x14,x0,1
   10080:	40f806b3          	sub	x13,x16,x15
   10084:	40e88733          	sub	x14,x17,x14
   10088:	00e8beb3          	sltu	x29,x17,x14
   1008c:	00d83333          	sltu	x6,x16,x13
   10090:	41d68eb3          	sub	x29,x13,x29
   10094:	00030693          	addi	x13,x6,0 # 10000 <__subtf3+0xd8>
   10098:	00e8f463          	bgeu	x17,x14,100a0 <__subtf3+0x178>
   1009c:	6d078a63          	beq	x15,x16,10770 <__subtf3+0x848>
   100a0:	40c587b3          	sub	x15,x11,x12
   100a4:	40d786b3          	sub	x13,x15,x13
   100a8:	00f5b7b3          	sltu	x15,x11,x15
   100ac:	6c031863          	bne	x6,x0,1077c <__subtf3+0x854>
   100b0:	00f507b3          	add	x15,x10,x15
   100b4:	40fe0e33          	sub	x28,x28,x15
   100b8:	03c12e23          	sw	x28,60(x2)
   100bc:	02d12c23          	sw	x13,56(x2)
   100c0:	03d12a23          	sw	x29,52(x2)
   100c4:	02e12823          	sw	x14,48(x2)
   100c8:	00ce1793          	slli	x15,x28,0xc
   100cc:	00080537          	lui	x10,0x80
   100d0:	4207d663          	bge	x15,x0,104fc <__subtf3+0x5d4>
   100d4:	fff50513          	addi	x10,x10,-1 # 7ffff <__heap_start+0x6ccbf>
   100d8:	00ae7533          	and	x10,x28,x10
   100dc:	02a12e23          	sw	x10,60(x2)
   100e0:	060512e3          	bne	x10,x0,10944 <__subtf3+0xa1c>
   100e4:	03812503          	lw	x10,56(x2)
   100e8:	7e050c63          	beq	x10,x0,108e0 <__subtf3+0x9b8>
   100ec:	2cd010ef          	jal	x1,11bb8 <__clzsi2>
   100f0:	01450613          	addi	x12,x10,20
   100f4:	01f67813          	andi	x16,x12,31
   100f8:	380810e3          	bne	x16,x0,10c78 <__subtf3+0xd50>
   100fc:	00100593          	addi	x11,x0,1
   10100:	02000613          	addi	x12,x0,32
   10104:	0090006f          	jal	x0,1090c <__subtf3+0x9e4>
   10108:	6ed050e3          	bge	x0,x13,10fe8 <__subtf3+0x10c0>
   1010c:	01412f83          	lw	x31,20(x2)
   10110:	01812f03          	lw	x30,24(x2)
   10114:	01c12e03          	lw	x28,28(x2)
   10118:	36051463          	bne	x10,x0,10480 <__subtf3+0x558>
   1011c:	02412583          	lw	x11,36(x2)
   10120:	02812383          	lw	x7,40(x2)
   10124:	02c12503          	lw	x10,44(x2)
   10128:	0075e733          	or	x14,x11,x7
   1012c:	00a76733          	or	x14,x14,x10
   10130:	00676733          	or	x14,x14,x6
   10134:	580702e3          	beq	x14,x0,10eb8 <__subtf3+0xf90>
   10138:	fff68713          	addi	x14,x13,-1
   1013c:	480708e3          	beq	x14,x0,10dcc <__subtf3+0xea4>
   10140:	56c68ce3          	beq	x13,x12,10eb8 <__subtf3+0xf90>
   10144:	07400693          	addi	x13,x0,116
   10148:	34e6ca63          	blt	x13,x14,1049c <__subtf3+0x574>
   1014c:	00070693          	addi	x13,x14,0
   10150:	4056d313          	srai	x6,x13,0x5
   10154:	01f6f693          	andi	x13,x13,31
   10158:	4a030ae3          	beq	x6,x0,10e0c <__subtf3+0xee4>
   1015c:	00231813          	slli	x16,x6,0x2
   10160:	00f803b3          	add	x7,x16,x15
   10164:	00078713          	addi	x14,x15,0
   10168:	00000613          	addi	x12,x0,0
   1016c:	00072583          	lw	x11,0(x14)
   10170:	00470713          	addi	x14,x14,4
   10174:	00b66633          	or	x12,x12,x11
   10178:	fe771ae3          	bne	x14,x7,1016c <__subtf3+0x244>
   1017c:	00300713          	addi	x14,x0,3
   10180:	40670733          	sub	x14,x14,x6
   10184:	1c0686e3          	beq	x13,x0,10b50 <__subtf3+0xc28>
   10188:	010285b3          	add	x11,x5,x16
   1018c:	0005a583          	lw	x11,0(x11)
   10190:	05312623          	sw	x19,76(x2)
   10194:	02000993          	addi	x19,x0,32
   10198:	40d989b3          	sub	x19,x19,x13
   1019c:	013595b3          	sll	x11,x11,x19
   101a0:	00d55533          	srl	x10,x10,x13
   101a4:	00b66633          	or	x12,x12,x11
   101a8:	00071463          	bne	x14,x0,101b0 <__subtf3+0x288>
   101ac:	3940106f          	jal	x0,11540 <__subtf3+0x1618>
   101b0:	05412423          	sw	x20,72(x2)
   101b4:	00271593          	slli	x11,x14,0x2
   101b8:	01028833          	add	x16,x5,x16
   101bc:	00f58a33          	add	x20,x11,x15
   101c0:	00082703          	lw	x14,0(x16)
   101c4:	00482383          	lw	x7,4(x16)
   101c8:	00478793          	addi	x15,x15,4
   101cc:	00d75733          	srl	x14,x14,x13
   101d0:	013393b3          	sll	x7,x7,x19
   101d4:	00776733          	or	x14,x14,x7
   101d8:	fee7ae23          	sw	x14,-4(x15)
   101dc:	00480813          	addi	x16,x16,4
   101e0:	ff4790e3          	bne	x15,x20,101c0 <__subtf3+0x298>
   101e4:	00b28733          	add	x14,x5,x11
   101e8:	00400793          	addi	x15,x0,4
   101ec:	04c12983          	lw	x19,76(x2)
   101f0:	04812a03          	lw	x20,72(x2)
   101f4:	00a72023          	sw	x10,0(x14)
   101f8:	406787b3          	sub	x15,x15,x6
   101fc:	1750006f          	jal	x0,10b70 <__subtf3+0xc48>
   10200:	02412803          	lw	x16,36(x2)
   10204:	02812603          	lw	x12,40(x2)
   10208:	02c12e03          	lw	x28,44(x2)
   1020c:	40a406b3          	sub	x13,x8,x10
   10210:	00c867b3          	or	x15,x16,x12
   10214:	01c7e7b3          	or	x15,x15,x28
   10218:	0067e7b3          	or	x15,x15,x6
   1021c:	20079263          	bne	x15,x0,10420 <__subtf3+0x4f8>
   10220:	0015c593          	xori	x11,x11,1
   10224:	00000e13          	addi	x28,x0,0
   10228:	00000613          	addi	x12,x0,0
   1022c:	1ebe8e63          	beq	x29,x11,10428 <__subtf3+0x500>
   10230:	44068a63          	beq	x13,x0,10684 <__subtf3+0x75c>
   10234:	408503b3          	sub	x7,x10,x8
   10238:	5a041a63          	bne	x8,x0,107ec <__subtf3+0x8c4>
   1023c:	01412483          	lw	x9,20(x2)
   10240:	01812803          	lw	x16,24(x2)
   10244:	01c12283          	lw	x5,28(x2)
   10248:	0104e6b3          	or	x13,x9,x16
   1024c:	0056e6b3          	or	x13,x13,x5
   10250:	0116e6b3          	or	x13,x13,x17
   10254:	34068ce3          	beq	x13,x0,10dac <__subtf3+0xe84>
   10258:	fff38e93          	addi	x29,x7,-1
   1025c:	660e88e3          	beq	x29,x0,110cc <__subtf3+0x11a4>
   10260:	000086b7          	lui	x13,0x8
   10264:	fff68693          	addi	x13,x13,-1 # 7fff <__gdtoa+0x84b>
   10268:	74d38ae3          	beq	x7,x13,111bc <__subtf3+0x1294>
   1026c:	07400693          	addi	x13,x0,116
   10270:	5bd6c063          	blt	x13,x29,10810 <__subtf3+0x8e8>
   10274:	01f00693          	addi	x13,x0,31
   10278:	01d6c463          	blt	x13,x29,10280 <__subtf3+0x358>
   1027c:	3bc0106f          	jal	x0,11638 <__subtf3+0x1710>
   10280:	405ed813          	srai	x16,x29,0x5
   10284:	000e8393          	addi	x7,x29,0
   10288:	00070e93          	addi	x29,x14,0
   1028c:	00000693          	addi	x13,x0,0
   10290:	00000893          	addi	x17,x0,0
   10294:	000ea403          	lw	x8,0(x29)
   10298:	00188893          	addi	x17,x17,1
   1029c:	004e8e93          	addi	x29,x29,4
   102a0:	0086e6b3          	or	x13,x13,x8
   102a4:	ff08c8e3          	blt	x17,x16,10294 <__subtf3+0x36c>
   102a8:	00080413          	addi	x8,x16,0
   102ac:	00300493          	addi	x9,x0,3
   102b0:	01f3fe93          	andi	x29,x7,31
   102b4:	408484b3          	sub	x9,x9,x8
   102b8:	580e94e3          	bne	x29,x0,11040 <__subtf3+0x1118>
   102bc:	00241893          	slli	x17,x8,0x2
   102c0:	01170833          	add	x16,x14,x17
   102c4:	00082803          	lw	x16,0(x16)
   102c8:	001e8e93          	addi	x29,x29,1
   102cc:	00470713          	addi	x14,x14,4
   102d0:	ff072e23          	sw	x16,-4(x14)
   102d4:	ffd4d6e3          	bge	x9,x29,102c0 <__subtf3+0x398>
   102d8:	00400713          	addi	x14,x0,4
   102dc:	40870733          	sub	x14,x14,x8
   102e0:	00300813          	addi	x16,x0,3
   102e4:	01012e83          	lw	x29,16(x2)
   102e8:	02e84e63          	blt	x16,x14,10324 <__subtf3+0x3fc>
   102ec:	00400813          	addi	x16,x0,4
   102f0:	40e80833          	sub	x16,x16,x14
   102f4:	00281813          	slli	x16,x16,0x2
   102f8:	00271713          	slli	x14,x14,0x2
   102fc:	00800893          	addi	x17,x0,8
   10300:	00ef0733          	add	x14,x30,x14
   10304:	01186a63          	bltu	x16,x17,10318 <__subtf3+0x3f0>
   10308:	00072023          	sw	x0,0(x14)
   1030c:	00072223          	sw	x0,4(x14)
   10310:	ff880813          	addi	x16,x16,-8
   10314:	01170733          	add	x14,x14,x17
   10318:	00400893          	addi	x17,x0,4
   1031c:	01186463          	bltu	x16,x17,10324 <__subtf3+0x3fc>
   10320:	00072023          	sw	x0,0(x14)
   10324:	01412883          	lw	x17,20(x2)
   10328:	01812803          	lw	x16,24(x2)
   1032c:	01c12283          	lw	x5,28(x2)
   10330:	00d03733          	sltu	x14,x0,x13
   10334:	01d76733          	or	x14,x14,x29
   10338:	41178f33          	sub	x30,x15,x17
   1033c:	41060fb3          	sub	x31,x12,x16
   10340:	405e0e33          	sub	x28,x28,x5
   10344:	4e00006f          	jal	x0,10824 <__subtf3+0x8fc>
   10348:	02412f83          	lw	x31,36(x2)
   1034c:	02812f03          	lw	x30,40(x2)
   10350:	02c12503          	lw	x10,44(x2)
   10354:	01efe733          	or	x14,x31,x30
   10358:	00a76733          	or	x14,x14,x10
   1035c:	00676733          	or	x14,x14,x6
   10360:	2a070463          	beq	x14,x0,10608 <__subtf3+0x6e0>
   10364:	fff68713          	addi	x14,x13,-1
   10368:	3e0708e3          	beq	x14,x0,10f58 <__subtf3+0x1030>
   1036c:	28c68e63          	beq	x13,x12,10608 <__subtf3+0x6e0>
   10370:	07400693          	addi	x13,x0,116
   10374:	cee6cee3          	blt	x13,x14,10070 <__subtf3+0x148>
   10378:	00070693          	addi	x13,x14,0
   1037c:	4056df93          	srai	x31,x13,0x5
   10380:	01f6f693          	andi	x13,x13,31
   10384:	780f88e3          	beq	x31,x0,11314 <__subtf3+0x13ec>
   10388:	002f9e93          	slli	x29,x31,0x2
   1038c:	00fe8f33          	add	x30,x29,x15
   10390:	00078713          	addi	x14,x15,0
   10394:	00000613          	addi	x12,x0,0
   10398:	00072303          	lw	x6,0(x14)
   1039c:	00470713          	addi	x14,x14,4
   103a0:	00666633          	or	x12,x12,x6
   103a4:	feef1ae3          	bne	x30,x14,10398 <__subtf3+0x470>
   103a8:	00300713          	addi	x14,x0,3
   103ac:	41f70733          	sub	x14,x14,x31
   103b0:	34068c63          	beq	x13,x0,10708 <__subtf3+0x7e0>
   103b4:	01d28333          	add	x6,x5,x29
   103b8:	00032303          	lw	x6,0(x6)
   103bc:	02000393          	addi	x7,x0,32
   103c0:	40d383b3          	sub	x7,x7,x13
   103c4:	00731333          	sll	x6,x6,x7
   103c8:	00d55533          	srl	x10,x10,x13
   103cc:	00666633          	or	x12,x12,x6
   103d0:	72070ee3          	beq	x14,x0,1130c <__subtf3+0x13e4>
   103d4:	05312623          	sw	x19,76(x2)
   103d8:	00271313          	slli	x6,x14,0x2
   103dc:	01d28eb3          	add	x29,x5,x29
   103e0:	00f309b3          	add	x19,x6,x15
   103e4:	000ea703          	lw	x14,0(x29)
   103e8:	004eaf03          	lw	x30,4(x29)
   103ec:	00478793          	addi	x15,x15,4
   103f0:	00d75733          	srl	x14,x14,x13
   103f4:	007f1f33          	sll	x30,x30,x7
   103f8:	01e76733          	or	x14,x14,x30
   103fc:	fee7ae23          	sw	x14,-4(x15)
   10400:	004e8e93          	addi	x29,x29,4
   10404:	fef990e3          	bne	x19,x15,103e4 <__subtf3+0x4bc>
   10408:	00628733          	add	x14,x5,x6
   1040c:	00400793          	addi	x15,x0,4
   10410:	04c12983          	lw	x19,76(x2)
   10414:	00a72023          	sw	x10,0(x14)
   10418:	41f787b3          	sub	x15,x15,x31
   1041c:	30c0006f          	jal	x0,10728 <__subtf3+0x800>
   10420:	00080793          	addi	x15,x16,0
   10424:	e0be96e3          	bne	x29,x11,10230 <__subtf3+0x308>
   10428:	36068263          	beq	x13,x0,1078c <__subtf3+0x864>
   1042c:	408503b3          	sub	x7,x10,x8
   10430:	7a041c63          	bne	x8,x0,10be8 <__subtf3+0xcc0>
   10434:	01412683          	lw	x13,20(x2)
   10438:	05312623          	sw	x19,76(x2)
   1043c:	01812983          	lw	x19,24(x2)
   10440:	01c12283          	lw	x5,28(x2)
   10444:	0136e5b3          	or	x11,x13,x19
   10448:	0055e5b3          	or	x11,x11,x5
   1044c:	0115e5b3          	or	x11,x11,x17
   10450:	6e0584e3          	beq	x11,x0,11338 <__subtf3+0x1410>
   10454:	fff38813          	addi	x16,x7,-1
   10458:	7c0808e3          	beq	x16,x0,11428 <__subtf3+0x1500>
   1045c:	000086b7          	lui	x13,0x8
   10460:	fff68693          	addi	x13,x13,-1 # 7fff <__gdtoa+0x84b>
   10464:	00d39463          	bne	x7,x13,1046c <__subtf3+0x544>
   10468:	0b40106f          	jal	x0,1151c <__subtf3+0x15f4>
   1046c:	07400693          	addi	x13,x0,116
   10470:	0106c463          	blt	x13,x16,10478 <__subtf3+0x550>
   10474:	1380106f          	jal	x0,115ac <__subtf3+0x1684>
   10478:	04c12983          	lw	x19,76(x2)
   1047c:	7900006f          	jal	x0,10c0c <__subtf3+0xce4>
   10480:	38c404e3          	beq	x8,x12,11008 <__subtf3+0x10e0>
   10484:	02c12503          	lw	x10,44(x2)
   10488:	00080637          	lui	x12,0x80
   1048c:	07400713          	addi	x14,x0,116
   10490:	00c56533          	or	x10,x10,x12
   10494:	02a12623          	sw	x10,44(x2)
   10498:	cad75ce3          	bge	x14,x13,10150 <__subtf3+0x228>
   1049c:	00000513          	addi	x10,x0,0
   104a0:	00000693          	addi	x13,x0,0
   104a4:	00000793          	addi	x15,x0,0
   104a8:	00100713          	addi	x14,x0,1
   104ac:	00e88733          	add	x14,x17,x14
   104b0:	01f785b3          	add	x11,x15,x31
   104b4:	01173833          	sltu	x16,x14,x17
   104b8:	01058833          	add	x16,x11,x16
   104bc:	00f5b7b3          	sltu	x15,x11,x15
   104c0:	00b835b3          	sltu	x11,x16,x11
   104c4:	01e68633          	add	x12,x13,x30
   104c8:	00b7e7b3          	or	x15,x15,x11
   104cc:	00f607b3          	add	x15,x12,x15
   104d0:	00d636b3          	sltu	x13,x12,x13
   104d4:	00c7b633          	sltu	x12,x15,x12
   104d8:	00c6e6b3          	or	x13,x13,x12
   104dc:	01c50633          	add	x12,x10,x28
   104e0:	00c68e33          	add	x28,x13,x12
   104e4:	02f12c23          	sw	x15,56(x2)
   104e8:	02e12823          	sw	x14,48(x2)
   104ec:	03012a23          	sw	x16,52(x2)
   104f0:	00ce1793          	slli	x15,x28,0xc
   104f4:	1407c0e3          	blt	x15,x0,10e34 <__subtf3+0xf0c>
   104f8:	03c12e23          	sw	x28,60(x2)
   104fc:	00777693          	andi	x13,x14,7
   10500:	03010793          	addi	x15,x2,48
   10504:	1e068c63          	beq	x13,x0,106fc <__subtf3+0x7d4>
   10508:	00f77693          	andi	x13,x14,15
   1050c:	00400613          	addi	x12,x0,4
   10510:	10c68863          	beq	x13,x12,10620 <__subtf3+0x6f8>
   10514:	03412683          	lw	x13,52(x2)
   10518:	00470513          	addi	x10,x14,4
   1051c:	03812583          	lw	x11,56(x2)
   10520:	00453613          	sltiu	x12,x10,4
   10524:	00c68633          	add	x12,x13,x12
   10528:	00d636b3          	sltu	x13,x12,x13
   1052c:	00d586b3          	add	x13,x11,x13
   10530:	00b6b5b3          	sltu	x11,x13,x11
   10534:	00be0e33          	add	x28,x28,x11
   10538:	00080737          	lui	x14,0x80
   1053c:	02a12823          	sw	x10,48(x2)
   10540:	02c12a23          	sw	x12,52(x2)
   10544:	03c12e23          	sw	x28,60(x2)
   10548:	02d12c23          	sw	x13,56(x2)
   1054c:	00ee7733          	and	x14,x28,x14
   10550:	0c070e63          	beq	x14,x0,1062c <__subtf3+0x704>
   10554:	00008737          	lui	x14,0x8
   10558:	00140413          	addi	x8,x8,1
   1055c:	fff70713          	addi	x14,x14,-1 # 7fff <__gdtoa+0x84b>
   10560:	0ee40c63          	beq	x8,x14,10658 <__subtf3+0x730>
   10564:	fff805b7          	lui	x11,0xfff80
   10568:	fff58593          	addi	x11,x11,-1 # fff7ffff <__heap_end+0xffb7ffff>
   1056c:	00be75b3          	and	x11,x28,x11
   10570:	02b12e23          	sw	x11,60(x2)
   10574:	0035d593          	srli	x11,x11,0x3
   10578:	03012683          	lw	x13,48(x2)
   1057c:	03c10513          	addi	x10,x2,60
   10580:	0036d613          	srli	x12,x13,0x3
   10584:	0047a683          	lw	x13,4(x15)
   10588:	00478793          	addi	x15,x15,4
   1058c:	01d69713          	slli	x14,x13,0x1d
   10590:	00c76733          	or	x14,x14,x12
   10594:	fee7ae23          	sw	x14,-4(x15)
   10598:	fea794e3          	bne	x15,x10,10580 <__subtf3+0x658>
   1059c:	00008737          	lui	x14,0x8
   105a0:	fff70513          	addi	x10,x14,-1 # 7fff <__gdtoa+0x84b>
   105a4:	03012783          	lw	x15,48(x2)
   105a8:	03412603          	lw	x12,52(x2)
   105ac:	03812683          	lw	x13,56(x2)
   105b0:	08a40263          	beq	x8,x10,10634 <__subtf3+0x70c>
   105b4:	01059713          	slli	x14,x11,0x10
   105b8:	01075713          	srli	x14,x14,0x10
   105bc:	0014f493          	andi	x9,x9,1
   105c0:	01141413          	slli	x8,x8,0x11
   105c4:	01145413          	srli	x8,x8,0x11
   105c8:	00f49493          	slli	x9,x9,0xf
   105cc:	0084e4b3          	or	x9,x9,x8
   105d0:	00911723          	sh	x9,14(x2)
   105d4:	00e11623          	sh	x14,12(x2)
   105d8:	00c12703          	lw	x14,12(x2)
   105dc:	05c12083          	lw	x1,92(x2)
   105e0:	05812403          	lw	x8,88(x2)
   105e4:	00f92023          	sw	x15,0(x18)
   105e8:	00c92223          	sw	x12,4(x18)
   105ec:	00d92423          	sw	x13,8(x18)
   105f0:	00e92623          	sw	x14,12(x18)
   105f4:	05412483          	lw	x9,84(x2)
   105f8:	00090513          	addi	x10,x18,0
   105fc:	05012903          	lw	x18,80(x2)
   10600:	06010113          	addi	x2,x2,96
   10604:	00008067          	jalr	x0,0(x1)
   10608:	03112823          	sw	x17,48(x2)
   1060c:	03012a23          	sw	x16,52(x2)
   10610:	02b12c23          	sw	x11,56(x2)
   10614:	03c12e23          	sw	x28,60(x2)
   10618:	00068413          	addi	x8,x13,0
   1061c:	03010793          	addi	x15,x2,48
   10620:	00080737          	lui	x14,0x80
   10624:	00ee7733          	and	x14,x28,x14
   10628:	f20716e3          	bne	x14,x0,10554 <__subtf3+0x62c>
   1062c:	003e5593          	srli	x11,x28,0x3
   10630:	f49ff06f          	jal	x0,10578 <__subtf3+0x650>
   10634:	00c7e7b3          	or	x15,x15,x12
   10638:	00d7e7b3          	or	x15,x15,x13
   1063c:	00b7e7b3          	or	x15,x15,x11
   10640:	02079863          	bne	x15,x0,10670 <__subtf3+0x748>
   10644:	0014f493          	andi	x9,x9,1
   10648:	00000693          	addi	x13,x0,0
   1064c:	00000613          	addi	x12,x0,0
   10650:	00000713          	addi	x14,x0,0
   10654:	f6dff06f          	jal	x0,105c0 <__subtf3+0x698>
   10658:	02012e23          	sw	x0,60(x2)
   1065c:	02012c23          	sw	x0,56(x2)
   10660:	02012a23          	sw	x0,52(x2)
   10664:	02012823          	sw	x0,48(x2)
   10668:	00000593          	addi	x11,x0,0
   1066c:	f0dff06f          	jal	x0,10578 <__subtf3+0x650>
   10670:	00000493          	addi	x9,x0,0
   10674:	00000693          	addi	x13,x0,0
   10678:	00000613          	addi	x12,x0,0
   1067c:	00000793          	addi	x15,x0,0
   10680:	f41ff06f          	jal	x0,105c0 <__subtf3+0x698>
   10684:	00140713          	addi	x14,x8,1
   10688:	01171813          	slli	x16,x14,0x11
   1068c:	01285813          	srli	x16,x16,0x12
   10690:	01412f03          	lw	x30,20(x2)
   10694:	01812283          	lw	x5,24(x2)
   10698:	01c12f83          	lw	x31,28(x2)
   1069c:	00008537          	lui	x10,0x8
   106a0:	1a081c63          	bne	x16,x0,10858 <__subtf3+0x930>
   106a4:	00c7e733          	or	x14,x15,x12
   106a8:	005f66b3          	or	x13,x30,x5
   106ac:	00676733          	or	x14,x14,x6
   106b0:	01f6e6b3          	or	x13,x13,x31
   106b4:	01c76733          	or	x14,x14,x28
   106b8:	0116e6b3          	or	x13,x13,x17
   106bc:	68041863          	bne	x8,x0,10d4c <__subtf3+0xe24>
   106c0:	100684e3          	beq	x13,x0,10fc8 <__subtf3+0x10a0>
   106c4:	240718e3          	bne	x14,x0,11114 <__subtf3+0x11ec>
   106c8:	03112823          	sw	x17,48(x2)
   106cc:	03e12a23          	sw	x30,52(x2)
   106d0:	02512c23          	sw	x5,56(x2)
   106d4:	03f12e23          	sw	x31,60(x2)
   106d8:	000f8e13          	addi	x28,x31,0 # 10000 <__subtf3+0xd8>
   106dc:	03010793          	addi	x15,x2,48
   106e0:	f41ff06f          	jal	x0,10620 <__subtf3+0x6f8>
   106e4:	010764b3          	or	x9,x14,x16
   106e8:	00a4e4b3          	or	x9,x9,x10
   106ec:	00d4e4b3          	or	x9,x9,x13
   106f0:	009034b3          	sltu	x9,x0,x9
   106f4:	009ef4b3          	and	x9,x29,x9
   106f8:	00068e13          	addi	x28,x13,0
   106fc:	003e5593          	srli	x11,x28,0x3
   10700:	03010793          	addi	x15,x2,48
   10704:	e75ff06f          	jal	x0,10578 <__subtf3+0x650>
   10708:	01d78533          	add	x10,x15,x29
   1070c:	00052503          	lw	x10,0(x10) # 8000 <__gdtoa+0x84c>
   10710:	00168693          	addi	x13,x13,1
   10714:	00478793          	addi	x15,x15,4
   10718:	fea7ae23          	sw	x10,-4(x15)
   1071c:	fed756e3          	bge	x14,x13,10708 <__subtf3+0x7e0>
   10720:	00400793          	addi	x15,x0,4
   10724:	41f787b3          	sub	x15,x15,x31
   10728:	00400713          	addi	x14,x0,4
   1072c:	02012503          	lw	x10,32(x2)
   10730:	02e78463          	beq	x15,x14,10758 <__subtf3+0x830>
   10734:	00400713          	addi	x14,x0,4
   10738:	40f70733          	sub	x14,x14,x15
   1073c:	00271713          	slli	x14,x14,0x2
   10740:	00279793          	slli	x15,x15,0x2
   10744:	00800693          	addi	x13,x0,8
   10748:	00f287b3          	add	x15,x5,x15
   1074c:	48d77463          	bgeu	x14,x13,10bd4 <__subtf3+0xcac>
   10750:	00400693          	addi	x13,x0,4
   10754:	46d77c63          	bgeu	x14,x13,10bcc <__subtf3+0xca4>
   10758:	00c03733          	sltu	x14,x0,x12
   1075c:	00a76733          	or	x14,x14,x10
   10760:	02412783          	lw	x15,36(x2)
   10764:	02812603          	lw	x12,40(x2)
   10768:	02c12503          	lw	x10,44(x2)
   1076c:	915ff06f          	jal	x0,10080 <__subtf3+0x158>
   10770:	fff58693          	addi	x13,x11,-1
   10774:	40c686b3          	sub	x13,x13,x12
   10778:	00c5b7b3          	sltu	x15,x11,x12
   1077c:	40b60633          	sub	x12,x12,x11
   10780:	00163613          	sltiu	x12,x12,1
   10784:	00c7e7b3          	or	x15,x15,x12
   10788:	929ff06f          	jal	x0,100b0 <__subtf3+0x188>
   1078c:	00140593          	addi	x11,x8,1
   10790:	01159f13          	slli	x30,x11,0x11
   10794:	012f5f13          	srli	x30,x30,0x12
   10798:	01412683          	lw	x13,20(x2)
   1079c:	01812703          	lw	x14,24(x2)
   107a0:	01c12503          	lw	x10,28(x2)
   107a4:	00008837          	lui	x16,0x8
   107a8:	500f1a63          	bne	x30,x0,10cbc <__subtf3+0xd94>
   107ac:	00e6e5b3          	or	x11,x13,x14
   107b0:	00a5e5b3          	or	x11,x11,x10
   107b4:	0115e5b3          	or	x11,x11,x17
   107b8:	060414e3          	bne	x8,x0,11020 <__subtf3+0x10f8>
   107bc:	00058ae3          	beq	x11,x0,10fd0 <__subtf3+0x10a8>
   107c0:	00c7e5b3          	or	x11,x15,x12
   107c4:	0065e5b3          	or	x11,x11,x6
   107c8:	01c5e5b3          	or	x11,x11,x28
   107cc:	3c0590e3          	bne	x11,x0,1138c <__subtf3+0x1464>
   107d0:	03112823          	sw	x17,48(x2)
   107d4:	02d12a23          	sw	x13,52(x2)
   107d8:	02e12c23          	sw	x14,56(x2)
   107dc:	02a12e23          	sw	x10,60(x2)
   107e0:	00050e13          	addi	x28,x10,0
   107e4:	03010793          	addi	x15,x2,48
   107e8:	e39ff06f          	jal	x0,10620 <__subtf3+0x6f8>
   107ec:	000086b7          	lui	x13,0x8
   107f0:	fff68693          	addi	x13,x13,-1 # 7fff <__gdtoa+0x84b>
   107f4:	1cd504e3          	beq	x10,x13,111bc <__subtf3+0x1294>
   107f8:	01c12283          	lw	x5,28(x2)
   107fc:	00080837          	lui	x16,0x80
   10800:	07400693          	addi	x13,x0,116
   10804:	0102e2b3          	or	x5,x5,x16
   10808:	00512e23          	sw	x5,28(x2)
   1080c:	4876d463          	bge	x13,x7,10c94 <__subtf3+0xd6c>
   10810:	00060f93          	addi	x31,x12,0 # 80000 <__heap_start+0x6ccc0>
   10814:	00078f13          	addi	x30,x15,0
   10818:	00000813          	addi	x16,x0,0
   1081c:	00000893          	addi	x17,x0,0
   10820:	00100713          	addi	x14,x0,1
   10824:	40e30733          	sub	x14,x6,x14
   10828:	00e33eb3          	sltu	x29,x6,x14
   1082c:	41df0eb3          	sub	x29,x30,x29
   10830:	01e7b6b3          	sltu	x13,x15,x30
   10834:	00e37463          	bgeu	x6,x14,1083c <__subtf3+0x914>
   10838:	77178c63          	beq	x15,x17,10fb0 <__subtf3+0x1088>
   1083c:	40df86b3          	sub	x13,x31,x13
   10840:	01f638b3          	sltu	x17,x12,x31
   10844:	77e7ea63          	bltu	x15,x30,10fb8 <__subtf3+0x1090>
   10848:	411e0e33          	sub	x28,x28,x17
   1084c:	00050413          	addi	x8,x10,0
   10850:	00058493          	addi	x9,x11,0
   10854:	865ff06f          	jal	x0,100b8 <__subtf3+0x190>
   10858:	40ff0533          	sub	x10,x30,x15
   1085c:	40688733          	sub	x14,x17,x6
   10860:	00e8beb3          	sltu	x29,x17,x14
   10864:	00af33b3          	sltu	x7,x30,x10
   10868:	41d50eb3          	sub	x29,x10,x29
   1086c:	40c28833          	sub	x16,x5,x12
   10870:	00038513          	addi	x10,x7,0
   10874:	00e8fc63          	bgeu	x17,x14,1088c <__subtf3+0x964>
   10878:	01e79a63          	bne	x15,x30,1088c <__subtf3+0x964>
   1087c:	fff80813          	addi	x16,x16,-1 # 7ffff <__heap_start+0x6ccbf>
   10880:	005633b3          	sltu	x7,x12,x5
   10884:	0013b393          	sltiu	x7,x7,1
   10888:	0100006f          	jal	x0,10898 <__subtf3+0x970>
   1088c:	40a80833          	sub	x16,x16,x10
   10890:	fe0398e3          	bne	x7,x0,10880 <__subtf3+0x958>
   10894:	00c2b3b3          	sltu	x7,x5,x12
   10898:	41cf8533          	sub	x10,x31,x28
   1089c:	40750533          	sub	x10,x10,x7
   108a0:	03012c23          	sw	x16,56(x2)
   108a4:	03d12a23          	sw	x29,52(x2)
   108a8:	02e12823          	sw	x14,48(x2)
   108ac:	02a12e23          	sw	x10,60(x2)
   108b0:	00c51393          	slli	x7,x10,0xc
   108b4:	6203c863          	blt	x7,x0,10ee4 <__subtf3+0xfbc>
   108b8:	01d767b3          	or	x15,x14,x29
   108bc:	0107e7b3          	or	x15,x15,x16
   108c0:	00a7e7b3          	or	x15,x15,x10
   108c4:	66079663          	bne	x15,x0,10f30 <__subtf3+0x1008>
   108c8:	00000413          	addi	x8,x0,0
   108cc:	03010793          	addi	x15,x2,48
   108d0:	00000e13          	addi	x28,x0,0
   108d4:	00068493          	addi	x9,x13,0
   108d8:	003e5593          	srli	x11,x28,0x3
   108dc:	c9dff06f          	jal	x0,10578 <__subtf3+0x650>
   108e0:	03412503          	lw	x10,52(x2)
   108e4:	36051463          	bne	x10,x0,10c4c <__subtf3+0xd24>
   108e8:	05312623          	sw	x19,76(x2)
   108ec:	03012983          	lw	x19,48(x2)
   108f0:	00098513          	addi	x10,x19,0
   108f4:	2c4010ef          	jal	x1,11bb8 <__clzsi2>
   108f8:	05450613          	addi	x12,x10,84
   108fc:	01f67813          	andi	x16,x12,31
   10900:	1c0814e3          	bne	x16,x0,112c8 <__subtf3+0x13a0>
   10904:	04c12983          	lw	x19,76(x2)
   10908:	40565593          	srai	x11,x12,0x5
   1090c:	40b006b3          	sub	x13,x0,x11
   10910:	00269693          	slli	x13,x13,0x2
   10914:	00c68713          	addi	x14,x13,12
   10918:	03010793          	addi	x15,x2,48
   1091c:	40d006b3          	sub	x13,x0,x13
   10920:	00e78733          	add	x14,x15,x14
   10924:	00072883          	lw	x17,0(x14) # 80000 <__heap_start+0x6ccc0>
   10928:	00d70833          	add	x16,x14,x13
   1092c:	00070513          	addi	x10,x14,0
   10930:	01182023          	sw	x17,0(x16)
   10934:	ffc70713          	addi	x14,x14,-4
   10938:	fef516e3          	bne	x10,x15,10924 <__subtf3+0x9fc>
   1093c:	fff58713          	addi	x14,x11,-1
   10940:	0780006f          	jal	x0,109b8 <__subtf3+0xa90>
   10944:	05312623          	sw	x19,76(x2)
   10948:	270010ef          	jal	x1,11bb8 <__clzsi2>
   1094c:	ff450813          	addi	x16,x10,-12
   10950:	00080613          	addi	x12,x16,0
   10954:	03012983          	lw	x19,48(x2)
   10958:	02000e13          	addi	x28,x0,32
   1095c:	40ce0e33          	sub	x28,x28,x12
   10960:	010999b3          	sll	x19,x19,x16
   10964:	00000593          	addi	x11,x0,0
   10968:	40b008b3          	sub	x17,x0,x11
   1096c:	00289893          	slli	x17,x17,0x2
   10970:	00c88713          	addi	x14,x17,12
   10974:	03010793          	addi	x15,x2,48
   10978:	411008b3          	sub	x17,x0,x17
   1097c:	00e78733          	add	x14,x15,x14
   10980:	00072683          	lw	x13,0(x14)
   10984:	ffc72503          	lw	x10,-4(x14)
   10988:	01170333          	add	x6,x14,x17
   1098c:	010696b3          	sll	x13,x13,x16
   10990:	01c55533          	srl	x10,x10,x28
   10994:	00a6e6b3          	or	x13,x13,x10
   10998:	00d32023          	sw	x13,0(x6)
   1099c:	ffc70713          	addi	x14,x14,-4
   109a0:	fee790e3          	bne	x15,x14,10980 <__subtf3+0xa58>
   109a4:	00259713          	slli	x14,x11,0x2
   109a8:	00f70733          	add	x14,x14,x15
   109ac:	01372023          	sw	x19,0(x14)
   109b0:	04c12983          	lw	x19,76(x2)
   109b4:	fff58713          	addi	x14,x11,-1
   109b8:	fff00693          	addi	x13,x0,-1
   109bc:	02d70a63          	beq	x14,x13,109f0 <__subtf3+0xac8>
   109c0:	00170713          	addi	x14,x14,1
   109c4:	00271713          	slli	x14,x14,0x2
   109c8:	00800593          	addi	x11,x0,8
   109cc:	00078693          	addi	x13,x15,0
   109d0:	00b76a63          	bltu	x14,x11,109e4 <__subtf3+0xabc>
   109d4:	02012823          	sw	x0,48(x2)
   109d8:	0007a223          	sw	x0,4(x15)
   109dc:	ff870713          	addi	x14,x14,-8
   109e0:	03810693          	addi	x13,x2,56
   109e4:	00400593          	addi	x11,x0,4
   109e8:	00b76463          	bltu	x14,x11,109f0 <__subtf3+0xac8>
   109ec:	0006a023          	sw	x0,0(x13)
   109f0:	12864263          	blt	x12,x8,10b14 <__subtf3+0xbec>
   109f4:	408606b3          	sub	x13,x12,x8
   109f8:	00168693          	addi	x13,x13,1
   109fc:	4056d313          	srai	x6,x13,0x5
   10a00:	01f6f693          	andi	x13,x13,31
   10a04:	0e0302e3          	beq	x6,x0,112e8 <__subtf3+0x13c0>
   10a08:	00231593          	slli	x11,x6,0x2
   10a0c:	00f58833          	add	x16,x11,x15
   10a10:	00078613          	addi	x12,x15,0
   10a14:	00000713          	addi	x14,x0,0
   10a18:	00062503          	lw	x10,0(x12)
   10a1c:	00460613          	addi	x12,x12,4
   10a20:	00a76733          	or	x14,x14,x10
   10a24:	fec81ae3          	bne	x16,x12,10a18 <__subtf3+0xaf0>
   10a28:	00300513          	addi	x10,x0,3
   10a2c:	40650533          	sub	x10,x10,x6
   10a30:	06068863          	beq	x13,x0,10aa0 <__subtf3+0xb78>
   10a34:	00f58633          	add	x12,x11,x15
   10a38:	00062603          	lw	x12,0(x12)
   10a3c:	03c12e83          	lw	x29,60(x2)
   10a40:	02000e13          	addi	x28,x0,32
   10a44:	40de0e33          	sub	x28,x28,x13
   10a48:	01c61633          	sll	x12,x12,x28
   10a4c:	00c76733          	or	x14,x14,x12
   10a50:	00dedeb3          	srl	x29,x29,x13
   10a54:	78050663          	beq	x10,x0,111e0 <__subtf3+0x12b8>
   10a58:	00251513          	slli	x10,x10,0x2
   10a5c:	00b78633          	add	x12,x15,x11
   10a60:	00a78f33          	add	x30,x15,x10
   10a64:	00078813          	addi	x16,x15,0
   10a68:	00062583          	lw	x11,0(x12)
   10a6c:	00462883          	lw	x17,4(x12)
   10a70:	00480813          	addi	x16,x16,4
   10a74:	00d5d5b3          	srl	x11,x11,x13
   10a78:	01c898b3          	sll	x17,x17,x28
   10a7c:	0115e5b3          	or	x11,x11,x17
   10a80:	feb82e23          	sw	x11,-4(x16)
   10a84:	00460613          	addi	x12,x12,4
   10a88:	ff0f10e3          	bne	x30,x16,10a68 <__subtf3+0xb40>
   10a8c:	00f50533          	add	x10,x10,x15
   10a90:	00400693          	addi	x13,x0,4
   10a94:	01d52023          	sw	x29,0(x10)
   10a98:	406686b3          	sub	x13,x13,x6
   10a9c:	0280006f          	jal	x0,10ac4 <__subtf3+0xb9c>
   10aa0:	00078613          	addi	x12,x15,0
   10aa4:	00b60833          	add	x16,x12,x11
   10aa8:	00082803          	lw	x16,0(x16)
   10aac:	00168693          	addi	x13,x13,1
   10ab0:	00460613          	addi	x12,x12,4
   10ab4:	ff062e23          	sw	x16,-4(x12)
   10ab8:	fed556e3          	bge	x10,x13,10aa4 <__subtf3+0xb7c>
   10abc:	00400693          	addi	x13,x0,4
   10ac0:	406686b3          	sub	x13,x13,x6
   10ac4:	00400613          	addi	x12,x0,4
   10ac8:	03012e83          	lw	x29,48(x2)
   10acc:	02c68463          	beq	x13,x12,10af4 <__subtf3+0xbcc>
   10ad0:	00400613          	addi	x12,x0,4
   10ad4:	40d60633          	sub	x12,x12,x13
   10ad8:	00261613          	slli	x12,x12,0x2
   10adc:	00269693          	slli	x13,x13,0x2
   10ae0:	00800593          	addi	x11,x0,8
   10ae4:	00d786b3          	add	x13,x15,x13
   10ae8:	04b67a63          	bgeu	x12,x11,10b3c <__subtf3+0xc14>
   10aec:	00400593          	addi	x11,x0,4
   10af0:	04b67263          	bgeu	x12,x11,10b34 <__subtf3+0xc0c>
   10af4:	00e03733          	sltu	x14,x0,x14
   10af8:	03c12e03          	lw	x28,60(x2)
   10afc:	01d76733          	or	x14,x14,x29
   10b00:	02e12823          	sw	x14,48(x2)
   10b04:	00000413          	addi	x8,x0,0
   10b08:	00777693          	andi	x13,x14,7
   10b0c:	9e069ee3          	bne	x13,x0,10508 <__subtf3+0x5e0>
   10b10:	b11ff06f          	jal	x0,10620 <__subtf3+0x6f8>
   10b14:	03c12e03          	lw	x28,60(x2)
   10b18:	fff806b7          	lui	x13,0xfff80
   10b1c:	fff68693          	addi	x13,x13,-1 # fff7ffff <__heap_end+0xffb7ffff>
   10b20:	00de7e33          	and	x28,x28,x13
   10b24:	03012703          	lw	x14,48(x2)
   10b28:	40c40433          	sub	x8,x8,x12
   10b2c:	03c12e23          	sw	x28,60(x2)
   10b30:	fd9ff06f          	jal	x0,10b08 <__subtf3+0xbe0>
   10b34:	0006a023          	sw	x0,0(x13)
   10b38:	fbdff06f          	jal	x0,10af4 <__subtf3+0xbcc>
   10b3c:	0006a023          	sw	x0,0(x13)
   10b40:	0006a223          	sw	x0,4(x13)
   10b44:	ff860613          	addi	x12,x12,-8
   10b48:	00b686b3          	add	x13,x13,x11
   10b4c:	fa1ff06f          	jal	x0,10aec <__subtf3+0xbc4>
   10b50:	010785b3          	add	x11,x15,x16
   10b54:	0005a583          	lw	x11,0(x11)
   10b58:	00168693          	addi	x13,x13,1
   10b5c:	00478793          	addi	x15,x15,4
   10b60:	feb7ae23          	sw	x11,-4(x15)
   10b64:	fed756e3          	bge	x14,x13,10b50 <__subtf3+0xc28>
   10b68:	00400793          	addi	x15,x0,4
   10b6c:	406787b3          	sub	x15,x15,x6
   10b70:	00400713          	addi	x14,x0,4
   10b74:	02012503          	lw	x10,32(x2)
   10b78:	02e78e63          	beq	x15,x14,10bb4 <__subtf3+0xc8c>
   10b7c:	00400713          	addi	x14,x0,4
   10b80:	40f70733          	sub	x14,x14,x15
   10b84:	00271713          	slli	x14,x14,0x2
   10b88:	00279793          	slli	x15,x15,0x2
   10b8c:	00800693          	addi	x13,x0,8
   10b90:	00f287b3          	add	x15,x5,x15
   10b94:	00d76a63          	bltu	x14,x13,10ba8 <__subtf3+0xc80>
   10b98:	0007a023          	sw	x0,0(x15)
   10b9c:	0007a223          	sw	x0,4(x15)
   10ba0:	ff870713          	addi	x14,x14,-8
   10ba4:	00d787b3          	add	x15,x15,x13
   10ba8:	00400693          	addi	x13,x0,4
   10bac:	00d76463          	bltu	x14,x13,10bb4 <__subtf3+0xc8c>
   10bb0:	0007a023          	sw	x0,0(x15)
   10bb4:	00c03733          	sltu	x14,x0,x12
   10bb8:	00a76733          	or	x14,x14,x10
   10bbc:	02412783          	lw	x15,36(x2)
   10bc0:	02812683          	lw	x13,40(x2)
   10bc4:	02c12503          	lw	x10,44(x2)
   10bc8:	8e5ff06f          	jal	x0,104ac <__subtf3+0x584>
   10bcc:	0007a023          	sw	x0,0(x15)
   10bd0:	b89ff06f          	jal	x0,10758 <__subtf3+0x830>
   10bd4:	0007a023          	sw	x0,0(x15)
   10bd8:	0007a223          	sw	x0,4(x15)
   10bdc:	ff870713          	addi	x14,x14,-8
   10be0:	00d787b3          	add	x15,x15,x13
   10be4:	b6dff06f          	jal	x0,10750 <__subtf3+0x828>
   10be8:	000086b7          	lui	x13,0x8
   10bec:	fff68693          	addi	x13,x13,-1 # 7fff <__gdtoa+0x84b>
   10bf0:	12d508e3          	beq	x10,x13,11520 <__subtf3+0x15f8>
   10bf4:	01c12283          	lw	x5,28(x2)
   10bf8:	000805b7          	lui	x11,0x80
   10bfc:	07400693          	addi	x13,x0,116
   10c00:	00b2e2b3          	or	x5,x5,x11
   10c04:	00512e23          	sw	x5,28(x2)
   10c08:	5e76d063          	bge	x13,x7,111e8 <__subtf3+0x12c0>
   10c0c:	00060593          	addi	x11,x12,0
   10c10:	00078693          	addi	x13,x15,0
   10c14:	00100713          	addi	x14,x0,1
   10c18:	00e30733          	add	x14,x6,x14
   10c1c:	00673333          	sltu	x6,x14,x6
   10c20:	00d30833          	add	x16,x6,x13
   10c24:	00683333          	sltu	x6,x16,x6
   10c28:	00f6b6b3          	sltu	x13,x13,x15
   10c2c:	0066e6b3          	or	x13,x13,x6
   10c30:	00b687b3          	add	x15,x13,x11
   10c34:	00d7b6b3          	sltu	x13,x15,x13
   10c38:	00c5b5b3          	sltu	x11,x11,x12
   10c3c:	00d5e6b3          	or	x13,x11,x13
   10c40:	00de0e33          	add	x28,x28,x13
   10c44:	00050413          	addi	x8,x10,0
   10c48:	89dff06f          	jal	x0,104e4 <__subtf3+0x5bc>
   10c4c:	76d000ef          	jal	x1,11bb8 <__clzsi2>
   10c50:	03450613          	addi	x12,x10,52
   10c54:	01f67813          	andi	x16,x12,31
   10c58:	40565593          	srai	x11,x12,0x5
   10c5c:	ca0808e3          	beq	x16,x0,1090c <__subtf3+0x9e4>
   10c60:	05312623          	sw	x19,76(x2)
   10c64:	03012983          	lw	x19,48(x2)
   10c68:	02000e13          	addi	x28,x0,32
   10c6c:	410e0e33          	sub	x28,x28,x16
   10c70:	010999b3          	sll	x19,x19,x16
   10c74:	cf5ff06f          	jal	x0,10968 <__subtf3+0xa40>
   10c78:	05312623          	sw	x19,76(x2)
   10c7c:	03012983          	lw	x19,48(x2)
   10c80:	02000e13          	addi	x28,x0,32
   10c84:	410e0e33          	sub	x28,x28,x16
   10c88:	010999b3          	sll	x19,x19,x16
   10c8c:	40565593          	srai	x11,x12,0x5
   10c90:	cd9ff06f          	jal	x0,10968 <__subtf3+0xa40>
   10c94:	41f3d813          	srai	x16,x7,0x1f
   10c98:	01f87813          	andi	x16,x16,31
   10c9c:	00780833          	add	x16,x16,x7
   10ca0:	01f00693          	addi	x13,x0,31
   10ca4:	40585813          	srai	x16,x16,0x5
   10ca8:	de76c063          	blt	x13,x7,10288 <__subtf3+0x360>
   10cac:	00080413          	addi	x8,x16,0
   10cb0:	00000693          	addi	x13,x0,0
   10cb4:	00000813          	addi	x16,x0,0
   10cb8:	df4ff06f          	jal	x0,102ac <__subtf3+0x384>
   10cbc:	00688333          	add	x6,x17,x6
   10cc0:	00d786b3          	add	x13,x15,x13
   10cc4:	01133833          	sltu	x16,x6,x17
   10cc8:	01068833          	add	x16,x13,x16
   10ccc:	00f6b7b3          	sltu	x15,x13,x15
   10cd0:	00d836b3          	sltu	x13,x16,x13
   10cd4:	00d7e6b3          	or	x13,x15,x13
   10cd8:	00e607b3          	add	x15,x12,x14
   10cdc:	00d786b3          	add	x13,x15,x13
   10ce0:	00f6b8b3          	sltu	x17,x13,x15
   10ce4:	00c7b733          	sltu	x14,x15,x12
   10ce8:	01176733          	or	x14,x14,x17
   10cec:	00ae0533          	add	x10,x28,x10
   10cf0:	00a70733          	add	x14,x14,x10
   10cf4:	03010793          	addi	x15,x2,48
   10cf8:	02d12c23          	sw	x13,56(x2)
   10cfc:	03012a23          	sw	x16,52(x2)
   10d00:	02612823          	sw	x6,48(x2)
   10d04:	02e12e23          	sw	x14,60(x2)
   10d08:	00078693          	addi	x13,x15,0
   10d0c:	03c10813          	addi	x16,x2,60
   10d10:	00135513          	srli	x10,x6,0x1
   10d14:	0046a303          	lw	x6,4(x13)
   10d18:	00468693          	addi	x13,x13,4
   10d1c:	01f31613          	slli	x12,x6,0x1f
   10d20:	00a66633          	or	x12,x12,x10
   10d24:	fec6ae23          	sw	x12,-4(x13)
   10d28:	fed814e3          	bne	x16,x13,10d10 <__subtf3+0xde8>
   10d2c:	00175e13          	srli	x28,x14,0x1
   10d30:	00008737          	lui	x14,0x8
   10d34:	03c12e23          	sw	x28,60(x2)
   10d38:	fff70713          	addi	x14,x14,-1 # 7fff <__gdtoa+0x84b>
   10d3c:	14e58e63          	beq	x11,x14,10e98 <__subtf3+0xf70>
   10d40:	03012703          	lw	x14,48(x2)
   10d44:	00058413          	addi	x8,x11,0 # 80000 <__heap_start+0x6ccc0>
   10d48:	dc1ff06f          	jal	x0,10b08 <__subtf3+0xbe0>
   10d4c:	60069e63          	bne	x13,x0,11368 <__subtf3+0x1440>
   10d50:	7e071e63          	bne	x14,x0,1154c <__subtf3+0x1624>
   10d54:	02a12e23          	sw	x10,60(x2)
   10d58:	02012c23          	sw	x0,56(x2)
   10d5c:	02012a23          	sw	x0,52(x2)
   10d60:	02012823          	sw	x0,48(x2)
   10d64:	03010793          	addi	x15,x2,48
   10d68:	03c10713          	addi	x14,x2,60
   10d6c:	00351613          	slli	x12,x10,0x3
   10d70:	ffc72503          	lw	x10,-4(x14)
   10d74:	ffc70713          	addi	x14,x14,-4
   10d78:	01d55693          	srli	x13,x10,0x1d
   10d7c:	00c6e6b3          	or	x13,x13,x12
   10d80:	00d72223          	sw	x13,4(x14)
   10d84:	fee794e3          	bne	x15,x14,10d6c <__subtf3+0xe44>
   10d88:	03c12e03          	lw	x28,60(x2)
   10d8c:	00080737          	lui	x14,0x80
   10d90:	00000493          	addi	x9,x0,0
   10d94:	00ee7733          	and	x14,x28,x14
   10d98:	00008437          	lui	x8,0x8
   10d9c:	fc071463          	bne	x14,x0,10564 <__subtf3+0x63c>
   10da0:	fff40413          	addi	x8,x8,-1 # 7fff <__gdtoa+0x84b>
   10da4:	003e5593          	srli	x11,x28,0x3
   10da8:	fd0ff06f          	jal	x0,10578 <__subtf3+0x650>
   10dac:	02f12a23          	sw	x15,52(x2)
   10db0:	02612823          	sw	x6,48(x2)
   10db4:	02c12c23          	sw	x12,56(x2)
   10db8:	03c12e23          	sw	x28,60(x2)
   10dbc:	00038413          	addi	x8,x7,0
   10dc0:	00058493          	addi	x9,x11,0
   10dc4:	03010793          	addi	x15,x2,48
   10dc8:	859ff06f          	jal	x0,10620 <__subtf3+0x6f8>
   10dcc:	00688733          	add	x14,x17,x6
   10dd0:	01f58fb3          	add	x31,x11,x31
   10dd4:	01173833          	sltu	x16,x14,x17
   10dd8:	010f8833          	add	x16,x31,x16
   10ddc:	00bfb7b3          	sltu	x15,x31,x11
   10de0:	01f83fb3          	sltu	x31,x16,x31
   10de4:	01e38633          	add	x12,x7,x30
   10de8:	01f7e7b3          	or	x15,x15,x31
   10dec:	00f607b3          	add	x15,x12,x15
   10df0:	007636b3          	sltu	x13,x12,x7
   10df4:	00c7b633          	sltu	x12,x15,x12
   10df8:	00c6e6b3          	or	x13,x13,x12
   10dfc:	01c50533          	add	x10,x10,x28
   10e00:	00a68e33          	add	x28,x13,x10
   10e04:	00100413          	addi	x8,x0,1
   10e08:	edcff06f          	jal	x0,104e4 <__subtf3+0x5bc>
   10e0c:	02012703          	lw	x14,32(x2)
   10e10:	05312623          	sw	x19,76(x2)
   10e14:	02000993          	addi	x19,x0,32
   10e18:	40d989b3          	sub	x19,x19,x13
   10e1c:	01371633          	sll	x12,x14,x19
   10e20:	05412423          	sw	x20,72(x2)
   10e24:	00d55533          	srl	x10,x10,x13
   10e28:	00300713          	addi	x14,x0,3
   10e2c:	00000813          	addi	x16,x0,0
   10e30:	b84ff06f          	jal	x0,101b4 <__subtf3+0x28c>
   10e34:	fff805b7          	lui	x11,0xfff80
   10e38:	fff58593          	addi	x11,x11,-1 # fff7ffff <__heap_end+0xffb7ffff>
   10e3c:	00be75b3          	and	x11,x28,x11
   10e40:	03010793          	addi	x15,x2,48
   10e44:	00140413          	addi	x8,x8,1
   10e48:	02b12e23          	sw	x11,60(x2)
   10e4c:	00078693          	addi	x13,x15,0
   10e50:	01f71813          	slli	x16,x14,0x1f
   10e54:	03c10893          	addi	x17,x2,60
   10e58:	00175513          	srli	x10,x14,0x1
   10e5c:	0046a703          	lw	x14,4(x13)
   10e60:	00468693          	addi	x13,x13,4
   10e64:	01f71613          	slli	x12,x14,0x1f
   10e68:	00a66633          	or	x12,x12,x10
   10e6c:	fec6ae23          	sw	x12,-4(x13)
   10e70:	ff1694e3          	bne	x13,x17,10e58 <__subtf3+0xf30>
   10e74:	03012703          	lw	x14,48(x2)
   10e78:	01f85693          	srli	x13,x16,0x1f
   10e7c:	0015de13          	srli	x28,x11,0x1
   10e80:	00e6e733          	or	x14,x13,x14
   10e84:	000086b7          	lui	x13,0x8
   10e88:	03c12e23          	sw	x28,60(x2)
   10e8c:	02e12823          	sw	x14,48(x2)
   10e90:	fff68693          	addi	x13,x13,-1 # 7fff <__gdtoa+0x84b>
   10e94:	c6d41ae3          	bne	x8,x13,10b08 <__subtf3+0xbe0>
   10e98:	00008437          	lui	x8,0x8
   10e9c:	02012e23          	sw	x0,60(x2)
   10ea0:	02012c23          	sw	x0,56(x2)
   10ea4:	02012a23          	sw	x0,52(x2)
   10ea8:	02012823          	sw	x0,48(x2)
   10eac:	000e8693          	addi	x13,x29,0
   10eb0:	fff40413          	addi	x8,x8,-1 # 7fff <__gdtoa+0x84b>
   10eb4:	a1dff06f          	jal	x0,108d0 <__subtf3+0x9a8>
   10eb8:	03112823          	sw	x17,48(x2)
   10ebc:	03f12a23          	sw	x31,52(x2)
   10ec0:	03e12c23          	sw	x30,56(x2)
   10ec4:	03c12e23          	sw	x28,60(x2)
   10ec8:	00068413          	addi	x8,x13,0
   10ecc:	03010793          	addi	x15,x2,48
   10ed0:	f50ff06f          	jal	x0,10620 <__subtf3+0x6f8>
   10ed4:	02412783          	lw	x15,36(x2)
   10ed8:	02812603          	lw	x12,40(x2)
   10edc:	02c12e03          	lw	x28,44(x2)
   10ee0:	b50ff06f          	jal	x0,10230 <__subtf3+0x308>
   10ee4:	41e78733          	sub	x14,x15,x30
   10ee8:	405602b3          	sub	x5,x12,x5
   10eec:	41130833          	sub	x16,x6,x17
   10ef0:	010336b3          	sltu	x13,x6,x16
   10ef4:	00563533          	sltu	x10,x12,x5
   10ef8:	00e7b633          	sltu	x12,x15,x14
   10efc:	40d706b3          	sub	x13,x14,x13
   10f00:	00060713          	addi	x14,x12,0
   10f04:	01037463          	bgeu	x6,x16,10f0c <__subtf3+0xfe4>
   10f08:	45e78863          	beq	x15,x30,11358 <__subtf3+0x1430>
   10f0c:	40e287b3          	sub	x15,x5,x14
   10f10:	44061663          	bne	x12,x0,1135c <__subtf3+0x1434>
   10f14:	41fe0fb3          	sub	x31,x28,x31
   10f18:	40af8533          	sub	x10,x31,x10
   10f1c:	02a12e23          	sw	x10,60(x2)
   10f20:	02f12c23          	sw	x15,56(x2)
   10f24:	02d12a23          	sw	x13,52(x2)
   10f28:	03012823          	sw	x16,48(x2)
   10f2c:	00058493          	addi	x9,x11,0
   10f30:	9a050a63          	beq	x10,x0,100e4 <__subtf3+0x1bc>
   10f34:	485000ef          	jal	x1,11bb8 <__clzsi2>
   10f38:	ff450793          	addi	x15,x10,-12
   10f3c:	01f7f613          	andi	x12,x15,31
   10f40:	00000593          	addi	x11,x0,0
   10f44:	9c0604e3          	beq	x12,x0,1090c <__subtf3+0x9e4>
   10f48:	00060813          	addi	x16,x12,0
   10f4c:	05312623          	sw	x19,76(x2)
   10f50:	00078613          	addi	x12,x15,0
   10f54:	a01ff06f          	jal	x0,10954 <__subtf3+0xa2c>
   10f58:	41f807b3          	sub	x15,x16,x31
   10f5c:	40688733          	sub	x14,x17,x6
   10f60:	00e8beb3          	sltu	x29,x17,x14
   10f64:	00f83633          	sltu	x12,x16,x15
   10f68:	41d78eb3          	sub	x29,x15,x29
   10f6c:	41e586b3          	sub	x13,x11,x30
   10f70:	00060793          	addi	x15,x12,0
   10f74:	00e8f463          	bgeu	x17,x14,10f7c <__subtf3+0x1054>
   10f78:	090f8063          	beq	x31,x16,10ff8 <__subtf3+0x10d0>
   10f7c:	40f686b3          	sub	x13,x13,x15
   10f80:	06061e63          	bne	x12,x0,10ffc <__subtf3+0x10d4>
   10f84:	01e5bf33          	sltu	x30,x11,x30
   10f88:	40ae0533          	sub	x10,x28,x10
   10f8c:	41e50e33          	sub	x28,x10,x30
   10f90:	00100413          	addi	x8,x0,1
   10f94:	924ff06f          	jal	x0,100b8 <__subtf3+0x190>
   10f98:	03112823          	sw	x17,48(x2)
   10f9c:	03012a23          	sw	x16,52(x2)
   10fa0:	02b12c23          	sw	x11,56(x2)
   10fa4:	03c12e23          	sw	x28,60(x2)
   10fa8:	03010793          	addi	x15,x2,48
   10fac:	e74ff06f          	jal	x0,10620 <__subtf3+0x6f8>
   10fb0:	01f638b3          	sltu	x17,x12,x31
   10fb4:	ffff8693          	addi	x13,x31,-1
   10fb8:	410607b3          	sub	x15,x12,x16
   10fbc:	0017b793          	sltiu	x15,x15,1
   10fc0:	00f8e8b3          	or	x17,x17,x15
   10fc4:	885ff06f          	jal	x0,10848 <__subtf3+0x920>
   10fc8:	00e03733          	sltu	x14,x0,x14
   10fcc:	00b774b3          	and	x9,x14,x11
   10fd0:	02f12a23          	sw	x15,52(x2)
   10fd4:	02612823          	sw	x6,48(x2)
   10fd8:	02c12c23          	sw	x12,56(x2)
   10fdc:	03c12e23          	sw	x28,60(x2)
   10fe0:	03010793          	addi	x15,x2,48
   10fe4:	e3cff06f          	jal	x0,10620 <__subtf3+0x6f8>
   10fe8:	02412783          	lw	x15,36(x2)
   10fec:	02812603          	lw	x12,40(x2)
   10ff0:	02c12e03          	lw	x28,44(x2)
   10ff4:	c34ff06f          	jal	x0,10428 <__subtf3+0x500>
   10ff8:	fff68693          	addi	x13,x13,-1
   10ffc:	00bf3f33          	sltu	x30,x30,x11
   11000:	001f3f13          	sltiu	x30,x30,1
   11004:	f85ff06f          	jal	x0,10f88 <__subtf3+0x1060>
   11008:	03112823          	sw	x17,48(x2)
   1100c:	03f12a23          	sw	x31,52(x2)
   11010:	03e12c23          	sw	x30,56(x2)
   11014:	03c12e23          	sw	x28,60(x2)
   11018:	03010793          	addi	x15,x2,48
   1101c:	e04ff06f          	jal	x0,10620 <__subtf3+0x6f8>
   11020:	3c059c63          	bne	x11,x0,113f8 <__subtf3+0x14d0>
   11024:	02f12a23          	sw	x15,52(x2)
   11028:	02612823          	sw	x6,48(x2)
   1102c:	02c12c23          	sw	x12,56(x2)
   11030:	03c12e23          	sw	x28,60(x2)
   11034:	fff80413          	addi	x8,x16,-1
   11038:	03010793          	addi	x15,x2,48
   1103c:	de4ff06f          	jal	x0,10620 <__subtf3+0x6f8>
   11040:	05312623          	sw	x19,76(x2)
   11044:	41f3d893          	srai	x17,x7,0x1f
   11048:	00281713          	slli	x14,x16,0x2
   1104c:	01b8d813          	srli	x16,x17,0x1b
   11050:	010388b3          	add	x17,x7,x16
   11054:	00ef0733          	add	x14,x30,x14
   11058:	00072703          	lw	x14,0(x14) # 80000 <__heap_start+0x6ccc0>
   1105c:	01f8f893          	andi	x17,x17,31
   11060:	41180833          	sub	x16,x16,x17
   11064:	02080993          	addi	x19,x16,32
   11068:	01371733          	sll	x14,x14,x19
   1106c:	00e6e6b3          	or	x13,x13,x14
   11070:	5a048463          	beq	x9,x0,11618 <__subtf3+0x16f0>
   11074:	00241293          	slli	x5,x8,0x2
   11078:	005f0733          	add	x14,x30,x5
   1107c:	008f8f93          	addi	x31,x31,8
   11080:	405002b3          	sub	x5,x0,x5
   11084:	00072803          	lw	x16,0(x14)
   11088:	00472883          	lw	x17,4(x14)
   1108c:	005703b3          	add	x7,x14,x5
   11090:	01d85833          	srl	x16,x16,x29
   11094:	013898b3          	sll	x17,x17,x19
   11098:	01186833          	or	x16,x16,x17
   1109c:	0103a023          	sw	x16,0(x7)
   110a0:	00470713          	addi	x14,x14,4
   110a4:	feef90e3          	bne	x31,x14,11084 <__subtf3+0x115c>
   110a8:	01c12883          	lw	x17,28(x2)
   110ac:	00249813          	slli	x16,x9,0x2
   110b0:	010f0833          	add	x16,x30,x16
   110b4:	01d8d8b3          	srl	x17,x17,x29
   110b8:	00400713          	addi	x14,x0,4
   110bc:	04c12983          	lw	x19,76(x2)
   110c0:	01182023          	sw	x17,0(x16)
   110c4:	40870733          	sub	x14,x14,x8
   110c8:	a18ff06f          	jal	x0,102e0 <__subtf3+0x3b8>
   110cc:	40978533          	sub	x10,x15,x9
   110d0:	41130733          	sub	x14,x6,x17
   110d4:	00e33eb3          	sltu	x29,x6,x14
   110d8:	410606b3          	sub	x13,x12,x16
   110dc:	00a7bf33          	sltu	x30,x15,x10
   110e0:	41d50eb3          	sub	x29,x10,x29
   110e4:	00d638b3          	sltu	x17,x12,x13
   110e8:	000f0513          	addi	x10,x30,0
   110ec:	00e37463          	bgeu	x6,x14,110f4 <__subtf3+0x11cc>
   110f0:	40f48463          	beq	x9,x15,114f8 <__subtf3+0x15d0>
   110f4:	40a686b3          	sub	x13,x13,x10
   110f8:	00088793          	addi	x15,x17,0
   110fc:	400f1063          	bne	x30,x0,114fc <__subtf3+0x15d4>
   11100:	405e02b3          	sub	x5,x28,x5
   11104:	40f28e33          	sub	x28,x5,x15
   11108:	00058493          	addi	x9,x11,0
   1110c:	00100413          	addi	x8,x0,1
   11110:	fa9fe06f          	jal	x0,100b8 <__subtf3+0x190>
   11114:	40ff06b3          	sub	x13,x30,x15
   11118:	40688733          	sub	x14,x17,x6
   1111c:	00e8b833          	sltu	x16,x17,x14
   11120:	00df33b3          	sltu	x7,x30,x13
   11124:	41068833          	sub	x16,x13,x16
   11128:	40c28533          	sub	x10,x5,x12
   1112c:	00038693          	addi	x13,x7,0
   11130:	00e8f463          	bgeu	x17,x14,11138 <__subtf3+0x1210>
   11134:	3de78c63          	beq	x15,x30,1150c <__subtf3+0x15e4>
   11138:	40d50533          	sub	x10,x10,x13
   1113c:	3c039a63          	bne	x7,x0,11510 <__subtf3+0x15e8>
   11140:	00c2b3b3          	sltu	x7,x5,x12
   11144:	41cf86b3          	sub	x13,x31,x28
   11148:	407686b3          	sub	x13,x13,x7
   1114c:	02a12c23          	sw	x10,56(x2)
   11150:	03012a23          	sw	x16,52(x2)
   11154:	02e12823          	sw	x14,48(x2)
   11158:	02d12e23          	sw	x13,60(x2)
   1115c:	00c69393          	slli	x7,x13,0xc
   11160:	d803d263          	bge	x7,x0,106e4 <__subtf3+0x7bc>
   11164:	41e78733          	sub	x14,x15,x30
   11168:	41130833          	sub	x16,x6,x17
   1116c:	405602b3          	sub	x5,x12,x5
   11170:	010336b3          	sltu	x13,x6,x16
   11174:	00e7b533          	sltu	x10,x15,x14
   11178:	40d706b3          	sub	x13,x14,x13
   1117c:	00563633          	sltu	x12,x12,x5
   11180:	00050713          	addi	x14,x10,0
   11184:	01037463          	bgeu	x6,x16,1118c <__subtf3+0x1264>
   11188:	49e78063          	beq	x15,x30,11608 <__subtf3+0x16e0>
   1118c:	40e287b3          	sub	x15,x5,x14
   11190:	00060713          	addi	x14,x12,0
   11194:	46051c63          	bne	x10,x0,1160c <__subtf3+0x16e4>
   11198:	41fe0fb3          	sub	x31,x28,x31
   1119c:	40ef8e33          	sub	x28,x31,x14
   111a0:	02f12c23          	sw	x15,56(x2)
   111a4:	03c12e23          	sw	x28,60(x2)
   111a8:	02d12a23          	sw	x13,52(x2)
   111ac:	03012823          	sw	x16,48(x2)
   111b0:	00058493          	addi	x9,x11,0
   111b4:	03010793          	addi	x15,x2,48
   111b8:	c68ff06f          	jal	x0,10620 <__subtf3+0x6f8>
   111bc:	00008437          	lui	x8,0x8
   111c0:	02f12a23          	sw	x15,52(x2)
   111c4:	02612823          	sw	x6,48(x2)
   111c8:	02c12c23          	sw	x12,56(x2)
   111cc:	03c12e23          	sw	x28,60(x2)
   111d0:	00058493          	addi	x9,x11,0
   111d4:	fff40413          	addi	x8,x8,-1 # 7fff <__gdtoa+0x84b>
   111d8:	03010793          	addi	x15,x2,48
   111dc:	c44ff06f          	jal	x0,10620 <__subtf3+0x6f8>
   111e0:	00100693          	addi	x13,x0,1
   111e4:	8edff06f          	jal	x0,10ad0 <__subtf3+0xba8>
   111e8:	41f3d693          	srai	x13,x7,0x1f
   111ec:	01f6f693          	andi	x13,x13,31
   111f0:	007686b3          	add	x13,x13,x7
   111f4:	05312623          	sw	x19,76(x2)
   111f8:	01f00593          	addi	x11,x0,31
   111fc:	4056d693          	srai	x13,x13,0x5
   11200:	4275d463          	bge	x11,x7,11628 <__subtf3+0x1700>
   11204:	00070893          	addi	x17,x14,0
   11208:	00000593          	addi	x11,x0,0
   1120c:	00000813          	addi	x16,x0,0
   11210:	0008a403          	lw	x8,0(x17)
   11214:	00180813          	addi	x16,x16,1
   11218:	00488893          	addi	x17,x17,4
   1121c:	0085e5b3          	or	x11,x11,x8
   11220:	fed848e3          	blt	x16,x13,11210 <__subtf3+0x12e8>
   11224:	00068413          	addi	x8,x13,0
   11228:	00300993          	addi	x19,x0,3
   1122c:	01f3f813          	andi	x16,x7,31
   11230:	408989b3          	sub	x19,x19,x8
   11234:	22081c63          	bne	x16,x0,1146c <__subtf3+0x1544>
   11238:	00241893          	slli	x17,x8,0x2
   1123c:	011706b3          	add	x13,x14,x17
   11240:	0006a683          	lw	x13,0(x13)
   11244:	00180813          	addi	x16,x16,1
   11248:	00470713          	addi	x14,x14,4
   1124c:	fed72e23          	sw	x13,-4(x14)
   11250:	ff09d6e3          	bge	x19,x16,1123c <__subtf3+0x1314>
   11254:	00400713          	addi	x14,x0,4
   11258:	40870733          	sub	x14,x14,x8
   1125c:	00300693          	addi	x13,x0,3
   11260:	01012803          	lw	x16,16(x2)
   11264:	02e6ce63          	blt	x13,x14,112a0 <__subtf3+0x1378>
   11268:	00400693          	addi	x13,x0,4
   1126c:	40e686b3          	sub	x13,x13,x14
   11270:	00269693          	slli	x13,x13,0x2
   11274:	00271713          	slli	x14,x14,0x2
   11278:	00800893          	addi	x17,x0,8
   1127c:	00ef0733          	add	x14,x30,x14
   11280:	0116ea63          	bltu	x13,x17,11294 <__subtf3+0x136c>
   11284:	00072023          	sw	x0,0(x14)
   11288:	00072223          	sw	x0,4(x14)
   1128c:	ff868693          	addi	x13,x13,-8
   11290:	01170733          	add	x14,x14,x17
   11294:	00400893          	addi	x17,x0,4
   11298:	0116e463          	bltu	x13,x17,112a0 <__subtf3+0x1378>
   1129c:	00072023          	sw	x0,0(x14)
   112a0:	01412683          	lw	x13,20(x2)
   112a4:	01812883          	lw	x17,24(x2)
   112a8:	01c12f03          	lw	x30,28(x2)
   112ac:	00b03733          	sltu	x14,x0,x11
   112b0:	04c12983          	lw	x19,76(x2)
   112b4:	01076733          	or	x14,x14,x16
   112b8:	00d786b3          	add	x13,x15,x13
   112bc:	011605b3          	add	x11,x12,x17
   112c0:	01ee0e33          	add	x28,x28,x30
   112c4:	955ff06f          	jal	x0,10c18 <__subtf3+0xcf0>
   112c8:	05f00793          	addi	x15,x0,95
   112cc:	010999b3          	sll	x19,x19,x16
   112d0:	32c7d463          	bge	x15,x12,115f8 <__subtf3+0x16d0>
   112d4:	03312e23          	sw	x19,60(x2)
   112d8:	00200713          	addi	x14,x0,2
   112dc:	04c12983          	lw	x19,76(x2)
   112e0:	03010793          	addi	x15,x2,48
   112e4:	edcff06f          	jal	x0,109c0 <__subtf3+0xa98>
   112e8:	03012703          	lw	x14,48(x2)
   112ec:	03c12e83          	lw	x29,60(x2)
   112f0:	02000e13          	addi	x28,x0,32
   112f4:	40de0e33          	sub	x28,x28,x13
   112f8:	01c71733          	sll	x14,x14,x28
   112fc:	00dedeb3          	srl	x29,x29,x13
   11300:	00300513          	addi	x10,x0,3
   11304:	00000593          	addi	x11,x0,0
   11308:	f50ff06f          	jal	x0,10a58 <__subtf3+0xb30>
   1130c:	00100793          	addi	x15,x0,1
   11310:	c24ff06f          	jal	x0,10734 <__subtf3+0x80c>
   11314:	02012703          	lw	x14,32(x2)
   11318:	02000393          	addi	x7,x0,32
   1131c:	40d383b3          	sub	x7,x7,x13
   11320:	00771633          	sll	x12,x14,x7
   11324:	05312623          	sw	x19,76(x2)
   11328:	00d55533          	srl	x10,x10,x13
   1132c:	00300713          	addi	x14,x0,3
   11330:	00000e93          	addi	x29,x0,0
   11334:	8a4ff06f          	jal	x0,103d8 <__subtf3+0x4b0>
   11338:	02f12a23          	sw	x15,52(x2)
   1133c:	04c12983          	lw	x19,76(x2)
   11340:	02612823          	sw	x6,48(x2)
   11344:	02c12c23          	sw	x12,56(x2)
   11348:	03c12e23          	sw	x28,60(x2)
   1134c:	00038413          	addi	x8,x7,0
   11350:	03010793          	addi	x15,x2,48
   11354:	accff06f          	jal	x0,10620 <__subtf3+0x6f8>
   11358:	fff28793          	addi	x15,x5,-1
   1135c:	0012b293          	sltiu	x5,x5,1
   11360:	00556533          	or	x10,x10,x5
   11364:	bb1ff06f          	jal	x0,10f14 <__subtf3+0xfec>
   11368:	20071263          	bne	x14,x0,1156c <__subtf3+0x1644>
   1136c:	03112823          	sw	x17,48(x2)
   11370:	03e12a23          	sw	x30,52(x2)
   11374:	02512c23          	sw	x5,56(x2)
   11378:	03f12e23          	sw	x31,60(x2)
   1137c:	000f8e13          	addi	x28,x31,0
   11380:	fff50413          	addi	x8,x10,-1
   11384:	03010793          	addi	x15,x2,48
   11388:	a98ff06f          	jal	x0,10620 <__subtf3+0x6f8>
   1138c:	00688333          	add	x6,x17,x6
   11390:	00d786b3          	add	x13,x15,x13
   11394:	011335b3          	sltu	x11,x6,x17
   11398:	00b685b3          	add	x11,x13,x11
   1139c:	00f6b7b3          	sltu	x15,x13,x15
   113a0:	00d5b6b3          	sltu	x13,x11,x13
   113a4:	00d7e6b3          	or	x13,x15,x13
   113a8:	00e607b3          	add	x15,x12,x14
   113ac:	00d78733          	add	x14,x15,x13
   113b0:	00f736b3          	sltu	x13,x14,x15
   113b4:	00c7b7b3          	sltu	x15,x15,x12
   113b8:	00d7e7b3          	or	x15,x15,x13
   113bc:	00ae0533          	add	x10,x28,x10
   113c0:	00a78e33          	add	x28,x15,x10
   113c4:	02e12c23          	sw	x14,56(x2)
   113c8:	02b12a23          	sw	x11,52(x2)
   113cc:	02612823          	sw	x6,48(x2)
   113d0:	00ce1793          	slli	x15,x28,0xc
   113d4:	1c07d863          	bge	x15,x0,115a4 <__subtf3+0x167c>
   113d8:	fff807b7          	lui	x15,0xfff80
   113dc:	fff78793          	addi	x15,x15,-1 # fff7ffff <__heap_end+0xffb7ffff>
   113e0:	00fe7e33          	and	x28,x28,x15
   113e4:	03c12e23          	sw	x28,60(x2)
   113e8:	00100413          	addi	x8,x0,1
   113ec:	03010793          	addi	x15,x2,48
   113f0:	003e5593          	srli	x11,x28,0x3
   113f4:	984ff06f          	jal	x0,10578 <__subtf3+0x650>
   113f8:	00c7e7b3          	or	x15,x15,x12
   113fc:	0067e7b3          	or	x15,x15,x6
   11400:	01c7e7b3          	or	x15,x15,x28
   11404:	1a079e63          	bne	x15,x0,115c0 <__subtf3+0x1698>
   11408:	03112823          	sw	x17,48(x2)
   1140c:	02d12a23          	sw	x13,52(x2)
   11410:	02e12c23          	sw	x14,56(x2)
   11414:	02a12e23          	sw	x10,60(x2)
   11418:	00050e13          	addi	x28,x10,0
   1141c:	fff80413          	addi	x8,x16,-1
   11420:	03010793          	addi	x15,x2,48
   11424:	9fcff06f          	jal	x0,10620 <__subtf3+0x6f8>
   11428:	00688733          	add	x14,x17,x6
   1142c:	00f685b3          	add	x11,x13,x15
   11430:	01173833          	sltu	x16,x14,x17
   11434:	01058833          	add	x16,x11,x16
   11438:	00d5b7b3          	sltu	x15,x11,x13
   1143c:	00b835b3          	sltu	x11,x16,x11
   11440:	00c98633          	add	x12,x19,x12
   11444:	00b7e7b3          	or	x15,x15,x11
   11448:	00f607b3          	add	x15,x12,x15
   1144c:	013636b3          	sltu	x13,x12,x19
   11450:	00c7b633          	sltu	x12,x15,x12
   11454:	00c6e6b3          	or	x13,x13,x12
   11458:	01c282b3          	add	x5,x5,x28
   1145c:	04c12983          	lw	x19,76(x2)
   11460:	00568e33          	add	x28,x13,x5
   11464:	00100413          	addi	x8,x0,1
   11468:	87cff06f          	jal	x0,104e4 <__subtf3+0x5bc>
   1146c:	05412423          	sw	x20,72(x2)
   11470:	41f3d893          	srai	x17,x7,0x1f
   11474:	00269713          	slli	x14,x13,0x2
   11478:	01b8d693          	srli	x13,x17,0x1b
   1147c:	00d388b3          	add	x17,x7,x13
   11480:	00ef0733          	add	x14,x30,x14
   11484:	00072703          	lw	x14,0(x14)
   11488:	01f8f893          	andi	x17,x17,31
   1148c:	411686b3          	sub	x13,x13,x17
   11490:	02068a13          	addi	x20,x13,32
   11494:	01471733          	sll	x14,x14,x20
   11498:	00e5e5b3          	or	x11,x11,x14
   1149c:	1a098a63          	beq	x19,x0,11650 <__subtf3+0x1728>
   114a0:	00241393          	slli	x7,x8,0x2
   114a4:	007f0733          	add	x14,x30,x7
   114a8:	008f8f93          	addi	x31,x31,8
   114ac:	407003b3          	sub	x7,x0,x7
   114b0:	00072683          	lw	x13,0(x14)
   114b4:	00472883          	lw	x17,4(x14)
   114b8:	007702b3          	add	x5,x14,x7
   114bc:	0106d6b3          	srl	x13,x13,x16
   114c0:	014898b3          	sll	x17,x17,x20
   114c4:	0116e6b3          	or	x13,x13,x17
   114c8:	00d2a023          	sw	x13,0(x5)
   114cc:	00470713          	addi	x14,x14,4
   114d0:	feef90e3          	bne	x31,x14,114b0 <__subtf3+0x1588>
   114d4:	01c12703          	lw	x14,28(x2)
   114d8:	00299693          	slli	x13,x19,0x2
   114dc:	00df06b3          	add	x13,x30,x13
   114e0:	01075833          	srl	x16,x14,x16
   114e4:	00400713          	addi	x14,x0,4
   114e8:	04812a03          	lw	x20,72(x2)
   114ec:	0106a023          	sw	x16,0(x13)
   114f0:	40870733          	sub	x14,x14,x8
   114f4:	d69ff06f          	jal	x0,1125c <__subtf3+0x1334>
   114f8:	fff68693          	addi	x13,x13,-1
   114fc:	40c807b3          	sub	x15,x16,x12
   11500:	0017b793          	sltiu	x15,x15,1
   11504:	00f8e7b3          	or	x15,x17,x15
   11508:	bf9ff06f          	jal	x0,11100 <__subtf3+0x11d8>
   1150c:	fff50513          	addi	x10,x10,-1
   11510:	005633b3          	sltu	x7,x12,x5
   11514:	0013b393          	sltiu	x7,x7,1
   11518:	c2dff06f          	jal	x0,11144 <__subtf3+0x121c>
   1151c:	04c12983          	lw	x19,76(x2)
   11520:	00008437          	lui	x8,0x8
   11524:	02f12a23          	sw	x15,52(x2)
   11528:	02612823          	sw	x6,48(x2)
   1152c:	02c12c23          	sw	x12,56(x2)
   11530:	03c12e23          	sw	x28,60(x2)
   11534:	fff40413          	addi	x8,x8,-1 # 7fff <__gdtoa+0x84b>
   11538:	03010793          	addi	x15,x2,48
   1153c:	8e4ff06f          	jal	x0,10620 <__subtf3+0x6f8>
   11540:	04c12983          	lw	x19,76(x2)
   11544:	00100793          	addi	x15,x0,1
   11548:	e34ff06f          	jal	x0,10b7c <__subtf3+0xc54>
   1154c:	02f12a23          	sw	x15,52(x2)
   11550:	02612823          	sw	x6,48(x2)
   11554:	02c12c23          	sw	x12,56(x2)
   11558:	03c12e23          	sw	x28,60(x2)
   1155c:	00058493          	addi	x9,x11,0
   11560:	fff50413          	addi	x8,x10,-1
   11564:	03010793          	addi	x15,x2,48
   11568:	8b8ff06f          	jal	x0,10620 <__subtf3+0x6f8>
   1156c:	02a12e23          	sw	x10,60(x2)
   11570:	02012c23          	sw	x0,56(x2)
   11574:	02012a23          	sw	x0,52(x2)
   11578:	02012823          	sw	x0,48(x2)
   1157c:	03010793          	addi	x15,x2,48
   11580:	03c10713          	addi	x14,x2,60
   11584:	00351613          	slli	x12,x10,0x3
   11588:	ffc72503          	lw	x10,-4(x14)
   1158c:	ffc70713          	addi	x14,x14,-4
   11590:	01d55693          	srli	x13,x10,0x1d
   11594:	00c6e6b3          	or	x13,x13,x12
   11598:	00d72223          	sw	x13,4(x14)
   1159c:	fee794e3          	bne	x15,x14,11584 <__subtf3+0x165c>
   115a0:	fe8ff06f          	jal	x0,10d88 <__subtf3+0xe60>
   115a4:	03c12e23          	sw	x28,60(x2)
   115a8:	954ff06f          	jal	x0,106fc <__subtf3+0x7d4>
   115ac:	01f00693          	addi	x13,x0,31
   115b0:	0b06d863          	bge	x13,x16,11660 <__subtf3+0x1738>
   115b4:	40585693          	srai	x13,x16,0x5
   115b8:	00080393          	addi	x7,x16,0
   115bc:	c49ff06f          	jal	x0,11204 <__subtf3+0x12dc>
   115c0:	03012e23          	sw	x16,60(x2)
   115c4:	02012c23          	sw	x0,56(x2)
   115c8:	02012a23          	sw	x0,52(x2)
   115cc:	02012823          	sw	x0,48(x2)
   115d0:	03010793          	addi	x15,x2,48
   115d4:	03c10713          	addi	x14,x2,60
   115d8:	00381613          	slli	x12,x16,0x3
   115dc:	ffc72803          	lw	x16,-4(x14)
   115e0:	ffc70713          	addi	x14,x14,-4
   115e4:	01d85693          	srli	x13,x16,0x1d
   115e8:	00c6e6b3          	or	x13,x13,x12
   115ec:	00d72223          	sw	x13,4(x14)
   115f0:	fee794e3          	bne	x15,x14,115d8 <__subtf3+0x16b0>
   115f4:	f94ff06f          	jal	x0,10d88 <__subtf3+0xe60>
   115f8:	02000e13          	addi	x28,x0,32
   115fc:	410e0e33          	sub	x28,x28,x16
   11600:	00200593          	addi	x11,x0,2
   11604:	b64ff06f          	jal	x0,10968 <__subtf3+0xa40>
   11608:	fff28793          	addi	x15,x5,-1
   1160c:	0012b293          	sltiu	x5,x5,1
   11610:	00566733          	or	x14,x12,x5
   11614:	b85ff06f          	jal	x0,11198 <__subtf3+0x1270>
   11618:	04c12983          	lw	x19,76(x2)
   1161c:	01d2deb3          	srl	x29,x5,x29
   11620:	00100713          	addi	x14,x0,1
   11624:	cc9fe06f          	jal	x0,102ec <__subtf3+0x3c4>
   11628:	00068413          	addi	x8,x13,0
   1162c:	00000593          	addi	x11,x0,0
   11630:	00000693          	addi	x13,x0,0
   11634:	bf5ff06f          	jal	x0,11228 <__subtf3+0x1300>
   11638:	05312623          	sw	x19,76(x2)
   1163c:	000e8393          	addi	x7,x29,0
   11640:	00000813          	addi	x16,x0,0
   11644:	00300493          	addi	x9,x0,3
   11648:	00000693          	addi	x13,x0,0
   1164c:	9f9ff06f          	jal	x0,11044 <__subtf3+0x111c>
   11650:	04812a03          	lw	x20,72(x2)
   11654:	0102d833          	srl	x16,x5,x16
   11658:	00100713          	addi	x14,x0,1
   1165c:	c0dff06f          	jal	x0,11268 <__subtf3+0x1340>
   11660:	05412423          	sw	x20,72(x2)
   11664:	00080393          	addi	x7,x16,0
   11668:	00000693          	addi	x13,x0,0
   1166c:	00300993          	addi	x19,x0,3
   11670:	00000593          	addi	x11,x0,0
   11674:	dfdff06f          	jal	x0,11470 <__subtf3+0x1548>

00011678 <__unordtf2>:
   11678:	00c52803          	lw	x16,12(x10)
   1167c:	00c5a303          	lw	x6,12(x11)
   11680:	000087b7          	lui	x15,0x8
   11684:	fff78793          	addi	x15,x15,-1 # 7fff <__gdtoa+0x84b>
   11688:	01085713          	srli	x14,x16,0x10
   1168c:	01035693          	srli	x13,x6,0x10
   11690:	00f77733          	and	x14,x14,x15
   11694:	00052603          	lw	x12,0(x10)
   11698:	00452e03          	lw	x28,4(x10)
   1169c:	0005a883          	lw	x17,0(x11)
   116a0:	0045ae83          	lw	x29,4(x11)
   116a4:	00852503          	lw	x10,8(x10)
   116a8:	0085a583          	lw	x11,8(x11)
   116ac:	ff010113          	addi	x2,x2,-16
   116b0:	00f6f6b3          	and	x13,x13,x15
   116b4:	02f70a63          	beq	x14,x15,116e8 <__unordtf2+0x70>
   116b8:	000087b7          	lui	x15,0x8
   116bc:	fff78793          	addi	x15,x15,-1 # 7fff <__gdtoa+0x84b>
   116c0:	00000513          	addi	x10,x0,0
   116c4:	00f69e63          	bne	x13,x15,116e0 <__unordtf2+0x68>
   116c8:	01d8e533          	or	x10,x17,x29
   116cc:	01031313          	slli	x6,x6,0x10
   116d0:	00b56533          	or	x10,x10,x11
   116d4:	01035313          	srli	x6,x6,0x10
   116d8:	00656533          	or	x10,x10,x6
   116dc:	00a03533          	sltu	x10,x0,x10
   116e0:	01010113          	addi	x2,x2,16
   116e4:	00008067          	jalr	x0,0(x1)
   116e8:	01c66633          	or	x12,x12,x28
   116ec:	01081813          	slli	x16,x16,0x10
   116f0:	00a66633          	or	x12,x12,x10
   116f4:	01085813          	srli	x16,x16,0x10
   116f8:	01066633          	or	x12,x12,x16
   116fc:	00100513          	addi	x10,x0,1
   11700:	fa060ce3          	beq	x12,x0,116b8 <__unordtf2+0x40>
   11704:	01010113          	addi	x2,x2,16
   11708:	00008067          	jalr	x0,0(x1)

0001170c <__fixtfsi>:
   1170c:	00c52783          	lw	x15,12(x10)
   11710:	00052583          	lw	x11,0(x10)
   11714:	00852683          	lw	x13,8(x10)
   11718:	00452803          	lw	x16,4(x10)
   1171c:	fe010113          	addi	x2,x2,-32
   11720:	00179713          	slli	x14,x15,0x1
   11724:	00004637          	lui	x12,0x4
   11728:	00f12623          	sw	x15,12(x2)
   1172c:	01175713          	srli	x14,x14,0x11
   11730:	00b12023          	sw	x11,0(x2)
   11734:	00b12823          	sw	x11,16(x2)
   11738:	01012223          	sw	x16,4(x2)
   1173c:	00d12423          	sw	x13,8(x2)
   11740:	00d12c23          	sw	x13,24(x2)
   11744:	ffe60613          	addi	x12,x12,-2 # 3ffe <_vfprintf_r+0x10fe>
   11748:	00000513          	addi	x10,x0,0
   1174c:	02e65063          	bge	x12,x14,1176c <__fixtfsi+0x60>
   11750:	00004637          	lui	x12,0x4
   11754:	01d60613          	addi	x12,x12,29 # 401d <_vfprintf_r+0x111d>
   11758:	01f7d593          	srli	x11,x15,0x1f
   1175c:	00e65c63          	bge	x12,x14,11774 <__fixtfsi+0x68>
   11760:	80000537          	lui	x10,0x80000
   11764:	fff50513          	addi	x10,x10,-1 # 7fffffff <__heap_end+0x7fbfffff>
   11768:	00a58533          	add	x10,x11,x10
   1176c:	02010113          	addi	x2,x2,32
   11770:	00008067          	jalr	x0,0(x1)
   11774:	00004637          	lui	x12,0x4
   11778:	01079793          	slli	x15,x15,0x10
   1177c:	00010537          	lui	x10,0x10
   11780:	06f60613          	addi	x12,x12,111 # 406f <_vfprintf_r+0x116f>
   11784:	0107d793          	srli	x15,x15,0x10
   11788:	40e60733          	sub	x14,x12,x14
   1178c:	00a7e7b3          	or	x15,x15,x10
   11790:	02000613          	addi	x12,x0,32
   11794:	01f77513          	andi	x10,x14,31
   11798:	00f12e23          	sw	x15,28(x2)
   1179c:	40575713          	srai	x14,x14,0x5
   117a0:	40a60633          	sub	x12,x12,x10
   117a4:	04050663          	beq	x10,x0,117f0 <__fixtfsi+0xe4>
   117a8:	00200813          	addi	x16,x0,2
   117ac:	05071e63          	bne	x14,x16,11808 <__fixtfsi+0xfc>
   117b0:	00a6d6b3          	srl	x13,x13,x10
   117b4:	00c79633          	sll	x12,x15,x12
   117b8:	00c6e6b3          	or	x13,x13,x12
   117bc:	00d12823          	sw	x13,16(x2)
   117c0:	00100713          	addi	x14,x0,1
   117c4:	00271713          	slli	x14,x14,0x2
   117c8:	02070713          	addi	x14,x14,32
   117cc:	00270733          	add	x14,x14,x2
   117d0:	00a7d7b3          	srl	x15,x15,x10
   117d4:	fef72823          	sw	x15,-16(x14)
   117d8:	01012783          	lw	x15,16(x2)
   117dc:	40f00533          	sub	x10,x0,x15
   117e0:	f80596e3          	bne	x11,x0,1176c <__fixtfsi+0x60>
   117e4:	00078513          	addi	x10,x15,0
   117e8:	02010113          	addi	x2,x2,32
   117ec:	00008067          	jalr	x0,0(x1)
   117f0:	00271713          	slli	x14,x14,0x2
   117f4:	02070793          	addi	x15,x14,32
   117f8:	00278733          	add	x14,x15,x2
   117fc:	ff072783          	lw	x15,-16(x14)
   11800:	00f12823          	sw	x15,16(x2)
   11804:	fd5ff06f          	jal	x0,117d8 <__fixtfsi+0xcc>
   11808:	00000713          	addi	x14,x0,0
   1180c:	fb9ff06f          	jal	x0,117c4 <__fixtfsi+0xb8>

00011810 <__floatsitf>:
   11810:	fd010113          	addi	x2,x2,-48
   11814:	02912223          	sw	x9,36(x2)
   11818:	02112623          	sw	x1,44(x2)
   1181c:	02812423          	sw	x8,40(x2)
   11820:	00050493          	addi	x9,x10,0 # 10000 <__subtf3+0xd8>
   11824:	0a058a63          	beq	x11,x0,118d8 <__floatsitf+0xc8>
   11828:	41f5d793          	srai	x15,x11,0x1f
   1182c:	03212023          	sw	x18,32(x2)
   11830:	00b7c933          	xor	x18,x15,x11
   11834:	40f90933          	sub	x18,x18,x15
   11838:	00090513          	addi	x10,x18,0
   1183c:	01f5d413          	srli	x8,x11,0x1f
   11840:	378000ef          	jal	x1,11bb8 <__clzsi2>
   11844:	05150713          	addi	x14,x10,81
   11848:	000047b7          	lui	x15,0x4
   1184c:	01e78793          	addi	x15,x15,30 # 401e <_vfprintf_r+0x111e>
   11850:	01f77613          	andi	x12,x14,31
   11854:	01212823          	sw	x18,16(x2)
   11858:	00012a23          	sw	x0,20(x2)
   1185c:	00012c23          	sw	x0,24(x2)
   11860:	00012e23          	sw	x0,28(x2)
   11864:	40a787b3          	sub	x15,x15,x10
   11868:	40575713          	srai	x14,x14,0x5
   1186c:	0c061063          	bne	x12,x0,1192c <__floatsitf+0x11c>
   11870:	00300613          	addi	x12,x0,3
   11874:	40e60633          	sub	x12,x12,x14
   11878:	00261613          	slli	x12,x12,0x2
   1187c:	01010593          	addi	x11,x2,16
   11880:	00c58633          	add	x12,x11,x12
   11884:	00200693          	addi	x13,x0,2
   11888:	00062603          	lw	x12,0(x12)
   1188c:	00d71663          	bne	x14,x13,11898 <__floatsitf+0x88>
   11890:	01212c23          	sw	x18,24(x2)
   11894:	00100693          	addi	x13,x0,1
   11898:	00269693          	slli	x13,x13,0x2
   1189c:	00012823          	sw	x0,16(x2)
   118a0:	ffc68693          	addi	x13,x13,-4
   118a4:	0005a223          	sw	x0,4(x11)
   118a8:	00400713          	addi	x14,x0,4
   118ac:	00e6e463          	bltu	x13,x14,118b4 <__floatsitf+0xa4>
   118b0:	00012c23          	sw	x0,24(x2)
   118b4:	01061713          	slli	x14,x12,0x10
   118b8:	01179793          	slli	x15,x15,0x11
   118bc:	01012503          	lw	x10,16(x2)
   118c0:	01412603          	lw	x12,20(x2)
   118c4:	01812683          	lw	x13,24(x2)
   118c8:	02012903          	lw	x18,32(x2)
   118cc:	0117d793          	srli	x15,x15,0x11
   118d0:	01075713          	srli	x14,x14,0x10
   118d4:	01c0006f          	jal	x0,118f0 <__floatsitf+0xe0>
   118d8:	00000413          	addi	x8,x0,0
   118dc:	00000793          	addi	x15,x0,0
   118e0:	00000713          	addi	x14,x0,0
   118e4:	00000693          	addi	x13,x0,0
   118e8:	00000613          	addi	x12,x0,0
   118ec:	00000513          	addi	x10,x0,0
   118f0:	00f41593          	slli	x11,x8,0xf
   118f4:	00b7e7b3          	or	x15,x15,x11
   118f8:	00f11723          	sh	x15,14(x2)
   118fc:	00e11623          	sh	x14,12(x2)
   11900:	00c12783          	lw	x15,12(x2)
   11904:	02c12083          	lw	x1,44(x2)
   11908:	02812403          	lw	x8,40(x2)
   1190c:	00a4a023          	sw	x10,0(x9)
   11910:	00c4a223          	sw	x12,4(x9)
   11914:	00d4a423          	sw	x13,8(x9)
   11918:	00f4a623          	sw	x15,12(x9)
   1191c:	00048513          	addi	x10,x9,0
   11920:	02412483          	lw	x9,36(x2)
   11924:	03010113          	addi	x2,x2,48
   11928:	00008067          	jalr	x0,0(x1)
   1192c:	00200693          	addi	x13,x0,2
   11930:	02d70263          	beq	x14,x13,11954 <__floatsitf+0x144>
   11934:	00300713          	addi	x14,x0,3
   11938:	00271713          	slli	x14,x14,0x2
   1193c:	01010593          	addi	x11,x2,16
   11940:	00c91933          	sll	x18,x18,x12
   11944:	00e58733          	add	x14,x11,x14
   11948:	01272023          	sw	x18,0(x14)
   1194c:	01c12603          	lw	x12,28(x2)
   11950:	f49ff06f          	jal	x0,11898 <__floatsitf+0x88>
   11954:	02000693          	addi	x13,x0,32
   11958:	40c686b3          	sub	x13,x13,x12
   1195c:	00d956b3          	srl	x13,x18,x13
   11960:	00d12e23          	sw	x13,28(x2)
   11964:	00100693          	addi	x13,x0,1
   11968:	fd1ff06f          	jal	x0,11938 <__floatsitf+0x128>

0001196c <__extenddftf2>:
   1196c:	01465793          	srli	x15,x12,0x14
   11970:	7ff7f793          	andi	x15,x15,2047
   11974:	00c61713          	slli	x14,x12,0xc
   11978:	fd010113          	addi	x2,x2,-48
   1197c:	00178693          	addi	x13,x15,1
   11980:	00c75713          	srli	x14,x14,0xc
   11984:	02812423          	sw	x8,40(x2)
   11988:	02912223          	sw	x9,36(x2)
   1198c:	03212023          	sw	x18,32(x2)
   11990:	02112623          	sw	x1,44(x2)
   11994:	00b12823          	sw	x11,16(x2)
   11998:	00012e23          	sw	x0,28(x2)
   1199c:	00012c23          	sw	x0,24(x2)
   119a0:	7fe6f693          	andi	x13,x13,2046
   119a4:	00e12a23          	sw	x14,20(x2)
   119a8:	00058413          	addi	x8,x11,0
   119ac:	00050913          	addi	x18,x10,0
   119b0:	01f65493          	srli	x9,x12,0x1f
   119b4:	06068463          	beq	x13,x0,11a1c <__extenddftf2+0xb0>
   119b8:	00004637          	lui	x12,0x4
   119bc:	01c71693          	slli	x13,x14,0x1c
   119c0:	c0060613          	addi	x12,x12,-1024 # 3c00 <_vfprintf_r+0xd00>
   119c4:	0045d593          	srli	x11,x11,0x4
   119c8:	00c787b3          	add	x15,x15,x12
   119cc:	00475713          	srli	x14,x14,0x4
   119d0:	00b6e6b3          	or	x13,x13,x11
   119d4:	01c41413          	slli	x8,x8,0x1c
   119d8:	00000513          	addi	x10,x0,0
   119dc:	00f49613          	slli	x12,x9,0xf
   119e0:	00c7e7b3          	or	x15,x15,x12
   119e4:	00f11723          	sh	x15,14(x2)
   119e8:	00e11623          	sh	x14,12(x2)
   119ec:	00c12783          	lw	x15,12(x2)
   119f0:	00892223          	sw	x8,4(x18)
   119f4:	02c12083          	lw	x1,44(x2)
   119f8:	02812403          	lw	x8,40(x2)
   119fc:	00a92023          	sw	x10,0(x18)
   11a00:	00d92423          	sw	x13,8(x18)
   11a04:	00f92623          	sw	x15,12(x18)
   11a08:	02412483          	lw	x9,36(x2)
   11a0c:	00090513          	addi	x10,x18,0
   11a10:	02012903          	lw	x18,32(x2)
   11a14:	03010113          	addi	x2,x2,48
   11a18:	00008067          	jalr	x0,0(x1)
   11a1c:	00b76533          	or	x10,x14,x11
   11a20:	04079e63          	bne	x15,x0,11a7c <__extenddftf2+0x110>
   11a24:	08050263          	beq	x10,x0,11aa8 <__extenddftf2+0x13c>
   11a28:	0a070663          	beq	x14,x0,11ad4 <__extenddftf2+0x168>
   11a2c:	00070513          	addi	x10,x14,0
   11a30:	188000ef          	jal	x1,11bb8 <__clzsi2>
   11a34:	03150713          	addi	x14,x10,49
   11a38:	01f77593          	andi	x11,x14,31
   11a3c:	40575713          	srai	x14,x14,0x5
   11a40:	0c059063          	bne	x11,x0,11b00 <__extenddftf2+0x194>
   11a44:	00f00513          	addi	x10,x0,15
   11a48:	40e006b3          	sub	x13,x0,x14
   11a4c:	00269693          	slli	x13,x13,0x2
   11a50:	01010613          	addi	x12,x2,16
   11a54:	00d607b3          	add	x15,x12,x13
   11a58:	00010893          	addi	x17,x2,0
   11a5c:	40d006b3          	sub	x13,x0,x13
   11a60:	00c7a803          	lw	x16,12(x15)
   11a64:	00d785b3          	add	x11,x15,x13
   11a68:	ffc78793          	addi	x15,x15,-4
   11a6c:	0105a623          	sw	x16,12(x11)
   11a70:	fef898e3          	bne	x17,x15,11a60 <__extenddftf2+0xf4>
   11a74:	fff70793          	addi	x15,x14,-1
   11a78:	0e00006f          	jal	x0,11b58 <__extenddftf2+0x1ec>
   11a7c:	04050063          	beq	x10,x0,11abc <__extenddftf2+0x150>
   11a80:	01c71693          	slli	x13,x14,0x1c
   11a84:	000087b7          	lui	x15,0x8
   11a88:	00475713          	srli	x14,x14,0x4
   11a8c:	0045d613          	srli	x12,x11,0x4
   11a90:	00f76733          	or	x14,x14,x15
   11a94:	00c6e6b3          	or	x13,x13,x12
   11a98:	01c59413          	slli	x8,x11,0x1c
   11a9c:	fff78793          	addi	x15,x15,-1 # 7fff <__gdtoa+0x84b>
   11aa0:	00000513          	addi	x10,x0,0
   11aa4:	f39ff06f          	jal	x0,119dc <__extenddftf2+0x70>
   11aa8:	00000693          	addi	x13,x0,0
   11aac:	00000413          	addi	x8,x0,0
   11ab0:	00000793          	addi	x15,x0,0
   11ab4:	00000713          	addi	x14,x0,0
   11ab8:	f25ff06f          	jal	x0,119dc <__extenddftf2+0x70>
   11abc:	000087b7          	lui	x15,0x8
   11ac0:	fff78793          	addi	x15,x15,-1 # 7fff <__gdtoa+0x84b>
   11ac4:	00000693          	addi	x13,x0,0
   11ac8:	00000413          	addi	x8,x0,0
   11acc:	00000713          	addi	x14,x0,0
   11ad0:	f0dff06f          	jal	x0,119dc <__extenddftf2+0x70>
   11ad4:	0e4000ef          	jal	x1,11bb8 <__clzsi2>
   11ad8:	05150713          	addi	x14,x10,81
   11adc:	01f77593          	andi	x11,x14,31
   11ae0:	40575713          	srai	x14,x14,0x5
   11ae4:	0c058663          	beq	x11,x0,11bb0 <__extenddftf2+0x244>
   11ae8:	00200793          	addi	x15,x0,2
   11aec:	02050513          	addi	x10,x10,32
   11af0:	00f70863          	beq	x14,x15,11b00 <__extenddftf2+0x194>
   11af4:	00300713          	addi	x14,x0,3
   11af8:	01010613          	addi	x12,x2,16
   11afc:	04c0006f          	jal	x0,11b48 <__extenddftf2+0x1dc>
   11b00:	40e008b3          	sub	x17,x0,x14
   11b04:	00289893          	slli	x17,x17,0x2
   11b08:	00c88793          	addi	x15,x17,12
   11b0c:	02000e13          	addi	x28,x0,32
   11b10:	01010613          	addi	x12,x2,16
   11b14:	40be0e33          	sub	x28,x28,x11
   11b18:	411008b3          	sub	x17,x0,x17
   11b1c:	00f607b3          	add	x15,x12,x15
   11b20:	0007a683          	lw	x13,0(x15)
   11b24:	ffc7a803          	lw	x16,-4(x15)
   11b28:	01178333          	add	x6,x15,x17
   11b2c:	00b696b3          	sll	x13,x13,x11
   11b30:	01c85833          	srl	x16,x16,x28
   11b34:	0106e6b3          	or	x13,x13,x16
   11b38:	00d32023          	sw	x13,0(x6)
   11b3c:	ffc78793          	addi	x15,x15,-4
   11b40:	fef610e3          	bne	x12,x15,11b20 <__extenddftf2+0x1b4>
   11b44:	fff70793          	addi	x15,x14,-1
   11b48:	00271693          	slli	x13,x14,0x2
   11b4c:	00d606b3          	add	x13,x12,x13
   11b50:	00b415b3          	sll	x11,x8,x11
   11b54:	00b6a023          	sw	x11,0(x13)
   11b58:	00178793          	addi	x15,x15,1
   11b5c:	00279793          	slli	x15,x15,0x2
   11b60:	00800693          	addi	x13,x0,8
   11b64:	00060713          	addi	x14,x12,0
   11b68:	00d7ea63          	bltu	x15,x13,11b7c <__extenddftf2+0x210>
   11b6c:	00012823          	sw	x0,16(x2)
   11b70:	00062223          	sw	x0,4(x12)
   11b74:	ff878793          	addi	x15,x15,-8
   11b78:	01810713          	addi	x14,x2,24
   11b7c:	00400693          	addi	x13,x0,4
   11b80:	00d7e463          	bltu	x15,x13,11b88 <__extenddftf2+0x21c>
   11b84:	00072023          	sw	x0,0(x14)
   11b88:	000047b7          	lui	x15,0x4
   11b8c:	c0c78793          	addi	x15,x15,-1012 # 3c0c <_vfprintf_r+0xd0c>
   11b90:	40a787b3          	sub	x15,x15,x10
   11b94:	01179793          	slli	x15,x15,0x11
   11b98:	01012503          	lw	x10,16(x2)
   11b9c:	01412403          	lw	x8,20(x2)
   11ba0:	01812683          	lw	x13,24(x2)
   11ba4:	01c15703          	lhu	x14,28(x2)
   11ba8:	0117d793          	srli	x15,x15,0x11
   11bac:	e31ff06f          	jal	x0,119dc <__extenddftf2+0x70>
   11bb0:	02f00513          	addi	x10,x0,47
   11bb4:	e95ff06f          	jal	x0,11a48 <__extenddftf2+0xdc>

00011bb8 <__clzsi2>:
   11bb8:	000107b7          	lui	x15,0x10
   11bbc:	02f57a63          	bgeu	x10,x15,11bf0 <__clzsi2+0x38>
   11bc0:	10053713          	sltiu	x14,x10,256
   11bc4:	00173713          	sltiu	x14,x14,1
   11bc8:	00371713          	slli	x14,x14,0x3
   11bcc:	000137b7          	lui	x15,0x13
   11bd0:	00e55533          	srl	x10,x10,x14
   11bd4:	80c78793          	addi	x15,x15,-2036 # 1280c <__clz_tab>
   11bd8:	00a787b3          	add	x15,x15,x10
   11bdc:	0007c503          	lbu	x10,0(x15)
   11be0:	02000693          	addi	x13,x0,32
   11be4:	40e686b3          	sub	x13,x13,x14
   11be8:	40a68533          	sub	x10,x13,x10
   11bec:	00008067          	jalr	x0,0(x1)
   11bf0:	010007b7          	lui	x15,0x1000
   11bf4:	02f57463          	bgeu	x10,x15,11c1c <__clzsi2+0x64>
   11bf8:	01000693          	addi	x13,x0,16
   11bfc:	00068713          	addi	x14,x13,0
   11c00:	000137b7          	lui	x15,0x13
   11c04:	00e55533          	srl	x10,x10,x14
   11c08:	80c78793          	addi	x15,x15,-2036 # 1280c <__clz_tab>
   11c0c:	00a787b3          	add	x15,x15,x10
   11c10:	0007c503          	lbu	x10,0(x15)
   11c14:	40a68533          	sub	x10,x13,x10
   11c18:	00008067          	jalr	x0,0(x1)
   11c1c:	01800713          	addi	x14,x0,24
   11c20:	000137b7          	lui	x15,0x13
   11c24:	00e55533          	srl	x10,x10,x14
   11c28:	80c78793          	addi	x15,x15,-2036 # 1280c <__clz_tab>
   11c2c:	00a787b3          	add	x15,x15,x10
   11c30:	0007c503          	lbu	x10,0(x15)
   11c34:	00800693          	addi	x13,x0,8
   11c38:	40a68533          	sub	x10,x13,x10
   11c3c:	00008067          	jalr	x0,0(x1)
