
/mnt/c/Users/kersz/Documents/ufrgs/IC/core-v-verif/cv32e40p/tests/programs/custom/basic/basic.elf:     file format elf32-littleriscv


Disassembly of section .vectors:

00000000 <__vector_start>:
.section .vectors, "ax"
.option norvc
.global vector_table

vector_table:
	j u_sw_irq_handler
   0:	12c0006f          	jal	x0,12c <u_sw_irq_handler>
	j __no_irq_handler
   4:	0f40006f          	jal	x0,f8 <__no_irq_handler>
	j __no_irq_handler
   8:	0f00006f          	jal	x0,f8 <__no_irq_handler>
	j m_software_irq_handler
   c:	0fa0006f          	jal	x0,106 <m_software_irq_handler>
	j __no_irq_handler
  10:	0e80006f          	jal	x0,f8 <__no_irq_handler>
	j __no_irq_handler
  14:	0e40006f          	jal	x0,f8 <__no_irq_handler>
	j __no_irq_handler
  18:	0e00006f          	jal	x0,f8 <__no_irq_handler>
	j m_timer_irq_handler
  1c:	0ec0006f          	jal	x0,108 <m_timer_irq_handler>
	j __no_irq_handler
  20:	0d80006f          	jal	x0,f8 <__no_irq_handler>
	j __no_irq_handler
  24:	0d40006f          	jal	x0,f8 <__no_irq_handler>
	j __no_irq_handler
  28:	0d00006f          	jal	x0,f8 <__no_irq_handler>
	j m_external_irq_handler
  2c:	0de0006f          	jal	x0,10a <m_external_irq_handler>
	j __no_irq_handler
  30:	0c80006f          	jal	x0,f8 <__no_irq_handler>
	j __no_irq_handler
  34:	0c40006f          	jal	x0,f8 <__no_irq_handler>
	j __no_irq_handler
  38:	0c00006f          	jal	x0,f8 <__no_irq_handler>
	j __no_irq_handler
  3c:	0bc0006f          	jal	x0,f8 <__no_irq_handler>
	j m_fast0_irq_handler
  40:	0cc0006f          	jal	x0,10c <m_fast0_irq_handler>
	j m_fast1_irq_handler
  44:	0ca0006f          	jal	x0,10e <m_fast1_irq_handler>
	j m_fast2_irq_handler
  48:	0c80006f          	jal	x0,110 <m_fast2_irq_handler>
	j m_fast3_irq_handler
  4c:	0c60006f          	jal	x0,112 <m_fast3_irq_handler>
	j m_fast4_irq_handler
  50:	0c40006f          	jal	x0,114 <m_fast4_irq_handler>
	j m_fast5_irq_handler
  54:	0c20006f          	jal	x0,116 <m_fast5_irq_handler>
	j m_fast6_irq_handler
  58:	0c00006f          	jal	x0,118 <m_fast6_irq_handler>
	j m_fast7_irq_handler
  5c:	0be0006f          	jal	x0,11a <m_fast7_irq_handler>
	j m_fast8_irq_handler
  60:	0bc0006f          	jal	x0,11c <m_fast8_irq_handler>
	j m_fast9_irq_handler
  64:	0ba0006f          	jal	x0,11e <m_fast9_irq_handler>
	j m_fast10_irq_handler
  68:	0b80006f          	jal	x0,120 <m_fast10_irq_handler>
	j m_fast11_irq_handler
  6c:	0b60006f          	jal	x0,122 <m_fast11_irq_handler>
	j m_fast12_irq_handler
  70:	0b40006f          	jal	x0,124 <m_fast12_irq_handler>
	j m_fast13_irq_handler
  74:	0b20006f          	jal	x0,126 <m_fast13_irq_handler>
	j m_fast14_irq_handler
  78:	0b00006f          	jal	x0,128 <m_fast14_irq_handler>
	j m_fast15_irq_handler
  7c:	0ae0006f          	jal	x0,12a <m_fast15_irq_handler>

Disassembly of section .init:

00000080 <_start>:

_start:
/* initialize global pointer */
.option push
.option norelax
1:	auipc gp, %pcrel_hi(__global_pointer$)
  80:	00013197          	auipc	x3,0x13
	addi  gp, gp, %pcrel_lo(1b)
  84:	c2018193          	addi	x3,x3,-992 # 12ca0 <__global_pointer$>
.option pop

/* initialize stack pointer */
	la sp, __stack_end
  88:	00400117          	auipc	x2,0x400
  8c:	f7810113          	addi	x2,x2,-136 # 400000 <__heap_end>

/* set vector table address */
	la a0, __vector_start
  90:	00000517          	auipc	x10,0x0
  94:	f7050513          	addi	x10,x10,-144 # 0 <__vector_start>
	ori a0, a0, 1 /*vector mode = vectored */
  98:	00156513          	ori	x10,x10,1
	csrw mtvec, a0
  9c:	30551073          	csrrw	x0,mtvec,x10

/* clear the bss segment */
	la a0, _edata
  a0:	f1818513          	addi	x10,x3,-232 # 12bb8 <errno>
	la a2, _end
  a4:	22418613          	addi	x12,x3,548 # 12ec4 <__bss_end>
	sub a2, a2, a0
  a8:	8e09                	c.sub	x12,x10
	li a1, 0
  aa:	4581                	c.li	x11,0
	call memset
  ac:	2e61                	c.jal	444 <memset>

/* new-style constructors and destructors */
	la a0, __libc_fini_array
  ae:	00002517          	auipc	x10,0x2
  b2:	82250513          	addi	x10,x10,-2014 # 18d0 <__libc_fini_array>
	call atexit
  b6:	223020ef          	jal	x1,2ad8 <atexit>
	call __libc_init_array
  ba:	15f020ef          	jal	x1,2a18 <__libc_init_array>
//	lw a0, 0(sp)                    /* a0 = argc */
//	addi a1, sp, __SIZEOF_POINTER__ /* a1 = argv */
//	li a2, 0                        /* a2 = envp = NULL */
// Initialize these variables to 0. Cannot use argc or argv
// since the stack is not initialized
	li a0, 0
  be:	4501                	c.li	x10,0
	li a1, 0
  c0:	4581                	c.li	x11,0
	li a2, 0
  c2:	4601                	c.li	x12,0

	call main
  c4:	2021                	c.jal	cc <main>
	tail exit
  c6:	1e70206f          	jal	x0,2aac <exit>

000000ca <_fini>:
.type   _fini, @function
_init:
_fini:
 /* These don't have to do anything since we use init_array/fini_array. Prevent
    missing symbol error */
	ret
  ca:	8082                	c.jr	x1

Disassembly of section .text:

000000cc <main>:
#include <stdio.h>
#include <stdlib.h>

int main()
{
    printf("Basic Print Test");
      cc:	6549                	c.lui	x10,0x12
{
      ce:	1141                	c.addi	x2,-16
    printf("Basic Print Test");
      d0:	a2050513          	addi	x10,x10,-1504 # 11a20 <__clzsi2+0x88>
{
      d4:	c606                	c.swsp	x1,12(x2)
    printf("Basic Print Test");
      d6:	23b9                	c.jal	624 <printf>
    return EXIT_SUCCESS;
}
      d8:	40b2                	c.lwsp	x1,12(x2)
      da:	4501                	c.li	x10,0
      dc:	0141                	c.addi	x2,16
      de:	8082                	c.jr	x1

000000e0 <register_fini>:
      e0:	00000793          	addi	x15,x0,0
      e4:	00078863          	beq	x15,x0,f4 <register_fini+0x14>
      e8:	00001517          	auipc	x10,0x1
      ec:	7e850513          	addi	x10,x10,2024 # 18d0 <__libc_fini_array>
      f0:	1e90206f          	jal	x0,2ad8 <atexit>
      f4:	00008067          	jalr	x0,0(x1)

000000f8 <__no_irq_handler>:
.weak m_fast15_irq_handler


/* exception handling */
__no_irq_handler:
	la a0, no_exception_handler_msg
      f8:	00012517          	auipc	x10,0x12
      fc:	b5b50513          	addi	x10,x10,-1189 # 11c53 <no_exception_handler_msg>
	jal ra, puts
     100:	640000ef          	jal	x1,740 <puts>
	j __no_irq_handler
     104:	bfd5                	c.j	f8 <__no_irq_handler>

00000106 <m_software_irq_handler>:

m_software_irq_handler:
	j __no_irq_handler
     106:	bfcd                	c.j	f8 <__no_irq_handler>

00000108 <m_timer_irq_handler>:

m_timer_irq_handler:
	j __no_irq_handler
     108:	bfc5                	c.j	f8 <__no_irq_handler>

0000010a <m_external_irq_handler>:

m_external_irq_handler:
	j __no_irq_handler
     10a:	b7fd                	c.j	f8 <__no_irq_handler>

0000010c <m_fast0_irq_handler>:

m_fast0_irq_handler:
	j __no_irq_handler
     10c:	b7f5                	c.j	f8 <__no_irq_handler>

0000010e <m_fast1_irq_handler>:

m_fast1_irq_handler:
	j __no_irq_handler
     10e:	b7ed                	c.j	f8 <__no_irq_handler>

00000110 <m_fast2_irq_handler>:

m_fast2_irq_handler:
	j __no_irq_handler
     110:	b7e5                	c.j	f8 <__no_irq_handler>

00000112 <m_fast3_irq_handler>:

m_fast3_irq_handler:
	j __no_irq_handler
     112:	b7dd                	c.j	f8 <__no_irq_handler>

00000114 <m_fast4_irq_handler>:

m_fast4_irq_handler:
	j __no_irq_handler
     114:	b7d5                	c.j	f8 <__no_irq_handler>

00000116 <m_fast5_irq_handler>:

m_fast5_irq_handler:
	j __no_irq_handler
     116:	b7cd                	c.j	f8 <__no_irq_handler>

00000118 <m_fast6_irq_handler>:

m_fast6_irq_handler:
	j __no_irq_handler
     118:	b7c5                	c.j	f8 <__no_irq_handler>

0000011a <m_fast7_irq_handler>:

m_fast7_irq_handler:
	j __no_irq_handler
     11a:	bff9                	c.j	f8 <__no_irq_handler>

0000011c <m_fast8_irq_handler>:

m_fast8_irq_handler:
	j __no_irq_handler
     11c:	bff1                	c.j	f8 <__no_irq_handler>

0000011e <m_fast9_irq_handler>:

m_fast9_irq_handler:
	j __no_irq_handler
     11e:	bfe9                	c.j	f8 <__no_irq_handler>

00000120 <m_fast10_irq_handler>:

m_fast10_irq_handler:
	j __no_irq_handler
     120:	bfe1                	c.j	f8 <__no_irq_handler>

00000122 <m_fast11_irq_handler>:

m_fast11_irq_handler:
	j __no_irq_handler
     122:	bfd9                	c.j	f8 <__no_irq_handler>

00000124 <m_fast12_irq_handler>:

m_fast12_irq_handler:
	j __no_irq_handler
     124:	bfd1                	c.j	f8 <__no_irq_handler>

00000126 <m_fast13_irq_handler>:

m_fast13_irq_handler:
	j __no_irq_handler
     126:	bfc9                	c.j	f8 <__no_irq_handler>

00000128 <m_fast14_irq_handler>:

m_fast14_irq_handler:
	j __no_irq_handler
     128:	bfc1                	c.j	f8 <__no_irq_handler>

0000012a <m_fast15_irq_handler>:

m_fast15_irq_handler:
	j __no_irq_handler
     12a:	b7f9                	c.j	f8 <__no_irq_handler>

0000012c <u_sw_irq_handler>:

u_sw_irq_handler:
	/* While we are still using puts in handlers, save all caller saved
	   regs.  Eventually, some of these saves could be deferred.  */
	addi sp,sp,-64
     12c:	7139                	c.addi16sp	x2,-64
	sw ra, 0(sp)
     12e:	c006                	c.swsp	x1,0(x2)
	sw a0, 4(sp)
     130:	c22a                	c.swsp	x10,4(x2)
	sw a1, 8(sp)
     132:	c42e                	c.swsp	x11,8(x2)
	sw a2, 12(sp)
     134:	c632                	c.swsp	x12,12(x2)
	sw a3, 16(sp)
     136:	c836                	c.swsp	x13,16(x2)
	sw a4, 20(sp)
     138:	ca3a                	c.swsp	x14,20(x2)
	sw a5, 24(sp)
     13a:	cc3e                	c.swsp	x15,24(x2)
	sw a6, 28(sp)
     13c:	ce42                	c.swsp	x16,28(x2)
	sw a7, 32(sp)
     13e:	d046                	c.swsp	x17,32(x2)
	sw t0, 36(sp)
     140:	d216                	c.swsp	x5,36(x2)
	sw t1, 40(sp)
     142:	d41a                	c.swsp	x6,40(x2)
	sw t2, 44(sp)
     144:	d61e                	c.swsp	x7,44(x2)
	sw t3, 48(sp)
     146:	d872                	c.swsp	x28,48(x2)
	sw t4, 52(sp)
     148:	da76                	c.swsp	x29,52(x2)
	sw t5, 56(sp)
     14a:	dc7a                	c.swsp	x30,56(x2)
	sw t6, 60(sp)
     14c:	de7e                	c.swsp	x31,60(x2)
	csrr t0, mcause
     14e:	342022f3          	csrrs	x5,mcause,x0
	li t1, EXCEPTION_ILLEGAL_INSN
     152:	4309                	c.li	x6,2
	beq t0, t1, handle_illegal_insn
     154:	02628363          	beq	x5,x6,17a <handle_illegal_insn>
	li t1, EXCEPTION_ECALL_M
     158:	432d                	c.li	x6,11
	beq t0, t1, handle_ecall
     15a:	00628663          	beq	x5,x6,166 <handle_ecall>
	li t1, EXCEPTION_BREAKPOINT
     15e:	430d                	c.li	x6,3
	beq t0, t1, handle_ebreak
     160:	00628663          	beq	x5,x6,16c <handle_ebreak>
	j handle_unknown
     164:	a015                	c.j	188 <handle_unknown>

00000166 <handle_ecall>:

handle_ecall:
	jal ra, handle_syscall
     166:	204000ef          	jal	x1,36a <handle_syscall>
	j end_handler_incr_mepc
     16a:	a035                	c.j	196 <end_handler_incr_mepc>

0000016c <handle_ebreak>:

handle_ebreak:
	/* TODO support debug handling requirements.  */
	la a0, ebreak_msg
     16c:	00012517          	auipc	x10,0x12
     170:	a8650513          	addi	x10,x10,-1402 # 11bf2 <ebreak_msg>
	jal ra, puts
     174:	5cc000ef          	jal	x1,740 <puts>
	j end_handler_incr_mepc
     178:	a839                	c.j	196 <end_handler_incr_mepc>

0000017a <handle_illegal_insn>:

handle_illegal_insn:
	la a0, illegal_insn_msg
     17a:	00012517          	auipc	x10,0x12
     17e:	a0c50513          	addi	x10,x10,-1524 # 11b86 <illegal_insn_msg>
	jal ra, puts
     182:	5be000ef          	jal	x1,740 <puts>
	j end_handler_incr_mepc
     186:	a801                	c.j	196 <end_handler_incr_mepc>

00000188 <handle_unknown>:

handle_unknown:
	la a0, unknown_msg
     188:	00012517          	auipc	x10,0x12
     18c:	a9a50513          	addi	x10,x10,-1382 # 11c22 <unknown_msg>
	jal ra, puts
     190:	5b0000ef          	jal	x1,740 <puts>
	/* We don't know what interrupt/exception is being handled, so don't
	   increment mepc.  */
	j end_handler_ret
     194:	a831                	c.j	1b0 <end_handler_ret>

00000196 <end_handler_incr_mepc>:

end_handler_incr_mepc:
	csrr t0, mepc
     196:	341022f3          	csrrs	x5,mepc,x0
	lb t1, 0(t0)
     19a:	00028303          	lb	x6,0(x5)
	li a0, 0x3
     19e:	450d                	c.li	x10,3
	and t1, t1, a0
     1a0:	00a37333          	and	x6,x6,x10
	/* Increment mepc by 2 or 4 depending on whether the instruction at mepc
	   is compressed or not.  */
	bne t1, a0, end_handler_incr_mepc2
     1a4:	00a31363          	bne	x6,x10,1aa <end_handler_incr_mepc2>
	addi t0, t0, 2
     1a8:	0289                	c.addi	x5,2

000001aa <end_handler_incr_mepc2>:
end_handler_incr_mepc2:
	addi t0, t0, 2
     1aa:	0289                	c.addi	x5,2
	csrw mepc, t0
     1ac:	34129073          	csrrw	x0,mepc,x5

000001b0 <end_handler_ret>:
end_handler_ret:
	lw ra, 0(sp)
     1b0:	4082                	c.lwsp	x1,0(x2)
	lw a0, 4(sp)
     1b2:	4512                	c.lwsp	x10,4(x2)
	lw a1, 8(sp)
     1b4:	45a2                	c.lwsp	x11,8(x2)
	lw a2, 12(sp)
     1b6:	4632                	c.lwsp	x12,12(x2)
	lw a3, 16(sp)
     1b8:	46c2                	c.lwsp	x13,16(x2)
	lw a4, 20(sp)
     1ba:	4752                	c.lwsp	x14,20(x2)
	lw a5, 24(sp)
     1bc:	47e2                	c.lwsp	x15,24(x2)
	lw a6, 28(sp)
     1be:	4872                	c.lwsp	x16,28(x2)
	lw a7, 32(sp)
     1c0:	5882                	c.lwsp	x17,32(x2)
	lw t0, 36(sp)
     1c2:	5292                	c.lwsp	x5,36(x2)
	lw t1, 40(sp)
     1c4:	5322                	c.lwsp	x6,40(x2)
	lw t2, 44(sp)
     1c6:	53b2                	c.lwsp	x7,44(x2)
	lw t3, 48(sp)
     1c8:	5e42                	c.lwsp	x28,48(x2)
	lw t4, 52(sp)
     1ca:	5ed2                	c.lwsp	x29,52(x2)
	lw t5, 56(sp)
     1cc:	5f62                	c.lwsp	x30,56(x2)
	lw t6, 60(sp)
     1ce:	5ff2                	c.lwsp	x31,60(x2)
	addi sp,sp,64
     1d0:	6121                	c.addi16sp	x2,64
	mret
     1d2:	30200073          	mret

000001d6 <__syscall_error>:
#endif
/* Upstream newlib now defines this in libgloss/riscv/internal_syscall.h.  */
long
__syscall_error(long a0)
{
  errno = -a0;
     1d6:	40a00533          	sub	x10,x0,x10
     1da:	f0a1ac23          	sw	x10,-232(x3) # 12bb8 <errno>
  return -1;
}
     1de:	557d                	c.li	x10,-1
     1e0:	8082                	c.jr	x1

000001e2 <unimplemented_syscall>:

void unimplemented_syscall()
{
  const char *p = "BSP: Unimplemented system call called!\n";
     1e2:	67c9                	c.lui	x15,0x12
     1e4:	a3478793          	addi	x15,x15,-1484 # 11a34 <__clzsi2+0x9c>
  while (*p)
    *(volatile int *)STDOUT_REG = *(p++);
     1e8:	100006b7          	lui	x13,0x10000
  while (*p)
     1ec:	0007c703          	lbu	x14,0(x15)
     1f0:	e311                	c.bnez	x14,1f4 <unimplemented_syscall+0x12>
}
     1f2:	8082                	c.jr	x1
    *(volatile int *)STDOUT_REG = *(p++);
     1f4:	0785                	c.addi	x15,1
     1f6:	c298                	c.sw	x14,0(x13)
     1f8:	bfd5                	c.j	1ec <unimplemented_syscall+0xa>

000001fa <nanosleep>:

int nanosleep(const struct timespec *rqtp, struct timespec *rmtp)
{
  errno = ENOSYS;
     1fa:	05800713          	addi	x14,x0,88
     1fe:	f0e1ac23          	sw	x14,-232(x3) # 12bb8 <errno>
  return -1;
}
     202:	557d                	c.li	x10,-1
     204:	8082                	c.jr	x1

00000206 <_access>:

int _access(const char *file, int mode)
{
  errno = ENOSYS;
     206:	05800713          	addi	x14,x0,88
     20a:	f0e1ac23          	sw	x14,-232(x3) # 12bb8 <errno>
  return -1;
}
     20e:	557d                	c.li	x10,-1
     210:	8082                	c.jr	x1

00000212 <_chdir>:

int _chdir(const char *path)
{
  errno = ENOSYS;
     212:	05800713          	addi	x14,x0,88
     216:	f0e1ac23          	sw	x14,-232(x3) # 12bb8 <errno>
  return -1;
}
     21a:	557d                	c.li	x10,-1
     21c:	8082                	c.jr	x1

0000021e <_chmod>:

int _chmod(const char *path, mode_t mode)
{
  errno = ENOSYS;
     21e:	05800713          	addi	x14,x0,88
     222:	f0e1ac23          	sw	x14,-232(x3) # 12bb8 <errno>
  return -1;
}
     226:	557d                	c.li	x10,-1
     228:	8082                	c.jr	x1

0000022a <_chown>:

int _chown(const char *path, uid_t owner, gid_t group)
{
  errno = ENOSYS;
     22a:	05800713          	addi	x14,x0,88
     22e:	f0e1ac23          	sw	x14,-232(x3) # 12bb8 <errno>
  return -1;
}
     232:	557d                	c.li	x10,-1
     234:	8082                	c.jr	x1

00000236 <_close>:

int _close(int file)
{
  return -1;
}
     236:	557d                	c.li	x10,-1
     238:	8082                	c.jr	x1

0000023a <_execve>:

int _execve(const char *name, char *const argv[], char *const env[])
{
  errno = ENOMEM;
     23a:	4731                	c.li	x14,12
     23c:	f0e1ac23          	sw	x14,-232(x3) # 12bb8 <errno>
  return -1;
}
     240:	557d                	c.li	x10,-1
     242:	8082                	c.jr	x1

00000244 <_exit>:

void _exit(int exit_status)
{
  *(volatile int *)EXIT_REG = exit_status;
     244:	200007b7          	lui	x15,0x20000
     248:	c3c8                	c.sw	x10,4(x15)
  asm volatile("wfi");
     24a:	10500073          	wfi
  /* _exit should not return */
  while (1) {};
     24e:	a001                	c.j	24e <_exit+0xa>

00000250 <_faccessat>:
}

int _faccessat(int dirfd, const char *file, int mode, int flags)
{
  errno = ENOSYS;
     250:	05800713          	addi	x14,x0,88
     254:	f0e1ac23          	sw	x14,-232(x3) # 12bb8 <errno>
  return -1;
}
     258:	557d                	c.li	x10,-1
     25a:	8082                	c.jr	x1

0000025c <_fork>:

int _fork(void)
{
  errno = EAGAIN;
     25c:	472d                	c.li	x14,11
     25e:	f0e1ac23          	sw	x14,-232(x3) # 12bb8 <errno>
  return -1;
}
     262:	557d                	c.li	x10,-1
     264:	8082                	c.jr	x1

00000266 <_fstat>:

int _fstat(int file, struct stat *st)
{
  st->st_mode = S_IFCHR;
     266:	6789                	c.lui	x15,0x2
     268:	c1dc                	c.sw	x15,4(x11)
  return 0;
  // errno = -ENOSYS;
  // return -1;
}
     26a:	4501                	c.li	x10,0
     26c:	8082                	c.jr	x1

0000026e <_fstatat>:

int _fstatat(int dirfd, const char *file, struct stat *st, int flags)
{
  errno = ENOSYS;
     26e:	05800713          	addi	x14,x0,88
     272:	f0e1ac23          	sw	x14,-232(x3) # 12bb8 <errno>
  return -1;
}
     276:	557d                	c.li	x10,-1
     278:	8082                	c.jr	x1

0000027a <_ftime>:

int _ftime(struct timeb *tp)
     27a:	05800713          	addi	x14,x0,88
     27e:	f0e1ac23          	sw	x14,-232(x3) # 12bb8 <errno>
     282:	557d                	c.li	x10,-1
     284:	8082                	c.jr	x1

00000286 <_getcwd>:
  return -1;
}

char *_getcwd(char *buf, size_t size)
{
  errno = -ENOSYS;
     286:	fa800713          	addi	x14,x0,-88
     28a:	f0e1ac23          	sw	x14,-232(x3) # 12bb8 <errno>
  return NULL;
}
     28e:	4501                	c.li	x10,0
     290:	8082                	c.jr	x1

00000292 <_getpid>:

int _getpid()
{
  return 1;
}
     292:	4505                	c.li	x10,1
     294:	8082                	c.jr	x1

00000296 <_gettimeofday>:

int _gettimeofday(struct timeval *tp, void *tzp)
{
  errno = -ENOSYS;
     296:	fa800713          	addi	x14,x0,-88
     29a:	f0e1ac23          	sw	x14,-232(x3) # 12bb8 <errno>
  return -1;
}
     29e:	557d                	c.li	x10,-1
     2a0:	8082                	c.jr	x1

000002a2 <_isatty>:

int _isatty(int file)
{
  return (file == STDOUT_FILENO);
     2a2:	157d                	c.addi	x10,-1
}
     2a4:	00153513          	sltiu	x10,x10,1
     2a8:	8082                	c.jr	x1

000002aa <_kill>:

int _kill(int pid, int sig)
{
  errno = EINVAL;
     2aa:	4759                	c.li	x14,22
     2ac:	f0e1ac23          	sw	x14,-232(x3) # 12bb8 <errno>
  return -1;
}
     2b0:	557d                	c.li	x10,-1
     2b2:	8082                	c.jr	x1

000002b4 <_link>:

int _link(const char *old_name, const char *new_name)
{
  errno = EMLINK;
     2b4:	477d                	c.li	x14,31
     2b6:	f0e1ac23          	sw	x14,-232(x3) # 12bb8 <errno>
  return -1;
}
     2ba:	557d                	c.li	x10,-1
     2bc:	8082                	c.jr	x1

000002be <_lseek>:

off_t _lseek(int file, off_t ptr, int dir)
{
  return 0;
}
     2be:	4501                	c.li	x10,0
     2c0:	8082                	c.jr	x1

000002c2 <_lstat>:

int _lstat(const char *file, struct stat *st)
     2c2:	05800713          	addi	x14,x0,88
     2c6:	f0e1ac23          	sw	x14,-232(x3) # 12bb8 <errno>
     2ca:	557d                	c.li	x10,-1
     2cc:	8082                	c.jr	x1

000002ce <_open>:
}

int _open(const char *name, int flags, int mode)
{
  return -1;
}
     2ce:	557d                	c.li	x10,-1
     2d0:	8082                	c.jr	x1

000002d2 <_openat>:

int _openat(int dirfd, const char *name, int flags, int mode)
     2d2:	05800713          	addi	x14,x0,88
     2d6:	f0e1ac23          	sw	x14,-232(x3) # 12bb8 <errno>
     2da:	557d                	c.li	x10,-1
     2dc:	8082                	c.jr	x1

000002de <_read>:
}

ssize_t _read(int file, void *ptr, size_t len)
{
  return 0;
}
     2de:	4501                	c.li	x10,0
     2e0:	8082                	c.jr	x1

000002e2 <_stat>:

int _stat(const char *file, struct stat *st)
{
  st->st_mode = S_IFCHR;
     2e2:	6789                	c.lui	x15,0x2
     2e4:	c1dc                	c.sw	x15,4(x11)
  return 0;
  // errno = ENOSYS;
  // return -1;
}
     2e6:	4501                	c.li	x10,0
     2e8:	8082                	c.jr	x1

000002ea <_sysconf>:

long _sysconf(int name)
     2ea:	557d                	c.li	x10,-1
     2ec:	8082                	c.jr	x1

000002ee <_times>:
}

clock_t _times(struct tms *buf)
{
  return -1;
}
     2ee:	557d                	c.li	x10,-1
     2f0:	8082                	c.jr	x1

000002f2 <_unlink>:

int _unlink(const char *name)
{
  errno = ENOENT;
     2f2:	4709                	c.li	x14,2
     2f4:	f0e1ac23          	sw	x14,-232(x3) # 12bb8 <errno>
  return -1;
}
     2f8:	557d                	c.li	x10,-1
     2fa:	8082                	c.jr	x1

000002fc <_utime>:

int _utime(const char *path, const struct utimbuf *times)
     2fc:	05800713          	addi	x14,x0,88
     300:	f0e1ac23          	sw	x14,-232(x3) # 12bb8 <errno>
     304:	557d                	c.li	x10,-1
     306:	8082                	c.jr	x1

00000308 <_wait>:
  return -1;
}

int _wait(int *status)
{
  errno = ECHILD;
     308:	4729                	c.li	x14,10
     30a:	f0e1ac23          	sw	x14,-232(x3) # 12bb8 <errno>
  return -1;
}
     30e:	557d                	c.li	x10,-1
     310:	8082                	c.jr	x1

00000312 <_write>:

ssize_t _write(int file, const void *ptr, size_t len)
{
  const char *cptr = (char *)ptr;
  if (file != STDOUT_FILENO)
     312:	4685                	c.li	x13,1
    {
      errno = ENOSYS;
      return -1;
    }

  const void *eptr = cptr + len;
     314:	00c587b3          	add	x15,x11,x12
  while (cptr != eptr)
    *(volatile int *)STDOUT_REG = *cptr++;
     318:	10000737          	lui	x14,0x10000
  if (file != STDOUT_FILENO)
     31c:	00d50c63          	beq	x10,x13,334 <_write+0x22>
      errno = ENOSYS;
     320:	05800713          	addi	x14,x0,88
     324:	f0e1ac23          	sw	x14,-232(x3) # 12bb8 <errno>
      return -1;
     328:	557d                	c.li	x10,-1
     32a:	8082                	c.jr	x1
    *(volatile int *)STDOUT_REG = *cptr++;
     32c:	0005c683          	lbu	x13,0(x11)
     330:	0585                	c.addi	x11,1
     332:	c314                	c.sw	x13,0(x14)
  while (cptr != eptr)
     334:	fef59ce3          	bne	x11,x15,32c <_write+0x1a>
  return len;
     338:	8532                	c.mv	x10,x12
}
     33a:	8082                	c.jr	x1

0000033c <_brk>:
extern char __heap_end[];
static char *brk = __heap_start;

int _brk(void *addr)
{
  brk = addr;
     33c:	f0a1a423          	sw	x10,-248(x3) # 12ba8 <brk>
  return 0;
}
     340:	4501                	c.li	x10,0
     342:	8082                	c.jr	x1

00000344 <_sbrk>:

void *_sbrk(ptrdiff_t incr)
{
     344:	87aa                	c.mv	x15,x10
  char *old_brk = brk;
     346:	f081a503          	lw	x10,-248(x3) # 12ba8 <brk>
  register long sp asm("sp");

  char *new_brk = brk += incr;
     34a:	97aa                	c.add	x15,x10
     34c:	f0f1a423          	sw	x15,-248(x3) # 12ba8 <brk>
  if (new_brk < (char *) sp && new_brk < __heap_end)
     350:	0027f863          	bgeu	x15,x2,360 <_sbrk+0x1c>
     354:	00400737          	lui	x14,0x400
     358:	00070713          	addi	x14,x14,0 # 400000 <__heap_end>
     35c:	00e7e663          	bltu	x15,x14,368 <_sbrk+0x24>

      return old_brk;
    }
  else
    {
      errno = ENOMEM;
     360:	4731                	c.li	x14,12
     362:	f0e1ac23          	sw	x14,-232(x3) # 12bb8 <errno>
      return (void *) -1;
     366:	557d                	c.li	x10,-1
    }
}
     368:	8082                	c.jr	x1

0000036a <handle_syscall>:
    register long syscall_id asm("t0");
  #else
    long syscall_id = a7;
  #endif

  switch (syscall_id) {
     36a:	08100793          	addi	x15,x0,129
     36e:	0af88c63          	beq	x17,x15,426 <handle_syscall+0xbc>
     372:	0717c763          	blt	x15,x17,3e0 <handle_syscall+0x76>
     376:	04000793          	addi	x15,x0,64
     37a:	0517c663          	blt	x15,x17,3c6 <handle_syscall+0x5c>
     37e:	02f00793          	addi	x15,x0,47
     382:	0317c563          	blt	x15,x17,3ac <handle_syscall+0x42>
     386:	47c5                	c.li	x15,17
     388:	04f89b63          	bne	x17,x15,3de <handle_syscall+0x74>
  errno = -ENOSYS;
     38c:	fa800713          	addi	x14,x0,-88
     390:	a861                	c.j	428 <handle_syscall+0xbe>
  switch (syscall_id) {
     392:	c0088893          	addi	x17,x17,-1024
     396:	47bd                	c.li	x15,15
     398:	0517e363          	bltu	x15,x17,3de <handle_syscall+0x74>
     39c:	67c9                	c.lui	x15,0x12
     39e:	c8478793          	addi	x15,x15,-892 # 11c84 <no_exception_handler_msg+0x31>
     3a2:	088a                	c.slli	x17,0x2
     3a4:	98be                	c.add	x17,x15
     3a6:	0008a783          	lw	x15,0(x17)
     3aa:	8782                	c.jr	x15
     3ac:	fd088893          	addi	x17,x17,-48
     3b0:	47c1                	c.li	x15,16
     3b2:	0317e663          	bltu	x15,x17,3de <handle_syscall+0x74>
     3b6:	67c9                	c.lui	x15,0x12
     3b8:	cc478793          	addi	x15,x15,-828 # 11cc4 <no_exception_handler_msg+0x71>
     3bc:	088a                	c.slli	x17,0x2
     3be:	98be                	c.add	x17,x15
     3c0:	0008a783          	lw	x15,0(x17)
     3c4:	8782                	c.jr	x15
     3c6:	05000793          	addi	x15,x0,80
     3ca:	06f88963          	beq	x17,x15,43c <handle_syscall+0xd2>
     3ce:	05d00793          	addi	x15,x0,93
     3d2:	04f88363          	beq	x17,x15,418 <handle_syscall+0xae>
     3d6:	04f00793          	addi	x15,x0,79
     3da:	04f88a63          	beq	x17,x15,42e <handle_syscall+0xc4>
      break;
    case SYS_times:
      _times ((struct tms *) a0);
      break;
    default:
      unimplemented_syscall ();
     3de:	b511                	c.j	1e2 <unimplemented_syscall>
  switch (syscall_id) {
     3e0:	40f00793          	addi	x15,x0,1039
     3e4:	ff17cde3          	blt	x15,x17,3de <handle_syscall+0x74>
     3e8:	3ff00793          	addi	x15,x0,1023
     3ec:	fb17c3e3          	blt	x15,x17,392 <handle_syscall+0x28>
     3f0:	0ac00793          	addi	x15,x0,172
     3f4:	04f88763          	beq	x17,x15,442 <handle_syscall+0xd8>
     3f8:	0117c963          	blt	x15,x17,40a <handle_syscall+0xa0>
     3fc:	09900793          	addi	x15,x0,153
     400:	04f88163          	beq	x17,x15,442 <handle_syscall+0xd8>
     404:	0a900793          	addi	x15,x0,169
     408:	b741                	c.j	388 <handle_syscall+0x1e>
     40a:	0d600793          	addi	x15,x0,214
     40e:	fcf898e3          	bne	x17,x15,3de <handle_syscall+0x74>
  brk = addr;
     412:	f0a1a423          	sw	x10,-248(x3) # 12ba8 <brk>
  return 0;
     416:	8082                	c.jr	x1
  *(volatile int *)EXIT_REG = exit_status;
     418:	200007b7          	lui	x15,0x20000
     41c:	c3c8                	c.sw	x10,4(x15)
  asm volatile("wfi");
     41e:	10500073          	wfi
  while (1) {};
     422:	a001                	c.j	422 <handle_syscall+0xb8>
      _write (a0, (const void *) a1, a2);
     424:	b5fd                	c.j	312 <_write>
  errno = EINVAL;
     426:	4759                	c.li	x14,22
  errno = ENOSYS;
     428:	f0e1ac23          	sw	x14,-232(x3) # 12bb8 <errno>
  return -1;
     42c:	8082                	c.jr	x1
  errno = ENOSYS;
     42e:	05800713          	addi	x14,x0,88
     432:	bfdd                	c.j	428 <handle_syscall+0xbe>
  errno = EMLINK;
     434:	477d                	c.li	x14,31
     436:	bfcd                	c.j	428 <handle_syscall+0xbe>
  errno = ENOENT;
     438:	4709                	c.li	x14,2
     43a:	b7fd                	c.j	428 <handle_syscall+0xbe>
  st->st_mode = S_IFCHR;
     43c:	6789                	c.lui	x15,0x2
     43e:	c1dc                	c.sw	x15,4(x11)
  return 0;
     440:	8082                	c.jr	x1
      break;
  }
}
     442:	8082                	c.jr	x1

00000444 <memset>:
     444:	00f00313          	addi	x6,x0,15
     448:	00050713          	addi	x14,x10,0
     44c:	02c37e63          	bgeu	x6,x12,488 <memset+0x44>
     450:	00f77793          	andi	x15,x14,15
     454:	0a079063          	bne	x15,x0,4f4 <memset+0xb0>
     458:	08059263          	bne	x11,x0,4dc <memset+0x98>
     45c:	ff067693          	andi	x13,x12,-16
     460:	00f67613          	andi	x12,x12,15
     464:	00e686b3          	add	x13,x13,x14
     468:	00b72023          	sw	x11,0(x14)
     46c:	00b72223          	sw	x11,4(x14)
     470:	00b72423          	sw	x11,8(x14)
     474:	00b72623          	sw	x11,12(x14)
     478:	01070713          	addi	x14,x14,16
     47c:	fed766e3          	bltu	x14,x13,468 <memset+0x24>
     480:	00061463          	bne	x12,x0,488 <memset+0x44>
     484:	00008067          	jalr	x0,0(x1)
     488:	40c306b3          	sub	x13,x6,x12
     48c:	00269693          	slli	x13,x13,0x2
     490:	00000297          	auipc	x5,0x0
     494:	005686b3          	add	x13,x13,x5
     498:	00c68067          	jalr	x0,12(x13) # 1000000c <__heap_end+0xfc0000c>
     49c:	00b70723          	sb	x11,14(x14)
     4a0:	00b706a3          	sb	x11,13(x14)
     4a4:	00b70623          	sb	x11,12(x14)
     4a8:	00b705a3          	sb	x11,11(x14)
     4ac:	00b70523          	sb	x11,10(x14)
     4b0:	00b704a3          	sb	x11,9(x14)
     4b4:	00b70423          	sb	x11,8(x14)
     4b8:	00b703a3          	sb	x11,7(x14)
     4bc:	00b70323          	sb	x11,6(x14)
     4c0:	00b702a3          	sb	x11,5(x14)
     4c4:	00b70223          	sb	x11,4(x14)
     4c8:	00b701a3          	sb	x11,3(x14)
     4cc:	00b70123          	sb	x11,2(x14)
     4d0:	00b700a3          	sb	x11,1(x14)
     4d4:	00b70023          	sb	x11,0(x14)
     4d8:	00008067          	jalr	x0,0(x1)
     4dc:	0ff5f593          	andi	x11,x11,255
     4e0:	00859693          	slli	x13,x11,0x8
     4e4:	00d5e5b3          	or	x11,x11,x13
     4e8:	01059693          	slli	x13,x11,0x10
     4ec:	00d5e5b3          	or	x11,x11,x13
     4f0:	f6dff06f          	jal	x0,45c <memset+0x18>
     4f4:	00279693          	slli	x13,x15,0x2
     4f8:	00000297          	auipc	x5,0x0
     4fc:	005686b3          	add	x13,x13,x5
     500:	00008293          	addi	x5,x1,0
     504:	fa0680e7          	jalr	x1,-96(x13)
     508:	00028093          	addi	x1,x5,0 # 4f8 <memset+0xb4>
     50c:	ff078793          	addi	x15,x15,-16 # 1ff0 <memmove+0xa4>
     510:	40f70733          	sub	x14,x14,x15
     514:	00f60633          	add	x12,x12,x15
     518:	f6c378e3          	bgeu	x6,x12,488 <memset+0x44>
     51c:	f3dff06f          	jal	x0,458 <memset+0x14>

00000520 <_reclaim_reent>:
     520:	f141a783          	lw	x15,-236(x3) # 12bb4 <_impure_ptr>
     524:	0aa78e63          	beq	x15,x10,5e0 <_reclaim_reent+0xc0>
     528:	04452583          	lw	x11,68(x10)
     52c:	fe010113          	addi	x2,x2,-32
     530:	00912a23          	sw	x9,20(x2)
     534:	00112e23          	sw	x1,28(x2)
     538:	00050493          	addi	x9,x10,0
     53c:	04058c63          	beq	x11,x0,594 <_reclaim_reent+0x74>
     540:	01212823          	sw	x18,16(x2)
     544:	01312623          	sw	x19,12(x2)
     548:	00812c23          	sw	x8,24(x2)
     54c:	00000913          	addi	x18,x0,0
     550:	08000993          	addi	x19,x0,128
     554:	012587b3          	add	x15,x11,x18
     558:	0007a403          	lw	x8,0(x15)
     55c:	00040e63          	beq	x8,x0,578 <_reclaim_reent+0x58>
     560:	00040593          	addi	x11,x8,0
     564:	00042403          	lw	x8,0(x8)
     568:	00048513          	addi	x10,x9,0
     56c:	4f8010ef          	jal	x1,1a64 <_free_r>
     570:	fe0418e3          	bne	x8,x0,560 <_reclaim_reent+0x40>
     574:	0444a583          	lw	x11,68(x9)
     578:	00490913          	addi	x18,x18,4
     57c:	fd391ce3          	bne	x18,x19,554 <_reclaim_reent+0x34>
     580:	00048513          	addi	x10,x9,0
     584:	4e0010ef          	jal	x1,1a64 <_free_r>
     588:	01812403          	lw	x8,24(x2)
     58c:	01012903          	lw	x18,16(x2)
     590:	00c12983          	lw	x19,12(x2)
     594:	0384a583          	lw	x11,56(x9)
     598:	00058663          	beq	x11,x0,5a4 <_reclaim_reent+0x84>
     59c:	00048513          	addi	x10,x9,0
     5a0:	4c4010ef          	jal	x1,1a64 <_free_r>
     5a4:	04c4a583          	lw	x11,76(x9)
     5a8:	00058663          	beq	x11,x0,5b4 <_reclaim_reent+0x94>
     5ac:	00048513          	addi	x10,x9,0
     5b0:	4b4010ef          	jal	x1,1a64 <_free_r>
     5b4:	0344a783          	lw	x15,52(x9)
     5b8:	00078c63          	beq	x15,x0,5d0 <_reclaim_reent+0xb0>
     5bc:	01c12083          	lw	x1,28(x2)
     5c0:	00048513          	addi	x10,x9,0
     5c4:	01412483          	lw	x9,20(x2)
     5c8:	02010113          	addi	x2,x2,32
     5cc:	00078067          	jalr	x0,0(x15)
     5d0:	01c12083          	lw	x1,28(x2)
     5d4:	01412483          	lw	x9,20(x2)
     5d8:	02010113          	addi	x2,x2,32
     5dc:	00008067          	jalr	x0,0(x1)
     5e0:	00008067          	jalr	x0,0(x1)

000005e4 <_printf_r>:
     5e4:	fc010113          	addi	x2,x2,-64
     5e8:	02c12423          	sw	x12,40(x2)
     5ec:	02d12623          	sw	x13,44(x2)
     5f0:	02e12823          	sw	x14,48(x2)
     5f4:	02f12a23          	sw	x15,52(x2)
     5f8:	03012c23          	sw	x16,56(x2)
     5fc:	03112e23          	sw	x17,60(x2)
     600:	00058613          	addi	x12,x11,0
     604:	00852583          	lw	x11,8(x10)
     608:	02810693          	addi	x13,x2,40
     60c:	00112e23          	sw	x1,28(x2)
     610:	00d12623          	sw	x13,12(x2)
     614:	001020ef          	jal	x1,2e14 <_vfprintf_r>
     618:	01c12083          	lw	x1,28(x2)
     61c:	04010113          	addi	x2,x2,64
     620:	00008067          	jalr	x0,0(x1)

00000624 <printf>:
     624:	fc010113          	addi	x2,x2,-64
     628:	02c12423          	sw	x12,40(x2)
     62c:	02d12623          	sw	x13,44(x2)
     630:	02f12a23          	sw	x15,52(x2)
     634:	02b12223          	sw	x11,36(x2)
     638:	02e12823          	sw	x14,48(x2)
     63c:	03012c23          	sw	x16,56(x2)
     640:	03112e23          	sw	x17,60(x2)
     644:	f141a783          	lw	x15,-236(x3) # 12bb4 <_impure_ptr>
     648:	0087a583          	lw	x11,8(x15)
     64c:	02410693          	addi	x13,x2,36
     650:	00050613          	addi	x12,x10,0
     654:	00078513          	addi	x10,x15,0
     658:	00112e23          	sw	x1,28(x2)
     65c:	00d12623          	sw	x13,12(x2)
     660:	7b4020ef          	jal	x1,2e14 <_vfprintf_r>
     664:	01c12083          	lw	x1,28(x2)
     668:	04010113          	addi	x2,x2,64
     66c:	00008067          	jalr	x0,0(x1)

00000670 <_puts_r>:
     670:	fc010113          	addi	x2,x2,-64
     674:	02812c23          	sw	x8,56(x2)
     678:	00050413          	addi	x8,x10,0
     67c:	00058513          	addi	x10,x11,0
     680:	02912a23          	sw	x9,52(x2)
     684:	02112e23          	sw	x1,60(x2)
     688:	00058493          	addi	x9,x11,0
     68c:	5a4020ef          	jal	x1,2c30 <strlen>
     690:	03442783          	lw	x15,52(x8)
     694:	00011597          	auipc	x11,0x11
     698:	3c858593          	addi	x11,x11,968 # 11a5c <__clzsi2+0xc4>
     69c:	00150813          	addi	x16,x10,1
     6a0:	00100613          	addi	x12,x0,1
     6a4:	02010693          	addi	x13,x2,32
     6a8:	00200713          	addi	x14,x0,2
     6ac:	02b12423          	sw	x11,40(x2)
     6b0:	02912023          	sw	x9,32(x2)
     6b4:	02a12223          	sw	x10,36(x2)
     6b8:	01012e23          	sw	x16,28(x2)
     6bc:	02c12623          	sw	x12,44(x2)
     6c0:	00d12a23          	sw	x13,20(x2)
     6c4:	00e12c23          	sw	x14,24(x2)
     6c8:	00842583          	lw	x11,8(x8)
     6cc:	06078063          	beq	x15,x0,72c <_puts_r+0xbc>
     6d0:	00c59783          	lh	x15,12(x11)
     6d4:	00002637          	lui	x12,0x2
     6d8:	01279713          	slli	x14,x15,0x12
     6dc:	02074063          	blt	x14,x0,6fc <_puts_r+0x8c>
     6e0:	0645a703          	lw	x14,100(x11)
     6e4:	ffffe6b7          	lui	x13,0xffffe
     6e8:	fff68693          	addi	x13,x13,-1 # ffffdfff <__heap_end+0xffbfdfff>
     6ec:	00c7e7b3          	or	x15,x15,x12
     6f0:	00d77733          	and	x14,x14,x13
     6f4:	00f59623          	sh	x15,12(x11)
     6f8:	06e5a223          	sw	x14,100(x11)
     6fc:	00040513          	addi	x10,x8,0
     700:	01410613          	addi	x12,x2,20
     704:	3ac000ef          	jal	x1,ab0 <__sfvwrite_r>
     708:	03c12083          	lw	x1,60(x2)
     70c:	03812403          	lw	x8,56(x2)
     710:	00153513          	sltiu	x10,x10,1
     714:	40a00533          	sub	x10,x0,x10
     718:	00b57513          	andi	x10,x10,11
     71c:	03412483          	lw	x9,52(x2)
     720:	fff50513          	addi	x10,x10,-1
     724:	04010113          	addi	x2,x2,64
     728:	00008067          	jalr	x0,0(x1)
     72c:	00040513          	addi	x10,x8,0
     730:	00b12623          	sw	x11,12(x2)
     734:	320000ef          	jal	x1,a54 <__sinit>
     738:	00c12583          	lw	x11,12(x2)
     73c:	f95ff06f          	jal	x0,6d0 <_puts_r+0x60>

00000740 <puts>:
     740:	00050593          	addi	x11,x10,0
     744:	f141a503          	lw	x10,-236(x3) # 12bb4 <_impure_ptr>
     748:	f29ff06f          	jal	x0,670 <_puts_r>

0000074c <__fp_lock>:
     74c:	00000513          	addi	x10,x0,0
     750:	00008067          	jalr	x0,0(x1)

00000754 <stdio_exit_handler>:
     754:	00012617          	auipc	x12,0x12
     758:	d4c60613          	addi	x12,x12,-692 # 124a0 <__sglue>
     75c:	00001597          	auipc	x11,0x1
     760:	85058593          	addi	x11,x11,-1968 # fac <_fclose_r>
     764:	c1818513          	addi	x10,x3,-1000 # 128b8 <_impure_data>
     768:	1010106f          	jal	x0,2068 <_fwalk_sglue>

0000076c <cleanup_stdio>:
     76c:	00452583          	lw	x11,4(x10)
     770:	ff010113          	addi	x2,x2,-16
     774:	00812423          	sw	x8,8(x2)
     778:	00112623          	sw	x1,12(x2)
     77c:	f3418793          	addi	x15,x3,-204 # 12bd4 <__sf>
     780:	00050413          	addi	x8,x10,0
     784:	00f58463          	beq	x11,x15,78c <cleanup_stdio+0x20>
     788:	025000ef          	jal	x1,fac <_fclose_r>
     78c:	00842583          	lw	x11,8(x8)
     790:	f9c18793          	addi	x15,x3,-100 # 12c3c <__sf+0x68>
     794:	00f58663          	beq	x11,x15,7a0 <cleanup_stdio+0x34>
     798:	00040513          	addi	x10,x8,0
     79c:	011000ef          	jal	x1,fac <_fclose_r>
     7a0:	00c42583          	lw	x11,12(x8)
     7a4:	00418793          	addi	x15,x3,4 # 12ca4 <__global_pointer$+0x4>
     7a8:	00f58c63          	beq	x11,x15,7c0 <cleanup_stdio+0x54>
     7ac:	00040513          	addi	x10,x8,0
     7b0:	00812403          	lw	x8,8(x2)
     7b4:	00c12083          	lw	x1,12(x2)
     7b8:	01010113          	addi	x2,x2,16
     7bc:	7f00006f          	jal	x0,fac <_fclose_r>
     7c0:	00c12083          	lw	x1,12(x2)
     7c4:	00812403          	lw	x8,8(x2)
     7c8:	01010113          	addi	x2,x2,16
     7cc:	00008067          	jalr	x0,0(x1)

000007d0 <__fp_unlock>:
     7d0:	00000513          	addi	x10,x0,0
     7d4:	00008067          	jalr	x0,0(x1)

000007d8 <global_stdio_init.part.0>:
     7d8:	fe010113          	addi	x2,x2,-32
     7dc:	00112e23          	sw	x1,28(x2)
     7e0:	00812c23          	sw	x8,24(x2)
     7e4:	00912a23          	sw	x9,20(x2)
     7e8:	f3418413          	addi	x8,x3,-204 # 12bd4 <__sf>
     7ec:	01212823          	sw	x18,16(x2)
     7f0:	01312623          	sw	x19,12(x2)
     7f4:	01412423          	sw	x20,8(x2)
     7f8:	00000717          	auipc	x14,0x0
     7fc:	f5c70713          	addi	x14,x14,-164 # 754 <stdio_exit_handler>
     800:	00400793          	addi	x15,x0,4
     804:	00800613          	addi	x12,x0,8
     808:	00000593          	addi	x11,x0,0
     80c:	f9018513          	addi	x10,x3,-112 # 12c30 <__sf+0x5c>
     810:	f0e1ae23          	sw	x14,-228(x3) # 12bbc <__stdio_exit_handler>
     814:	00f42623          	sw	x15,12(x8)
     818:	00042023          	sw	x0,0(x8)
     81c:	00042223          	sw	x0,4(x8)
     820:	00042423          	sw	x0,8(x8)
     824:	06042223          	sw	x0,100(x8)
     828:	00042823          	sw	x0,16(x8)
     82c:	00042a23          	sw	x0,20(x8)
     830:	00042c23          	sw	x0,24(x8)
     834:	c11ff0ef          	jal	x1,444 <memset>
     838:	000107b7          	lui	x15,0x10
     83c:	00002a17          	auipc	x20,0x2
     840:	480a0a13          	addi	x20,x20,1152 # 2cbc <__sread>
     844:	00002997          	auipc	x19,0x2
     848:	4dc98993          	addi	x19,x19,1244 # 2d20 <__swrite>
     84c:	00002917          	auipc	x18,0x2
     850:	55c90913          	addi	x18,x18,1372 # 2da8 <__sseek>
     854:	00002497          	auipc	x9,0x2
     858:	5b848493          	addi	x9,x9,1464 # 2e0c <__sclose>
     85c:	00978793          	addi	x15,x15,9 # 10009 <__subtf3+0x301>
     860:	00800613          	addi	x12,x0,8
     864:	00000593          	addi	x11,x0,0
     868:	ff818513          	addi	x10,x3,-8 # 12c98 <__sf+0xc4>
     86c:	06f42a23          	sw	x15,116(x8)
     870:	03442023          	sw	x20,32(x8)
     874:	03342223          	sw	x19,36(x8)
     878:	03242423          	sw	x18,40(x8)
     87c:	02942623          	sw	x9,44(x8)
     880:	00842e23          	sw	x8,28(x8)
     884:	06042423          	sw	x0,104(x8)
     888:	06042623          	sw	x0,108(x8)
     88c:	06042823          	sw	x0,112(x8)
     890:	0c042623          	sw	x0,204(x8)
     894:	06042c23          	sw	x0,120(x8)
     898:	06042e23          	sw	x0,124(x8)
     89c:	08042023          	sw	x0,128(x8)
     8a0:	ba5ff0ef          	jal	x1,444 <memset>
     8a4:	000207b7          	lui	x15,0x20
     8a8:	01278793          	addi	x15,x15,18 # 20012 <__heap_start+0xd142>
     8ac:	f9c18713          	addi	x14,x3,-100 # 12c3c <__sf+0x68>
     8b0:	00800613          	addi	x12,x0,8
     8b4:	00000593          	addi	x11,x0,0
     8b8:	06018513          	addi	x10,x3,96 # 12d00 <__global_pointer$+0x60>
     8bc:	09442423          	sw	x20,136(x8)
     8c0:	09342623          	sw	x19,140(x8)
     8c4:	09242823          	sw	x18,144(x8)
     8c8:	08942a23          	sw	x9,148(x8)
     8cc:	0cf42e23          	sw	x15,220(x8)
     8d0:	0c042823          	sw	x0,208(x8)
     8d4:	0c042a23          	sw	x0,212(x8)
     8d8:	0c042c23          	sw	x0,216(x8)
     8dc:	12042a23          	sw	x0,308(x8)
     8e0:	0e042023          	sw	x0,224(x8)
     8e4:	0e042223          	sw	x0,228(x8)
     8e8:	0e042423          	sw	x0,232(x8)
     8ec:	08e42223          	sw	x14,132(x8)
     8f0:	b55ff0ef          	jal	x1,444 <memset>
     8f4:	00418793          	addi	x15,x3,4 # 12ca4 <__global_pointer$+0x4>
     8f8:	0f442823          	sw	x20,240(x8)
     8fc:	0f342a23          	sw	x19,244(x8)
     900:	0f242c23          	sw	x18,248(x8)
     904:	0e942e23          	sw	x9,252(x8)
     908:	01c12083          	lw	x1,28(x2)
     90c:	0ef42623          	sw	x15,236(x8)
     910:	01812403          	lw	x8,24(x2)
     914:	01412483          	lw	x9,20(x2)
     918:	01012903          	lw	x18,16(x2)
     91c:	00c12983          	lw	x19,12(x2)
     920:	00812a03          	lw	x20,8(x2)
     924:	02010113          	addi	x2,x2,32
     928:	00008067          	jalr	x0,0(x1)

0000092c <__sfp>:
     92c:	fe010113          	addi	x2,x2,-32
     930:	01312623          	sw	x19,12(x2)
     934:	00112e23          	sw	x1,28(x2)
     938:	00812c23          	sw	x8,24(x2)
     93c:	00912a23          	sw	x9,20(x2)
     940:	01212823          	sw	x18,16(x2)
     944:	f1c1a783          	lw	x15,-228(x3) # 12bbc <__stdio_exit_handler>
     948:	00050993          	addi	x19,x10,0
     94c:	0e078863          	beq	x15,x0,a3c <__sfp+0x110>
     950:	00012917          	auipc	x18,0x12
     954:	b5090913          	addi	x18,x18,-1200 # 124a0 <__sglue>
     958:	fff00493          	addi	x9,x0,-1
     95c:	00492783          	lw	x15,4(x18)
     960:	00892403          	lw	x8,8(x18)
     964:	fff78793          	addi	x15,x15,-1
     968:	0007d863          	bge	x15,x0,978 <__sfp+0x4c>
     96c:	0800006f          	jal	x0,9ec <__sfp+0xc0>
     970:	06840413          	addi	x8,x8,104
     974:	06978c63          	beq	x15,x9,9ec <__sfp+0xc0>
     978:	00c41703          	lh	x14,12(x8)
     97c:	fff78793          	addi	x15,x15,-1
     980:	fe0718e3          	bne	x14,x0,970 <__sfp+0x44>
     984:	ffff07b7          	lui	x15,0xffff0
     988:	00178793          	addi	x15,x15,1 # ffff0001 <__heap_end+0xffbf0001>
     98c:	06042223          	sw	x0,100(x8)
     990:	00042023          	sw	x0,0(x8)
     994:	00042423          	sw	x0,8(x8)
     998:	00042223          	sw	x0,4(x8)
     99c:	00042823          	sw	x0,16(x8)
     9a0:	00042a23          	sw	x0,20(x8)
     9a4:	00042c23          	sw	x0,24(x8)
     9a8:	00f42623          	sw	x15,12(x8)
     9ac:	00800613          	addi	x12,x0,8
     9b0:	00000593          	addi	x11,x0,0
     9b4:	05c40513          	addi	x10,x8,92
     9b8:	a8dff0ef          	jal	x1,444 <memset>
     9bc:	02042823          	sw	x0,48(x8)
     9c0:	02042a23          	sw	x0,52(x8)
     9c4:	04042223          	sw	x0,68(x8)
     9c8:	04042423          	sw	x0,72(x8)
     9cc:	01c12083          	lw	x1,28(x2)
     9d0:	00040513          	addi	x10,x8,0
     9d4:	01812403          	lw	x8,24(x2)
     9d8:	01412483          	lw	x9,20(x2)
     9dc:	01012903          	lw	x18,16(x2)
     9e0:	00c12983          	lw	x19,12(x2)
     9e4:	02010113          	addi	x2,x2,32
     9e8:	00008067          	jalr	x0,0(x1)
     9ec:	00092403          	lw	x8,0(x18)
     9f0:	00040663          	beq	x8,x0,9fc <__sfp+0xd0>
     9f4:	00040913          	addi	x18,x8,0
     9f8:	f65ff06f          	jal	x0,95c <__sfp+0x30>
     9fc:	1ac00593          	addi	x11,x0,428
     a00:	00098513          	addi	x10,x19,0
     a04:	6bc000ef          	jal	x1,10c0 <_malloc_r>
     a08:	00050413          	addi	x8,x10,0
     a0c:	02050c63          	beq	x10,x0,a44 <__sfp+0x118>
     a10:	00400793          	addi	x15,x0,4
     a14:	00c50513          	addi	x10,x10,12
     a18:	00042023          	sw	x0,0(x8)
     a1c:	00f42223          	sw	x15,4(x8)
     a20:	00a42423          	sw	x10,8(x8)
     a24:	1a000613          	addi	x12,x0,416
     a28:	00000593          	addi	x11,x0,0
     a2c:	a19ff0ef          	jal	x1,444 <memset>
     a30:	00892023          	sw	x8,0(x18)
     a34:	00040913          	addi	x18,x8,0
     a38:	f25ff06f          	jal	x0,95c <__sfp+0x30>
     a3c:	d9dff0ef          	jal	x1,7d8 <global_stdio_init.part.0>
     a40:	f11ff06f          	jal	x0,950 <__sfp+0x24>
     a44:	00092023          	sw	x0,0(x18)
     a48:	00c00793          	addi	x15,x0,12
     a4c:	00f9a023          	sw	x15,0(x19)
     a50:	f7dff06f          	jal	x0,9cc <__sfp+0xa0>

00000a54 <__sinit>:
     a54:	03452783          	lw	x15,52(x10)
     a58:	00078463          	beq	x15,x0,a60 <__sinit+0xc>
     a5c:	00008067          	jalr	x0,0(x1)
     a60:	00000797          	auipc	x15,0x0
     a64:	d0c78793          	addi	x15,x15,-756 # 76c <cleanup_stdio>
     a68:	02f52a23          	sw	x15,52(x10)
     a6c:	f1c1a783          	lw	x15,-228(x3) # 12bbc <__stdio_exit_handler>
     a70:	fe0796e3          	bne	x15,x0,a5c <__sinit+0x8>
     a74:	d65ff06f          	jal	x0,7d8 <global_stdio_init.part.0>

00000a78 <__sfp_lock_acquire>:
     a78:	00008067          	jalr	x0,0(x1)

00000a7c <__sfp_lock_release>:
     a7c:	00008067          	jalr	x0,0(x1)

00000a80 <__fp_lock_all>:
     a80:	00012617          	auipc	x12,0x12
     a84:	a2060613          	addi	x12,x12,-1504 # 124a0 <__sglue>
     a88:	00000597          	auipc	x11,0x0
     a8c:	cc458593          	addi	x11,x11,-828 # 74c <__fp_lock>
     a90:	00000513          	addi	x10,x0,0
     a94:	5d40106f          	jal	x0,2068 <_fwalk_sglue>

00000a98 <__fp_unlock_all>:
     a98:	00012617          	auipc	x12,0x12
     a9c:	a0860613          	addi	x12,x12,-1528 # 124a0 <__sglue>
     aa0:	00000597          	auipc	x11,0x0
     aa4:	d3058593          	addi	x11,x11,-720 # 7d0 <__fp_unlock>
     aa8:	00000513          	addi	x10,x0,0
     aac:	5bc0106f          	jal	x0,2068 <_fwalk_sglue>

00000ab0 <__sfvwrite_r>:
     ab0:	00862783          	lw	x15,8(x12)
     ab4:	24078063          	beq	x15,x0,cf4 <__sfvwrite_r+0x244>
     ab8:	00c59703          	lh	x14,12(x11)
     abc:	fd010113          	addi	x2,x2,-48
     ac0:	02812423          	sw	x8,40(x2)
     ac4:	01412c23          	sw	x20,24(x2)
     ac8:	01512a23          	sw	x21,20(x2)
     acc:	02112623          	sw	x1,44(x2)
     ad0:	00877793          	andi	x15,x14,8
     ad4:	00060a13          	addi	x20,x12,0
     ad8:	00050a93          	addi	x21,x10,0
     adc:	00058413          	addi	x8,x11,0
     ae0:	0a078263          	beq	x15,x0,b84 <__sfvwrite_r+0xd4>
     ae4:	0105a783          	lw	x15,16(x11)
     ae8:	08078e63          	beq	x15,x0,b84 <__sfvwrite_r+0xd4>
     aec:	02912223          	sw	x9,36(x2)
     af0:	03212023          	sw	x18,32(x2)
     af4:	01312e23          	sw	x19,28(x2)
     af8:	01612823          	sw	x22,16(x2)
     afc:	00277793          	andi	x15,x14,2
     b00:	000a2483          	lw	x9,0(x20)
     b04:	0a078863          	beq	x15,x0,bb4 <__sfvwrite_r+0x104>
     b08:	80000b37          	lui	x22,0x80000
     b0c:	c00b0b13          	addi	x22,x22,-1024 # 7ffffc00 <__heap_end+0x7fbffc00>
     b10:	00000993          	addi	x19,x0,0
     b14:	00000913          	addi	x18,x0,0
     b18:	00098613          	addi	x12,x19,0
     b1c:	000a8513          	addi	x10,x21,0
     b20:	1c090263          	beq	x18,x0,ce4 <__sfvwrite_r+0x234>
     b24:	00090693          	addi	x13,x18,0
     b28:	012b7463          	bgeu	x22,x18,b30 <__sfvwrite_r+0x80>
     b2c:	000b0693          	addi	x13,x22,0
     b30:	02442783          	lw	x15,36(x8)
     b34:	01c42583          	lw	x11,28(x8)
     b38:	000780e7          	jalr	x1,0(x15)
     b3c:	44a05663          	bge	x0,x10,f88 <__sfvwrite_r+0x4d8>
     b40:	008a2783          	lw	x15,8(x20)
     b44:	00a989b3          	add	x19,x19,x10
     b48:	40a90933          	sub	x18,x18,x10
     b4c:	40a787b3          	sub	x15,x15,x10
     b50:	00fa2423          	sw	x15,8(x20)
     b54:	fc0792e3          	bne	x15,x0,b18 <__sfvwrite_r+0x68>
     b58:	02412483          	lw	x9,36(x2)
     b5c:	02012903          	lw	x18,32(x2)
     b60:	01c12983          	lw	x19,28(x2)
     b64:	01012b03          	lw	x22,16(x2)
     b68:	00000513          	addi	x10,x0,0
     b6c:	02c12083          	lw	x1,44(x2)
     b70:	02812403          	lw	x8,40(x2)
     b74:	01812a03          	lw	x20,24(x2)
     b78:	01412a83          	lw	x21,20(x2)
     b7c:	03010113          	addi	x2,x2,48
     b80:	00008067          	jalr	x0,0(x1)
     b84:	00040593          	addi	x11,x8,0
     b88:	000a8513          	addi	x10,x21,0
     b8c:	761010ef          	jal	x1,2aec <__swsetup_r>
     b90:	28051e63          	bne	x10,x0,e2c <__sfvwrite_r+0x37c>
     b94:	00c41703          	lh	x14,12(x8)
     b98:	02912223          	sw	x9,36(x2)
     b9c:	03212023          	sw	x18,32(x2)
     ba0:	01312e23          	sw	x19,28(x2)
     ba4:	01612823          	sw	x22,16(x2)
     ba8:	00277793          	andi	x15,x14,2
     bac:	000a2483          	lw	x9,0(x20)
     bb0:	f4079ce3          	bne	x15,x0,b08 <__sfvwrite_r+0x58>
     bb4:	01712623          	sw	x23,12(x2)
     bb8:	01812423          	sw	x24,8(x2)
     bbc:	01912223          	sw	x25,4(x2)
     bc0:	00177793          	andi	x15,x14,1
     bc4:	12079c63          	bne	x15,x0,cfc <__sfvwrite_r+0x24c>
     bc8:	80000bb7          	lui	x23,0x80000
     bcc:	fffb8b93          	addi	x23,x23,-1 # 7fffffff <__heap_end+0x7fbfffff>
     bd0:	00000b13          	addi	x22,x0,0
     bd4:	00000913          	addi	x18,x0,0
     bd8:	0e090e63          	beq	x18,x0,cd4 <__sfvwrite_r+0x224>
     bdc:	20077793          	andi	x15,x14,512
     be0:	00042503          	lw	x10,0(x8)
     be4:	00842c03          	lw	x24,8(x8)
     be8:	24078663          	beq	x15,x0,e34 <__sfvwrite_r+0x384>
     bec:	000c0c93          	addi	x25,x24,0
     bf0:	31896263          	bltu	x18,x24,ef4 <__sfvwrite_r+0x444>
     bf4:	48077793          	andi	x15,x14,1152
     bf8:	08078a63          	beq	x15,x0,c8c <__sfvwrite_r+0x1dc>
     bfc:	01442683          	lw	x13,20(x8)
     c00:	01042583          	lw	x11,16(x8)
     c04:	00169793          	slli	x15,x13,0x1
     c08:	00d787b3          	add	x15,x15,x13
     c0c:	01f7d993          	srli	x19,x15,0x1f
     c10:	40b50c33          	sub	x24,x10,x11
     c14:	00f989b3          	add	x19,x19,x15
     c18:	001c0793          	addi	x15,x24,1
     c1c:	4019d993          	srai	x19,x19,0x1
     c20:	012787b3          	add	x15,x15,x18
     c24:	00098613          	addi	x12,x19,0
     c28:	00f9f663          	bgeu	x19,x15,c34 <__sfvwrite_r+0x184>
     c2c:	00078993          	addi	x19,x15,0
     c30:	00078613          	addi	x12,x15,0
     c34:	40077713          	andi	x14,x14,1024
     c38:	30070463          	beq	x14,x0,f40 <__sfvwrite_r+0x490>
     c3c:	00060593          	addi	x11,x12,0
     c40:	000a8513          	addi	x10,x21,0
     c44:	47c000ef          	jal	x1,10c0 <_malloc_r>
     c48:	00050c93          	addi	x25,x10,0
     c4c:	34050263          	beq	x10,x0,f90 <__sfvwrite_r+0x4e0>
     c50:	01042583          	lw	x11,16(x8)
     c54:	000c0613          	addi	x12,x24,0
     c58:	104010ef          	jal	x1,1d5c <memcpy>
     c5c:	00c45783          	lhu	x15,12(x8)
     c60:	b7f7f793          	andi	x15,x15,-1153
     c64:	0807e793          	ori	x15,x15,128
     c68:	00f41623          	sh	x15,12(x8)
     c6c:	018c8533          	add	x10,x25,x24
     c70:	41898c33          	sub	x24,x19,x24
     c74:	01942823          	sw	x25,16(x8)
     c78:	01842423          	sw	x24,8(x8)
     c7c:	00a42023          	sw	x10,0(x8)
     c80:	01342a23          	sw	x19,20(x8)
     c84:	00090c13          	addi	x24,x18,0
     c88:	00090c93          	addi	x25,x18,0
     c8c:	000b0593          	addi	x11,x22,0
     c90:	000c8613          	addi	x12,x25,0
     c94:	2b8010ef          	jal	x1,1f4c <memmove>
     c98:	00042783          	lw	x15,0(x8)
     c9c:	00842703          	lw	x14,8(x8)
     ca0:	00090993          	addi	x19,x18,0
     ca4:	019787b3          	add	x15,x15,x25
     ca8:	00f42023          	sw	x15,0(x8)
     cac:	008a2783          	lw	x15,8(x20)
     cb0:	41870733          	sub	x14,x14,x24
     cb4:	00e42423          	sw	x14,8(x8)
     cb8:	413787b3          	sub	x15,x15,x19
     cbc:	00fa2423          	sw	x15,8(x20)
     cc0:	00000913          	addi	x18,x0,0
     cc4:	013b0b33          	add	x22,x22,x19
     cc8:	1c078263          	beq	x15,x0,e8c <__sfvwrite_r+0x3dc>
     ccc:	00c41703          	lh	x14,12(x8)
     cd0:	f00916e3          	bne	x18,x0,bdc <__sfvwrite_r+0x12c>
     cd4:	0004ab03          	lw	x22,0(x9)
     cd8:	0044a903          	lw	x18,4(x9)
     cdc:	00848493          	addi	x9,x9,8
     ce0:	ef9ff06f          	jal	x0,bd8 <__sfvwrite_r+0x128>
     ce4:	0004a983          	lw	x19,0(x9)
     ce8:	0044a903          	lw	x18,4(x9)
     cec:	00848493          	addi	x9,x9,8
     cf0:	e29ff06f          	jal	x0,b18 <__sfvwrite_r+0x68>
     cf4:	00000513          	addi	x10,x0,0
     cf8:	00008067          	jalr	x0,0(x1)
     cfc:	01a12023          	sw	x26,0(x2)
     d00:	00000b13          	addi	x22,x0,0
     d04:	00000513          	addi	x10,x0,0
     d08:	00000d13          	addi	x26,x0,0
     d0c:	00000993          	addi	x19,x0,0
     d10:	00a00c13          	addi	x24,x0,10
     d14:	00100b93          	addi	x23,x0,1
     d18:	08098663          	beq	x19,x0,da4 <__sfvwrite_r+0x2f4>
     d1c:	08050e63          	beq	x10,x0,db8 <__sfvwrite_r+0x308>
     d20:	000b0793          	addi	x15,x22,0
     d24:	00098c93          	addi	x25,x19,0
     d28:	0137f463          	bgeu	x15,x19,d30 <__sfvwrite_r+0x280>
     d2c:	00078c93          	addi	x25,x15,0
     d30:	00042503          	lw	x10,0(x8)
     d34:	01042783          	lw	x15,16(x8)
     d38:	01442683          	lw	x13,20(x8)
     d3c:	00a7f863          	bgeu	x15,x10,d4c <__sfvwrite_r+0x29c>
     d40:	00842903          	lw	x18,8(x8)
     d44:	01268933          	add	x18,x13,x18
     d48:	09994863          	blt	x18,x25,dd8 <__sfvwrite_r+0x328>
     d4c:	1cdcc463          	blt	x25,x13,f14 <__sfvwrite_r+0x464>
     d50:	02442783          	lw	x15,36(x8)
     d54:	01c42583          	lw	x11,28(x8)
     d58:	000d0613          	addi	x12,x26,0
     d5c:	000a8513          	addi	x10,x21,0
     d60:	000780e7          	jalr	x1,0(x15)
     d64:	00050913          	addi	x18,x10,0
     d68:	08a05c63          	bge	x0,x10,e00 <__sfvwrite_r+0x350>
     d6c:	412b0b33          	sub	x22,x22,x18
     d70:	000b8513          	addi	x10,x23,0
     d74:	180b0663          	beq	x22,x0,f00 <__sfvwrite_r+0x450>
     d78:	008a2783          	lw	x15,8(x20)
     d7c:	012d0d33          	add	x26,x26,x18
     d80:	412989b3          	sub	x19,x19,x18
     d84:	412787b3          	sub	x15,x15,x18
     d88:	00fa2423          	sw	x15,8(x20)
     d8c:	f80796e3          	bne	x15,x0,d18 <__sfvwrite_r+0x268>
     d90:	00c12b83          	lw	x23,12(x2)
     d94:	00812c03          	lw	x24,8(x2)
     d98:	00412c83          	lw	x25,4(x2)
     d9c:	00012d03          	lw	x26,0(x2)
     da0:	db9ff06f          	jal	x0,b58 <__sfvwrite_r+0xa8>
     da4:	0044a983          	lw	x19,4(x9)
     da8:	00048793          	addi	x15,x9,0
     dac:	00848493          	addi	x9,x9,8
     db0:	fe098ae3          	beq	x19,x0,da4 <__sfvwrite_r+0x2f4>
     db4:	0007ad03          	lw	x26,0(x15)
     db8:	00098613          	addi	x12,x19,0
     dbc:	000c0593          	addi	x11,x24,0
     dc0:	000d0513          	addi	x10,x26,0
     dc4:	0bc010ef          	jal	x1,1e80 <memchr>
     dc8:	1a050a63          	beq	x10,x0,f7c <__sfvwrite_r+0x4cc>
     dcc:	00150513          	addi	x10,x10,1
     dd0:	41a50b33          	sub	x22,x10,x26
     dd4:	f4dff06f          	jal	x0,d20 <__sfvwrite_r+0x270>
     dd8:	000d0593          	addi	x11,x26,0
     ddc:	00090613          	addi	x12,x18,0
     de0:	16c010ef          	jal	x1,1f4c <memmove>
     de4:	00042783          	lw	x15,0(x8)
     de8:	00040593          	addi	x11,x8,0
     dec:	000a8513          	addi	x10,x21,0
     df0:	012787b3          	add	x15,x15,x18
     df4:	00f42023          	sw	x15,0(x8)
     df8:	339010ef          	jal	x1,2930 <_fflush_r>
     dfc:	f60508e3          	beq	x10,x0,d6c <__sfvwrite_r+0x2bc>
     e00:	00c41783          	lh	x15,12(x8)
     e04:	00c12b83          	lw	x23,12(x2)
     e08:	00812c03          	lw	x24,8(x2)
     e0c:	00412c83          	lw	x25,4(x2)
     e10:	00012d03          	lw	x26,0(x2)
     e14:	02412483          	lw	x9,36(x2)
     e18:	02012903          	lw	x18,32(x2)
     e1c:	01c12983          	lw	x19,28(x2)
     e20:	01012b03          	lw	x22,16(x2)
     e24:	0407e793          	ori	x15,x15,64
     e28:	00f41623          	sh	x15,12(x8)
     e2c:	fff00513          	addi	x10,x0,-1
     e30:	d3dff06f          	jal	x0,b6c <__sfvwrite_r+0xbc>
     e34:	01042783          	lw	x15,16(x8)
     e38:	06a7e263          	bltu	x15,x10,e9c <__sfvwrite_r+0x3ec>
     e3c:	01442783          	lw	x15,20(x8)
     e40:	04f96e63          	bltu	x18,x15,e9c <__sfvwrite_r+0x3ec>
     e44:	00090693          	addi	x13,x18,0
     e48:	012bf463          	bgeu	x23,x18,e50 <__sfvwrite_r+0x3a0>
     e4c:	000b8693          	addi	x13,x23,0
     e50:	02f6e7b3          	rem	x15,x13,x15
     e54:	02442703          	lw	x14,36(x8)
     e58:	01c42583          	lw	x11,28(x8)
     e5c:	000b0613          	addi	x12,x22,0
     e60:	000a8513          	addi	x10,x21,0
     e64:	40f686b3          	sub	x13,x13,x15
     e68:	000700e7          	jalr	x1,0(x14)
     e6c:	00050993          	addi	x19,x10,0
     e70:	06a05863          	bge	x0,x10,ee0 <__sfvwrite_r+0x430>
     e74:	008a2783          	lw	x15,8(x20)
     e78:	41390933          	sub	x18,x18,x19
     e7c:	013b0b33          	add	x22,x22,x19
     e80:	413787b3          	sub	x15,x15,x19
     e84:	00fa2423          	sw	x15,8(x20)
     e88:	e40792e3          	bne	x15,x0,ccc <__sfvwrite_r+0x21c>
     e8c:	00c12b83          	lw	x23,12(x2)
     e90:	00812c03          	lw	x24,8(x2)
     e94:	00412c83          	lw	x25,4(x2)
     e98:	cc1ff06f          	jal	x0,b58 <__sfvwrite_r+0xa8>
     e9c:	000c0993          	addi	x19,x24,0
     ea0:	01897463          	bgeu	x18,x24,ea8 <__sfvwrite_r+0x3f8>
     ea4:	00090993          	addi	x19,x18,0
     ea8:	00098613          	addi	x12,x19,0
     eac:	000b0593          	addi	x11,x22,0
     eb0:	09c010ef          	jal	x1,1f4c <memmove>
     eb4:	00042703          	lw	x14,0(x8)
     eb8:	00842783          	lw	x15,8(x8)
     ebc:	01370733          	add	x14,x14,x19
     ec0:	413787b3          	sub	x15,x15,x19
     ec4:	00e42023          	sw	x14,0(x8)
     ec8:	00f42423          	sw	x15,8(x8)
     ecc:	fa0794e3          	bne	x15,x0,e74 <__sfvwrite_r+0x3c4>
     ed0:	00040593          	addi	x11,x8,0
     ed4:	000a8513          	addi	x10,x21,0
     ed8:	259010ef          	jal	x1,2930 <_fflush_r>
     edc:	f8050ce3          	beq	x10,x0,e74 <__sfvwrite_r+0x3c4>
     ee0:	00c41783          	lh	x15,12(x8)
     ee4:	00c12b83          	lw	x23,12(x2)
     ee8:	00812c03          	lw	x24,8(x2)
     eec:	00412c83          	lw	x25,4(x2)
     ef0:	f25ff06f          	jal	x0,e14 <__sfvwrite_r+0x364>
     ef4:	00090c13          	addi	x24,x18,0
     ef8:	00090c93          	addi	x25,x18,0
     efc:	d91ff06f          	jal	x0,c8c <__sfvwrite_r+0x1dc>
     f00:	00040593          	addi	x11,x8,0
     f04:	000a8513          	addi	x10,x21,0
     f08:	229010ef          	jal	x1,2930 <_fflush_r>
     f0c:	e60506e3          	beq	x10,x0,d78 <__sfvwrite_r+0x2c8>
     f10:	ef1ff06f          	jal	x0,e00 <__sfvwrite_r+0x350>
     f14:	000c8613          	addi	x12,x25,0
     f18:	000d0593          	addi	x11,x26,0
     f1c:	030010ef          	jal	x1,1f4c <memmove>
     f20:	00842703          	lw	x14,8(x8)
     f24:	00042783          	lw	x15,0(x8)
     f28:	000c8913          	addi	x18,x25,0
     f2c:	41970733          	sub	x14,x14,x25
     f30:	019787b3          	add	x15,x15,x25
     f34:	00e42423          	sw	x14,8(x8)
     f38:	00f42023          	sw	x15,0(x8)
     f3c:	e31ff06f          	jal	x0,d6c <__sfvwrite_r+0x2bc>
     f40:	000a8513          	addi	x10,x21,0
     f44:	1d8010ef          	jal	x1,211c <_realloc_r>
     f48:	00050c93          	addi	x25,x10,0
     f4c:	d20510e3          	bne	x10,x0,c6c <__sfvwrite_r+0x1bc>
     f50:	01042583          	lw	x11,16(x8)
     f54:	000a8513          	addi	x10,x21,0
     f58:	30d000ef          	jal	x1,1a64 <_free_r>
     f5c:	00c41783          	lh	x15,12(x8)
     f60:	00c00713          	addi	x14,x0,12
     f64:	00c12b83          	lw	x23,12(x2)
     f68:	00812c03          	lw	x24,8(x2)
     f6c:	00412c83          	lw	x25,4(x2)
     f70:	00eaa023          	sw	x14,0(x21)
     f74:	f7f7f793          	andi	x15,x15,-129
     f78:	e9dff06f          	jal	x0,e14 <__sfvwrite_r+0x364>
     f7c:	00198793          	addi	x15,x19,1
     f80:	00078b13          	addi	x22,x15,0
     f84:	da1ff06f          	jal	x0,d24 <__sfvwrite_r+0x274>
     f88:	00c41783          	lh	x15,12(x8)
     f8c:	e89ff06f          	jal	x0,e14 <__sfvwrite_r+0x364>
     f90:	00c00793          	addi	x15,x0,12
     f94:	00faa023          	sw	x15,0(x21)
     f98:	00c12b83          	lw	x23,12(x2)
     f9c:	00c41783          	lh	x15,12(x8)
     fa0:	00812c03          	lw	x24,8(x2)
     fa4:	00412c83          	lw	x25,4(x2)
     fa8:	e6dff06f          	jal	x0,e14 <__sfvwrite_r+0x364>

00000fac <_fclose_r>:
     fac:	ff010113          	addi	x2,x2,-16
     fb0:	00112623          	sw	x1,12(x2)
     fb4:	01212023          	sw	x18,0(x2)
     fb8:	02058863          	beq	x11,x0,fe8 <_fclose_r+0x3c>
     fbc:	00812423          	sw	x8,8(x2)
     fc0:	00912223          	sw	x9,4(x2)
     fc4:	00058413          	addi	x8,x11,0
     fc8:	00050493          	addi	x9,x10,0
     fcc:	00050663          	beq	x10,x0,fd8 <_fclose_r+0x2c>
     fd0:	03452783          	lw	x15,52(x10)
     fd4:	0c078c63          	beq	x15,x0,10ac <_fclose_r+0x100>
     fd8:	00c41783          	lh	x15,12(x8)
     fdc:	02079263          	bne	x15,x0,1000 <_fclose_r+0x54>
     fe0:	00812403          	lw	x8,8(x2)
     fe4:	00412483          	lw	x9,4(x2)
     fe8:	00c12083          	lw	x1,12(x2)
     fec:	00000913          	addi	x18,x0,0
     ff0:	00090513          	addi	x10,x18,0
     ff4:	00012903          	lw	x18,0(x2)
     ff8:	01010113          	addi	x2,x2,16
     ffc:	00008067          	jalr	x0,0(x1)
    1000:	00040593          	addi	x11,x8,0
    1004:	00048513          	addi	x10,x9,0
    1008:	6d0010ef          	jal	x1,26d8 <__sflush_r>
    100c:	02c42783          	lw	x15,44(x8)
    1010:	00050913          	addi	x18,x10,0
    1014:	00078a63          	beq	x15,x0,1028 <_fclose_r+0x7c>
    1018:	01c42583          	lw	x11,28(x8)
    101c:	00048513          	addi	x10,x9,0
    1020:	000780e7          	jalr	x1,0(x15)
    1024:	06054463          	blt	x10,x0,108c <_fclose_r+0xe0>
    1028:	00c45783          	lhu	x15,12(x8)
    102c:	0807f793          	andi	x15,x15,128
    1030:	06079663          	bne	x15,x0,109c <_fclose_r+0xf0>
    1034:	03042583          	lw	x11,48(x8)
    1038:	00058c63          	beq	x11,x0,1050 <_fclose_r+0xa4>
    103c:	04040793          	addi	x15,x8,64
    1040:	00f58663          	beq	x11,x15,104c <_fclose_r+0xa0>
    1044:	00048513          	addi	x10,x9,0
    1048:	21d000ef          	jal	x1,1a64 <_free_r>
    104c:	02042823          	sw	x0,48(x8)
    1050:	04442583          	lw	x11,68(x8)
    1054:	00058863          	beq	x11,x0,1064 <_fclose_r+0xb8>
    1058:	00048513          	addi	x10,x9,0
    105c:	209000ef          	jal	x1,1a64 <_free_r>
    1060:	04042223          	sw	x0,68(x8)
    1064:	a15ff0ef          	jal	x1,a78 <__sfp_lock_acquire>
    1068:	00041623          	sh	x0,12(x8)
    106c:	a11ff0ef          	jal	x1,a7c <__sfp_lock_release>
    1070:	00c12083          	lw	x1,12(x2)
    1074:	00812403          	lw	x8,8(x2)
    1078:	00412483          	lw	x9,4(x2)
    107c:	00090513          	addi	x10,x18,0
    1080:	00012903          	lw	x18,0(x2)
    1084:	01010113          	addi	x2,x2,16
    1088:	00008067          	jalr	x0,0(x1)
    108c:	00c45783          	lhu	x15,12(x8)
    1090:	fff00913          	addi	x18,x0,-1
    1094:	0807f793          	andi	x15,x15,128
    1098:	f8078ee3          	beq	x15,x0,1034 <_fclose_r+0x88>
    109c:	01042583          	lw	x11,16(x8)
    10a0:	00048513          	addi	x10,x9,0
    10a4:	1c1000ef          	jal	x1,1a64 <_free_r>
    10a8:	f8dff06f          	jal	x0,1034 <_fclose_r+0x88>
    10ac:	9a9ff0ef          	jal	x1,a54 <__sinit>
    10b0:	f29ff06f          	jal	x0,fd8 <_fclose_r+0x2c>

000010b4 <fclose>:
    10b4:	00050593          	addi	x11,x10,0
    10b8:	f141a503          	lw	x10,-236(x3) # 12bb4 <_impure_ptr>
    10bc:	ef1ff06f          	jal	x0,fac <_fclose_r>

000010c0 <_malloc_r>:
    10c0:	fd010113          	addi	x2,x2,-48
    10c4:	03212023          	sw	x18,32(x2)
    10c8:	02112623          	sw	x1,44(x2)
    10cc:	02812423          	sw	x8,40(x2)
    10d0:	02912223          	sw	x9,36(x2)
    10d4:	01312e23          	sw	x19,28(x2)
    10d8:	00b58793          	addi	x15,x11,11
    10dc:	01600713          	addi	x14,x0,22
    10e0:	00050913          	addi	x18,x10,0
    10e4:	08f76063          	bltu	x14,x15,1164 <_malloc_r+0xa4>
    10e8:	01000493          	addi	x9,x0,16
    10ec:	20b4e263          	bltu	x9,x11,12f0 <_malloc_r+0x230>
    10f0:	121010ef          	jal	x1,2a10 <__malloc_lock>
    10f4:	01800793          	addi	x15,x0,24
    10f8:	00200593          	addi	x11,x0,2
    10fc:	00011997          	auipc	x19,0x11
    1100:	3b098993          	addi	x19,x19,944 # 124ac <__malloc_av_>
    1104:	00f987b3          	add	x15,x19,x15
    1108:	0047a403          	lw	x8,4(x15)
    110c:	ff878713          	addi	x14,x15,-8
    1110:	44e40a63          	beq	x8,x14,1564 <_malloc_r+0x4a4>
    1114:	00442783          	lw	x15,4(x8)
    1118:	00c42683          	lw	x13,12(x8)
    111c:	00842603          	lw	x12,8(x8)
    1120:	ffc7f793          	andi	x15,x15,-4
    1124:	00f407b3          	add	x15,x8,x15
    1128:	0047a703          	lw	x14,4(x15)
    112c:	00d62623          	sw	x13,12(x12)
    1130:	00c6a423          	sw	x12,8(x13)
    1134:	00176713          	ori	x14,x14,1
    1138:	00090513          	addi	x10,x18,0
    113c:	00e7a223          	sw	x14,4(x15)
    1140:	0d5010ef          	jal	x1,2a14 <__malloc_unlock>
    1144:	02c12083          	lw	x1,44(x2)
    1148:	00840513          	addi	x10,x8,8
    114c:	02812403          	lw	x8,40(x2)
    1150:	02412483          	lw	x9,36(x2)
    1154:	02012903          	lw	x18,32(x2)
    1158:	01c12983          	lw	x19,28(x2)
    115c:	03010113          	addi	x2,x2,48
    1160:	00008067          	jalr	x0,0(x1)
    1164:	ff87f493          	andi	x9,x15,-8
    1168:	1807c463          	blt	x15,x0,12f0 <_malloc_r+0x230>
    116c:	18b4e263          	bltu	x9,x11,12f0 <_malloc_r+0x230>
    1170:	0a1010ef          	jal	x1,2a10 <__malloc_lock>
    1174:	1f700793          	addi	x15,x0,503
    1178:	5097f063          	bgeu	x15,x9,1678 <_malloc_r+0x5b8>
    117c:	0094d793          	srli	x15,x9,0x9
    1180:	18078c63          	beq	x15,x0,1318 <_malloc_r+0x258>
    1184:	00400713          	addi	x14,x0,4
    1188:	44f76663          	bltu	x14,x15,15d4 <_malloc_r+0x514>
    118c:	0064d793          	srli	x15,x9,0x6
    1190:	03978593          	addi	x11,x15,57
    1194:	03878813          	addi	x16,x15,56
    1198:	00359613          	slli	x12,x11,0x3
    119c:	00011997          	auipc	x19,0x11
    11a0:	31098993          	addi	x19,x19,784 # 124ac <__malloc_av_>
    11a4:	00c98633          	add	x12,x19,x12
    11a8:	00462403          	lw	x8,4(x12)
    11ac:	ff860613          	addi	x12,x12,-8
    11b0:	02860863          	beq	x12,x8,11e0 <_malloc_r+0x120>
    11b4:	00f00513          	addi	x10,x0,15
    11b8:	0140006f          	jal	x0,11cc <_malloc_r+0x10c>
    11bc:	00c42683          	lw	x13,12(x8)
    11c0:	36075063          	bge	x14,x0,1520 <_malloc_r+0x460>
    11c4:	00d60e63          	beq	x12,x13,11e0 <_malloc_r+0x120>
    11c8:	00068413          	addi	x8,x13,0
    11cc:	00442783          	lw	x15,4(x8)
    11d0:	ffc7f793          	andi	x15,x15,-4
    11d4:	40978733          	sub	x14,x15,x9
    11d8:	fee552e3          	bge	x10,x14,11bc <_malloc_r+0xfc>
    11dc:	00080593          	addi	x11,x16,0
    11e0:	0109a403          	lw	x8,16(x19)
    11e4:	81418893          	addi	x17,x3,-2028 # 124b4 <__malloc_av_+0x8>
    11e8:	2b140c63          	beq	x8,x17,14a0 <_malloc_r+0x3e0>
    11ec:	00442783          	lw	x15,4(x8)
    11f0:	00f00693          	addi	x13,x0,15
    11f4:	ffc7f793          	andi	x15,x15,-4
    11f8:	40978733          	sub	x14,x15,x9
    11fc:	48e6c463          	blt	x13,x14,1684 <_malloc_r+0x5c4>
    1200:	0119aa23          	sw	x17,20(x19)
    1204:	0119a823          	sw	x17,16(x19)
    1208:	44075863          	bge	x14,x0,1658 <_malloc_r+0x598>
    120c:	1ff00713          	addi	x14,x0,511
    1210:	0049a503          	lw	x10,4(x19)
    1214:	36f76063          	bltu	x14,x15,1574 <_malloc_r+0x4b4>
    1218:	ff87f713          	andi	x14,x15,-8
    121c:	00870713          	addi	x14,x14,8
    1220:	00e98733          	add	x14,x19,x14
    1224:	00072683          	lw	x13,0(x14)
    1228:	0057d613          	srli	x12,x15,0x5
    122c:	00100793          	addi	x15,x0,1
    1230:	00c797b3          	sll	x15,x15,x12
    1234:	00f56533          	or	x10,x10,x15
    1238:	ff870793          	addi	x15,x14,-8
    123c:	00d42423          	sw	x13,8(x8)
    1240:	00f42623          	sw	x15,12(x8)
    1244:	00a9a223          	sw	x10,4(x19)
    1248:	00872023          	sw	x8,0(x14)
    124c:	0086a623          	sw	x8,12(x13)
    1250:	4025d793          	srai	x15,x11,0x2
    1254:	00100613          	addi	x12,x0,1
    1258:	00f61633          	sll	x12,x12,x15
    125c:	0cc56663          	bltu	x10,x12,1328 <_malloc_r+0x268>
    1260:	00a677b3          	and	x15,x12,x10
    1264:	02079463          	bne	x15,x0,128c <_malloc_r+0x1cc>
    1268:	00161613          	slli	x12,x12,0x1
    126c:	ffc5f593          	andi	x11,x11,-4
    1270:	00a677b3          	and	x15,x12,x10
    1274:	00458593          	addi	x11,x11,4
    1278:	00079a63          	bne	x15,x0,128c <_malloc_r+0x1cc>
    127c:	00161613          	slli	x12,x12,0x1
    1280:	00a677b3          	and	x15,x12,x10
    1284:	00458593          	addi	x11,x11,4
    1288:	fe078ae3          	beq	x15,x0,127c <_malloc_r+0x1bc>
    128c:	00f00813          	addi	x16,x0,15
    1290:	00359313          	slli	x6,x11,0x3
    1294:	00698333          	add	x6,x19,x6
    1298:	00030513          	addi	x10,x6,0
    129c:	00c52783          	lw	x15,12(x10)
    12a0:	00058e13          	addi	x28,x11,0
    12a4:	34f50a63          	beq	x10,x15,15f8 <_malloc_r+0x538>
    12a8:	0047a703          	lw	x14,4(x15)
    12ac:	00078413          	addi	x8,x15,0
    12b0:	00c7a783          	lw	x15,12(x15)
    12b4:	ffc77713          	andi	x14,x14,-4
    12b8:	409706b3          	sub	x13,x14,x9
    12bc:	34d84a63          	blt	x16,x13,1610 <_malloc_r+0x550>
    12c0:	fe06c2e3          	blt	x13,x0,12a4 <_malloc_r+0x1e4>
    12c4:	00e40733          	add	x14,x8,x14
    12c8:	00472683          	lw	x13,4(x14)
    12cc:	00842603          	lw	x12,8(x8)
    12d0:	00090513          	addi	x10,x18,0
    12d4:	0016e693          	ori	x13,x13,1
    12d8:	00d72223          	sw	x13,4(x14)
    12dc:	00f62623          	sw	x15,12(x12)
    12e0:	00c7a423          	sw	x12,8(x15)
    12e4:	730010ef          	jal	x1,2a14 <__malloc_unlock>
    12e8:	00840513          	addi	x10,x8,8
    12ec:	0100006f          	jal	x0,12fc <_malloc_r+0x23c>
    12f0:	00c00793          	addi	x15,x0,12
    12f4:	00f92023          	sw	x15,0(x18)
    12f8:	00000513          	addi	x10,x0,0
    12fc:	02c12083          	lw	x1,44(x2)
    1300:	02812403          	lw	x8,40(x2)
    1304:	02412483          	lw	x9,36(x2)
    1308:	02012903          	lw	x18,32(x2)
    130c:	01c12983          	lw	x19,28(x2)
    1310:	03010113          	addi	x2,x2,48
    1314:	00008067          	jalr	x0,0(x1)
    1318:	20000613          	addi	x12,x0,512
    131c:	04000593          	addi	x11,x0,64
    1320:	03f00813          	addi	x16,x0,63
    1324:	e79ff06f          	jal	x0,119c <_malloc_r+0xdc>
    1328:	0089a403          	lw	x8,8(x19)
    132c:	01612823          	sw	x22,16(x2)
    1330:	00442783          	lw	x15,4(x8)
    1334:	ffc7fb13          	andi	x22,x15,-4
    1338:	009b6863          	bltu	x22,x9,1348 <_malloc_r+0x288>
    133c:	409b0733          	sub	x14,x22,x9
    1340:	00f00793          	addi	x15,x0,15
    1344:	18e7cc63          	blt	x15,x14,14dc <_malloc_r+0x41c>
    1348:	01912223          	sw	x25,4(x2)
    134c:	f0c18c93          	addi	x25,x3,-244 # 12bac <__malloc_sbrk_base>
    1350:	000ca703          	lw	x14,0(x25)
    1354:	01412c23          	sw	x20,24(x2)
    1358:	01512a23          	sw	x21,20(x2)
    135c:	01712623          	sw	x23,12(x2)
    1360:	f281aa83          	lw	x21,-216(x3) # 12bc8 <__malloc_top_pad>
    1364:	fff00793          	addi	x15,x0,-1
    1368:	01548ab3          	add	x21,x9,x21
    136c:	01640a33          	add	x20,x8,x22
    1370:	3ef70063          	beq	x14,x15,1750 <_malloc_r+0x690>
    1374:	000017b7          	lui	x15,0x1
    1378:	00f78793          	addi	x15,x15,15 # 100f <_fclose_r+0x63>
    137c:	00fa8ab3          	add	x21,x21,x15
    1380:	fffff7b7          	lui	x15,0xfffff
    1384:	00fafab3          	and	x21,x21,x15
    1388:	000a8593          	addi	x11,x21,0
    138c:	00090513          	addi	x10,x18,0
    1390:	194060ef          	jal	x1,7524 <_sbrk_r>
    1394:	fff00793          	addi	x15,x0,-1
    1398:	00050b93          	addi	x23,x10,0
    139c:	46f50c63          	beq	x10,x15,1814 <_malloc_r+0x754>
    13a0:	01812423          	sw	x24,8(x2)
    13a4:	11456263          	bltu	x10,x20,14a8 <_malloc_r+0x3e8>
    13a8:	06c18c13          	addi	x24,x3,108 # 12d0c <__malloc_current_mallinfo>
    13ac:	000c2583          	lw	x11,0(x24)
    13b0:	00ba85b3          	add	x11,x21,x11
    13b4:	00bc2023          	sw	x11,0(x24)
    13b8:	00058713          	addi	x14,x11,0
    13bc:	46aa0263          	beq	x20,x10,1820 <_malloc_r+0x760>
    13c0:	000ca683          	lw	x13,0(x25)
    13c4:	fff00793          	addi	x15,x0,-1
    13c8:	46f68a63          	beq	x13,x15,183c <_malloc_r+0x77c>
    13cc:	414b87b3          	sub	x15,x23,x20
    13d0:	00e787b3          	add	x15,x15,x14
    13d4:	00fc2023          	sw	x15,0(x24)
    13d8:	007bfc93          	andi	x25,x23,7
    13dc:	380c8a63          	beq	x25,x0,1770 <_malloc_r+0x6b0>
    13e0:	419b8bb3          	sub	x23,x23,x25
    13e4:	000015b7          	lui	x11,0x1
    13e8:	008b8b93          	addi	x23,x23,8
    13ec:	00858593          	addi	x11,x11,8 # 1008 <_fclose_r+0x5c>
    13f0:	015b8ab3          	add	x21,x23,x21
    13f4:	419585b3          	sub	x11,x11,x25
    13f8:	415585b3          	sub	x11,x11,x21
    13fc:	01459593          	slli	x11,x11,0x14
    1400:	0145da13          	srli	x20,x11,0x14
    1404:	000a0593          	addi	x11,x20,0
    1408:	00090513          	addi	x10,x18,0
    140c:	118060ef          	jal	x1,7524 <_sbrk_r>
    1410:	fff00793          	addi	x15,x0,-1
    1414:	46f50463          	beq	x10,x15,187c <_malloc_r+0x7bc>
    1418:	41750533          	sub	x10,x10,x23
    141c:	01450ab3          	add	x21,x10,x20
    1420:	000c2703          	lw	x14,0(x24)
    1424:	0179a423          	sw	x23,8(x19)
    1428:	001ae793          	ori	x15,x21,1
    142c:	00ea05b3          	add	x11,x20,x14
    1430:	00fba223          	sw	x15,4(x23)
    1434:	00bc2023          	sw	x11,0(x24)
    1438:	03340e63          	beq	x8,x19,1474 <_malloc_r+0x3b4>
    143c:	00f00693          	addi	x13,x0,15
    1440:	3566fe63          	bgeu	x13,x22,179c <_malloc_r+0x6dc>
    1444:	00442703          	lw	x14,4(x8)
    1448:	ff4b0793          	addi	x15,x22,-12
    144c:	ff87f793          	andi	x15,x15,-8
    1450:	00177713          	andi	x14,x14,1
    1454:	00f76733          	or	x14,x14,x15
    1458:	00e42223          	sw	x14,4(x8)
    145c:	00500613          	addi	x12,x0,5
    1460:	00f40733          	add	x14,x8,x15
    1464:	00c72223          	sw	x12,4(x14)
    1468:	00c72423          	sw	x12,8(x14)
    146c:	2cf6e663          	bltu	x13,x15,1738 <_malloc_r+0x678>
    1470:	004ba783          	lw	x15,4(x23)
    1474:	f2418713          	addi	x14,x3,-220 # 12bc4 <__malloc_max_sbrked_mem>
    1478:	00072683          	lw	x13,0(x14)
    147c:	00b6f463          	bgeu	x13,x11,1484 <_malloc_r+0x3c4>
    1480:	00b72023          	sw	x11,0(x14)
    1484:	f2018713          	addi	x14,x3,-224 # 12bc0 <__malloc_max_total_mem>
    1488:	00072683          	lw	x13,0(x14)
    148c:	00b6f463          	bgeu	x13,x11,1494 <_malloc_r+0x3d4>
    1490:	00b72023          	sw	x11,0(x14)
    1494:	00812c03          	lw	x24,8(x2)
    1498:	000b8413          	addi	x8,x23,0
    149c:	01c0006f          	jal	x0,14b8 <_malloc_r+0x3f8>
    14a0:	0049a503          	lw	x10,4(x19)
    14a4:	dadff06f          	jal	x0,1250 <_malloc_r+0x190>
    14a8:	35340c63          	beq	x8,x19,1800 <_malloc_r+0x740>
    14ac:	0089a403          	lw	x8,8(x19)
    14b0:	00812c03          	lw	x24,8(x2)
    14b4:	00442783          	lw	x15,4(x8)
    14b8:	ffc7f793          	andi	x15,x15,-4
    14bc:	40978733          	sub	x14,x15,x9
    14c0:	2e97e463          	bltu	x15,x9,17a8 <_malloc_r+0x6e8>
    14c4:	00f00793          	addi	x15,x0,15
    14c8:	2ee7d063          	bge	x15,x14,17a8 <_malloc_r+0x6e8>
    14cc:	01812a03          	lw	x20,24(x2)
    14d0:	01412a83          	lw	x21,20(x2)
    14d4:	00c12b83          	lw	x23,12(x2)
    14d8:	00412c83          	lw	x25,4(x2)
    14dc:	0014e793          	ori	x15,x9,1
    14e0:	00f42223          	sw	x15,4(x8)
    14e4:	009404b3          	add	x9,x8,x9
    14e8:	0099a423          	sw	x9,8(x19)
    14ec:	00176713          	ori	x14,x14,1
    14f0:	00090513          	addi	x10,x18,0
    14f4:	00e4a223          	sw	x14,4(x9)
    14f8:	51c010ef          	jal	x1,2a14 <__malloc_unlock>
    14fc:	02c12083          	lw	x1,44(x2)
    1500:	00840513          	addi	x10,x8,8
    1504:	02812403          	lw	x8,40(x2)
    1508:	01012b03          	lw	x22,16(x2)
    150c:	02412483          	lw	x9,36(x2)
    1510:	02012903          	lw	x18,32(x2)
    1514:	01c12983          	lw	x19,28(x2)
    1518:	03010113          	addi	x2,x2,48
    151c:	00008067          	jalr	x0,0(x1)
    1520:	00842603          	lw	x12,8(x8)
    1524:	00f407b3          	add	x15,x8,x15
    1528:	0047a703          	lw	x14,4(x15) # fffff004 <__heap_end+0xffbff004>
    152c:	00d62623          	sw	x13,12(x12)
    1530:	00c6a423          	sw	x12,8(x13)
    1534:	00176713          	ori	x14,x14,1
    1538:	00090513          	addi	x10,x18,0
    153c:	00e7a223          	sw	x14,4(x15)
    1540:	4d4010ef          	jal	x1,2a14 <__malloc_unlock>
    1544:	02c12083          	lw	x1,44(x2)
    1548:	00840513          	addi	x10,x8,8
    154c:	02812403          	lw	x8,40(x2)
    1550:	02412483          	lw	x9,36(x2)
    1554:	02012903          	lw	x18,32(x2)
    1558:	01c12983          	lw	x19,28(x2)
    155c:	03010113          	addi	x2,x2,48
    1560:	00008067          	jalr	x0,0(x1)
    1564:	00c7a403          	lw	x8,12(x15)
    1568:	00258593          	addi	x11,x11,2
    156c:	c6878ae3          	beq	x15,x8,11e0 <_malloc_r+0x120>
    1570:	ba5ff06f          	jal	x0,1114 <_malloc_r+0x54>
    1574:	0097d713          	srli	x14,x15,0x9
    1578:	00400693          	addi	x13,x0,4
    157c:	14e6f263          	bgeu	x13,x14,16c0 <_malloc_r+0x600>
    1580:	01400693          	addi	x13,x0,20
    1584:	24e6e263          	bltu	x13,x14,17c8 <_malloc_r+0x708>
    1588:	05c70613          	addi	x12,x14,92
    158c:	00361613          	slli	x12,x12,0x3
    1590:	05b70693          	addi	x13,x14,91
    1594:	00c98633          	add	x12,x19,x12
    1598:	00062703          	lw	x14,0(x12)
    159c:	ff860613          	addi	x12,x12,-8
    15a0:	00e61863          	bne	x12,x14,15b0 <_malloc_r+0x4f0>
    15a4:	1b40006f          	jal	x0,1758 <_malloc_r+0x698>
    15a8:	00872703          	lw	x14,8(x14)
    15ac:	00e60863          	beq	x12,x14,15bc <_malloc_r+0x4fc>
    15b0:	00472683          	lw	x13,4(x14)
    15b4:	ffc6f693          	andi	x13,x13,-4
    15b8:	fed7e8e3          	bltu	x15,x13,15a8 <_malloc_r+0x4e8>
    15bc:	00c72603          	lw	x12,12(x14)
    15c0:	00c42623          	sw	x12,12(x8)
    15c4:	00e42423          	sw	x14,8(x8)
    15c8:	00862423          	sw	x8,8(x12)
    15cc:	00872623          	sw	x8,12(x14)
    15d0:	c81ff06f          	jal	x0,1250 <_malloc_r+0x190>
    15d4:	01400713          	addi	x14,x0,20
    15d8:	0ef77e63          	bgeu	x14,x15,16d4 <_malloc_r+0x614>
    15dc:	05400713          	addi	x14,x0,84
    15e0:	20f76263          	bltu	x14,x15,17e4 <_malloc_r+0x724>
    15e4:	00c4d793          	srli	x15,x9,0xc
    15e8:	06f78593          	addi	x11,x15,111
    15ec:	06e78813          	addi	x16,x15,110
    15f0:	00359613          	slli	x12,x11,0x3
    15f4:	ba9ff06f          	jal	x0,119c <_malloc_r+0xdc>
    15f8:	001e0e13          	addi	x28,x28,1
    15fc:	003e7793          	andi	x15,x28,3
    1600:	00850513          	addi	x10,x10,8
    1604:	0e078663          	beq	x15,x0,16f0 <_malloc_r+0x630>
    1608:	00c52783          	lw	x15,12(x10)
    160c:	c99ff06f          	jal	x0,12a4 <_malloc_r+0x1e4>
    1610:	00842603          	lw	x12,8(x8)
    1614:	0014e593          	ori	x11,x9,1
    1618:	00b42223          	sw	x11,4(x8)
    161c:	00f62623          	sw	x15,12(x12)
    1620:	00c7a423          	sw	x12,8(x15)
    1624:	009404b3          	add	x9,x8,x9
    1628:	0099aa23          	sw	x9,20(x19)
    162c:	0099a823          	sw	x9,16(x19)
    1630:	0016e793          	ori	x15,x13,1
    1634:	00e40733          	add	x14,x8,x14
    1638:	0114a623          	sw	x17,12(x9)
    163c:	0114a423          	sw	x17,8(x9)
    1640:	00f4a223          	sw	x15,4(x9)
    1644:	00090513          	addi	x10,x18,0
    1648:	00d72023          	sw	x13,0(x14)
    164c:	3c8010ef          	jal	x1,2a14 <__malloc_unlock>
    1650:	00840513          	addi	x10,x8,8
    1654:	ca9ff06f          	jal	x0,12fc <_malloc_r+0x23c>
    1658:	00f407b3          	add	x15,x8,x15
    165c:	0047a703          	lw	x14,4(x15)
    1660:	00090513          	addi	x10,x18,0
    1664:	00176713          	ori	x14,x14,1
    1668:	00e7a223          	sw	x14,4(x15)
    166c:	3a8010ef          	jal	x1,2a14 <__malloc_unlock>
    1670:	00840513          	addi	x10,x8,8
    1674:	c89ff06f          	jal	x0,12fc <_malloc_r+0x23c>
    1678:	0034d593          	srli	x11,x9,0x3
    167c:	00848793          	addi	x15,x9,8
    1680:	a7dff06f          	jal	x0,10fc <_malloc_r+0x3c>
    1684:	0014e693          	ori	x13,x9,1
    1688:	00d42223          	sw	x13,4(x8)
    168c:	009404b3          	add	x9,x8,x9
    1690:	0099aa23          	sw	x9,20(x19)
    1694:	0099a823          	sw	x9,16(x19)
    1698:	00176693          	ori	x13,x14,1
    169c:	00f407b3          	add	x15,x8,x15
    16a0:	0114a623          	sw	x17,12(x9)
    16a4:	0114a423          	sw	x17,8(x9)
    16a8:	00d4a223          	sw	x13,4(x9)
    16ac:	00090513          	addi	x10,x18,0
    16b0:	00e7a023          	sw	x14,0(x15)
    16b4:	360010ef          	jal	x1,2a14 <__malloc_unlock>
    16b8:	00840513          	addi	x10,x8,8
    16bc:	c41ff06f          	jal	x0,12fc <_malloc_r+0x23c>
    16c0:	0067d713          	srli	x14,x15,0x6
    16c4:	03970613          	addi	x12,x14,57
    16c8:	00361613          	slli	x12,x12,0x3
    16cc:	03870693          	addi	x13,x14,56
    16d0:	ec5ff06f          	jal	x0,1594 <_malloc_r+0x4d4>
    16d4:	05c78593          	addi	x11,x15,92
    16d8:	05b78813          	addi	x16,x15,91
    16dc:	00359613          	slli	x12,x11,0x3
    16e0:	abdff06f          	jal	x0,119c <_malloc_r+0xdc>
    16e4:	00832783          	lw	x15,8(x6)
    16e8:	fff58593          	addi	x11,x11,-1
    16ec:	1c679e63          	bne	x15,x6,18c8 <_malloc_r+0x808>
    16f0:	0035f793          	andi	x15,x11,3
    16f4:	ff830313          	addi	x6,x6,-8
    16f8:	fe0796e3          	bne	x15,x0,16e4 <_malloc_r+0x624>
    16fc:	0049a703          	lw	x14,4(x19)
    1700:	fff64793          	xori	x15,x12,-1
    1704:	00e7f7b3          	and	x15,x15,x14
    1708:	00f9a223          	sw	x15,4(x19)
    170c:	00161613          	slli	x12,x12,0x1
    1710:	c0c7ece3          	bltu	x15,x12,1328 <_malloc_r+0x268>
    1714:	c0060ae3          	beq	x12,x0,1328 <_malloc_r+0x268>
    1718:	00f67733          	and	x14,x12,x15
    171c:	00071a63          	bne	x14,x0,1730 <_malloc_r+0x670>
    1720:	00161613          	slli	x12,x12,0x1
    1724:	00f67733          	and	x14,x12,x15
    1728:	004e0e13          	addi	x28,x28,4
    172c:	fe070ae3          	beq	x14,x0,1720 <_malloc_r+0x660>
    1730:	000e0593          	addi	x11,x28,0
    1734:	b5dff06f          	jal	x0,1290 <_malloc_r+0x1d0>
    1738:	00840593          	addi	x11,x8,8
    173c:	00090513          	addi	x10,x18,0
    1740:	324000ef          	jal	x1,1a64 <_free_r>
    1744:	000c2583          	lw	x11,0(x24)
    1748:	0089ab83          	lw	x23,8(x19)
    174c:	d25ff06f          	jal	x0,1470 <_malloc_r+0x3b0>
    1750:	010a8a93          	addi	x21,x21,16
    1754:	c35ff06f          	jal	x0,1388 <_malloc_r+0x2c8>
    1758:	4026d693          	srai	x13,x13,0x2
    175c:	00100793          	addi	x15,x0,1
    1760:	00d797b3          	sll	x15,x15,x13
    1764:	00f56533          	or	x10,x10,x15
    1768:	00a9a223          	sw	x10,4(x19)
    176c:	e55ff06f          	jal	x0,15c0 <_malloc_r+0x500>
    1770:	015b85b3          	add	x11,x23,x21
    1774:	40b005b3          	sub	x11,x0,x11
    1778:	01459593          	slli	x11,x11,0x14
    177c:	0145da13          	srli	x20,x11,0x14
    1780:	000a0593          	addi	x11,x20,0
    1784:	00090513          	addi	x10,x18,0
    1788:	59d050ef          	jal	x1,7524 <_sbrk_r>
    178c:	fff00793          	addi	x15,x0,-1
    1790:	c8f514e3          	bne	x10,x15,1418 <_malloc_r+0x358>
    1794:	00000a13          	addi	x20,x0,0
    1798:	c89ff06f          	jal	x0,1420 <_malloc_r+0x360>
    179c:	00812c03          	lw	x24,8(x2)
    17a0:	00100793          	addi	x15,x0,1
    17a4:	00fba223          	sw	x15,4(x23)
    17a8:	00090513          	addi	x10,x18,0
    17ac:	268010ef          	jal	x1,2a14 <__malloc_unlock>
    17b0:	01812a03          	lw	x20,24(x2)
    17b4:	01412a83          	lw	x21,20(x2)
    17b8:	01012b03          	lw	x22,16(x2)
    17bc:	00c12b83          	lw	x23,12(x2)
    17c0:	00412c83          	lw	x25,4(x2)
    17c4:	b35ff06f          	jal	x0,12f8 <_malloc_r+0x238>
    17c8:	05400693          	addi	x13,x0,84
    17cc:	06e6ec63          	bltu	x13,x14,1844 <_malloc_r+0x784>
    17d0:	00c7d713          	srli	x14,x15,0xc
    17d4:	06f70613          	addi	x12,x14,111
    17d8:	00361613          	slli	x12,x12,0x3
    17dc:	06e70693          	addi	x13,x14,110
    17e0:	db5ff06f          	jal	x0,1594 <_malloc_r+0x4d4>
    17e4:	15400713          	addi	x14,x0,340
    17e8:	06f76c63          	bltu	x14,x15,1860 <_malloc_r+0x7a0>
    17ec:	00f4d793          	srli	x15,x9,0xf
    17f0:	07878593          	addi	x11,x15,120
    17f4:	07778813          	addi	x16,x15,119
    17f8:	00359613          	slli	x12,x11,0x3
    17fc:	9a1ff06f          	jal	x0,119c <_malloc_r+0xdc>
    1800:	06c18c13          	addi	x24,x3,108 # 12d0c <__malloc_current_mallinfo>
    1804:	000c2703          	lw	x14,0(x24)
    1808:	00ea8733          	add	x14,x21,x14
    180c:	00ec2023          	sw	x14,0(x24)
    1810:	bb1ff06f          	jal	x0,13c0 <_malloc_r+0x300>
    1814:	0089a403          	lw	x8,8(x19)
    1818:	00442783          	lw	x15,4(x8)
    181c:	c9dff06f          	jal	x0,14b8 <_malloc_r+0x3f8>
    1820:	01451793          	slli	x15,x10,0x14
    1824:	b8079ee3          	bne	x15,x0,13c0 <_malloc_r+0x300>
    1828:	0089ab83          	lw	x23,8(x19)
    182c:	015b07b3          	add	x15,x22,x21
    1830:	0017e793          	ori	x15,x15,1
    1834:	00fba223          	sw	x15,4(x23)
    1838:	c3dff06f          	jal	x0,1474 <_malloc_r+0x3b4>
    183c:	017ca023          	sw	x23,0(x25)
    1840:	b99ff06f          	jal	x0,13d8 <_malloc_r+0x318>
    1844:	15400693          	addi	x13,x0,340
    1848:	04e6e463          	bltu	x13,x14,1890 <_malloc_r+0x7d0>
    184c:	00f7d713          	srli	x14,x15,0xf
    1850:	07870613          	addi	x12,x14,120
    1854:	00361613          	slli	x12,x12,0x3
    1858:	07770693          	addi	x13,x14,119
    185c:	d39ff06f          	jal	x0,1594 <_malloc_r+0x4d4>
    1860:	55400713          	addi	x14,x0,1364
    1864:	04f76463          	bltu	x14,x15,18ac <_malloc_r+0x7ec>
    1868:	0124d793          	srli	x15,x9,0x12
    186c:	07d78593          	addi	x11,x15,125
    1870:	07c78813          	addi	x16,x15,124
    1874:	00359613          	slli	x12,x11,0x3
    1878:	925ff06f          	jal	x0,119c <_malloc_r+0xdc>
    187c:	ff8c8c93          	addi	x25,x25,-8
    1880:	019a8ab3          	add	x21,x21,x25
    1884:	417a8ab3          	sub	x21,x21,x23
    1888:	00000a13          	addi	x20,x0,0
    188c:	b95ff06f          	jal	x0,1420 <_malloc_r+0x360>
    1890:	55400693          	addi	x13,x0,1364
    1894:	02e6e463          	bltu	x13,x14,18bc <_malloc_r+0x7fc>
    1898:	0127d713          	srli	x14,x15,0x12
    189c:	07d70613          	addi	x12,x14,125
    18a0:	00361613          	slli	x12,x12,0x3
    18a4:	07c70693          	addi	x13,x14,124
    18a8:	cedff06f          	jal	x0,1594 <_malloc_r+0x4d4>
    18ac:	3f800613          	addi	x12,x0,1016
    18b0:	07f00593          	addi	x11,x0,127
    18b4:	07e00813          	addi	x16,x0,126
    18b8:	8e5ff06f          	jal	x0,119c <_malloc_r+0xdc>
    18bc:	3f800613          	addi	x12,x0,1016
    18c0:	07e00693          	addi	x13,x0,126
    18c4:	cd1ff06f          	jal	x0,1594 <_malloc_r+0x4d4>
    18c8:	0049a783          	lw	x15,4(x19)
    18cc:	e41ff06f          	jal	x0,170c <_malloc_r+0x64c>

000018d0 <__libc_fini_array>:
    18d0:	ff010113          	addi	x2,x2,-16
    18d4:	00812423          	sw	x8,8(x2)
    18d8:	00011797          	auipc	x15,0x11
    18dc:	bc878793          	addi	x15,x15,-1080 # 124a0 <__sglue>
    18e0:	00011417          	auipc	x8,0x11
    18e4:	bc040413          	addi	x8,x8,-1088 # 124a0 <__sglue>
    18e8:	40f40433          	sub	x8,x8,x15
    18ec:	00912223          	sw	x9,4(x2)
    18f0:	00112623          	sw	x1,12(x2)
    18f4:	40245493          	srai	x9,x8,0x2
    18f8:	02048063          	beq	x9,x0,1918 <__libc_fini_array+0x48>
    18fc:	ffc40413          	addi	x8,x8,-4
    1900:	00f40433          	add	x8,x8,x15
    1904:	00042783          	lw	x15,0(x8)
    1908:	fff48493          	addi	x9,x9,-1
    190c:	ffc40413          	addi	x8,x8,-4
    1910:	000780e7          	jalr	x1,0(x15)
    1914:	fe0498e3          	bne	x9,x0,1904 <__libc_fini_array+0x34>
    1918:	00c12083          	lw	x1,12(x2)
    191c:	00812403          	lw	x8,8(x2)
    1920:	00412483          	lw	x9,4(x2)
    1924:	01010113          	addi	x2,x2,16
    1928:	00008067          	jalr	x0,0(x1)

0000192c <_malloc_trim_r>:
    192c:	fe010113          	addi	x2,x2,-32
    1930:	00812c23          	sw	x8,24(x2)
    1934:	00912a23          	sw	x9,20(x2)
    1938:	01212823          	sw	x18,16(x2)
    193c:	01312623          	sw	x19,12(x2)
    1940:	01412423          	sw	x20,8(x2)
    1944:	00058993          	addi	x19,x11,0
    1948:	00112e23          	sw	x1,28(x2)
    194c:	00050913          	addi	x18,x10,0
    1950:	00011a17          	auipc	x20,0x11
    1954:	b5ca0a13          	addi	x20,x20,-1188 # 124ac <__malloc_av_>
    1958:	0b8010ef          	jal	x1,2a10 <__malloc_lock>
    195c:	008a2783          	lw	x15,8(x20)
    1960:	00001437          	lui	x8,0x1
    1964:	fef40413          	addi	x8,x8,-17 # fef <_fclose_r+0x43>
    1968:	0047a483          	lw	x9,4(x15)
    196c:	000017b7          	lui	x15,0x1
    1970:	ffc4f493          	andi	x9,x9,-4
    1974:	00848433          	add	x8,x9,x8
    1978:	41340433          	sub	x8,x8,x19
    197c:	00c45413          	srli	x8,x8,0xc
    1980:	fff40413          	addi	x8,x8,-1
    1984:	00c41413          	slli	x8,x8,0xc
    1988:	00f44e63          	blt	x8,x15,19a4 <_malloc_trim_r+0x78>
    198c:	00000593          	addi	x11,x0,0
    1990:	00090513          	addi	x10,x18,0
    1994:	391050ef          	jal	x1,7524 <_sbrk_r>
    1998:	008a2783          	lw	x15,8(x20)
    199c:	009787b3          	add	x15,x15,x9
    19a0:	02f50863          	beq	x10,x15,19d0 <_malloc_trim_r+0xa4>
    19a4:	00090513          	addi	x10,x18,0
    19a8:	06c010ef          	jal	x1,2a14 <__malloc_unlock>
    19ac:	01c12083          	lw	x1,28(x2)
    19b0:	01812403          	lw	x8,24(x2)
    19b4:	01412483          	lw	x9,20(x2)
    19b8:	01012903          	lw	x18,16(x2)
    19bc:	00c12983          	lw	x19,12(x2)
    19c0:	00812a03          	lw	x20,8(x2)
    19c4:	00000513          	addi	x10,x0,0
    19c8:	02010113          	addi	x2,x2,32
    19cc:	00008067          	jalr	x0,0(x1)
    19d0:	408005b3          	sub	x11,x0,x8
    19d4:	00090513          	addi	x10,x18,0
    19d8:	34d050ef          	jal	x1,7524 <_sbrk_r>
    19dc:	fff00793          	addi	x15,x0,-1
    19e0:	04f50863          	beq	x10,x15,1a30 <_malloc_trim_r+0x104>
    19e4:	06c18713          	addi	x14,x3,108 # 12d0c <__malloc_current_mallinfo>
    19e8:	008a2683          	lw	x13,8(x20)
    19ec:	00072783          	lw	x15,0(x14)
    19f0:	408484b3          	sub	x9,x9,x8
    19f4:	0014e493          	ori	x9,x9,1
    19f8:	00090513          	addi	x10,x18,0
    19fc:	408787b3          	sub	x15,x15,x8
    1a00:	0096a223          	sw	x9,4(x13)
    1a04:	00f72023          	sw	x15,0(x14)
    1a08:	00c010ef          	jal	x1,2a14 <__malloc_unlock>
    1a0c:	01c12083          	lw	x1,28(x2)
    1a10:	01812403          	lw	x8,24(x2)
    1a14:	01412483          	lw	x9,20(x2)
    1a18:	01012903          	lw	x18,16(x2)
    1a1c:	00c12983          	lw	x19,12(x2)
    1a20:	00812a03          	lw	x20,8(x2)
    1a24:	00100513          	addi	x10,x0,1
    1a28:	02010113          	addi	x2,x2,32
    1a2c:	00008067          	jalr	x0,0(x1)
    1a30:	00000593          	addi	x11,x0,0
    1a34:	00090513          	addi	x10,x18,0
    1a38:	2ed050ef          	jal	x1,7524 <_sbrk_r>
    1a3c:	008a2703          	lw	x14,8(x20)
    1a40:	00f00693          	addi	x13,x0,15
    1a44:	40e507b3          	sub	x15,x10,x14
    1a48:	f4f6dee3          	bge	x13,x15,19a4 <_malloc_trim_r+0x78>
    1a4c:	f0c1a683          	lw	x13,-244(x3) # 12bac <__malloc_sbrk_base>
    1a50:	0017e793          	ori	x15,x15,1
    1a54:	40d50533          	sub	x10,x10,x13
    1a58:	00f72223          	sw	x15,4(x14)
    1a5c:	06a1a623          	sw	x10,108(x3) # 12d0c <__malloc_current_mallinfo>
    1a60:	f45ff06f          	jal	x0,19a4 <_malloc_trim_r+0x78>

00001a64 <_free_r>:
    1a64:	16058e63          	beq	x11,x0,1be0 <_free_r+0x17c>
    1a68:	ff010113          	addi	x2,x2,-16
    1a6c:	00812423          	sw	x8,8(x2)
    1a70:	00912223          	sw	x9,4(x2)
    1a74:	00058413          	addi	x8,x11,0
    1a78:	00050493          	addi	x9,x10,0
    1a7c:	00112623          	sw	x1,12(x2)
    1a80:	791000ef          	jal	x1,2a10 <__malloc_lock>
    1a84:	ffc42583          	lw	x11,-4(x8)
    1a88:	ff840713          	addi	x14,x8,-8
    1a8c:	00011817          	auipc	x16,0x11
    1a90:	a2080813          	addi	x16,x16,-1504 # 124ac <__malloc_av_>
    1a94:	ffe5f793          	andi	x15,x11,-2
    1a98:	00f70633          	add	x12,x14,x15
    1a9c:	00462683          	lw	x13,4(x12)
    1aa0:	00882503          	lw	x10,8(x16)
    1aa4:	0015f893          	andi	x17,x11,1
    1aa8:	ffc6f693          	andi	x13,x13,-4
    1aac:	18c50c63          	beq	x10,x12,1c44 <_free_r+0x1e0>
    1ab0:	00d62223          	sw	x13,4(x12)
    1ab4:	00d60533          	add	x10,x12,x13
    1ab8:	00452503          	lw	x10,4(x10)
    1abc:	00157513          	andi	x10,x10,1
    1ac0:	08089c63          	bne	x17,x0,1b58 <_free_r+0xf4>
    1ac4:	ff842303          	lw	x6,-8(x8)
    1ac8:	00011897          	auipc	x17,0x11
    1acc:	9ec88893          	addi	x17,x17,-1556 # 124b4 <__malloc_av_+0x8>
    1ad0:	40670733          	sub	x14,x14,x6
    1ad4:	00872583          	lw	x11,8(x14)
    1ad8:	006787b3          	add	x15,x15,x6
    1adc:	13158e63          	beq	x11,x17,1c18 <_free_r+0x1b4>
    1ae0:	00c72303          	lw	x6,12(x14)
    1ae4:	0065a623          	sw	x6,12(x11)
    1ae8:	00b32423          	sw	x11,8(x6)
    1aec:	1a050063          	beq	x10,x0,1c8c <_free_r+0x228>
    1af0:	0017e693          	ori	x13,x15,1
    1af4:	00d72223          	sw	x13,4(x14)
    1af8:	00f62023          	sw	x15,0(x12)
    1afc:	1ff00693          	addi	x13,x0,511
    1b00:	06f6e863          	bltu	x13,x15,1b70 <_free_r+0x10c>
    1b04:	ff87f693          	andi	x13,x15,-8
    1b08:	00868693          	addi	x13,x13,8
    1b0c:	00482583          	lw	x11,4(x16)
    1b10:	00d806b3          	add	x13,x16,x13
    1b14:	0006a603          	lw	x12,0(x13)
    1b18:	0057d513          	srli	x10,x15,0x5
    1b1c:	00100793          	addi	x15,x0,1
    1b20:	00a797b3          	sll	x15,x15,x10
    1b24:	00b7e7b3          	or	x15,x15,x11
    1b28:	ff868593          	addi	x11,x13,-8
    1b2c:	00c72423          	sw	x12,8(x14)
    1b30:	00b72623          	sw	x11,12(x14)
    1b34:	00f82223          	sw	x15,4(x16)
    1b38:	00e6a023          	sw	x14,0(x13)
    1b3c:	00e62623          	sw	x14,12(x12)
    1b40:	00812403          	lw	x8,8(x2)
    1b44:	00c12083          	lw	x1,12(x2)
    1b48:	00048513          	addi	x10,x9,0
    1b4c:	00412483          	lw	x9,4(x2)
    1b50:	01010113          	addi	x2,x2,16
    1b54:	6c10006f          	jal	x0,2a14 <__malloc_unlock>
    1b58:	08050663          	beq	x10,x0,1be4 <_free_r+0x180>
    1b5c:	0015e593          	ori	x11,x11,1
    1b60:	feb42e23          	sw	x11,-4(x8)
    1b64:	00f62023          	sw	x15,0(x12)
    1b68:	1ff00693          	addi	x13,x0,511
    1b6c:	f8f6fce3          	bgeu	x13,x15,1b04 <_free_r+0xa0>
    1b70:	0097d693          	srli	x13,x15,0x9
    1b74:	00400613          	addi	x12,x0,4
    1b78:	10d66e63          	bltu	x12,x13,1c94 <_free_r+0x230>
    1b7c:	0067d693          	srli	x13,x15,0x6
    1b80:	03968593          	addi	x11,x13,57
    1b84:	00359593          	slli	x11,x11,0x3
    1b88:	03868613          	addi	x12,x13,56
    1b8c:	00b805b3          	add	x11,x16,x11
    1b90:	0005a683          	lw	x13,0(x11)
    1b94:	ff858593          	addi	x11,x11,-8
    1b98:	00d59863          	bne	x11,x13,1ba8 <_free_r+0x144>
    1b9c:	1500006f          	jal	x0,1cec <_free_r+0x288>
    1ba0:	0086a683          	lw	x13,8(x13)
    1ba4:	00d58863          	beq	x11,x13,1bb4 <_free_r+0x150>
    1ba8:	0046a603          	lw	x12,4(x13)
    1bac:	ffc67613          	andi	x12,x12,-4
    1bb0:	fec7e8e3          	bltu	x15,x12,1ba0 <_free_r+0x13c>
    1bb4:	00c6a583          	lw	x11,12(x13)
    1bb8:	00b72623          	sw	x11,12(x14)
    1bbc:	00d72423          	sw	x13,8(x14)
    1bc0:	00812403          	lw	x8,8(x2)
    1bc4:	00c12083          	lw	x1,12(x2)
    1bc8:	00e5a423          	sw	x14,8(x11)
    1bcc:	00048513          	addi	x10,x9,0
    1bd0:	00412483          	lw	x9,4(x2)
    1bd4:	00e6a623          	sw	x14,12(x13)
    1bd8:	01010113          	addi	x2,x2,16
    1bdc:	6390006f          	jal	x0,2a14 <__malloc_unlock>
    1be0:	00008067          	jalr	x0,0(x1)
    1be4:	00d787b3          	add	x15,x15,x13
    1be8:	00011897          	auipc	x17,0x11
    1bec:	8cc88893          	addi	x17,x17,-1844 # 124b4 <__malloc_av_+0x8>
    1bf0:	00862683          	lw	x13,8(x12)
    1bf4:	0d168a63          	beq	x13,x17,1cc8 <_free_r+0x264>
    1bf8:	00c62503          	lw	x10,12(x12)
    1bfc:	0017e593          	ori	x11,x15,1
    1c00:	00f70633          	add	x12,x14,x15
    1c04:	00a6a623          	sw	x10,12(x13)
    1c08:	00d52423          	sw	x13,8(x10)
    1c0c:	00b72223          	sw	x11,4(x14)
    1c10:	00f62023          	sw	x15,0(x12)
    1c14:	ee9ff06f          	jal	x0,1afc <_free_r+0x98>
    1c18:	12051a63          	bne	x10,x0,1d4c <_free_r+0x2e8>
    1c1c:	00862583          	lw	x11,8(x12)
    1c20:	00c62603          	lw	x12,12(x12)
    1c24:	00f686b3          	add	x13,x13,x15
    1c28:	0016e793          	ori	x15,x13,1
    1c2c:	00c5a623          	sw	x12,12(x11)
    1c30:	00b62423          	sw	x11,8(x12)
    1c34:	00f72223          	sw	x15,4(x14)
    1c38:	00d70733          	add	x14,x14,x13
    1c3c:	00d72023          	sw	x13,0(x14)
    1c40:	f01ff06f          	jal	x0,1b40 <_free_r+0xdc>
    1c44:	00d786b3          	add	x13,x15,x13
    1c48:	02089063          	bne	x17,x0,1c68 <_free_r+0x204>
    1c4c:	ff842583          	lw	x11,-8(x8)
    1c50:	40b70733          	sub	x14,x14,x11
    1c54:	00c72783          	lw	x15,12(x14)
    1c58:	00872603          	lw	x12,8(x14)
    1c5c:	00b686b3          	add	x13,x13,x11
    1c60:	00f62623          	sw	x15,12(x12)
    1c64:	00c7a423          	sw	x12,8(x15) # 1008 <_fclose_r+0x5c>
    1c68:	0016e793          	ori	x15,x13,1
    1c6c:	00f72223          	sw	x15,4(x14)
    1c70:	00e82423          	sw	x14,8(x16)
    1c74:	f101a783          	lw	x15,-240(x3) # 12bb0 <__malloc_trim_threshold>
    1c78:	ecf6e4e3          	bltu	x13,x15,1b40 <_free_r+0xdc>
    1c7c:	f281a583          	lw	x11,-216(x3) # 12bc8 <__malloc_top_pad>
    1c80:	00048513          	addi	x10,x9,0
    1c84:	ca9ff0ef          	jal	x1,192c <_malloc_trim_r>
    1c88:	eb9ff06f          	jal	x0,1b40 <_free_r+0xdc>
    1c8c:	00d787b3          	add	x15,x15,x13
    1c90:	f61ff06f          	jal	x0,1bf0 <_free_r+0x18c>
    1c94:	01400613          	addi	x12,x0,20
    1c98:	02d67063          	bgeu	x12,x13,1cb8 <_free_r+0x254>
    1c9c:	05400613          	addi	x12,x0,84
    1ca0:	06d66463          	bltu	x12,x13,1d08 <_free_r+0x2a4>
    1ca4:	00c7d693          	srli	x13,x15,0xc
    1ca8:	06f68593          	addi	x11,x13,111
    1cac:	00359593          	slli	x11,x11,0x3
    1cb0:	06e68613          	addi	x12,x13,110
    1cb4:	ed9ff06f          	jal	x0,1b8c <_free_r+0x128>
    1cb8:	05c68593          	addi	x11,x13,92
    1cbc:	00359593          	slli	x11,x11,0x3
    1cc0:	05b68613          	addi	x12,x13,91
    1cc4:	ec9ff06f          	jal	x0,1b8c <_free_r+0x128>
    1cc8:	00e82a23          	sw	x14,20(x16)
    1ccc:	00e82823          	sw	x14,16(x16)
    1cd0:	0017e693          	ori	x13,x15,1
    1cd4:	01172623          	sw	x17,12(x14)
    1cd8:	01172423          	sw	x17,8(x14)
    1cdc:	00d72223          	sw	x13,4(x14)
    1ce0:	00f70733          	add	x14,x14,x15
    1ce4:	00f72023          	sw	x15,0(x14)
    1ce8:	e59ff06f          	jal	x0,1b40 <_free_r+0xdc>
    1cec:	00482503          	lw	x10,4(x16)
    1cf0:	40265613          	srai	x12,x12,0x2
    1cf4:	00100793          	addi	x15,x0,1
    1cf8:	00c797b3          	sll	x15,x15,x12
    1cfc:	00a7e7b3          	or	x15,x15,x10
    1d00:	00f82223          	sw	x15,4(x16)
    1d04:	eb5ff06f          	jal	x0,1bb8 <_free_r+0x154>
    1d08:	15400613          	addi	x12,x0,340
    1d0c:	00d66c63          	bltu	x12,x13,1d24 <_free_r+0x2c0>
    1d10:	00f7d693          	srli	x13,x15,0xf
    1d14:	07868593          	addi	x11,x13,120
    1d18:	00359593          	slli	x11,x11,0x3
    1d1c:	07768613          	addi	x12,x13,119
    1d20:	e6dff06f          	jal	x0,1b8c <_free_r+0x128>
    1d24:	55400613          	addi	x12,x0,1364
    1d28:	00d66c63          	bltu	x12,x13,1d40 <_free_r+0x2dc>
    1d2c:	0127d693          	srli	x13,x15,0x12
    1d30:	07d68593          	addi	x11,x13,125
    1d34:	00359593          	slli	x11,x11,0x3
    1d38:	07c68613          	addi	x12,x13,124
    1d3c:	e51ff06f          	jal	x0,1b8c <_free_r+0x128>
    1d40:	3f800593          	addi	x11,x0,1016
    1d44:	07e00613          	addi	x12,x0,126
    1d48:	e45ff06f          	jal	x0,1b8c <_free_r+0x128>
    1d4c:	0017e693          	ori	x13,x15,1
    1d50:	00d72223          	sw	x13,4(x14)
    1d54:	00f62023          	sw	x15,0(x12)
    1d58:	de9ff06f          	jal	x0,1b40 <_free_r+0xdc>

00001d5c <memcpy>:
    1d5c:	00a5c7b3          	xor	x15,x11,x10
    1d60:	0037f793          	andi	x15,x15,3
    1d64:	00c508b3          	add	x17,x10,x12
    1d68:	06079463          	bne	x15,x0,1dd0 <memcpy+0x74>
    1d6c:	00300793          	addi	x15,x0,3
    1d70:	06c7f063          	bgeu	x15,x12,1dd0 <memcpy+0x74>
    1d74:	00357793          	andi	x15,x10,3
    1d78:	00050713          	addi	x14,x10,0
    1d7c:	0c079863          	bne	x15,x0,1e4c <memcpy+0xf0>
    1d80:	ffc8f613          	andi	x12,x17,-4
    1d84:	40e606b3          	sub	x13,x12,x14
    1d88:	02000793          	addi	x15,x0,32
    1d8c:	06d7c263          	blt	x15,x13,1df0 <memcpy+0x94>
    1d90:	00058693          	addi	x13,x11,0
    1d94:	00070793          	addi	x15,x14,0
    1d98:	02c77863          	bgeu	x14,x12,1dc8 <memcpy+0x6c>
    1d9c:	0006a803          	lw	x16,0(x13)
    1da0:	00478793          	addi	x15,x15,4
    1da4:	00468693          	addi	x13,x13,4
    1da8:	ff07ae23          	sw	x16,-4(x15)
    1dac:	fec7e8e3          	bltu	x15,x12,1d9c <memcpy+0x40>
    1db0:	fff60793          	addi	x15,x12,-1
    1db4:	40e787b3          	sub	x15,x15,x14
    1db8:	ffc7f793          	andi	x15,x15,-4
    1dbc:	00478793          	addi	x15,x15,4
    1dc0:	00f70733          	add	x14,x14,x15
    1dc4:	00f585b3          	add	x11,x11,x15
    1dc8:	01176863          	bltu	x14,x17,1dd8 <memcpy+0x7c>
    1dcc:	00008067          	jalr	x0,0(x1)
    1dd0:	00050713          	addi	x14,x10,0
    1dd4:	ff157ce3          	bgeu	x10,x17,1dcc <memcpy+0x70>
    1dd8:	0005c783          	lbu	x15,0(x11)
    1ddc:	00170713          	addi	x14,x14,1
    1de0:	00158593          	addi	x11,x11,1
    1de4:	fef70fa3          	sb	x15,-1(x14)
    1de8:	fee898e3          	bne	x17,x14,1dd8 <memcpy+0x7c>
    1dec:	00008067          	jalr	x0,0(x1)
    1df0:	0205a683          	lw	x13,32(x11)
    1df4:	0005a383          	lw	x7,0(x11)
    1df8:	0045a283          	lw	x5,4(x11)
    1dfc:	0085af83          	lw	x31,8(x11)
    1e00:	00c5af03          	lw	x30,12(x11)
    1e04:	0105ae83          	lw	x29,16(x11)
    1e08:	0145ae03          	lw	x28,20(x11)
    1e0c:	0185a303          	lw	x6,24(x11)
    1e10:	01c5a803          	lw	x16,28(x11)
    1e14:	02470713          	addi	x14,x14,36
    1e18:	fed72e23          	sw	x13,-4(x14)
    1e1c:	fc772e23          	sw	x7,-36(x14)
    1e20:	40e606b3          	sub	x13,x12,x14
    1e24:	fe572023          	sw	x5,-32(x14)
    1e28:	fff72223          	sw	x31,-28(x14)
    1e2c:	ffe72423          	sw	x30,-24(x14)
    1e30:	ffd72623          	sw	x29,-20(x14)
    1e34:	ffc72823          	sw	x28,-16(x14)
    1e38:	fe672a23          	sw	x6,-12(x14)
    1e3c:	ff072c23          	sw	x16,-8(x14)
    1e40:	02458593          	addi	x11,x11,36
    1e44:	fad7c6e3          	blt	x15,x13,1df0 <memcpy+0x94>
    1e48:	f49ff06f          	jal	x0,1d90 <memcpy+0x34>
    1e4c:	0005c683          	lbu	x13,0(x11)
    1e50:	00170713          	addi	x14,x14,1
    1e54:	00377793          	andi	x15,x14,3
    1e58:	fed70fa3          	sb	x13,-1(x14)
    1e5c:	00158593          	addi	x11,x11,1
    1e60:	f20780e3          	beq	x15,x0,1d80 <memcpy+0x24>
    1e64:	0005c683          	lbu	x13,0(x11)
    1e68:	00170713          	addi	x14,x14,1
    1e6c:	00377793          	andi	x15,x14,3
    1e70:	fed70fa3          	sb	x13,-1(x14)
    1e74:	00158593          	addi	x11,x11,1
    1e78:	fc079ae3          	bne	x15,x0,1e4c <memcpy+0xf0>
    1e7c:	f05ff06f          	jal	x0,1d80 <memcpy+0x24>

00001e80 <memchr>:
    1e80:	00357713          	andi	x14,x10,3
    1e84:	00050793          	addi	x15,x10,0
    1e88:	0ff5f813          	andi	x16,x11,255
    1e8c:	00050313          	addi	x6,x10,0
    1e90:	02070e63          	beq	x14,x0,1ecc <memchr+0x4c>
    1e94:	00c508b3          	add	x17,x10,x12
    1e98:	0140006f          	jal	x0,1eac <memchr+0x2c>
    1e9c:	0007c683          	lbu	x13,0(x15)
    1ea0:	0b068263          	beq	x13,x16,1f44 <memchr+0xc4>
    1ea4:	00070e63          	beq	x14,x0,1ec0 <memchr+0x40>
    1ea8:	00050793          	addi	x15,x10,0
    1eac:	00178513          	addi	x10,x15,1
    1eb0:	00357713          	andi	x14,x10,3
    1eb4:	fef894e3          	bne	x17,x15,1e9c <memchr+0x1c>
    1eb8:	00000513          	addi	x10,x0,0
    1ebc:	00008067          	jalr	x0,0(x1)
    1ec0:	fff60613          	addi	x12,x12,-1
    1ec4:	00660633          	add	x12,x12,x6
    1ec8:	40f60633          	sub	x12,x12,x15
    1ecc:	00300793          	addi	x15,x0,3
    1ed0:	04c7fa63          	bgeu	x15,x12,1f24 <memchr+0xa4>
    1ed4:	0ff5f593          	andi	x11,x11,255
    1ed8:	00859693          	slli	x13,x11,0x8
    1edc:	00b686b3          	add	x13,x13,x11
    1ee0:	01069713          	slli	x14,x13,0x10
    1ee4:	feff0337          	lui	x6,0xfeff0
    1ee8:	808088b7          	lui	x17,0x80808
    1eec:	00078593          	addi	x11,x15,0
    1ef0:	00e686b3          	add	x13,x13,x14
    1ef4:	eff30313          	addi	x6,x6,-257 # fefefeff <__heap_end+0xfebefeff>
    1ef8:	08088893          	addi	x17,x17,128 # 80808080 <__heap_end+0x80408080>
    1efc:	00052783          	lw	x15,0(x10)
    1f00:	00f6c7b3          	xor	x15,x13,x15
    1f04:	00678733          	add	x14,x15,x6
    1f08:	fff7c793          	xori	x15,x15,-1
    1f0c:	00f777b3          	and	x15,x14,x15
    1f10:	0117f7b3          	and	x15,x15,x17
    1f14:	00079a63          	bne	x15,x0,1f28 <memchr+0xa8>
    1f18:	ffc60613          	addi	x12,x12,-4
    1f1c:	00450513          	addi	x10,x10,4
    1f20:	fcc5eee3          	bltu	x11,x12,1efc <memchr+0x7c>
    1f24:	f8060ae3          	beq	x12,x0,1eb8 <memchr+0x38>
    1f28:	00c50633          	add	x12,x10,x12
    1f2c:	00c0006f          	jal	x0,1f38 <memchr+0xb8>
    1f30:	00150513          	addi	x10,x10,1
    1f34:	f8a602e3          	beq	x12,x10,1eb8 <memchr+0x38>
    1f38:	00054783          	lbu	x15,0(x10)
    1f3c:	ff079ae3          	bne	x15,x16,1f30 <memchr+0xb0>
    1f40:	00008067          	jalr	x0,0(x1)
    1f44:	00078513          	addi	x10,x15,0
    1f48:	00008067          	jalr	x0,0(x1)

00001f4c <memmove>:
    1f4c:	02a5f663          	bgeu	x11,x10,1f78 <memmove+0x2c>
    1f50:	00c58733          	add	x14,x11,x12
    1f54:	02e57263          	bgeu	x10,x14,1f78 <memmove+0x2c>
    1f58:	00c507b3          	add	x15,x10,x12
    1f5c:	04060663          	beq	x12,x0,1fa8 <memmove+0x5c>
    1f60:	fff74683          	lbu	x13,-1(x14)
    1f64:	fff78793          	addi	x15,x15,-1
    1f68:	fff70713          	addi	x14,x14,-1
    1f6c:	00d78023          	sb	x13,0(x15)
    1f70:	fef518e3          	bne	x10,x15,1f60 <memmove+0x14>
    1f74:	00008067          	jalr	x0,0(x1)
    1f78:	00f00793          	addi	x15,x0,15
    1f7c:	02c7e863          	bltu	x15,x12,1fac <memmove+0x60>
    1f80:	00050793          	addi	x15,x10,0
    1f84:	fff60693          	addi	x13,x12,-1
    1f88:	0c060a63          	beq	x12,x0,205c <memmove+0x110>
    1f8c:	00168693          	addi	x13,x13,1
    1f90:	00d786b3          	add	x13,x15,x13
    1f94:	0005c703          	lbu	x14,0(x11)
    1f98:	00178793          	addi	x15,x15,1
    1f9c:	00158593          	addi	x11,x11,1
    1fa0:	fee78fa3          	sb	x14,-1(x15)
    1fa4:	fed798e3          	bne	x15,x13,1f94 <memmove+0x48>
    1fa8:	00008067          	jalr	x0,0(x1)
    1fac:	00b567b3          	or	x15,x10,x11
    1fb0:	0037f793          	andi	x15,x15,3
    1fb4:	08079e63          	bne	x15,x0,2050 <memmove+0x104>
    1fb8:	ff060893          	addi	x17,x12,-16
    1fbc:	ff08f893          	andi	x17,x17,-16
    1fc0:	01088893          	addi	x17,x17,16
    1fc4:	011507b3          	add	x15,x10,x17
    1fc8:	00058693          	addi	x13,x11,0
    1fcc:	00050713          	addi	x14,x10,0
    1fd0:	0006a803          	lw	x16,0(x13)
    1fd4:	01068693          	addi	x13,x13,16
    1fd8:	01070713          	addi	x14,x14,16
    1fdc:	ff072823          	sw	x16,-16(x14)
    1fe0:	ff46a803          	lw	x16,-12(x13)
    1fe4:	ff072a23          	sw	x16,-12(x14)
    1fe8:	ff86a803          	lw	x16,-8(x13)
    1fec:	ff072c23          	sw	x16,-8(x14)
    1ff0:	ffc6a803          	lw	x16,-4(x13)
    1ff4:	ff072e23          	sw	x16,-4(x14)
    1ff8:	fcf71ce3          	bne	x14,x15,1fd0 <memmove+0x84>
    1ffc:	00c67713          	andi	x14,x12,12
    2000:	011585b3          	add	x11,x11,x17
    2004:	00f67813          	andi	x16,x12,15
    2008:	04070c63          	beq	x14,x0,2060 <memmove+0x114>
    200c:	00058693          	addi	x13,x11,0
    2010:	00078713          	addi	x14,x15,0
    2014:	01078eb3          	add	x29,x15,x16
    2018:	00300e13          	addi	x28,x0,3
    201c:	0006a303          	lw	x6,0(x13)
    2020:	00470713          	addi	x14,x14,4
    2024:	40ee88b3          	sub	x17,x29,x14
    2028:	fe672e23          	sw	x6,-4(x14)
    202c:	00468693          	addi	x13,x13,4
    2030:	ff1e66e3          	bltu	x28,x17,201c <memmove+0xd0>
    2034:	ffc80713          	addi	x14,x16,-4
    2038:	ffc77713          	andi	x14,x14,-4
    203c:	00470713          	addi	x14,x14,4
    2040:	00e787b3          	add	x15,x15,x14
    2044:	00e585b3          	add	x11,x11,x14
    2048:	00367613          	andi	x12,x12,3
    204c:	f39ff06f          	jal	x0,1f84 <memmove+0x38>
    2050:	fff60693          	addi	x13,x12,-1
    2054:	00050793          	addi	x15,x10,0
    2058:	f35ff06f          	jal	x0,1f8c <memmove+0x40>
    205c:	00008067          	jalr	x0,0(x1)
    2060:	00080613          	addi	x12,x16,0
    2064:	f21ff06f          	jal	x0,1f84 <memmove+0x38>

00002068 <_fwalk_sglue>:
    2068:	fd010113          	addi	x2,x2,-48
    206c:	03212023          	sw	x18,32(x2)
    2070:	01312e23          	sw	x19,28(x2)
    2074:	01412c23          	sw	x20,24(x2)
    2078:	01512a23          	sw	x21,20(x2)
    207c:	01612823          	sw	x22,16(x2)
    2080:	01712623          	sw	x23,12(x2)
    2084:	02112623          	sw	x1,44(x2)
    2088:	02812423          	sw	x8,40(x2)
    208c:	02912223          	sw	x9,36(x2)
    2090:	00050b13          	addi	x22,x10,0
    2094:	00058b93          	addi	x23,x11,0
    2098:	00060a93          	addi	x21,x12,0
    209c:	00000a13          	addi	x20,x0,0
    20a0:	00100993          	addi	x19,x0,1
    20a4:	fff00913          	addi	x18,x0,-1
    20a8:	004aa483          	lw	x9,4(x21)
    20ac:	008aa403          	lw	x8,8(x21)
    20b0:	fff48493          	addi	x9,x9,-1
    20b4:	0204c863          	blt	x9,x0,20e4 <_fwalk_sglue+0x7c>
    20b8:	00c45783          	lhu	x15,12(x8)
    20bc:	00f9fe63          	bgeu	x19,x15,20d8 <_fwalk_sglue+0x70>
    20c0:	00e41783          	lh	x15,14(x8)
    20c4:	00040593          	addi	x11,x8,0
    20c8:	000b0513          	addi	x10,x22,0
    20cc:	01278663          	beq	x15,x18,20d8 <_fwalk_sglue+0x70>
    20d0:	000b80e7          	jalr	x1,0(x23)
    20d4:	00aa6a33          	or	x20,x20,x10
    20d8:	fff48493          	addi	x9,x9,-1
    20dc:	06840413          	addi	x8,x8,104
    20e0:	fd249ce3          	bne	x9,x18,20b8 <_fwalk_sglue+0x50>
    20e4:	000aaa83          	lw	x21,0(x21)
    20e8:	fc0a90e3          	bne	x21,x0,20a8 <_fwalk_sglue+0x40>
    20ec:	02c12083          	lw	x1,44(x2)
    20f0:	02812403          	lw	x8,40(x2)
    20f4:	02412483          	lw	x9,36(x2)
    20f8:	02012903          	lw	x18,32(x2)
    20fc:	01c12983          	lw	x19,28(x2)
    2100:	01412a83          	lw	x21,20(x2)
    2104:	01012b03          	lw	x22,16(x2)
    2108:	00c12b83          	lw	x23,12(x2)
    210c:	000a0513          	addi	x10,x20,0
    2110:	01812a03          	lw	x20,24(x2)
    2114:	03010113          	addi	x2,x2,48
    2118:	00008067          	jalr	x0,0(x1)

0000211c <_realloc_r>:
    211c:	fd010113          	addi	x2,x2,-48
    2120:	02912223          	sw	x9,36(x2)
    2124:	02112623          	sw	x1,44(x2)
    2128:	00060493          	addi	x9,x12,0
    212c:	1e058863          	beq	x11,x0,231c <_realloc_r+0x200>
    2130:	02812423          	sw	x8,40(x2)
    2134:	03212023          	sw	x18,32(x2)
    2138:	00058413          	addi	x8,x11,0
    213c:	01312e23          	sw	x19,28(x2)
    2140:	01512a23          	sw	x21,20(x2)
    2144:	01412c23          	sw	x20,24(x2)
    2148:	00050913          	addi	x18,x10,0
    214c:	0c5000ef          	jal	x1,2a10 <__malloc_lock>
    2150:	ffc42703          	lw	x14,-4(x8)
    2154:	00b48793          	addi	x15,x9,11
    2158:	01600693          	addi	x13,x0,22
    215c:	ffc77993          	andi	x19,x14,-4
    2160:	ff840a93          	addi	x21,x8,-8
    2164:	10f6f263          	bgeu	x13,x15,2268 <_realloc_r+0x14c>
    2168:	ff87fa13          	andi	x20,x15,-8
    216c:	1007c263          	blt	x15,x0,2270 <_realloc_r+0x154>
    2170:	109a6063          	bltu	x20,x9,2270 <_realloc_r+0x154>
    2174:	1349d263          	bge	x19,x20,2298 <_realloc_r+0x17c>
    2178:	01812423          	sw	x24,8(x2)
    217c:	00010c17          	auipc	x24,0x10
    2180:	330c0c13          	addi	x24,x24,816 # 124ac <__malloc_av_>
    2184:	008c2603          	lw	x12,8(x24)
    2188:	013a86b3          	add	x13,x21,x19
    218c:	0046a783          	lw	x15,4(x13)
    2190:	1cd60863          	beq	x12,x13,2360 <_realloc_r+0x244>
    2194:	ffe7f613          	andi	x12,x15,-2
    2198:	00c68633          	add	x12,x13,x12
    219c:	00462603          	lw	x12,4(x12)
    21a0:	00167613          	andi	x12,x12,1
    21a4:	14061a63          	bne	x12,x0,22f8 <_realloc_r+0x1dc>
    21a8:	ffc7f793          	andi	x15,x15,-4
    21ac:	00f98633          	add	x12,x19,x15
    21b0:	0d465863          	bge	x12,x20,2280 <_realloc_r+0x164>
    21b4:	00177713          	andi	x14,x14,1
    21b8:	02071c63          	bne	x14,x0,21f0 <_realloc_r+0xd4>
    21bc:	01712623          	sw	x23,12(x2)
    21c0:	ff842b83          	lw	x23,-8(x8)
    21c4:	01612823          	sw	x22,16(x2)
    21c8:	417a8bb3          	sub	x23,x21,x23
    21cc:	004ba703          	lw	x14,4(x23)
    21d0:	ffc77713          	andi	x14,x14,-4
    21d4:	00e787b3          	add	x15,x15,x14
    21d8:	01378b33          	add	x22,x15,x19
    21dc:	334b5263          	bge	x22,x20,2500 <_realloc_r+0x3e4>
    21e0:	00e98b33          	add	x22,x19,x14
    21e4:	294b5863          	bge	x22,x20,2474 <_realloc_r+0x358>
    21e8:	01012b03          	lw	x22,16(x2)
    21ec:	00c12b83          	lw	x23,12(x2)
    21f0:	00048593          	addi	x11,x9,0
    21f4:	00090513          	addi	x10,x18,0
    21f8:	ec9fe0ef          	jal	x1,10c0 <_malloc_r>
    21fc:	00050493          	addi	x9,x10,0
    2200:	40050063          	beq	x10,x0,2600 <_realloc_r+0x4e4>
    2204:	ffc42783          	lw	x15,-4(x8)
    2208:	ff850713          	addi	x14,x10,-8
    220c:	ffe7f793          	andi	x15,x15,-2
    2210:	00fa87b3          	add	x15,x21,x15
    2214:	24e78663          	beq	x15,x14,2460 <_realloc_r+0x344>
    2218:	ffc98613          	addi	x12,x19,-4
    221c:	02400793          	addi	x15,x0,36
    2220:	2cc7ea63          	bltu	x15,x12,24f4 <_realloc_r+0x3d8>
    2224:	01300713          	addi	x14,x0,19
    2228:	20c76a63          	bltu	x14,x12,243c <_realloc_r+0x320>
    222c:	00050793          	addi	x15,x10,0
    2230:	00040713          	addi	x14,x8,0
    2234:	00072683          	lw	x13,0(x14)
    2238:	00d7a023          	sw	x13,0(x15)
    223c:	00472683          	lw	x13,4(x14)
    2240:	00d7a223          	sw	x13,4(x15)
    2244:	00872703          	lw	x14,8(x14)
    2248:	00e7a423          	sw	x14,8(x15)
    224c:	00040593          	addi	x11,x8,0
    2250:	00090513          	addi	x10,x18,0
    2254:	811ff0ef          	jal	x1,1a64 <_free_r>
    2258:	00090513          	addi	x10,x18,0
    225c:	7b8000ef          	jal	x1,2a14 <__malloc_unlock>
    2260:	00812c03          	lw	x24,8(x2)
    2264:	06c0006f          	jal	x0,22d0 <_realloc_r+0x1b4>
    2268:	01000a13          	addi	x20,x0,16
    226c:	f09a74e3          	bgeu	x20,x9,2174 <_realloc_r+0x58>
    2270:	00c00793          	addi	x15,x0,12
    2274:	00f92023          	sw	x15,0(x18)
    2278:	00000493          	addi	x9,x0,0
    227c:	0540006f          	jal	x0,22d0 <_realloc_r+0x1b4>
    2280:	00c6a783          	lw	x15,12(x13)
    2284:	0086a703          	lw	x14,8(x13)
    2288:	00812c03          	lw	x24,8(x2)
    228c:	00060993          	addi	x19,x12,0
    2290:	00f72623          	sw	x15,12(x14)
    2294:	00e7a423          	sw	x14,8(x15)
    2298:	004aa783          	lw	x15,4(x21)
    229c:	414986b3          	sub	x13,x19,x20
    22a0:	00f00613          	addi	x12,x0,15
    22a4:	0017f793          	andi	x15,x15,1
    22a8:	013a8733          	add	x14,x21,x19
    22ac:	08d66263          	bltu	x12,x13,2330 <_realloc_r+0x214>
    22b0:	0137e7b3          	or	x15,x15,x19
    22b4:	00faa223          	sw	x15,4(x21)
    22b8:	00472783          	lw	x15,4(x14)
    22bc:	0017e793          	ori	x15,x15,1
    22c0:	00f72223          	sw	x15,4(x14)
    22c4:	00090513          	addi	x10,x18,0
    22c8:	74c000ef          	jal	x1,2a14 <__malloc_unlock>
    22cc:	00040493          	addi	x9,x8,0
    22d0:	02812403          	lw	x8,40(x2)
    22d4:	02c12083          	lw	x1,44(x2)
    22d8:	02012903          	lw	x18,32(x2)
    22dc:	01c12983          	lw	x19,28(x2)
    22e0:	01812a03          	lw	x20,24(x2)
    22e4:	01412a83          	lw	x21,20(x2)
    22e8:	00048513          	addi	x10,x9,0
    22ec:	02412483          	lw	x9,36(x2)
    22f0:	03010113          	addi	x2,x2,48
    22f4:	00008067          	jalr	x0,0(x1)
    22f8:	00177713          	andi	x14,x14,1
    22fc:	ee071ae3          	bne	x14,x0,21f0 <_realloc_r+0xd4>
    2300:	01712623          	sw	x23,12(x2)
    2304:	ff842b83          	lw	x23,-8(x8)
    2308:	01612823          	sw	x22,16(x2)
    230c:	417a8bb3          	sub	x23,x21,x23
    2310:	004ba703          	lw	x14,4(x23)
    2314:	ffc77713          	andi	x14,x14,-4
    2318:	ec9ff06f          	jal	x0,21e0 <_realloc_r+0xc4>
    231c:	02c12083          	lw	x1,44(x2)
    2320:	02412483          	lw	x9,36(x2)
    2324:	00060593          	addi	x11,x12,0
    2328:	03010113          	addi	x2,x2,48
    232c:	d95fe06f          	jal	x0,10c0 <_malloc_r>
    2330:	0147e7b3          	or	x15,x15,x20
    2334:	00faa223          	sw	x15,4(x21)
    2338:	014a85b3          	add	x11,x21,x20
    233c:	0016e693          	ori	x13,x13,1
    2340:	00d5a223          	sw	x13,4(x11)
    2344:	00472783          	lw	x15,4(x14)
    2348:	00858593          	addi	x11,x11,8
    234c:	00090513          	addi	x10,x18,0
    2350:	0017e793          	ori	x15,x15,1
    2354:	00f72223          	sw	x15,4(x14)
    2358:	f0cff0ef          	jal	x1,1a64 <_free_r>
    235c:	f69ff06f          	jal	x0,22c4 <_realloc_r+0x1a8>
    2360:	ffc7f793          	andi	x15,x15,-4
    2364:	013786b3          	add	x13,x15,x19
    2368:	010a0613          	addi	x12,x20,16
    236c:	22c6de63          	bge	x13,x12,25a8 <_realloc_r+0x48c>
    2370:	00177713          	andi	x14,x14,1
    2374:	e6071ee3          	bne	x14,x0,21f0 <_realloc_r+0xd4>
    2378:	01712623          	sw	x23,12(x2)
    237c:	ff842b83          	lw	x23,-8(x8)
    2380:	01612823          	sw	x22,16(x2)
    2384:	417a8bb3          	sub	x23,x21,x23
    2388:	004ba703          	lw	x14,4(x23)
    238c:	ffc77713          	andi	x14,x14,-4
    2390:	00e787b3          	add	x15,x15,x14
    2394:	01378b33          	add	x22,x15,x19
    2398:	e4cb44e3          	blt	x22,x12,21e0 <_realloc_r+0xc4>
    239c:	00cba783          	lw	x15,12(x23)
    23a0:	008ba703          	lw	x14,8(x23)
    23a4:	ffc98613          	addi	x12,x19,-4
    23a8:	02400693          	addi	x13,x0,36
    23ac:	00f72623          	sw	x15,12(x14)
    23b0:	00e7a423          	sw	x14,8(x15)
    23b4:	008b8493          	addi	x9,x23,8
    23b8:	28c6ee63          	bltu	x13,x12,2654 <_realloc_r+0x538>
    23bc:	01300713          	addi	x14,x0,19
    23c0:	00048793          	addi	x15,x9,0
    23c4:	02c77263          	bgeu	x14,x12,23e8 <_realloc_r+0x2cc>
    23c8:	00042703          	lw	x14,0(x8)
    23cc:	01b00793          	addi	x15,x0,27
    23d0:	00eba423          	sw	x14,8(x23)
    23d4:	00442703          	lw	x14,4(x8)
    23d8:	00eba623          	sw	x14,12(x23)
    23dc:	2ac7e263          	bltu	x15,x12,2680 <_realloc_r+0x564>
    23e0:	00840413          	addi	x8,x8,8
    23e4:	010b8793          	addi	x15,x23,16
    23e8:	00042703          	lw	x14,0(x8)
    23ec:	00e7a023          	sw	x14,0(x15)
    23f0:	00442703          	lw	x14,4(x8)
    23f4:	00e7a223          	sw	x14,4(x15)
    23f8:	00842703          	lw	x14,8(x8)
    23fc:	00e7a423          	sw	x14,8(x15)
    2400:	014b8733          	add	x14,x23,x20
    2404:	414b07b3          	sub	x15,x22,x20
    2408:	00ec2423          	sw	x14,8(x24)
    240c:	0017e793          	ori	x15,x15,1
    2410:	00f72223          	sw	x15,4(x14)
    2414:	004ba783          	lw	x15,4(x23)
    2418:	00090513          	addi	x10,x18,0
    241c:	0017f793          	andi	x15,x15,1
    2420:	0147e7b3          	or	x15,x15,x20
    2424:	00fba223          	sw	x15,4(x23)
    2428:	5ec000ef          	jal	x1,2a14 <__malloc_unlock>
    242c:	01012b03          	lw	x22,16(x2)
    2430:	00c12b83          	lw	x23,12(x2)
    2434:	00812c03          	lw	x24,8(x2)
    2438:	e99ff06f          	jal	x0,22d0 <_realloc_r+0x1b4>
    243c:	00042683          	lw	x13,0(x8)
    2440:	01b00713          	addi	x14,x0,27
    2444:	00d52023          	sw	x13,0(x10)
    2448:	00442683          	lw	x13,4(x8)
    244c:	00d52223          	sw	x13,4(x10)
    2450:	12c76c63          	bltu	x14,x12,2588 <_realloc_r+0x46c>
    2454:	00840713          	addi	x14,x8,8
    2458:	00850793          	addi	x15,x10,8
    245c:	dd9ff06f          	jal	x0,2234 <_realloc_r+0x118>
    2460:	ffc52783          	lw	x15,-4(x10)
    2464:	00812c03          	lw	x24,8(x2)
    2468:	ffc7f793          	andi	x15,x15,-4
    246c:	00f989b3          	add	x19,x19,x15
    2470:	e29ff06f          	jal	x0,2298 <_realloc_r+0x17c>
    2474:	00cba783          	lw	x15,12(x23)
    2478:	008ba683          	lw	x13,8(x23)
    247c:	ffc98613          	addi	x12,x19,-4
    2480:	02400593          	addi	x11,x0,36
    2484:	00f6a623          	sw	x15,12(x13)
    2488:	00d7a423          	sw	x13,8(x15)
    248c:	008b8493          	addi	x9,x23,8
    2490:	0ec5e463          	bltu	x11,x12,2578 <_realloc_r+0x45c>
    2494:	01300693          	addi	x13,x0,19
    2498:	00048793          	addi	x15,x9,0
    249c:	02c6f263          	bgeu	x13,x12,24c0 <_realloc_r+0x3a4>
    24a0:	00042703          	lw	x14,0(x8)
    24a4:	01b00793          	addi	x15,x0,27
    24a8:	00eba423          	sw	x14,8(x23)
    24ac:	00442703          	lw	x14,4(x8)
    24b0:	00eba623          	sw	x14,12(x23)
    24b4:	12c7e663          	bltu	x15,x12,25e0 <_realloc_r+0x4c4>
    24b8:	00840413          	addi	x8,x8,8
    24bc:	010b8793          	addi	x15,x23,16
    24c0:	00042683          	lw	x13,0(x8)
    24c4:	00d7a023          	sw	x13,0(x15)
    24c8:	00442683          	lw	x13,4(x8)
    24cc:	00d7a223          	sw	x13,4(x15)
    24d0:	00842683          	lw	x13,8(x8)
    24d4:	00d7a423          	sw	x13,8(x15)
    24d8:	000b0993          	addi	x19,x22,0
    24dc:	000b8a93          	addi	x21,x23,0
    24e0:	01012b03          	lw	x22,16(x2)
    24e4:	00c12b83          	lw	x23,12(x2)
    24e8:	00812c03          	lw	x24,8(x2)
    24ec:	00048413          	addi	x8,x9,0
    24f0:	da9ff06f          	jal	x0,2298 <_realloc_r+0x17c>
    24f4:	00040593          	addi	x11,x8,0
    24f8:	a55ff0ef          	jal	x1,1f4c <memmove>
    24fc:	d51ff06f          	jal	x0,224c <_realloc_r+0x130>
    2500:	00c6a783          	lw	x15,12(x13)
    2504:	0086a703          	lw	x14,8(x13)
    2508:	ffc98613          	addi	x12,x19,-4
    250c:	02400693          	addi	x13,x0,36
    2510:	00f72623          	sw	x15,12(x14)
    2514:	00e7a423          	sw	x14,8(x15)
    2518:	008ba703          	lw	x14,8(x23)
    251c:	00cba783          	lw	x15,12(x23)
    2520:	008b8493          	addi	x9,x23,8
    2524:	00f72623          	sw	x15,12(x14)
    2528:	00e7a423          	sw	x14,8(x15)
    252c:	04c6e663          	bltu	x13,x12,2578 <_realloc_r+0x45c>
    2530:	01300713          	addi	x14,x0,19
    2534:	00048793          	addi	x15,x9,0
    2538:	02c77263          	bgeu	x14,x12,255c <_realloc_r+0x440>
    253c:	00042703          	lw	x14,0(x8)
    2540:	01b00793          	addi	x15,x0,27
    2544:	00eba423          	sw	x14,8(x23)
    2548:	00442703          	lw	x14,4(x8)
    254c:	00eba623          	sw	x14,12(x23)
    2550:	0ec7e063          	bltu	x15,x12,2630 <_realloc_r+0x514>
    2554:	00840413          	addi	x8,x8,8
    2558:	010b8793          	addi	x15,x23,16
    255c:	00042703          	lw	x14,0(x8)
    2560:	00e7a023          	sw	x14,0(x15)
    2564:	00442703          	lw	x14,4(x8)
    2568:	00e7a223          	sw	x14,4(x15)
    256c:	00842703          	lw	x14,8(x8)
    2570:	00e7a423          	sw	x14,8(x15)
    2574:	f65ff06f          	jal	x0,24d8 <_realloc_r+0x3bc>
    2578:	00040593          	addi	x11,x8,0
    257c:	00048513          	addi	x10,x9,0
    2580:	9cdff0ef          	jal	x1,1f4c <memmove>
    2584:	f55ff06f          	jal	x0,24d8 <_realloc_r+0x3bc>
    2588:	00842703          	lw	x14,8(x8)
    258c:	00e52423          	sw	x14,8(x10)
    2590:	00c42703          	lw	x14,12(x8)
    2594:	00e52623          	sw	x14,12(x10)
    2598:	06f60e63          	beq	x12,x15,2614 <_realloc_r+0x4f8>
    259c:	01040713          	addi	x14,x8,16
    25a0:	01050793          	addi	x15,x10,16
    25a4:	c91ff06f          	jal	x0,2234 <_realloc_r+0x118>
    25a8:	014a8ab3          	add	x21,x21,x20
    25ac:	414687b3          	sub	x15,x13,x20
    25b0:	015c2423          	sw	x21,8(x24)
    25b4:	0017e793          	ori	x15,x15,1
    25b8:	00faa223          	sw	x15,4(x21)
    25bc:	ffc42783          	lw	x15,-4(x8)
    25c0:	00090513          	addi	x10,x18,0
    25c4:	00040493          	addi	x9,x8,0
    25c8:	0017f793          	andi	x15,x15,1
    25cc:	0147e7b3          	or	x15,x15,x20
    25d0:	fef42e23          	sw	x15,-4(x8)
    25d4:	440000ef          	jal	x1,2a14 <__malloc_unlock>
    25d8:	00812c03          	lw	x24,8(x2)
    25dc:	cf5ff06f          	jal	x0,22d0 <_realloc_r+0x1b4>
    25e0:	00842783          	lw	x15,8(x8)
    25e4:	00fba823          	sw	x15,16(x23)
    25e8:	00c42783          	lw	x15,12(x8)
    25ec:	00fbaa23          	sw	x15,20(x23)
    25f0:	06b60a63          	beq	x12,x11,2664 <_realloc_r+0x548>
    25f4:	01040413          	addi	x8,x8,16
    25f8:	018b8793          	addi	x15,x23,24
    25fc:	ec5ff06f          	jal	x0,24c0 <_realloc_r+0x3a4>
    2600:	00090513          	addi	x10,x18,0
    2604:	410000ef          	jal	x1,2a14 <__malloc_unlock>
    2608:	00000493          	addi	x9,x0,0
    260c:	00812c03          	lw	x24,8(x2)
    2610:	cc1ff06f          	jal	x0,22d0 <_realloc_r+0x1b4>
    2614:	01042683          	lw	x13,16(x8)
    2618:	01840713          	addi	x14,x8,24
    261c:	01850793          	addi	x15,x10,24
    2620:	00d52823          	sw	x13,16(x10)
    2624:	01442683          	lw	x13,20(x8)
    2628:	00d52a23          	sw	x13,20(x10)
    262c:	c09ff06f          	jal	x0,2234 <_realloc_r+0x118>
    2630:	00842703          	lw	x14,8(x8)
    2634:	02400793          	addi	x15,x0,36
    2638:	00eba823          	sw	x14,16(x23)
    263c:	00c42703          	lw	x14,12(x8)
    2640:	00ebaa23          	sw	x14,20(x23)
    2644:	04f60e63          	beq	x12,x15,26a0 <_realloc_r+0x584>
    2648:	01040413          	addi	x8,x8,16
    264c:	018b8793          	addi	x15,x23,24
    2650:	f0dff06f          	jal	x0,255c <_realloc_r+0x440>
    2654:	00040593          	addi	x11,x8,0
    2658:	00048513          	addi	x10,x9,0
    265c:	8f1ff0ef          	jal	x1,1f4c <memmove>
    2660:	da1ff06f          	jal	x0,2400 <_realloc_r+0x2e4>
    2664:	01042703          	lw	x14,16(x8)
    2668:	020b8793          	addi	x15,x23,32
    266c:	01840413          	addi	x8,x8,24
    2670:	00ebac23          	sw	x14,24(x23)
    2674:	ffc42703          	lw	x14,-4(x8)
    2678:	00ebae23          	sw	x14,28(x23)
    267c:	e45ff06f          	jal	x0,24c0 <_realloc_r+0x3a4>
    2680:	00842783          	lw	x15,8(x8)
    2684:	00fba823          	sw	x15,16(x23)
    2688:	00c42783          	lw	x15,12(x8)
    268c:	00fbaa23          	sw	x15,20(x23)
    2690:	02d60663          	beq	x12,x13,26bc <_realloc_r+0x5a0>
    2694:	01040413          	addi	x8,x8,16
    2698:	018b8793          	addi	x15,x23,24
    269c:	d4dff06f          	jal	x0,23e8 <_realloc_r+0x2cc>
    26a0:	01042703          	lw	x14,16(x8)
    26a4:	020b8793          	addi	x15,x23,32
    26a8:	01840413          	addi	x8,x8,24
    26ac:	00ebac23          	sw	x14,24(x23)
    26b0:	ffc42703          	lw	x14,-4(x8)
    26b4:	00ebae23          	sw	x14,28(x23)
    26b8:	ea5ff06f          	jal	x0,255c <_realloc_r+0x440>
    26bc:	01042703          	lw	x14,16(x8)
    26c0:	020b8793          	addi	x15,x23,32
    26c4:	01840413          	addi	x8,x8,24
    26c8:	00ebac23          	sw	x14,24(x23)
    26cc:	ffc42703          	lw	x14,-4(x8)
    26d0:	00ebae23          	sw	x14,28(x23)
    26d4:	d15ff06f          	jal	x0,23e8 <_realloc_r+0x2cc>

000026d8 <__sflush_r>:
    26d8:	00c59703          	lh	x14,12(x11)
    26dc:	fe010113          	addi	x2,x2,-32
    26e0:	00812c23          	sw	x8,24(x2)
    26e4:	01312623          	sw	x19,12(x2)
    26e8:	00112e23          	sw	x1,28(x2)
    26ec:	00877793          	andi	x15,x14,8
    26f0:	00058413          	addi	x8,x11,0
    26f4:	00050993          	addi	x19,x10,0
    26f8:	12079063          	bne	x15,x0,2818 <__sflush_r+0x140>
    26fc:	000017b7          	lui	x15,0x1
    2700:	80078793          	addi	x15,x15,-2048 # 800 <global_stdio_init.part.0+0x28>
    2704:	0045a683          	lw	x13,4(x11)
    2708:	00f767b3          	or	x15,x14,x15
    270c:	00f59623          	sh	x15,12(x11)
    2710:	18d05a63          	bge	x0,x13,28a4 <__sflush_r+0x1cc>
    2714:	02842803          	lw	x16,40(x8)
    2718:	0e080463          	beq	x16,x0,2800 <__sflush_r+0x128>
    271c:	00912a23          	sw	x9,20(x2)
    2720:	01371693          	slli	x13,x14,0x13
    2724:	0009a483          	lw	x9,0(x19)
    2728:	0009a023          	sw	x0,0(x19)
    272c:	1806c863          	blt	x13,x0,28bc <__sflush_r+0x1e4>
    2730:	01c42583          	lw	x11,28(x8)
    2734:	00000613          	addi	x12,x0,0
    2738:	00100693          	addi	x13,x0,1
    273c:	00098513          	addi	x10,x19,0
    2740:	000800e7          	jalr	x1,0(x16)
    2744:	fff00793          	addi	x15,x0,-1
    2748:	00050613          	addi	x12,x10,0
    274c:	1af50a63          	beq	x10,x15,2900 <__sflush_r+0x228>
    2750:	00c41783          	lh	x15,12(x8)
    2754:	02842803          	lw	x16,40(x8)
    2758:	0047f793          	andi	x15,x15,4
    275c:	00078e63          	beq	x15,x0,2778 <__sflush_r+0xa0>
    2760:	00442703          	lw	x14,4(x8)
    2764:	03042783          	lw	x15,48(x8)
    2768:	40e60633          	sub	x12,x12,x14
    276c:	00078663          	beq	x15,x0,2778 <__sflush_r+0xa0>
    2770:	03c42783          	lw	x15,60(x8)
    2774:	40f60633          	sub	x12,x12,x15
    2778:	01c42583          	lw	x11,28(x8)
    277c:	00000693          	addi	x13,x0,0
    2780:	00098513          	addi	x10,x19,0
    2784:	000800e7          	jalr	x1,0(x16)
    2788:	fff00713          	addi	x14,x0,-1
    278c:	00c41783          	lh	x15,12(x8)
    2790:	12e51a63          	bne	x10,x14,28c4 <__sflush_r+0x1ec>
    2794:	0009a683          	lw	x13,0(x19)
    2798:	01d00713          	addi	x14,x0,29
    279c:	18d76063          	bltu	x14,x13,291c <__sflush_r+0x244>
    27a0:	20400737          	lui	x14,0x20400
    27a4:	00170713          	addi	x14,x14,1 # 20400001 <__heap_end+0x20000001>
    27a8:	00d75733          	srl	x14,x14,x13
    27ac:	00177713          	andi	x14,x14,1
    27b0:	16070663          	beq	x14,x0,291c <__sflush_r+0x244>
    27b4:	01042603          	lw	x12,16(x8)
    27b8:	fffff737          	lui	x14,0xfffff
    27bc:	7ff70713          	addi	x14,x14,2047 # fffff7ff <__heap_end+0xffbff7ff>
    27c0:	00e7f733          	and	x14,x15,x14
    27c4:	00e41623          	sh	x14,12(x8)
    27c8:	00042223          	sw	x0,4(x8)
    27cc:	00c42023          	sw	x12,0(x8)
    27d0:	01379713          	slli	x14,x15,0x13
    27d4:	00075463          	bge	x14,x0,27dc <__sflush_r+0x104>
    27d8:	10068863          	beq	x13,x0,28e8 <__sflush_r+0x210>
    27dc:	03042583          	lw	x11,48(x8)
    27e0:	0099a023          	sw	x9,0(x19)
    27e4:	10058a63          	beq	x11,x0,28f8 <__sflush_r+0x220>
    27e8:	04040793          	addi	x15,x8,64
    27ec:	00f58663          	beq	x11,x15,27f8 <__sflush_r+0x120>
    27f0:	00098513          	addi	x10,x19,0
    27f4:	a70ff0ef          	jal	x1,1a64 <_free_r>
    27f8:	01412483          	lw	x9,20(x2)
    27fc:	02042823          	sw	x0,48(x8)
    2800:	01c12083          	lw	x1,28(x2)
    2804:	01812403          	lw	x8,24(x2)
    2808:	00c12983          	lw	x19,12(x2)
    280c:	00000513          	addi	x10,x0,0
    2810:	02010113          	addi	x2,x2,32
    2814:	00008067          	jalr	x0,0(x1)
    2818:	01212823          	sw	x18,16(x2)
    281c:	0105a903          	lw	x18,16(x11)
    2820:	08090a63          	beq	x18,x0,28b4 <__sflush_r+0x1dc>
    2824:	00912a23          	sw	x9,20(x2)
    2828:	0005a483          	lw	x9,0(x11)
    282c:	00377713          	andi	x14,x14,3
    2830:	0125a023          	sw	x18,0(x11)
    2834:	412484b3          	sub	x9,x9,x18
    2838:	00000793          	addi	x15,x0,0
    283c:	00071463          	bne	x14,x0,2844 <__sflush_r+0x16c>
    2840:	0145a783          	lw	x15,20(x11)
    2844:	00f42423          	sw	x15,8(x8)
    2848:	00904863          	blt	x0,x9,2858 <__sflush_r+0x180>
    284c:	0640006f          	jal	x0,28b0 <__sflush_r+0x1d8>
    2850:	00a90933          	add	x18,x18,x10
    2854:	04905e63          	bge	x0,x9,28b0 <__sflush_r+0x1d8>
    2858:	02442783          	lw	x15,36(x8)
    285c:	01c42583          	lw	x11,28(x8)
    2860:	00048693          	addi	x13,x9,0
    2864:	00090613          	addi	x12,x18,0
    2868:	00098513          	addi	x10,x19,0
    286c:	000780e7          	jalr	x1,0(x15)
    2870:	40a484b3          	sub	x9,x9,x10
    2874:	fca04ee3          	blt	x0,x10,2850 <__sflush_r+0x178>
    2878:	00c41783          	lh	x15,12(x8)
    287c:	01012903          	lw	x18,16(x2)
    2880:	0407e793          	ori	x15,x15,64
    2884:	01c12083          	lw	x1,28(x2)
    2888:	00f41623          	sh	x15,12(x8)
    288c:	01812403          	lw	x8,24(x2)
    2890:	01412483          	lw	x9,20(x2)
    2894:	00c12983          	lw	x19,12(x2)
    2898:	fff00513          	addi	x10,x0,-1
    289c:	02010113          	addi	x2,x2,32
    28a0:	00008067          	jalr	x0,0(x1)
    28a4:	03c5a683          	lw	x13,60(x11)
    28a8:	e6d046e3          	blt	x0,x13,2714 <__sflush_r+0x3c>
    28ac:	f55ff06f          	jal	x0,2800 <__sflush_r+0x128>
    28b0:	01412483          	lw	x9,20(x2)
    28b4:	01012903          	lw	x18,16(x2)
    28b8:	f49ff06f          	jal	x0,2800 <__sflush_r+0x128>
    28bc:	05042603          	lw	x12,80(x8)
    28c0:	e99ff06f          	jal	x0,2758 <__sflush_r+0x80>
    28c4:	01042683          	lw	x13,16(x8)
    28c8:	fffff737          	lui	x14,0xfffff
    28cc:	7ff70713          	addi	x14,x14,2047 # fffff7ff <__heap_end+0xffbff7ff>
    28d0:	00e7f733          	and	x14,x15,x14
    28d4:	00e41623          	sh	x14,12(x8)
    28d8:	00042223          	sw	x0,4(x8)
    28dc:	00d42023          	sw	x13,0(x8)
    28e0:	01379713          	slli	x14,x15,0x13
    28e4:	ee075ce3          	bge	x14,x0,27dc <__sflush_r+0x104>
    28e8:	03042583          	lw	x11,48(x8)
    28ec:	04a42823          	sw	x10,80(x8)
    28f0:	0099a023          	sw	x9,0(x19)
    28f4:	ee059ae3          	bne	x11,x0,27e8 <__sflush_r+0x110>
    28f8:	01412483          	lw	x9,20(x2)
    28fc:	f05ff06f          	jal	x0,2800 <__sflush_r+0x128>
    2900:	0009a783          	lw	x15,0(x19)
    2904:	e40786e3          	beq	x15,x0,2750 <__sflush_r+0x78>
    2908:	01d00713          	addi	x14,x0,29
    290c:	00e78c63          	beq	x15,x14,2924 <__sflush_r+0x24c>
    2910:	01600713          	addi	x14,x0,22
    2914:	00e78863          	beq	x15,x14,2924 <__sflush_r+0x24c>
    2918:	00c41783          	lh	x15,12(x8)
    291c:	0407e793          	ori	x15,x15,64
    2920:	f65ff06f          	jal	x0,2884 <__sflush_r+0x1ac>
    2924:	0099a023          	sw	x9,0(x19)
    2928:	01412483          	lw	x9,20(x2)
    292c:	ed5ff06f          	jal	x0,2800 <__sflush_r+0x128>

00002930 <_fflush_r>:
    2930:	fe010113          	addi	x2,x2,-32
    2934:	00812c23          	sw	x8,24(x2)
    2938:	00112e23          	sw	x1,28(x2)
    293c:	00050413          	addi	x8,x10,0
    2940:	00050663          	beq	x10,x0,294c <_fflush_r+0x1c>
    2944:	03452783          	lw	x15,52(x10)
    2948:	02078a63          	beq	x15,x0,297c <_fflush_r+0x4c>
    294c:	00c59783          	lh	x15,12(x11)
    2950:	00079c63          	bne	x15,x0,2968 <_fflush_r+0x38>
    2954:	01c12083          	lw	x1,28(x2)
    2958:	01812403          	lw	x8,24(x2)
    295c:	00000513          	addi	x10,x0,0
    2960:	02010113          	addi	x2,x2,32
    2964:	00008067          	jalr	x0,0(x1)
    2968:	00040513          	addi	x10,x8,0
    296c:	01812403          	lw	x8,24(x2)
    2970:	01c12083          	lw	x1,28(x2)
    2974:	02010113          	addi	x2,x2,32
    2978:	d61ff06f          	jal	x0,26d8 <__sflush_r>
    297c:	00b12623          	sw	x11,12(x2)
    2980:	8d4fe0ef          	jal	x1,a54 <__sinit>
    2984:	00c12583          	lw	x11,12(x2)
    2988:	fc5ff06f          	jal	x0,294c <_fflush_r+0x1c>

0000298c <fflush>:
    298c:	06050063          	beq	x10,x0,29ec <fflush+0x60>
    2990:	00050593          	addi	x11,x10,0
    2994:	f141a503          	lw	x10,-236(x3) # 12bb4 <_impure_ptr>
    2998:	00050663          	beq	x10,x0,29a4 <fflush+0x18>
    299c:	03452783          	lw	x15,52(x10)
    29a0:	00078c63          	beq	x15,x0,29b8 <fflush+0x2c>
    29a4:	00c59783          	lh	x15,12(x11)
    29a8:	00079663          	bne	x15,x0,29b4 <fflush+0x28>
    29ac:	00000513          	addi	x10,x0,0
    29b0:	00008067          	jalr	x0,0(x1)
    29b4:	d25ff06f          	jal	x0,26d8 <__sflush_r>
    29b8:	fe010113          	addi	x2,x2,-32
    29bc:	00b12623          	sw	x11,12(x2)
    29c0:	00a12423          	sw	x10,8(x2)
    29c4:	00112e23          	sw	x1,28(x2)
    29c8:	88cfe0ef          	jal	x1,a54 <__sinit>
    29cc:	00c12583          	lw	x11,12(x2)
    29d0:	00812503          	lw	x10,8(x2)
    29d4:	00c59783          	lh	x15,12(x11)
    29d8:	02079663          	bne	x15,x0,2a04 <fflush+0x78>
    29dc:	01c12083          	lw	x1,28(x2)
    29e0:	00000513          	addi	x10,x0,0
    29e4:	02010113          	addi	x2,x2,32
    29e8:	00008067          	jalr	x0,0(x1)
    29ec:	00010617          	auipc	x12,0x10
    29f0:	ab460613          	addi	x12,x12,-1356 # 124a0 <__sglue>
    29f4:	00000597          	auipc	x11,0x0
    29f8:	f3c58593          	addi	x11,x11,-196 # 2930 <_fflush_r>
    29fc:	c1818513          	addi	x10,x3,-1000 # 128b8 <_impure_data>
    2a00:	e68ff06f          	jal	x0,2068 <_fwalk_sglue>
    2a04:	01c12083          	lw	x1,28(x2)
    2a08:	02010113          	addi	x2,x2,32
    2a0c:	ccdff06f          	jal	x0,26d8 <__sflush_r>

00002a10 <__malloc_lock>:
    2a10:	00008067          	jalr	x0,0(x1)

00002a14 <__malloc_unlock>:
    2a14:	00008067          	jalr	x0,0(x1)

00002a18 <__libc_init_array>:
    2a18:	ff010113          	addi	x2,x2,-16
    2a1c:	00812423          	sw	x8,8(x2)
    2a20:	01212023          	sw	x18,0(x2)
    2a24:	00010797          	auipc	x15,0x10
    2a28:	a7878793          	addi	x15,x15,-1416 # 1249c <__init_array_start>
    2a2c:	00010417          	auipc	x8,0x10
    2a30:	a7040413          	addi	x8,x8,-1424 # 1249c <__init_array_start>
    2a34:	00112623          	sw	x1,12(x2)
    2a38:	00912223          	sw	x9,4(x2)
    2a3c:	40878933          	sub	x18,x15,x8
    2a40:	02878063          	beq	x15,x8,2a60 <__libc_init_array+0x48>
    2a44:	40295913          	srai	x18,x18,0x2
    2a48:	00000493          	addi	x9,x0,0
    2a4c:	00042783          	lw	x15,0(x8)
    2a50:	00148493          	addi	x9,x9,1
    2a54:	00440413          	addi	x8,x8,4
    2a58:	000780e7          	jalr	x1,0(x15)
    2a5c:	ff24e8e3          	bltu	x9,x18,2a4c <__libc_init_array+0x34>
    2a60:	00010797          	auipc	x15,0x10
    2a64:	a4078793          	addi	x15,x15,-1472 # 124a0 <__sglue>
    2a68:	00010417          	auipc	x8,0x10
    2a6c:	a3440413          	addi	x8,x8,-1484 # 1249c <__init_array_start>
    2a70:	40878933          	sub	x18,x15,x8
    2a74:	40295913          	srai	x18,x18,0x2
    2a78:	00878e63          	beq	x15,x8,2a94 <__libc_init_array+0x7c>
    2a7c:	00000493          	addi	x9,x0,0
    2a80:	00042783          	lw	x15,0(x8)
    2a84:	00148493          	addi	x9,x9,1
    2a88:	00440413          	addi	x8,x8,4
    2a8c:	000780e7          	jalr	x1,0(x15)
    2a90:	ff24e8e3          	bltu	x9,x18,2a80 <__libc_init_array+0x68>
    2a94:	00c12083          	lw	x1,12(x2)
    2a98:	00812403          	lw	x8,8(x2)
    2a9c:	00412483          	lw	x9,4(x2)
    2aa0:	00012903          	lw	x18,0(x2)
    2aa4:	01010113          	addi	x2,x2,16
    2aa8:	00008067          	jalr	x0,0(x1)

00002aac <exit>:
    2aac:	ff010113          	addi	x2,x2,-16
    2ab0:	00000593          	addi	x11,x0,0
    2ab4:	00812423          	sw	x8,8(x2)
    2ab8:	00112623          	sw	x1,12(x2)
    2abc:	00050413          	addi	x8,x10,0
    2ac0:	179060ef          	jal	x1,9438 <__call_exitprocs>
    2ac4:	f1c1a783          	lw	x15,-228(x3) # 12bbc <__stdio_exit_handler>
    2ac8:	00078463          	beq	x15,x0,2ad0 <exit+0x24>
    2acc:	000780e7          	jalr	x1,0(x15)
    2ad0:	00040513          	addi	x10,x8,0
    2ad4:	f70fd0ef          	jal	x1,244 <_exit>

00002ad8 <atexit>:
    2ad8:	00050593          	addi	x11,x10,0
    2adc:	00000693          	addi	x13,x0,0
    2ae0:	00000613          	addi	x12,x0,0
    2ae4:	00000513          	addi	x10,x0,0
    2ae8:	3810606f          	jal	x0,9668 <__register_exitproc>

00002aec <__swsetup_r>:
    2aec:	ff010113          	addi	x2,x2,-16
    2af0:	00812423          	sw	x8,8(x2)
    2af4:	00912223          	sw	x9,4(x2)
    2af8:	00112623          	sw	x1,12(x2)
    2afc:	f141a783          	lw	x15,-236(x3) # 12bb4 <_impure_ptr>
    2b00:	00050493          	addi	x9,x10,0
    2b04:	00058413          	addi	x8,x11,0
    2b08:	00078663          	beq	x15,x0,2b14 <__swsetup_r+0x28>
    2b0c:	0347a703          	lw	x14,52(x15)
    2b10:	0e070e63          	beq	x14,x0,2c0c <__swsetup_r+0x120>
    2b14:	00c41783          	lh	x15,12(x8)
    2b18:	0087f713          	andi	x14,x15,8
    2b1c:	04070063          	beq	x14,x0,2b5c <__swsetup_r+0x70>
    2b20:	01042703          	lw	x14,16(x8)
    2b24:	04070c63          	beq	x14,x0,2b7c <__swsetup_r+0x90>
    2b28:	0017f693          	andi	x13,x15,1
    2b2c:	06068c63          	beq	x13,x0,2ba4 <__swsetup_r+0xb8>
    2b30:	01442683          	lw	x13,20(x8)
    2b34:	00042423          	sw	x0,8(x8)
    2b38:	00000513          	addi	x10,x0,0
    2b3c:	40d006b3          	sub	x13,x0,x13
    2b40:	00d42c23          	sw	x13,24(x8)
    2b44:	06070e63          	beq	x14,x0,2bc0 <__swsetup_r+0xd4>
    2b48:	00c12083          	lw	x1,12(x2)
    2b4c:	00812403          	lw	x8,8(x2)
    2b50:	00412483          	lw	x9,4(x2)
    2b54:	01010113          	addi	x2,x2,16
    2b58:	00008067          	jalr	x0,0(x1)
    2b5c:	0107f713          	andi	x14,x15,16
    2b60:	0a070c63          	beq	x14,x0,2c18 <__swsetup_r+0x12c>
    2b64:	0047f713          	andi	x14,x15,4
    2b68:	06071863          	bne	x14,x0,2bd8 <__swsetup_r+0xec>
    2b6c:	01042703          	lw	x14,16(x8)
    2b70:	0087e793          	ori	x15,x15,8
    2b74:	00f41623          	sh	x15,12(x8)
    2b78:	fa0718e3          	bne	x14,x0,2b28 <__swsetup_r+0x3c>
    2b7c:	2807f693          	andi	x13,x15,640
    2b80:	20000613          	addi	x12,x0,512
    2b84:	fac682e3          	beq	x13,x12,2b28 <__swsetup_r+0x3c>
    2b88:	00048513          	addi	x10,x9,0
    2b8c:	00040593          	addi	x11,x8,0
    2b90:	501060ef          	jal	x1,9890 <__smakebuf_r>
    2b94:	00c41783          	lh	x15,12(x8)
    2b98:	01042703          	lw	x14,16(x8)
    2b9c:	0017f693          	andi	x13,x15,1
    2ba0:	f80698e3          	bne	x13,x0,2b30 <__swsetup_r+0x44>
    2ba4:	0027f693          	andi	x13,x15,2
    2ba8:	00000613          	addi	x12,x0,0
    2bac:	00069463          	bne	x13,x0,2bb4 <__swsetup_r+0xc8>
    2bb0:	01442603          	lw	x12,20(x8)
    2bb4:	00c42423          	sw	x12,8(x8)
    2bb8:	00000513          	addi	x10,x0,0
    2bbc:	f80716e3          	bne	x14,x0,2b48 <__swsetup_r+0x5c>
    2bc0:	0807f713          	andi	x14,x15,128
    2bc4:	f80702e3          	beq	x14,x0,2b48 <__swsetup_r+0x5c>
    2bc8:	0407e793          	ori	x15,x15,64
    2bcc:	00f41623          	sh	x15,12(x8)
    2bd0:	fff00513          	addi	x10,x0,-1
    2bd4:	f75ff06f          	jal	x0,2b48 <__swsetup_r+0x5c>
    2bd8:	03042583          	lw	x11,48(x8)
    2bdc:	00058e63          	beq	x11,x0,2bf8 <__swsetup_r+0x10c>
    2be0:	04040713          	addi	x14,x8,64
    2be4:	00e58863          	beq	x11,x14,2bf4 <__swsetup_r+0x108>
    2be8:	00048513          	addi	x10,x9,0
    2bec:	e79fe0ef          	jal	x1,1a64 <_free_r>
    2bf0:	00c41783          	lh	x15,12(x8)
    2bf4:	02042823          	sw	x0,48(x8)
    2bf8:	01042703          	lw	x14,16(x8)
    2bfc:	fdb7f793          	andi	x15,x15,-37
    2c00:	00042223          	sw	x0,4(x8)
    2c04:	00e42023          	sw	x14,0(x8)
    2c08:	f69ff06f          	jal	x0,2b70 <__swsetup_r+0x84>
    2c0c:	00078513          	addi	x10,x15,0
    2c10:	e45fd0ef          	jal	x1,a54 <__sinit>
    2c14:	f01ff06f          	jal	x0,2b14 <__swsetup_r+0x28>
    2c18:	00900713          	addi	x14,x0,9
    2c1c:	0407e793          	ori	x15,x15,64
    2c20:	00e4a023          	sw	x14,0(x9)
    2c24:	00f41623          	sh	x15,12(x8)
    2c28:	fff00513          	addi	x10,x0,-1
    2c2c:	f1dff06f          	jal	x0,2b48 <__swsetup_r+0x5c>

00002c30 <strlen>:
    2c30:	00357793          	andi	x15,x10,3
    2c34:	00050713          	addi	x14,x10,0
    2c38:	04079c63          	bne	x15,x0,2c90 <strlen+0x60>
    2c3c:	7f7f86b7          	lui	x13,0x7f7f8
    2c40:	f7f68693          	addi	x13,x13,-129 # 7f7f7f7f <__heap_end+0x7f3f7f7f>
    2c44:	fff00593          	addi	x11,x0,-1
    2c48:	00072603          	lw	x12,0(x14)
    2c4c:	00470713          	addi	x14,x14,4
    2c50:	00d677b3          	and	x15,x12,x13
    2c54:	00d787b3          	add	x15,x15,x13
    2c58:	00c7e7b3          	or	x15,x15,x12
    2c5c:	00d7e7b3          	or	x15,x15,x13
    2c60:	feb784e3          	beq	x15,x11,2c48 <strlen+0x18>
    2c64:	ffc74683          	lbu	x13,-4(x14)
    2c68:	40a707b3          	sub	x15,x14,x10
    2c6c:	04068463          	beq	x13,x0,2cb4 <strlen+0x84>
    2c70:	ffd74683          	lbu	x13,-3(x14)
    2c74:	02068c63          	beq	x13,x0,2cac <strlen+0x7c>
    2c78:	ffe74503          	lbu	x10,-2(x14)
    2c7c:	00a03533          	sltu	x10,x0,x10
    2c80:	00f50533          	add	x10,x10,x15
    2c84:	ffe50513          	addi	x10,x10,-2
    2c88:	00008067          	jalr	x0,0(x1)
    2c8c:	fa0688e3          	beq	x13,x0,2c3c <strlen+0xc>
    2c90:	00074783          	lbu	x15,0(x14)
    2c94:	00170713          	addi	x14,x14,1
    2c98:	00377693          	andi	x13,x14,3
    2c9c:	fe0798e3          	bne	x15,x0,2c8c <strlen+0x5c>
    2ca0:	40a70733          	sub	x14,x14,x10
    2ca4:	fff70513          	addi	x10,x14,-1
    2ca8:	00008067          	jalr	x0,0(x1)
    2cac:	ffd78513          	addi	x10,x15,-3
    2cb0:	00008067          	jalr	x0,0(x1)
    2cb4:	ffc78513          	addi	x10,x15,-4
    2cb8:	00008067          	jalr	x0,0(x1)

00002cbc <__sread>:
    2cbc:	ff010113          	addi	x2,x2,-16
    2cc0:	00812423          	sw	x8,8(x2)
    2cc4:	00058413          	addi	x8,x11,0
    2cc8:	00e59583          	lh	x11,14(x11)
    2ccc:	00112623          	sw	x1,12(x2)
    2cd0:	345060ef          	jal	x1,9814 <_read_r>
    2cd4:	02054063          	blt	x10,x0,2cf4 <__sread+0x38>
    2cd8:	05042783          	lw	x15,80(x8)
    2cdc:	00c12083          	lw	x1,12(x2)
    2ce0:	00a787b3          	add	x15,x15,x10
    2ce4:	04f42823          	sw	x15,80(x8)
    2ce8:	00812403          	lw	x8,8(x2)
    2cec:	01010113          	addi	x2,x2,16
    2cf0:	00008067          	jalr	x0,0(x1)
    2cf4:	00c45783          	lhu	x15,12(x8)
    2cf8:	fffff737          	lui	x14,0xfffff
    2cfc:	fff70713          	addi	x14,x14,-1 # ffffefff <__heap_end+0xffbfefff>
    2d00:	00e7f7b3          	and	x15,x15,x14
    2d04:	00c12083          	lw	x1,12(x2)
    2d08:	00f41623          	sh	x15,12(x8)
    2d0c:	00812403          	lw	x8,8(x2)
    2d10:	01010113          	addi	x2,x2,16
    2d14:	00008067          	jalr	x0,0(x1)

00002d18 <__seofread>:
    2d18:	00000513          	addi	x10,x0,0
    2d1c:	00008067          	jalr	x0,0(x1)

00002d20 <__swrite>:
    2d20:	00c59783          	lh	x15,12(x11)
    2d24:	fe010113          	addi	x2,x2,-32
    2d28:	00812c23          	sw	x8,24(x2)
    2d2c:	00912a23          	sw	x9,20(x2)
    2d30:	01212823          	sw	x18,16(x2)
    2d34:	01312623          	sw	x19,12(x2)
    2d38:	00112e23          	sw	x1,28(x2)
    2d3c:	1007f713          	andi	x14,x15,256
    2d40:	00058413          	addi	x8,x11,0
    2d44:	00060913          	addi	x18,x12,0
    2d48:	00068993          	addi	x19,x13,0
    2d4c:	00050493          	addi	x9,x10,0
    2d50:	04071063          	bne	x14,x0,2d90 <__swrite+0x70>
    2d54:	fffff737          	lui	x14,0xfffff
    2d58:	fff70713          	addi	x14,x14,-1 # ffffefff <__heap_end+0xffbfefff>
    2d5c:	00e7f7b3          	and	x15,x15,x14
    2d60:	00e41583          	lh	x11,14(x8)
    2d64:	00f41623          	sh	x15,12(x8)
    2d68:	01812403          	lw	x8,24(x2)
    2d6c:	01c12083          	lw	x1,28(x2)
    2d70:	00098693          	addi	x13,x19,0
    2d74:	00090613          	addi	x12,x18,0
    2d78:	00c12983          	lw	x19,12(x2)
    2d7c:	01012903          	lw	x18,16(x2)
    2d80:	00048513          	addi	x10,x9,0
    2d84:	01412483          	lw	x9,20(x2)
    2d88:	02010113          	addi	x2,x2,32
    2d8c:	0610606f          	jal	x0,95ec <_write_r>
    2d90:	00e59583          	lh	x11,14(x11)
    2d94:	00200693          	addi	x13,x0,2
    2d98:	00000613          	addi	x12,x0,0
    2d9c:	7d4060ef          	jal	x1,9570 <_lseek_r>
    2da0:	00c41783          	lh	x15,12(x8)
    2da4:	fb1ff06f          	jal	x0,2d54 <__swrite+0x34>

00002da8 <__sseek>:
    2da8:	ff010113          	addi	x2,x2,-16
    2dac:	00812423          	sw	x8,8(x2)
    2db0:	00058413          	addi	x8,x11,0
    2db4:	00e59583          	lh	x11,14(x11)
    2db8:	00112623          	sw	x1,12(x2)
    2dbc:	7b4060ef          	jal	x1,9570 <_lseek_r>
    2dc0:	fff00713          	addi	x14,x0,-1
    2dc4:	00c41783          	lh	x15,12(x8)
    2dc8:	02e50263          	beq	x10,x14,2dec <__sseek+0x44>
    2dcc:	00001737          	lui	x14,0x1
    2dd0:	00e7e7b3          	or	x15,x15,x14
    2dd4:	00c12083          	lw	x1,12(x2)
    2dd8:	04a42823          	sw	x10,80(x8)
    2ddc:	00f41623          	sh	x15,12(x8)
    2de0:	00812403          	lw	x8,8(x2)
    2de4:	01010113          	addi	x2,x2,16
    2de8:	00008067          	jalr	x0,0(x1)
    2dec:	fffff737          	lui	x14,0xfffff
    2df0:	fff70713          	addi	x14,x14,-1 # ffffefff <__heap_end+0xffbfefff>
    2df4:	00e7f7b3          	and	x15,x15,x14
    2df8:	00c12083          	lw	x1,12(x2)
    2dfc:	00f41623          	sh	x15,12(x8)
    2e00:	00812403          	lw	x8,8(x2)
    2e04:	01010113          	addi	x2,x2,16
    2e08:	00008067          	jalr	x0,0(x1)

00002e0c <__sclose>:
    2e0c:	00e59583          	lh	x11,14(x11)
    2e10:	0f10606f          	jal	x0,9700 <_close_r>

00002e14 <_vfprintf_r>:
    2e14:	e2010113          	addi	x2,x2,-480
    2e18:	1c112e23          	sw	x1,476(x2)
    2e1c:	1c812c23          	sw	x8,472(x2)
    2e20:	00b12423          	sw	x11,8(x2)
    2e24:	00c12823          	sw	x12,16(x2)
    2e28:	00d12c23          	sw	x13,24(x2)
    2e2c:	00050413          	addi	x8,x10,0
    2e30:	00a12623          	sw	x10,12(x2)
    2e34:	3c8070ef          	jal	x1,a1fc <_localeconv_r>
    2e38:	00052783          	lw	x15,0(x10)
    2e3c:	00078513          	addi	x10,x15,0
    2e40:	02f12823          	sw	x15,48(x2)
    2e44:	dedff0ef          	jal	x1,2c30 <strlen>
    2e48:	02a12623          	sw	x10,44(x2)
    2e4c:	0e012023          	sw	x0,224(x2)
    2e50:	0e012223          	sw	x0,228(x2)
    2e54:	0e012423          	sw	x0,232(x2)
    2e58:	0e012623          	sw	x0,236(x2)
    2e5c:	01012783          	lw	x15,16(x2)
    2e60:	00040863          	beq	x8,x0,2e70 <_vfprintf_r+0x5c>
    2e64:	03442703          	lw	x14,52(x8)
    2e68:	00071463          	bne	x14,x0,2e70 <_vfprintf_r+0x5c>
    2e6c:	0a10106f          	jal	x0,470c <_vfprintf_r+0x18f8>
    2e70:	00812503          	lw	x10,8(x2)
    2e74:	000025b7          	lui	x11,0x2
    2e78:	00c51703          	lh	x14,12(x10)
    2e7c:	01271693          	slli	x13,x14,0x12
    2e80:	0206c063          	blt	x13,x0,2ea0 <_vfprintf_r+0x8c>
    2e84:	06452683          	lw	x13,100(x10)
    2e88:	ffffe637          	lui	x12,0xffffe
    2e8c:	fff60613          	addi	x12,x12,-1 # ffffdfff <__heap_end+0xffbfdfff>
    2e90:	00b76733          	or	x14,x14,x11
    2e94:	00c6f6b3          	and	x13,x13,x12
    2e98:	00e51623          	sh	x14,12(x10)
    2e9c:	06d52223          	sw	x13,100(x10)
    2ea0:	00877693          	andi	x13,x14,8
    2ea4:	30068863          	beq	x13,x0,31b4 <_vfprintf_r+0x3a0>
    2ea8:	00812683          	lw	x13,8(x2)
    2eac:	0106a683          	lw	x13,16(x13)
    2eb0:	30068263          	beq	x13,x0,31b4 <_vfprintf_r+0x3a0>
    2eb4:	01a77713          	andi	x14,x14,26
    2eb8:	00a00693          	addi	x13,x0,10
    2ebc:	32d70463          	beq	x14,x13,31e4 <_vfprintf_r+0x3d0>
    2ec0:	1c912a23          	sw	x9,468(x2)
    2ec4:	1d212823          	sw	x18,464(x2)
    2ec8:	1d312623          	sw	x19,460(x2)
    2ecc:	1d512223          	sw	x21,452(x2)
    2ed0:	1b912a23          	sw	x25,436(x2)
    2ed4:	1d412423          	sw	x20,456(x2)
    2ed8:	1d612023          	sw	x22,448(x2)
    2edc:	1b712e23          	sw	x23,444(x2)
    2ee0:	1b812c23          	sw	x24,440(x2)
    2ee4:	1ba12823          	sw	x26,432(x2)
    2ee8:	1bb12623          	sw	x27,428(x2)
    2eec:	00078a93          	addi	x21,x15,0
    2ef0:	000ac783          	lbu	x15,0(x21)
    2ef4:	0fc10993          	addi	x19,x2,252
    2ef8:	0c012e23          	sw	x0,220(x2)
    2efc:	0c012c23          	sw	x0,216(x2)
    2f00:	0d312a23          	sw	x19,212(x2)
    2f04:	02012023          	sw	x0,32(x2)
    2f08:	02012a23          	sw	x0,52(x2)
    2f0c:	02012e23          	sw	x0,60(x2)
    2f10:	04012223          	sw	x0,68(x2)
    2f14:	04012423          	sw	x0,72(x2)
    2f18:	04012023          	sw	x0,64(x2)
    2f1c:	00012823          	sw	x0,16(x2)
    2f20:	02500413          	addi	x8,x0,37
    2f24:	00700c93          	addi	x25,x0,7
    2f28:	01000493          	addi	x9,x0,16
    2f2c:	00098913          	addi	x18,x19,0
    2f30:	22078263          	beq	x15,x0,3154 <_vfprintf_r+0x340>
    2f34:	000a8a13          	addi	x20,x21,0
    2f38:	2e878463          	beq	x15,x8,3220 <_vfprintf_r+0x40c>
    2f3c:	001a4783          	lbu	x15,1(x20)
    2f40:	001a0a13          	addi	x20,x20,1
    2f44:	fe079ae3          	bne	x15,x0,2f38 <_vfprintf_r+0x124>
    2f48:	415a0b33          	sub	x22,x20,x21
    2f4c:	215a0463          	beq	x20,x21,3154 <_vfprintf_r+0x340>
    2f50:	0dc12703          	lw	x14,220(x2)
    2f54:	0d812783          	lw	x15,216(x2)
    2f58:	01592023          	sw	x21,0(x18)
    2f5c:	01670733          	add	x14,x14,x22
    2f60:	00178793          	addi	x15,x15,1
    2f64:	01692223          	sw	x22,4(x18)
    2f68:	0ce12e23          	sw	x14,220(x2)
    2f6c:	0cf12c23          	sw	x15,216(x2)
    2f70:	00890913          	addi	x18,x18,8
    2f74:	2afcce63          	blt	x25,x15,3230 <_vfprintf_r+0x41c>
    2f78:	01012703          	lw	x14,16(x2)
    2f7c:	000a4783          	lbu	x15,0(x20)
    2f80:	01670733          	add	x14,x14,x22
    2f84:	00e12823          	sw	x14,16(x2)
    2f88:	1c078663          	beq	x15,x0,3154 <_vfprintf_r+0x340>
    2f8c:	001a0e13          	addi	x28,x20,1
    2f90:	001a4b03          	lbu	x22,1(x20)
    2f94:	0a010ba3          	sb	x0,183(x2)
    2f98:	fff00a13          	addi	x20,x0,-1
    2f9c:	00000d13          	addi	x26,x0,0
    2fa0:	00000c13          	addi	x24,x0,0
    2fa4:	05a00d93          	addi	x27,x0,90
    2fa8:	000e0b93          	addi	x23,x28,0
    2fac:	001b8b93          	addi	x23,x23,1
    2fb0:	fe0b0793          	addi	x15,x22,-32
    2fb4:	04fdea63          	bltu	x27,x15,3008 <_vfprintf_r+0x1f4>
    2fb8:	0000f717          	auipc	x14,0xf
    2fbc:	d5070713          	addi	x14,x14,-688 # 11d08 <no_exception_handler_msg+0xb5>
    2fc0:	00279793          	slli	x15,x15,0x2
    2fc4:	00e787b3          	add	x15,x15,x14
    2fc8:	0007a783          	lw	x15,0(x15)
    2fcc:	00e787b3          	add	x15,x15,x14
    2fd0:	00078067          	jalr	x0,0(x15)
    2fd4:	fd0b0713          	addi	x14,x22,-48
    2fd8:	00000d13          	addi	x26,x0,0
    2fdc:	00900693          	addi	x13,x0,9
    2fe0:	002d1793          	slli	x15,x26,0x2
    2fe4:	000bcb03          	lbu	x22,0(x23)
    2fe8:	01a787b3          	add	x15,x15,x26
    2fec:	00179793          	slli	x15,x15,0x1
    2ff0:	00f70d33          	add	x26,x14,x15
    2ff4:	fd0b0713          	addi	x14,x22,-48
    2ff8:	001b8b93          	addi	x23,x23,1
    2ffc:	fee6f2e3          	bgeu	x13,x14,2fe0 <_vfprintf_r+0x1cc>
    3000:	fe0b0793          	addi	x15,x22,-32
    3004:	fafdfae3          	bgeu	x27,x15,2fb8 <_vfprintf_r+0x1a4>
    3008:	000b8e13          	addi	x28,x23,0
    300c:	140b0463          	beq	x22,x0,3154 <_vfprintf_r+0x340>
    3010:	00100d93          	addi	x27,x0,1
    3014:	13610e23          	sb	x22,316(x2)
    3018:	0a010ba3          	sb	x0,183(x2)
    301c:	000d8713          	addi	x14,x27,0
    3020:	13c10a93          	addi	x21,x2,316
    3024:	00012a23          	sw	x0,20(x2)
    3028:	00000a13          	addi	x20,x0,0
    302c:	02012223          	sw	x0,36(x2)
    3030:	02012423          	sw	x0,40(x2)
    3034:	00012e23          	sw	x0,28(x2)
    3038:	002c7f13          	andi	x30,x24,2
    303c:	000f0463          	beq	x30,x0,3044 <_vfprintf_r+0x230>
    3040:	002d8d93          	addi	x27,x27,2
    3044:	084c7e93          	andi	x29,x24,132
    3048:	0dc12603          	lw	x12,220(x2)
    304c:	000e9663          	bne	x29,x0,3058 <_vfprintf_r+0x244>
    3050:	41bd07b3          	sub	x15,x26,x27
    3054:	58f048e3          	blt	x0,x15,3de4 <_vfprintf_r+0xfd0>
    3058:	0b714783          	lbu	x15,183(x2)
    305c:	02078863          	beq	x15,x0,308c <_vfprintf_r+0x278>
    3060:	0d812783          	lw	x15,216(x2)
    3064:	00160613          	addi	x12,x12,1
    3068:	0b710593          	addi	x11,x2,183
    306c:	00178793          	addi	x15,x15,1
    3070:	00100513          	addi	x10,x0,1
    3074:	00b92023          	sw	x11,0(x18)
    3078:	00a92223          	sw	x10,4(x18)
    307c:	0cc12e23          	sw	x12,220(x2)
    3080:	0cf12c23          	sw	x15,216(x2)
    3084:	00890913          	addi	x18,x18,8
    3088:	2efcc063          	blt	x25,x15,3368 <_vfprintf_r+0x554>
    308c:	020f0863          	beq	x30,x0,30bc <_vfprintf_r+0x2a8>
    3090:	0d812783          	lw	x15,216(x2)
    3094:	00260613          	addi	x12,x12,2
    3098:	0b810513          	addi	x10,x2,184
    309c:	00178793          	addi	x15,x15,1
    30a0:	00200593          	addi	x11,x0,2
    30a4:	00a92023          	sw	x10,0(x18)
    30a8:	00b92223          	sw	x11,4(x18)
    30ac:	0cc12e23          	sw	x12,220(x2)
    30b0:	0cf12c23          	sw	x15,216(x2)
    30b4:	00890913          	addi	x18,x18,8
    30b8:	64fcc6e3          	blt	x25,x15,3f04 <_vfprintf_r+0x10f0>
    30bc:	08000793          	addi	x15,x0,128
    30c0:	30fe80e3          	beq	x29,x15,3bc0 <_vfprintf_r+0xdac>
    30c4:	40ea0a33          	sub	x20,x20,x14
    30c8:	414040e3          	blt	x0,x20,3cc8 <_vfprintf_r+0xeb4>
    30cc:	100c7793          	andi	x15,x24,256
    30d0:	18079ee3          	bne	x15,x0,3a6c <_vfprintf_r+0xc58>
    30d4:	0d812783          	lw	x15,216(x2)
    30d8:	00e60633          	add	x12,x12,x14
    30dc:	0cc12e23          	sw	x12,220(x2)
    30e0:	00178793          	addi	x15,x15,1
    30e4:	01592023          	sw	x21,0(x18)
    30e8:	00e92223          	sw	x14,4(x18)
    30ec:	0cf12c23          	sw	x15,216(x2)
    30f0:	3cfcc863          	blt	x25,x15,34c0 <_vfprintf_r+0x6ac>
    30f4:	00890913          	addi	x18,x18,8
    30f8:	004c7313          	andi	x6,x24,4
    30fc:	00030663          	beq	x6,x0,3108 <_vfprintf_r+0x2f4>
    3100:	41bd0a33          	sub	x20,x26,x27
    3104:	63404ce3          	blt	x0,x20,3f3c <_vfprintf_r+0x1128>
    3108:	000d0893          	addi	x17,x26,0
    310c:	01bd5463          	bge	x26,x27,3114 <_vfprintf_r+0x300>
    3110:	000d8893          	addi	x17,x27,0
    3114:	01012783          	lw	x15,16(x2)
    3118:	011787b3          	add	x15,x15,x17
    311c:	00f12823          	sw	x15,16(x2)
    3120:	480614e3          	bne	x12,x0,3da8 <_vfprintf_r+0xf94>
    3124:	01412783          	lw	x15,20(x2)
    3128:	0c012c23          	sw	x0,216(x2)
    312c:	00078c63          	beq	x15,x0,3144 <_vfprintf_r+0x330>
    3130:	01412583          	lw	x11,20(x2)
    3134:	00c12503          	lw	x10,12(x2)
    3138:	01c12e23          	sw	x28,28(x2)
    313c:	929fe0ef          	jal	x1,1a64 <_free_r>
    3140:	01c12e03          	lw	x28,28(x2)
    3144:	00098913          	addi	x18,x19,0
    3148:	000e0a93          	addi	x21,x28,0
    314c:	000ac783          	lbu	x15,0(x21)
    3150:	de0792e3          	bne	x15,x0,2f34 <_vfprintf_r+0x120>
    3154:	0dc12783          	lw	x15,220(x2)
    3158:	00078463          	beq	x15,x0,3160 <_vfprintf_r+0x34c>
    315c:	60d0106f          	jal	x0,4f68 <_vfprintf_r+0x2154>
    3160:	00812783          	lw	x15,8(x2)
    3164:	1d412483          	lw	x9,468(x2)
    3168:	1d012903          	lw	x18,464(x2)
    316c:	00c7d783          	lhu	x15,12(x15)
    3170:	1cc12983          	lw	x19,460(x2)
    3174:	1c812a03          	lw	x20,456(x2)
    3178:	0407f793          	andi	x15,x15,64
    317c:	1c412a83          	lw	x21,452(x2)
    3180:	1c012b03          	lw	x22,448(x2)
    3184:	1bc12b83          	lw	x23,444(x2)
    3188:	1b812c03          	lw	x24,440(x2)
    318c:	1b412c83          	lw	x25,436(x2)
    3190:	1b012d03          	lw	x26,432(x2)
    3194:	1ac12d83          	lw	x27,428(x2)
    3198:	00078463          	beq	x15,x0,31a0 <_vfprintf_r+0x38c>
    319c:	4600206f          	jal	x0,55fc <_vfprintf_r+0x27e8>
    31a0:	1dc12083          	lw	x1,476(x2)
    31a4:	1d812403          	lw	x8,472(x2)
    31a8:	01012503          	lw	x10,16(x2)
    31ac:	1e010113          	addi	x2,x2,480
    31b0:	00008067          	jalr	x0,0(x1)
    31b4:	00812583          	lw	x11,8(x2)
    31b8:	00c12503          	lw	x10,12(x2)
    31bc:	00f12823          	sw	x15,16(x2)
    31c0:	92dff0ef          	jal	x1,2aec <__swsetup_r>
    31c4:	01012783          	lw	x15,16(x2)
    31c8:	00050463          	beq	x10,x0,31d0 <_vfprintf_r+0x3bc>
    31cc:	4300206f          	jal	x0,55fc <_vfprintf_r+0x27e8>
    31d0:	00812703          	lw	x14,8(x2)
    31d4:	00a00693          	addi	x13,x0,10
    31d8:	00c71703          	lh	x14,12(x14)
    31dc:	01a77713          	andi	x14,x14,26
    31e0:	ced710e3          	bne	x14,x13,2ec0 <_vfprintf_r+0xac>
    31e4:	00812703          	lw	x14,8(x2)
    31e8:	00e71703          	lh	x14,14(x14)
    31ec:	cc074ae3          	blt	x14,x0,2ec0 <_vfprintf_r+0xac>
    31f0:	01812683          	lw	x13,24(x2)
    31f4:	00812583          	lw	x11,8(x2)
    31f8:	00c12503          	lw	x10,12(x2)
    31fc:	00078613          	addi	x12,x15,0
    3200:	7e4020ef          	jal	x1,59e4 <__sbprintf>
    3204:	00a12823          	sw	x10,16(x2)
    3208:	f99ff06f          	jal	x0,31a0 <_vfprintf_r+0x38c>
    320c:	000bcb03          	lbu	x22,0(x23)
    3210:	d9dff06f          	jal	x0,2fac <_vfprintf_r+0x198>
    3214:	000bcb03          	lbu	x22,0(x23)
    3218:	020c6c13          	ori	x24,x24,32
    321c:	d91ff06f          	jal	x0,2fac <_vfprintf_r+0x198>
    3220:	415a0b33          	sub	x22,x20,x21
    3224:	d35a16e3          	bne	x20,x21,2f50 <_vfprintf_r+0x13c>
    3228:	000a4783          	lbu	x15,0(x20)
    322c:	d5dff06f          	jal	x0,2f88 <_vfprintf_r+0x174>
    3230:	00812583          	lw	x11,8(x2)
    3234:	00c12503          	lw	x10,12(x2)
    3238:	0d410613          	addi	x12,x2,212
    323c:	591020ef          	jal	x1,5fcc <__sprint_r>
    3240:	f20510e3          	bne	x10,x0,3160 <_vfprintf_r+0x34c>
    3244:	00098913          	addi	x18,x19,0
    3248:	d31ff06f          	jal	x0,2f78 <_vfprintf_r+0x164>
    324c:	008c7793          	andi	x15,x24,8
    3250:	000b8e13          	addi	x28,x23,0
    3254:	00078463          	beq	x15,x0,325c <_vfprintf_r+0x448>
    3258:	0140106f          	jal	x0,426c <_vfprintf_r+0x1458>
    325c:	01812783          	lw	x15,24(x2)
    3260:	0a010513          	addi	x10,x2,160
    3264:	01712a23          	sw	x23,20(x2)
    3268:	00778793          	addi	x15,x15,7
    326c:	ff87f793          	andi	x15,x15,-8
    3270:	0047a603          	lw	x12,4(x15)
    3274:	0007a583          	lw	x11,0(x15)
    3278:	00878793          	addi	x15,x15,8
    327c:	00f12c23          	sw	x15,24(x2)
    3280:	4cc0e0ef          	jal	x1,1174c <__extenddftf2>
    3284:	0a012603          	lw	x12,160(x2)
    3288:	0a412683          	lw	x13,164(x2)
    328c:	0a812703          	lw	x14,168(x2)
    3290:	0ac12783          	lw	x15,172(x2)
    3294:	01412e03          	lw	x28,20(x2)
    3298:	0e010513          	addi	x10,x2,224
    329c:	01c12a23          	sw	x28,20(x2)
    32a0:	0ef12623          	sw	x15,236(x2)
    32a4:	0ec12023          	sw	x12,224(x2)
    32a8:	0ed12223          	sw	x13,228(x2)
    32ac:	0ee12423          	sw	x14,232(x2)
    32b0:	2d9020ef          	jal	x1,5d88 <_ldcheck>
    32b4:	0aa12e23          	sw	x10,188(x2)
    32b8:	00200793          	addi	x15,x0,2
    32bc:	01412e03          	lw	x28,20(x2)
    32c0:	00f51463          	bne	x10,x15,32c8 <_vfprintf_r+0x4b4>
    32c4:	4b80106f          	jal	x0,477c <_vfprintf_r+0x1968>
    32c8:	00100793          	addi	x15,x0,1
    32cc:	00f51463          	bne	x10,x15,32d4 <_vfprintf_r+0x4c0>
    32d0:	6700106f          	jal	x0,4940 <_vfprintf_r+0x1b2c>
    32d4:	06100713          	addi	x14,x0,97
    32d8:	00eb1463          	bne	x22,x14,32e0 <_vfprintf_r+0x4cc>
    32dc:	2780206f          	jal	x0,5554 <_vfprintf_r+0x2740>
    32e0:	04100713          	addi	x14,x0,65
    32e4:	00eb1463          	bne	x22,x14,32ec <_vfprintf_r+0x4d8>
    32e8:	4d50106f          	jal	x0,4fbc <_vfprintf_r+0x21a8>
    32ec:	fff00713          	addi	x14,x0,-1
    32f0:	00ea1463          	bne	x20,x14,32f8 <_vfprintf_r+0x4e4>
    32f4:	4b80206f          	jal	x0,57ac <_vfprintf_r+0x2998>
    32f8:	fdfb7713          	andi	x14,x22,-33
    32fc:	04700693          	addi	x13,x0,71
    3300:	00012a23          	sw	x0,20(x2)
    3304:	00d71463          	bne	x14,x13,330c <_vfprintf_r+0x4f8>
    3308:	4bc0206f          	jal	x0,57c4 <_vfprintf_r+0x29b0>
    330c:	0ec12e83          	lw	x29,236(x2)
    3310:	100c6793          	ori	x15,x24,256
    3314:	02012c23          	sw	x0,56(x2)
    3318:	0e012283          	lw	x5,224(x2)
    331c:	0e412f83          	lw	x31,228(x2)
    3320:	0e812f03          	lw	x30,232(x2)
    3324:	00078b93          	addi	x23,x15,0
    3328:	000eda63          	bge	x29,x0,333c <_vfprintf_r+0x528>
    332c:	800007b7          	lui	x15,0x80000
    3330:	00feceb3          	xor	x29,x29,x15
    3334:	02d00793          	addi	x15,x0,45
    3338:	02f12c23          	sw	x15,56(x2)
    333c:	fbfb0793          	addi	x15,x22,-65
    3340:	02500713          	addi	x14,x0,37
    3344:	00f77463          	bgeu	x14,x15,334c <_vfprintf_r+0x538>
    3348:	1890106f          	jal	x0,4cd0 <_vfprintf_r+0x1ebc>
    334c:	0000f717          	auipc	x14,0xf
    3350:	b2870713          	addi	x14,x14,-1240 # 11e74 <no_exception_handler_msg+0x221>
    3354:	00279793          	slli	x15,x15,0x2
    3358:	00e787b3          	add	x15,x15,x14
    335c:	0007a783          	lw	x15,0(x15) # 80000000 <__heap_end+0x7fc00000>
    3360:	00e787b3          	add	x15,x15,x14
    3364:	00078067          	jalr	x0,0(x15)
    3368:	00812583          	lw	x11,8(x2)
    336c:	00c12503          	lw	x10,12(x2)
    3370:	0d410613          	addi	x12,x2,212
    3374:	05c12a23          	sw	x28,84(x2)
    3378:	04e12823          	sw	x14,80(x2)
    337c:	05d12623          	sw	x29,76(x2)
    3380:	03e12c23          	sw	x30,56(x2)
    3384:	449020ef          	jal	x1,5fcc <__sprint_r>
    3388:	22051ee3          	bne	x10,x0,3dc4 <_vfprintf_r+0xfb0>
    338c:	0dc12603          	lw	x12,220(x2)
    3390:	05412e03          	lw	x28,84(x2)
    3394:	05012703          	lw	x14,80(x2)
    3398:	04c12e83          	lw	x29,76(x2)
    339c:	03812f03          	lw	x30,56(x2)
    33a0:	00098913          	addi	x18,x19,0
    33a4:	ce9ff06f          	jal	x0,308c <_vfprintf_r+0x278>
    33a8:	0d812783          	lw	x15,216(x2)
    33ac:	00100713          	addi	x14,x0,1
    33b0:	00e60633          	add	x12,x12,x14
    33b4:	00e78a33          	add	x20,x15,x14
    33b8:	02012783          	lw	x15,32(x2)
    33bc:	00890b13          	addi	x22,x18,8
    33c0:	5af758e3          	bge	x14,x15,4170 <_vfprintf_r+0x135c>
    33c4:	00100793          	addi	x15,x0,1
    33c8:	00f92223          	sw	x15,4(x18)
    33cc:	01592023          	sw	x21,0(x18)
    33d0:	0cc12e23          	sw	x12,220(x2)
    33d4:	0d412c23          	sw	x20,216(x2)
    33d8:	00700793          	addi	x15,x0,7
    33dc:	0147d463          	bge	x15,x20,33e4 <_vfprintf_r+0x5d0>
    33e0:	1380106f          	jal	x0,4518 <_vfprintf_r+0x1704>
    33e4:	02c12783          	lw	x15,44(x2)
    33e8:	03012703          	lw	x14,48(x2)
    33ec:	001a0a13          	addi	x20,x20,1
    33f0:	00f60633          	add	x12,x12,x15
    33f4:	00fb2223          	sw	x15,4(x22)
    33f8:	00eb2023          	sw	x14,0(x22)
    33fc:	0cc12e23          	sw	x12,220(x2)
    3400:	0d412c23          	sw	x20,216(x2)
    3404:	00700793          	addi	x15,x0,7
    3408:	008b0b13          	addi	x22,x22,8
    340c:	0147d463          	bge	x15,x20,3414 <_vfprintf_r+0x600>
    3410:	1340106f          	jal	x0,4544 <_vfprintf_r+0x1730>
    3414:	0ec12783          	lw	x15,236(x2)
    3418:	0e012503          	lw	x10,224(x2)
    341c:	0e412583          	lw	x11,228(x2)
    3420:	0e812703          	lw	x14,232(x2)
    3424:	0af12623          	sw	x15,172(x2)
    3428:	02012783          	lw	x15,32(x2)
    342c:	0aa12023          	sw	x10,160(x2)
    3430:	0ab12223          	sw	x11,164(x2)
    3434:	0a010513          	addi	x10,x2,160
    3438:	09010593          	addi	x11,x2,144
    343c:	03c12223          	sw	x28,36(x2)
    3440:	00c12e23          	sw	x12,28(x2)
    3444:	08012823          	sw	x0,144(x2)
    3448:	08012a23          	sw	x0,148(x2)
    344c:	08012c23          	sw	x0,152(x2)
    3450:	08012e23          	sw	x0,156(x2)
    3454:	0ae12423          	sw	x14,168(x2)
    3458:	fff78913          	addi	x18,x15,-1
    345c:	3d00b0ef          	jal	x1,e82c <__eqtf2>
    3460:	01c12603          	lw	x12,28(x2)
    3464:	02412e03          	lw	x28,36(x2)
    3468:	54050ae3          	beq	x10,x0,41bc <_vfprintf_r+0x13a8>
    346c:	001a0a13          	addi	x20,x20,1
    3470:	01260633          	add	x12,x12,x18
    3474:	001a8a93          	addi	x21,x21,1
    3478:	0d412c23          	sw	x20,216(x2)
    347c:	0cc12e23          	sw	x12,220(x2)
    3480:	015b2023          	sw	x21,0(x22)
    3484:	012b2223          	sw	x18,4(x22)
    3488:	00700793          	addi	x15,x0,7
    348c:	5147c2e3          	blt	x15,x20,4190 <_vfprintf_r+0x137c>
    3490:	008b0b13          	addi	x22,x22,8
    3494:	03c12683          	lw	x13,60(x2)
    3498:	0c410713          	addi	x14,x2,196
    349c:	001a0793          	addi	x15,x20,1
    34a0:	00c68633          	add	x12,x13,x12
    34a4:	00eb2023          	sw	x14,0(x22)
    34a8:	0cc12e23          	sw	x12,220(x2)
    34ac:	0cf12c23          	sw	x15,216(x2)
    34b0:	00db2223          	sw	x13,4(x22)
    34b4:	00700713          	addi	x14,x0,7
    34b8:	008b0913          	addi	x18,x22,8
    34bc:	c2f75ee3          	bge	x14,x15,30f8 <_vfprintf_r+0x2e4>
    34c0:	00812583          	lw	x11,8(x2)
    34c4:	00c12503          	lw	x10,12(x2)
    34c8:	0d410613          	addi	x12,x2,212
    34cc:	01c12e23          	sw	x28,28(x2)
    34d0:	2fd020ef          	jal	x1,5fcc <__sprint_r>
    34d4:	0e0518e3          	bne	x10,x0,3dc4 <_vfprintf_r+0xfb0>
    34d8:	0dc12603          	lw	x12,220(x2)
    34dc:	01c12e03          	lw	x28,28(x2)
    34e0:	00098913          	addi	x18,x19,0
    34e4:	c15ff06f          	jal	x0,30f8 <_vfprintf_r+0x2e4>
    34e8:	01812703          	lw	x14,24(x2)
    34ec:	00100d93          	addi	x27,x0,1
    34f0:	000b8e13          	addi	x28,x23,0
    34f4:	00072783          	lw	x15,0(x14)
    34f8:	0a010ba3          	sb	x0,183(x2)
    34fc:	13c10a93          	addi	x21,x2,316
    3500:	12f10e23          	sb	x15,316(x2)
    3504:	00470793          	addi	x15,x14,4
    3508:	00f12c23          	sw	x15,24(x2)
    350c:	000d8713          	addi	x14,x27,0
    3510:	b15ff06f          	jal	x0,3024 <_vfprintf_r+0x210>
    3514:	01812783          	lw	x15,24(x2)
    3518:	0a010ba3          	sb	x0,183(x2)
    351c:	000b8e13          	addi	x28,x23,0
    3520:	0007aa83          	lw	x21,0(x15)
    3524:	00478b93          	addi	x23,x15,4
    3528:	6a0a8ce3          	beq	x21,x0,43e0 <_vfprintf_r+0x15cc>
    352c:	000a5463          	bge	x20,x0,3534 <_vfprintf_r+0x720>
    3530:	3340106f          	jal	x0,4864 <_vfprintf_r+0x1a50>
    3534:	000a0613          	addi	x12,x20,0
    3538:	00000593          	addi	x11,x0,0
    353c:	000a8513          	addi	x10,x21,0
    3540:	01c12c23          	sw	x28,24(x2)
    3544:	93dfe0ef          	jal	x1,1e80 <memchr>
    3548:	00a12a23          	sw	x10,20(x2)
    354c:	0b714783          	lbu	x15,183(x2)
    3550:	01812e03          	lw	x28,24(x2)
    3554:	00051463          	bne	x10,x0,355c <_vfprintf_r+0x748>
    3558:	02c0206f          	jal	x0,5584 <_vfprintf_r+0x2770>
    355c:	41550733          	sub	x14,x10,x21
    3560:	fff74693          	xori	x13,x14,-1
    3564:	41f6d693          	srai	x13,x13,0x1f
    3568:	01712c23          	sw	x23,24(x2)
    356c:	00d77db3          	and	x27,x14,x13
    3570:	00012a23          	sw	x0,20(x2)
    3574:	02012223          	sw	x0,36(x2)
    3578:	02012423          	sw	x0,40(x2)
    357c:	00012e23          	sw	x0,28(x2)
    3580:	00000a13          	addi	x20,x0,0
    3584:	aa078ae3          	beq	x15,x0,3038 <_vfprintf_r+0x224>
    3588:	001d8d93          	addi	x27,x27,1
    358c:	aadff06f          	jal	x0,3038 <_vfprintf_r+0x224>
    3590:	020c7793          	andi	x15,x24,32
    3594:	000b8e13          	addi	x28,x23,0
    3598:	2e079c63          	bne	x15,x0,3890 <_vfprintf_r+0xa7c>
    359c:	01812703          	lw	x14,24(x2)
    35a0:	010c7793          	andi	x15,x24,16
    35a4:	00072d83          	lw	x27,0(x14)
    35a8:	00470693          	addi	x13,x14,4
    35ac:	00078463          	beq	x15,x0,35b4 <_vfprintf_r+0x7a0>
    35b0:	1bc0206f          	jal	x0,576c <_vfprintf_r+0x2958>
    35b4:	040c7793          	andi	x15,x24,64
    35b8:	00079463          	bne	x15,x0,35c0 <_vfprintf_r+0x7ac>
    35bc:	3240106f          	jal	x0,48e0 <_vfprintf_r+0x1acc>
    35c0:	010d9d93          	slli	x27,x27,0x10
    35c4:	410ddd93          	srai	x27,x27,0x10
    35c8:	41fdd793          	srai	x15,x27,0x1f
    35cc:	00d12c23          	sw	x13,24(x2)
    35d0:	000c0713          	addi	x14,x24,0
    35d4:	00078693          	addi	x13,x15,0
    35d8:	2206c663          	blt	x13,x0,3804 <_vfprintf_r+0x9f0>
    35dc:	2c0a4e63          	blt	x20,x0,38b8 <_vfprintf_r+0xaa4>
    35e0:	00fde6b3          	or	x13,x27,x15
    35e4:	f7f77713          	andi	x14,x14,-129
    35e8:	2c069863          	bne	x13,x0,38b8 <_vfprintf_r+0xaa4>
    35ec:	2c0a1c63          	bne	x20,x0,38c4 <_vfprintf_r+0xab0>
    35f0:	00070c13          	addi	x24,x14,0
    35f4:	1a010a93          	addi	x21,x2,416
    35f8:	00000713          	addi	x14,x0,0
    35fc:	0b714783          	lbu	x15,183(x2)
    3600:	000a0d93          	addi	x27,x20,0
    3604:	00ea5463          	bge	x20,x14,360c <_vfprintf_r+0x7f8>
    3608:	00070d93          	addi	x27,x14,0
    360c:	00012a23          	sw	x0,20(x2)
    3610:	02012223          	sw	x0,36(x2)
    3614:	02012423          	sw	x0,40(x2)
    3618:	00012e23          	sw	x0,28(x2)
    361c:	f60796e3          	bne	x15,x0,3588 <_vfprintf_r+0x774>
    3620:	a19ff06f          	jal	x0,3038 <_vfprintf_r+0x224>
    3624:	01812783          	lw	x15,24(x2)
    3628:	0007ad03          	lw	x26,0(x15)
    362c:	00478793          	addi	x15,x15,4
    3630:	420d58e3          	bge	x26,x0,4260 <_vfprintf_r+0x144c>
    3634:	41a00d33          	sub	x26,x0,x26
    3638:	00f12c23          	sw	x15,24(x2)
    363c:	000bcb03          	lbu	x22,0(x23)
    3640:	004c6c13          	ori	x24,x24,4
    3644:	969ff06f          	jal	x0,2fac <_vfprintf_r+0x198>
    3648:	02b00793          	addi	x15,x0,43
    364c:	000bcb03          	lbu	x22,0(x23)
    3650:	0af10ba3          	sb	x15,183(x2)
    3654:	959ff06f          	jal	x0,2fac <_vfprintf_r+0x198>
    3658:	000bcb03          	lbu	x22,0(x23)
    365c:	080c6c13          	ori	x24,x24,128
    3660:	94dff06f          	jal	x0,2fac <_vfprintf_r+0x198>
    3664:	000bcb03          	lbu	x22,0(x23)
    3668:	02a00793          	addi	x15,x0,42
    366c:	001b8693          	addi	x13,x23,1
    3670:	00fb1463          	bne	x22,x15,3678 <_vfprintf_r+0x864>
    3674:	2fc0206f          	jal	x0,5970 <_vfprintf_r+0x2b5c>
    3678:	00900613          	addi	x12,x0,9
    367c:	fd0b0713          	addi	x14,x22,-48
    3680:	00000a13          	addi	x20,x0,0
    3684:	02e66463          	bltu	x12,x14,36ac <_vfprintf_r+0x898>
    3688:	002a1793          	slli	x15,x20,0x2
    368c:	0006cb03          	lbu	x22,0(x13)
    3690:	014787b3          	add	x15,x15,x20
    3694:	00179793          	slli	x15,x15,0x1
    3698:	00e78a33          	add	x20,x15,x14
    369c:	fd0b0713          	addi	x14,x22,-48
    36a0:	00168693          	addi	x13,x13,1
    36a4:	fee672e3          	bgeu	x12,x14,3688 <_vfprintf_r+0x874>
    36a8:	460a48e3          	blt	x20,x0,4318 <_vfprintf_r+0x1504>
    36ac:	00068b93          	addi	x23,x13,0
    36b0:	901ff06f          	jal	x0,2fb0 <_vfprintf_r+0x19c>
    36b4:	00c12b03          	lw	x22,12(x2)
    36b8:	000b0513          	addi	x10,x22,0
    36bc:	341060ef          	jal	x1,a1fc <_localeconv_r>
    36c0:	00452783          	lw	x15,4(x10)
    36c4:	00078513          	addi	x10,x15,0
    36c8:	04f12023          	sw	x15,64(x2)
    36cc:	d64ff0ef          	jal	x1,2c30 <strlen>
    36d0:	00050793          	addi	x15,x10,0
    36d4:	000b0513          	addi	x10,x22,0
    36d8:	04f12423          	sw	x15,72(x2)
    36dc:	321060ef          	jal	x1,a1fc <_localeconv_r>
    36e0:	00852703          	lw	x14,8(x10)
    36e4:	04812783          	lw	x15,72(x2)
    36e8:	000bcb03          	lbu	x22,0(x23)
    36ec:	04e12223          	sw	x14,68(x2)
    36f0:	8a078ee3          	beq	x15,x0,2fac <_vfprintf_r+0x198>
    36f4:	8a070ce3          	beq	x14,x0,2fac <_vfprintf_r+0x198>
    36f8:	00074783          	lbu	x15,0(x14)
    36fc:	8a0788e3          	beq	x15,x0,2fac <_vfprintf_r+0x198>
    3700:	400c6c13          	ori	x24,x24,1024
    3704:	8a9ff06f          	jal	x0,2fac <_vfprintf_r+0x198>
    3708:	000bcb03          	lbu	x22,0(x23)
    370c:	001c6c13          	ori	x24,x24,1
    3710:	89dff06f          	jal	x0,2fac <_vfprintf_r+0x198>
    3714:	0b714783          	lbu	x15,183(x2)
    3718:	000bcb03          	lbu	x22,0(x23)
    371c:	880798e3          	bne	x15,x0,2fac <_vfprintf_r+0x198>
    3720:	02000793          	addi	x15,x0,32
    3724:	0af10ba3          	sb	x15,183(x2)
    3728:	885ff06f          	jal	x0,2fac <_vfprintf_r+0x198>
    372c:	020c7793          	andi	x15,x24,32
    3730:	000b8e13          	addi	x28,x23,0
    3734:	010c6713          	ori	x14,x24,16
    3738:	06079663          	bne	x15,x0,37a4 <_vfprintf_r+0x990>
    373c:	01812783          	lw	x15,24(x2)
    3740:	00478693          	addi	x13,x15,4
    3744:	01812783          	lw	x15,24(x2)
    3748:	00d12c23          	sw	x13,24(x2)
    374c:	00100693          	addi	x13,x0,1
    3750:	0007ad83          	lw	x27,0(x15)
    3754:	00000793          	addi	x15,x0,0
    3758:	00000613          	addi	x12,x0,0
    375c:	0ac10ba3          	sb	x12,183(x2)
    3760:	0c0a4263          	blt	x20,x0,3824 <_vfprintf_r+0xa10>
    3764:	00fde633          	or	x12,x27,x15
    3768:	f7f77c13          	andi	x24,x14,-129
    376c:	66061863          	bne	x12,x0,3ddc <_vfprintf_r+0xfc8>
    3770:	280a1e63          	bne	x20,x0,3a0c <_vfprintf_r+0xbf8>
    3774:	2c0698e3          	bne	x13,x0,4244 <_vfprintf_r+0x1430>
    3778:	00177713          	andi	x14,x14,1
    377c:	1a010a93          	addi	x21,x2,416
    3780:	e6070ee3          	beq	x14,x0,35fc <_vfprintf_r+0x7e8>
    3784:	03000793          	addi	x15,x0,48
    3788:	18f10fa3          	sb	x15,415(x2)
    378c:	19f10a93          	addi	x21,x2,415
    3790:	e6dff06f          	jal	x0,35fc <_vfprintf_r+0x7e8>
    3794:	020c7793          	andi	x15,x24,32
    3798:	000b8e13          	addi	x28,x23,0
    379c:	320786e3          	beq	x15,x0,42c8 <_vfprintf_r+0x14b4>
    37a0:	000c0713          	addi	x14,x24,0
    37a4:	01812783          	lw	x15,24(x2)
    37a8:	00778793          	addi	x15,x15,7
    37ac:	ff87f793          	andi	x15,x15,-8
    37b0:	00878693          	addi	x13,x15,8
    37b4:	0007ad83          	lw	x27,0(x15)
    37b8:	00d12c23          	sw	x13,24(x2)
    37bc:	0047a783          	lw	x15,4(x15)
    37c0:	00100693          	addi	x13,x0,1
    37c4:	f95ff06f          	jal	x0,3758 <_vfprintf_r+0x944>
    37c8:	000bcb03          	lbu	x22,0(x23)
    37cc:	008c6c13          	ori	x24,x24,8
    37d0:	fdcff06f          	jal	x0,2fac <_vfprintf_r+0x198>
    37d4:	020c7793          	andi	x15,x24,32
    37d8:	000b8e13          	addi	x28,x23,0
    37dc:	010c6713          	ori	x14,x24,16
    37e0:	0a079a63          	bne	x15,x0,3894 <_vfprintf_r+0xa80>
    37e4:	01812783          	lw	x15,24(x2)
    37e8:	00478693          	addi	x13,x15,4
    37ec:	01812783          	lw	x15,24(x2)
    37f0:	00d12c23          	sw	x13,24(x2)
    37f4:	0007ad83          	lw	x27,0(x15)
    37f8:	41fdd793          	srai	x15,x27,0x1f
    37fc:	00078693          	addi	x13,x15,0
    3800:	dc06dee3          	bge	x13,x0,35dc <_vfprintf_r+0x7c8>
    3804:	02d00613          	addi	x12,x0,45
    3808:	01b036b3          	sltu	x13,x0,x27
    380c:	40f007b3          	sub	x15,x0,x15
    3810:	0ac10ba3          	sb	x12,183(x2)
    3814:	40d787b3          	sub	x15,x15,x13
    3818:	41b00db3          	sub	x27,x0,x27
    381c:	00100693          	addi	x13,x0,1
    3820:	f40a52e3          	bge	x20,x0,3764 <_vfprintf_r+0x950>
    3824:	00100613          	addi	x12,x0,1
    3828:	08c68863          	beq	x13,x12,38b8 <_vfprintf_r+0xaa4>
    382c:	00200613          	addi	x12,x0,2
    3830:	1ec68c63          	beq	x13,x12,3a28 <_vfprintf_r+0xc14>
    3834:	1a010a93          	addi	x21,x2,416
    3838:	01d79613          	slli	x12,x15,0x1d
    383c:	007df693          	andi	x13,x27,7
    3840:	003ddd93          	srli	x27,x27,0x3
    3844:	000a8593          	addi	x11,x21,0
    3848:	03068693          	addi	x13,x13,48
    384c:	01b66db3          	or	x27,x12,x27
    3850:	0037d793          	srli	x15,x15,0x3
    3854:	00fde633          	or	x12,x27,x15
    3858:	feda8fa3          	sb	x13,-1(x21)
    385c:	fffa8a93          	addi	x21,x21,-1
    3860:	fc061ce3          	bne	x12,x0,3838 <_vfprintf_r+0xa24>
    3864:	00177793          	andi	x15,x14,1
    3868:	1e078a63          	beq	x15,x0,3a5c <_vfprintf_r+0xc48>
    386c:	03000793          	addi	x15,x0,48
    3870:	1ef68663          	beq	x13,x15,3a5c <_vfprintf_r+0xc48>
    3874:	ffe58593          	addi	x11,x11,-2 # 1ffe <memmove+0xb2>
    3878:	fefa8fa3          	sb	x15,-1(x21)
    387c:	1a010793          	addi	x15,x2,416
    3880:	00070c13          	addi	x24,x14,0
    3884:	00058a93          	addi	x21,x11,0
    3888:	40b78733          	sub	x14,x15,x11
    388c:	d71ff06f          	jal	x0,35fc <_vfprintf_r+0x7e8>
    3890:	000c0713          	addi	x14,x24,0
    3894:	01812783          	lw	x15,24(x2)
    3898:	00778793          	addi	x15,x15,7
    389c:	ff87f793          	andi	x15,x15,-8
    38a0:	0047a683          	lw	x13,4(x15)
    38a4:	00878613          	addi	x12,x15,8
    38a8:	0007ad83          	lw	x27,0(x15)
    38ac:	00c12c23          	sw	x12,24(x2)
    38b0:	00068793          	addi	x15,x13,0
    38b4:	d25ff06f          	jal	x0,35d8 <_vfprintf_r+0x7c4>
    38b8:	4c0794e3          	bne	x15,x0,4580 <_vfprintf_r+0x176c>
    38bc:	00900693          	addi	x13,x0,9
    38c0:	4db6e0e3          	bltu	x13,x27,4580 <_vfprintf_r+0x176c>
    38c4:	030d8d93          	addi	x27,x27,48
    38c8:	00070c13          	addi	x24,x14,0
    38cc:	19b10fa3          	sb	x27,415(x2)
    38d0:	00100713          	addi	x14,x0,1
    38d4:	19f10a93          	addi	x21,x2,415
    38d8:	d25ff06f          	jal	x0,35fc <_vfprintf_r+0x7e8>
    38dc:	020c7793          	andi	x15,x24,32
    38e0:	000b8e13          	addi	x28,x23,0
    38e4:	010c6713          	ori	x14,x24,16
    38e8:	1c0782e3          	beq	x15,x0,42ac <_vfprintf_r+0x1498>
    38ec:	01812783          	lw	x15,24(x2)
    38f0:	00778793          	addi	x15,x15,7
    38f4:	ff87f793          	andi	x15,x15,-8
    38f8:	00878693          	addi	x13,x15,8
    38fc:	0007ad83          	lw	x27,0(x15)
    3900:	0047a783          	lw	x15,4(x15)
    3904:	00d12c23          	sw	x13,24(x2)
    3908:	bff77713          	andi	x14,x14,-1025
    390c:	00000693          	addi	x13,x0,0
    3910:	e49ff06f          	jal	x0,3758 <_vfprintf_r+0x944>
    3914:	000bcb03          	lbu	x22,0(x23)
    3918:	06800793          	addi	x15,x0,104
    391c:	2afb0ae3          	beq	x22,x15,43d0 <_vfprintf_r+0x15bc>
    3920:	040c6c13          	ori	x24,x24,64
    3924:	e88ff06f          	jal	x0,2fac <_vfprintf_r+0x198>
    3928:	01812683          	lw	x13,24(x2)
    392c:	020c7793          	andi	x15,x24,32
    3930:	000b8e13          	addi	x28,x23,0
    3934:	00468713          	addi	x14,x13,4
    3938:	14079ce3          	bne	x15,x0,4290 <_vfprintf_r+0x147c>
    393c:	010c7793          	andi	x15,x24,16
    3940:	6a0796e3          	bne	x15,x0,47ec <_vfprintf_r+0x19d8>
    3944:	040c7793          	andi	x15,x24,64
    3948:	00078463          	beq	x15,x0,3950 <_vfprintf_r+0xb3c>
    394c:	5c00106f          	jal	x0,4f0c <_vfprintf_r+0x20f8>
    3950:	200c7313          	andi	x6,x24,512
    3954:	68030ce3          	beq	x6,x0,47ec <_vfprintf_r+0x19d8>
    3958:	01812783          	lw	x15,24(x2)
    395c:	01012683          	lw	x13,16(x2)
    3960:	00e12c23          	sw	x14,24(x2)
    3964:	0007a783          	lw	x15,0(x15)
    3968:	00d78023          	sb	x13,0(x15)
    396c:	000e0a93          	addi	x21,x28,0
    3970:	fdcff06f          	jal	x0,314c <_vfprintf_r+0x338>
    3974:	000bcb03          	lbu	x22,0(x23)
    3978:	06c00793          	addi	x15,x0,108
    397c:	24fb02e3          	beq	x22,x15,43c0 <_vfprintf_r+0x15ac>
    3980:	010c6c13          	ori	x24,x24,16
    3984:	e28ff06f          	jal	x0,2fac <_vfprintf_r+0x198>
    3988:	01812683          	lw	x13,24(x2)
    398c:	000087b7          	lui	x15,0x8
    3990:	83078793          	addi	x15,x15,-2000 # 7830 <__gdtoa+0x29c>
    3994:	0006ad83          	lw	x27,0(x13)
    3998:	00468693          	addi	x13,x13,4
    399c:	00d12c23          	sw	x13,24(x2)
    39a0:	0000e697          	auipc	x13,0xe
    39a4:	0d068693          	addi	x13,x13,208 # 11a70 <__clzsi2+0xd8>
    39a8:	0af11c23          	sh	x15,184(x2)
    39ac:	02d12a23          	sw	x13,52(x2)
    39b0:	000b8e13          	addi	x28,x23,0
    39b4:	002c6713          	ori	x14,x24,2
    39b8:	00000793          	addi	x15,x0,0
    39bc:	00200693          	addi	x13,x0,2
    39c0:	07800b13          	addi	x22,x0,120
    39c4:	d95ff06f          	jal	x0,3758 <_vfprintf_r+0x944>
    39c8:	020c7793          	andi	x15,x24,32
    39cc:	000b8e13          	addi	x28,x23,0
    39d0:	12079ae3          	bne	x15,x0,4304 <_vfprintf_r+0x14f0>
    39d4:	01812703          	lw	x14,24(x2)
    39d8:	010c7793          	andi	x15,x24,16
    39dc:	00072d83          	lw	x27,0(x14)
    39e0:	00470693          	addi	x13,x14,4
    39e4:	00078463          	beq	x15,x0,39ec <_vfprintf_r+0xbd8>
    39e8:	40d0106f          	jal	x0,55f4 <_vfprintf_r+0x27e0>
    39ec:	040c7793          	andi	x15,x24,64
    39f0:	72078ae3          	beq	x15,x0,4924 <_vfprintf_r+0x1b10>
    39f4:	010d9d93          	slli	x27,x27,0x10
    39f8:	010ddd93          	srli	x27,x27,0x10
    39fc:	00d12c23          	sw	x13,24(x2)
    3a00:	000c0713          	addi	x14,x24,0
    3a04:	00000793          	addi	x15,x0,0
    3a08:	f01ff06f          	jal	x0,3908 <_vfprintf_r+0xaf4>
    3a0c:	00100713          	addi	x14,x0,1
    3a10:	00e69463          	bne	x13,x14,3a18 <_vfprintf_r+0xc04>
    3a14:	5910106f          	jal	x0,57a4 <_vfprintf_r+0x2990>
    3a18:	00200713          	addi	x14,x0,2
    3a1c:	00e68463          	beq	x13,x14,3a24 <_vfprintf_r+0xc10>
    3a20:	4e40106f          	jal	x0,4f04 <_vfprintf_r+0x20f0>
    3a24:	000c0713          	addi	x14,x24,0
    3a28:	03412583          	lw	x11,52(x2)
    3a2c:	1a010a93          	addi	x21,x2,416
    3a30:	00fdf693          	andi	x13,x27,15
    3a34:	00d586b3          	add	x13,x11,x13
    3a38:	0006c683          	lbu	x13,0(x13)
    3a3c:	01c79613          	slli	x12,x15,0x1c
    3a40:	004ddd93          	srli	x27,x27,0x4
    3a44:	01b66db3          	or	x27,x12,x27
    3a48:	0047d793          	srli	x15,x15,0x4
    3a4c:	feda8fa3          	sb	x13,-1(x21)
    3a50:	00fde6b3          	or	x13,x27,x15
    3a54:	fffa8a93          	addi	x21,x21,-1
    3a58:	fc069ce3          	bne	x13,x0,3a30 <_vfprintf_r+0xc1c>
    3a5c:	1a010793          	addi	x15,x2,416
    3a60:	00070c13          	addi	x24,x14,0
    3a64:	41578733          	sub	x14,x15,x21
    3a68:	b95ff06f          	jal	x0,35fc <_vfprintf_r+0x7e8>
    3a6c:	06500793          	addi	x15,x0,101
    3a70:	9367dce3          	bge	x15,x22,33a8 <_vfprintf_r+0x594>
    3a74:	0e012503          	lw	x10,224(x2)
    3a78:	0e412583          	lw	x11,228(x2)
    3a7c:	0e812703          	lw	x14,232(x2)
    3a80:	0ec12783          	lw	x15,236(x2)
    3a84:	0aa12023          	sw	x10,160(x2)
    3a88:	0ab12223          	sw	x11,164(x2)
    3a8c:	0a010513          	addi	x10,x2,160
    3a90:	09010593          	addi	x11,x2,144
    3a94:	04c12623          	sw	x12,76(x2)
    3a98:	03c12c23          	sw	x28,56(x2)
    3a9c:	08012823          	sw	x0,144(x2)
    3aa0:	08012a23          	sw	x0,148(x2)
    3aa4:	08012c23          	sw	x0,152(x2)
    3aa8:	08012e23          	sw	x0,156(x2)
    3aac:	0ae12423          	sw	x14,168(x2)
    3ab0:	0af12623          	sw	x15,172(x2)
    3ab4:	5790a0ef          	jal	x1,e82c <__eqtf2>
    3ab8:	03812e03          	lw	x28,56(x2)
    3abc:	04c12603          	lw	x12,76(x2)
    3ac0:	54051863          	bne	x10,x0,4010 <_vfprintf_r+0x11fc>
    3ac4:	0d812783          	lw	x15,216(x2)
    3ac8:	00100713          	addi	x14,x0,1
    3acc:	00160613          	addi	x12,x12,1
    3ad0:	0000e597          	auipc	x11,0xe
    3ad4:	fd058593          	addi	x11,x11,-48 # 11aa0 <__clzsi2+0x108>
    3ad8:	00178793          	addi	x15,x15,1
    3adc:	00e92223          	sw	x14,4(x18)
    3ae0:	00b92023          	sw	x11,0(x18)
    3ae4:	0cc12e23          	sw	x12,220(x2)
    3ae8:	0cf12c23          	sw	x15,216(x2)
    3aec:	00700713          	addi	x14,x0,7
    3af0:	00890913          	addi	x18,x18,8
    3af4:	42f744e3          	blt	x14,x15,471c <_vfprintf_r+0x1908>
    3af8:	0bc12783          	lw	x15,188(x2)
    3afc:	02012703          	lw	x14,32(x2)
    3b00:	74e7d863          	bge	x15,x14,4250 <_vfprintf_r+0x143c>
    3b04:	02c12703          	lw	x14,44(x2)
    3b08:	0d812783          	lw	x15,216(x2)
    3b0c:	03012683          	lw	x13,48(x2)
    3b10:	00e60633          	add	x12,x12,x14
    3b14:	00178793          	addi	x15,x15,1
    3b18:	00e92223          	sw	x14,4(x18)
    3b1c:	00d92023          	sw	x13,0(x18)
    3b20:	0cc12e23          	sw	x12,220(x2)
    3b24:	0cf12c23          	sw	x15,216(x2)
    3b28:	00700713          	addi	x14,x0,7
    3b2c:	00890913          	addi	x18,x18,8
    3b30:	06f744e3          	blt	x14,x15,4398 <_vfprintf_r+0x1584>
    3b34:	02012783          	lw	x15,32(x2)
    3b38:	fff78a13          	addi	x20,x15,-1
    3b3c:	db405e63          	bge	x0,x20,30f8 <_vfprintf_r+0x2e4>
    3b40:	01000a93          	addi	x21,x0,16
    3b44:	0d812703          	lw	x14,216(x2)
    3b48:	0000e797          	auipc	x15,0xe
    3b4c:	3d478793          	addi	x15,x15,980 # 11f1c <zeroes.0>
    3b50:	414ad2e3          	bge	x21,x20,4754 <_vfprintf_r+0x1940>
    3b54:	00090693          	addi	x13,x18,0
    3b58:	000a8813          	addi	x16,x21,0
    3b5c:	000a0913          	addi	x18,x20,0
    3b60:	00700b13          	addi	x22,x0,7
    3b64:	000e0a13          	addi	x20,x28,0
    3b68:	00078b93          	addi	x23,x15,0
    3b6c:	00c0006f          	jal	x0,3b78 <_vfprintf_r+0xd64>
    3b70:	ff090913          	addi	x18,x18,-16
    3b74:	3d2858e3          	bge	x16,x18,4744 <_vfprintf_r+0x1930>
    3b78:	01060613          	addi	x12,x12,16
    3b7c:	00170713          	addi	x14,x14,1
    3b80:	0176a023          	sw	x23,0(x13)
    3b84:	0156a223          	sw	x21,4(x13)
    3b88:	0cc12e23          	sw	x12,220(x2)
    3b8c:	0ce12c23          	sw	x14,216(x2)
    3b90:	00868693          	addi	x13,x13,8
    3b94:	fceb5ee3          	bge	x22,x14,3b70 <_vfprintf_r+0xd5c>
    3b98:	00812583          	lw	x11,8(x2)
    3b9c:	00c12503          	lw	x10,12(x2)
    3ba0:	0d410613          	addi	x12,x2,212
    3ba4:	428020ef          	jal	x1,5fcc <__sprint_r>
    3ba8:	20051e63          	bne	x10,x0,3dc4 <_vfprintf_r+0xfb0>
    3bac:	0dc12603          	lw	x12,220(x2)
    3bb0:	0d812703          	lw	x14,216(x2)
    3bb4:	00098693          	addi	x13,x19,0
    3bb8:	01000813          	addi	x16,x0,16
    3bbc:	fb5ff06f          	jal	x0,3b70 <_vfprintf_r+0xd5c>
    3bc0:	41bd0833          	sub	x16,x26,x27
    3bc4:	d1005063          	bge	x0,x16,30c4 <_vfprintf_r+0x2b0>
    3bc8:	01000e93          	addi	x29,x0,16
    3bcc:	0d812583          	lw	x11,216(x2)
    3bd0:	0000e797          	auipc	x15,0xe
    3bd4:	34c78793          	addi	x15,x15,844 # 11f1c <zeroes.0>
    3bd8:	090ede63          	bge	x29,x16,3c74 <_vfprintf_r+0xe60>
    3bdc:	00070b93          	addi	x23,x14,0
    3be0:	05412623          	sw	x20,76(x2)
    3be4:	00090713          	addi	x14,x18,0
    3be8:	000e8f93          	addi	x31,x29,0
    3bec:	00700f13          	addi	x30,x0,7
    3bf0:	03c12c23          	sw	x28,56(x2)
    3bf4:	00080913          	addi	x18,x16,0
    3bf8:	00078a13          	addi	x20,x15,0
    3bfc:	00c0006f          	jal	x0,3c08 <_vfprintf_r+0xdf4>
    3c00:	ff090913          	addi	x18,x18,-16
    3c04:	052fdc63          	bge	x31,x18,3c5c <_vfprintf_r+0xe48>
    3c08:	01060613          	addi	x12,x12,16
    3c0c:	00158593          	addi	x11,x11,1
    3c10:	01472023          	sw	x20,0(x14)
    3c14:	01d72223          	sw	x29,4(x14)
    3c18:	0cc12e23          	sw	x12,220(x2)
    3c1c:	0cb12c23          	sw	x11,216(x2)
    3c20:	00870713          	addi	x14,x14,8
    3c24:	fcbf5ee3          	bge	x30,x11,3c00 <_vfprintf_r+0xdec>
    3c28:	00812583          	lw	x11,8(x2)
    3c2c:	00c12503          	lw	x10,12(x2)
    3c30:	0d410613          	addi	x12,x2,212
    3c34:	398020ef          	jal	x1,5fcc <__sprint_r>
    3c38:	18051663          	bne	x10,x0,3dc4 <_vfprintf_r+0xfb0>
    3c3c:	01000f93          	addi	x31,x0,16
    3c40:	ff090913          	addi	x18,x18,-16
    3c44:	0dc12603          	lw	x12,220(x2)
    3c48:	0d812583          	lw	x11,216(x2)
    3c4c:	00098713          	addi	x14,x19,0
    3c50:	00700f13          	addi	x30,x0,7
    3c54:	000f8e93          	addi	x29,x31,0
    3c58:	fb2fc8e3          	blt	x31,x18,3c08 <_vfprintf_r+0xdf4>
    3c5c:	000a0793          	addi	x15,x20,0
    3c60:	03812e03          	lw	x28,56(x2)
    3c64:	04c12a03          	lw	x20,76(x2)
    3c68:	00090813          	addi	x16,x18,0
    3c6c:	00070913          	addi	x18,x14,0
    3c70:	000b8713          	addi	x14,x23,0
    3c74:	01060633          	add	x12,x12,x16
    3c78:	00158593          	addi	x11,x11,1
    3c7c:	00f92023          	sw	x15,0(x18)
    3c80:	01092223          	sw	x16,4(x18)
    3c84:	0cc12e23          	sw	x12,220(x2)
    3c88:	0cb12c23          	sw	x11,216(x2)
    3c8c:	00700793          	addi	x15,x0,7
    3c90:	00890913          	addi	x18,x18,8
    3c94:	c2b7d863          	bge	x15,x11,30c4 <_vfprintf_r+0x2b0>
    3c98:	00812583          	lw	x11,8(x2)
    3c9c:	00c12503          	lw	x10,12(x2)
    3ca0:	0d410613          	addi	x12,x2,212
    3ca4:	05c12623          	sw	x28,76(x2)
    3ca8:	02e12c23          	sw	x14,56(x2)
    3cac:	320020ef          	jal	x1,5fcc <__sprint_r>
    3cb0:	10051a63          	bne	x10,x0,3dc4 <_vfprintf_r+0xfb0>
    3cb4:	0dc12603          	lw	x12,220(x2)
    3cb8:	04c12e03          	lw	x28,76(x2)
    3cbc:	03812703          	lw	x14,56(x2)
    3cc0:	00098913          	addi	x18,x19,0
    3cc4:	c00ff06f          	jal	x0,30c4 <_vfprintf_r+0x2b0>
    3cc8:	0d812583          	lw	x11,216(x2)
    3ccc:	0000e797          	auipc	x15,0xe
    3cd0:	25078793          	addi	x15,x15,592 # 11f1c <zeroes.0>
    3cd4:	0944d063          	bge	x9,x20,3d54 <_vfprintf_r+0xf40>
    3cd8:	02e12c23          	sw	x14,56(x2)
    3cdc:	000a0b93          	addi	x23,x20,0
    3ce0:	00090713          	addi	x14,x18,0
    3ce4:	000e0a13          	addi	x20,x28,0
    3ce8:	00078913          	addi	x18,x15,0
    3cec:	00c0006f          	jal	x0,3cf8 <_vfprintf_r+0xee4>
    3cf0:	ff0b8b93          	addi	x23,x23,-16
    3cf4:	0574d663          	bge	x9,x23,3d40 <_vfprintf_r+0xf2c>
    3cf8:	01060613          	addi	x12,x12,16
    3cfc:	00158593          	addi	x11,x11,1
    3d00:	01272023          	sw	x18,0(x14)
    3d04:	00972223          	sw	x9,4(x14)
    3d08:	0cc12e23          	sw	x12,220(x2)
    3d0c:	0cb12c23          	sw	x11,216(x2)
    3d10:	00870713          	addi	x14,x14,8
    3d14:	fcbcdee3          	bge	x25,x11,3cf0 <_vfprintf_r+0xedc>
    3d18:	00812583          	lw	x11,8(x2)
    3d1c:	00c12503          	lw	x10,12(x2)
    3d20:	0d410613          	addi	x12,x2,212
    3d24:	2a8020ef          	jal	x1,5fcc <__sprint_r>
    3d28:	08051e63          	bne	x10,x0,3dc4 <_vfprintf_r+0xfb0>
    3d2c:	ff0b8b93          	addi	x23,x23,-16
    3d30:	0dc12603          	lw	x12,220(x2)
    3d34:	0d812583          	lw	x11,216(x2)
    3d38:	00098713          	addi	x14,x19,0
    3d3c:	fb74cee3          	blt	x9,x23,3cf8 <_vfprintf_r+0xee4>
    3d40:	00090793          	addi	x15,x18,0
    3d44:	00070913          	addi	x18,x14,0
    3d48:	03812703          	lw	x14,56(x2)
    3d4c:	000a0e13          	addi	x28,x20,0
    3d50:	000b8a13          	addi	x20,x23,0
    3d54:	01460633          	add	x12,x12,x20
    3d58:	00158593          	addi	x11,x11,1
    3d5c:	00f92023          	sw	x15,0(x18)
    3d60:	01492223          	sw	x20,4(x18)
    3d64:	0cc12e23          	sw	x12,220(x2)
    3d68:	0cb12c23          	sw	x11,216(x2)
    3d6c:	00700793          	addi	x15,x0,7
    3d70:	00890913          	addi	x18,x18,8
    3d74:	b4b7dc63          	bge	x15,x11,30cc <_vfprintf_r+0x2b8>
    3d78:	00812583          	lw	x11,8(x2)
    3d7c:	00c12503          	lw	x10,12(x2)
    3d80:	0d410613          	addi	x12,x2,212
    3d84:	05c12623          	sw	x28,76(x2)
    3d88:	02e12c23          	sw	x14,56(x2)
    3d8c:	240020ef          	jal	x1,5fcc <__sprint_r>
    3d90:	02051a63          	bne	x10,x0,3dc4 <_vfprintf_r+0xfb0>
    3d94:	0dc12603          	lw	x12,220(x2)
    3d98:	04c12e03          	lw	x28,76(x2)
    3d9c:	03812703          	lw	x14,56(x2)
    3da0:	00098913          	addi	x18,x19,0
    3da4:	b28ff06f          	jal	x0,30cc <_vfprintf_r+0x2b8>
    3da8:	00812583          	lw	x11,8(x2)
    3dac:	00c12503          	lw	x10,12(x2)
    3db0:	0d410613          	addi	x12,x2,212
    3db4:	01c12e23          	sw	x28,28(x2)
    3db8:	214020ef          	jal	x1,5fcc <__sprint_r>
    3dbc:	01c12e03          	lw	x28,28(x2)
    3dc0:	b6050263          	beq	x10,x0,3124 <_vfprintf_r+0x310>
    3dc4:	01412383          	lw	x7,20(x2)
    3dc8:	b8038c63          	beq	x7,x0,3160 <_vfprintf_r+0x34c>
    3dcc:	00c12503          	lw	x10,12(x2)
    3dd0:	00038593          	addi	x11,x7,0
    3dd4:	c91fd0ef          	jal	x1,1a64 <_free_r>
    3dd8:	b88ff06f          	jal	x0,3160 <_vfprintf_r+0x34c>
    3ddc:	000c0713          	addi	x14,x24,0
    3de0:	a45ff06f          	jal	x0,3824 <_vfprintf_r+0xa10>
    3de4:	01000f93          	addi	x31,x0,16
    3de8:	0d812583          	lw	x11,216(x2)
    3dec:	0000e817          	auipc	x16,0xe
    3df0:	12080813          	addi	x16,x16,288 # 11f0c <blanks.1>
    3df4:	0affd663          	bge	x31,x15,3ea0 <_vfprintf_r+0x108c>
    3df8:	00070b93          	addi	x23,x14,0
    3dfc:	05412a23          	sw	x20,84(x2)
    3e00:	00090713          	addi	x14,x18,0
    3e04:	000f8393          	addi	x7,x31,0
    3e08:	00700293          	addi	x5,x0,7
    3e0c:	03e12c23          	sw	x30,56(x2)
    3e10:	05d12623          	sw	x29,76(x2)
    3e14:	05c12823          	sw	x28,80(x2)
    3e18:	00078913          	addi	x18,x15,0
    3e1c:	00080a13          	addi	x20,x16,0
    3e20:	00c0006f          	jal	x0,3e2c <_vfprintf_r+0x1018>
    3e24:	ff090913          	addi	x18,x18,-16
    3e28:	0523dc63          	bge	x7,x18,3e80 <_vfprintf_r+0x106c>
    3e2c:	01060613          	addi	x12,x12,16
    3e30:	00158593          	addi	x11,x11,1
    3e34:	01472023          	sw	x20,0(x14)
    3e38:	01f72223          	sw	x31,4(x14)
    3e3c:	0cc12e23          	sw	x12,220(x2)
    3e40:	0cb12c23          	sw	x11,216(x2)
    3e44:	00870713          	addi	x14,x14,8
    3e48:	fcb2dee3          	bge	x5,x11,3e24 <_vfprintf_r+0x1010>
    3e4c:	00812583          	lw	x11,8(x2)
    3e50:	00c12503          	lw	x10,12(x2)
    3e54:	0d410613          	addi	x12,x2,212
    3e58:	174020ef          	jal	x1,5fcc <__sprint_r>
    3e5c:	f60514e3          	bne	x10,x0,3dc4 <_vfprintf_r+0xfb0>
    3e60:	01000393          	addi	x7,x0,16
    3e64:	ff090913          	addi	x18,x18,-16
    3e68:	0dc12603          	lw	x12,220(x2)
    3e6c:	0d812583          	lw	x11,216(x2)
    3e70:	00098713          	addi	x14,x19,0
    3e74:	00700293          	addi	x5,x0,7
    3e78:	00038f93          	addi	x31,x7,0
    3e7c:	fb23c8e3          	blt	x7,x18,3e2c <_vfprintf_r+0x1018>
    3e80:	000a0813          	addi	x16,x20,0
    3e84:	03812f03          	lw	x30,56(x2)
    3e88:	04c12e83          	lw	x29,76(x2)
    3e8c:	05012e03          	lw	x28,80(x2)
    3e90:	05412a03          	lw	x20,84(x2)
    3e94:	00090793          	addi	x15,x18,0
    3e98:	00070913          	addi	x18,x14,0
    3e9c:	000b8713          	addi	x14,x23,0
    3ea0:	00f60633          	add	x12,x12,x15
    3ea4:	00158593          	addi	x11,x11,1
    3ea8:	00f92223          	sw	x15,4(x18)
    3eac:	01092023          	sw	x16,0(x18)
    3eb0:	0cc12e23          	sw	x12,220(x2)
    3eb4:	0cb12c23          	sw	x11,216(x2)
    3eb8:	00700793          	addi	x15,x0,7
    3ebc:	00890913          	addi	x18,x18,8
    3ec0:	98b7dc63          	bge	x15,x11,3058 <_vfprintf_r+0x244>
    3ec4:	00812583          	lw	x11,8(x2)
    3ec8:	00c12503          	lw	x10,12(x2)
    3ecc:	0d410613          	addi	x12,x2,212
    3ed0:	05c12a23          	sw	x28,84(x2)
    3ed4:	04e12823          	sw	x14,80(x2)
    3ed8:	05d12623          	sw	x29,76(x2)
    3edc:	03e12c23          	sw	x30,56(x2)
    3ee0:	0ec020ef          	jal	x1,5fcc <__sprint_r>
    3ee4:	ee0510e3          	bne	x10,x0,3dc4 <_vfprintf_r+0xfb0>
    3ee8:	0dc12603          	lw	x12,220(x2)
    3eec:	05412e03          	lw	x28,84(x2)
    3ef0:	05012703          	lw	x14,80(x2)
    3ef4:	04c12e83          	lw	x29,76(x2)
    3ef8:	03812f03          	lw	x30,56(x2)
    3efc:	00098913          	addi	x18,x19,0
    3f00:	958ff06f          	jal	x0,3058 <_vfprintf_r+0x244>
    3f04:	00812583          	lw	x11,8(x2)
    3f08:	00c12503          	lw	x10,12(x2)
    3f0c:	0d410613          	addi	x12,x2,212
    3f10:	05c12823          	sw	x28,80(x2)
    3f14:	04e12623          	sw	x14,76(x2)
    3f18:	03d12c23          	sw	x29,56(x2)
    3f1c:	0b0020ef          	jal	x1,5fcc <__sprint_r>
    3f20:	ea0512e3          	bne	x10,x0,3dc4 <_vfprintf_r+0xfb0>
    3f24:	0dc12603          	lw	x12,220(x2)
    3f28:	05012e03          	lw	x28,80(x2)
    3f2c:	04c12703          	lw	x14,76(x2)
    3f30:	03812e83          	lw	x29,56(x2)
    3f34:	00098913          	addi	x18,x19,0
    3f38:	984ff06f          	jal	x0,30bc <_vfprintf_r+0x2a8>
    3f3c:	01000a93          	addi	x21,x0,16
    3f40:	0d812783          	lw	x15,216(x2)
    3f44:	0000e817          	auipc	x16,0xe
    3f48:	fc880813          	addi	x16,x16,-56 # 11f0c <blanks.1>
    3f4c:	094ad063          	bge	x21,x20,3fcc <_vfprintf_r+0x11b8>
    3f50:	00090713          	addi	x14,x18,0
    3f54:	000a8c13          	addi	x24,x21,0
    3f58:	000a0913          	addi	x18,x20,0
    3f5c:	00700b13          	addi	x22,x0,7
    3f60:	000e0a13          	addi	x20,x28,0
    3f64:	00080b93          	addi	x23,x16,0
    3f68:	00c0006f          	jal	x0,3f74 <_vfprintf_r+0x1160>
    3f6c:	ff090913          	addi	x18,x18,-16
    3f70:	052c5663          	bge	x24,x18,3fbc <_vfprintf_r+0x11a8>
    3f74:	01060613          	addi	x12,x12,16
    3f78:	00178793          	addi	x15,x15,1
    3f7c:	01772023          	sw	x23,0(x14)
    3f80:	01572223          	sw	x21,4(x14)
    3f84:	0cc12e23          	sw	x12,220(x2)
    3f88:	0cf12c23          	sw	x15,216(x2)
    3f8c:	00870713          	addi	x14,x14,8
    3f90:	fcfb5ee3          	bge	x22,x15,3f6c <_vfprintf_r+0x1158>
    3f94:	00812583          	lw	x11,8(x2)
    3f98:	00c12503          	lw	x10,12(x2)
    3f9c:	0d410613          	addi	x12,x2,212
    3fa0:	02c020ef          	jal	x1,5fcc <__sprint_r>
    3fa4:	e20510e3          	bne	x10,x0,3dc4 <_vfprintf_r+0xfb0>
    3fa8:	ff090913          	addi	x18,x18,-16
    3fac:	0dc12603          	lw	x12,220(x2)
    3fb0:	0d812783          	lw	x15,216(x2)
    3fb4:	00098713          	addi	x14,x19,0
    3fb8:	fb2c4ee3          	blt	x24,x18,3f74 <_vfprintf_r+0x1160>
    3fbc:	000a0e13          	addi	x28,x20,0
    3fc0:	000b8813          	addi	x16,x23,0
    3fc4:	00090a13          	addi	x20,x18,0
    3fc8:	00070913          	addi	x18,x14,0
    3fcc:	01460633          	add	x12,x12,x20
    3fd0:	00178793          	addi	x15,x15,1
    3fd4:	0cc12e23          	sw	x12,220(x2)
    3fd8:	0cf12c23          	sw	x15,216(x2)
    3fdc:	01092023          	sw	x16,0(x18)
    3fe0:	01492223          	sw	x20,4(x18)
    3fe4:	00700713          	addi	x14,x0,7
    3fe8:	92f75063          	bge	x14,x15,3108 <_vfprintf_r+0x2f4>
    3fec:	00812583          	lw	x11,8(x2)
    3ff0:	00c12503          	lw	x10,12(x2)
    3ff4:	0d410613          	addi	x12,x2,212
    3ff8:	01c12e23          	sw	x28,28(x2)
    3ffc:	7d1010ef          	jal	x1,5fcc <__sprint_r>
    4000:	dc0512e3          	bne	x10,x0,3dc4 <_vfprintf_r+0xfb0>
    4004:	0dc12603          	lw	x12,220(x2)
    4008:	01c12e03          	lw	x28,28(x2)
    400c:	8fcff06f          	jal	x0,3108 <_vfprintf_r+0x2f4>
    4010:	0bc12583          	lw	x11,188(x2)
    4014:	66b05c63          	bge	x0,x11,468c <_vfprintf_r+0x1878>
    4018:	01c12783          	lw	x15,28(x2)
    401c:	02012703          	lw	x14,32(x2)
    4020:	00078a13          	addi	x20,x15,0
    4024:	2ef74463          	blt	x14,x15,430c <_vfprintf_r+0x14f8>
    4028:	03405663          	bge	x0,x20,4054 <_vfprintf_r+0x1240>
    402c:	0d812783          	lw	x15,216(x2)
    4030:	01460633          	add	x12,x12,x20
    4034:	01592023          	sw	x21,0(x18)
    4038:	00178793          	addi	x15,x15,1
    403c:	01492223          	sw	x20,4(x18)
    4040:	0cc12e23          	sw	x12,220(x2)
    4044:	0cf12c23          	sw	x15,216(x2)
    4048:	00700713          	addi	x14,x0,7
    404c:	00890913          	addi	x18,x18,8
    4050:	68f740e3          	blt	x14,x15,4ed0 <_vfprintf_r+0x20bc>
    4054:	fffa4793          	xori	x15,x20,-1
    4058:	41f7d793          	srai	x15,x15,0x1f
    405c:	00fa7a33          	and	x20,x20,x15
    4060:	01c12783          	lw	x15,28(x2)
    4064:	41478a33          	sub	x20,x15,x20
    4068:	39404c63          	blt	x0,x20,4400 <_vfprintf_r+0x15ec>
    406c:	01c12703          	lw	x14,28(x2)
    4070:	400c7793          	andi	x15,x24,1024
    4074:	00ea8eb3          	add	x29,x21,x14
    4078:	140796e3          	bne	x15,x0,49c4 <_vfprintf_r+0x1bb0>
    407c:	0bc12a03          	lw	x20,188(x2)
    4080:	02012783          	lw	x15,32(x2)
    4084:	40fa4063          	blt	x20,x15,4484 <_vfprintf_r+0x1670>
    4088:	001c7793          	andi	x15,x24,1
    408c:	3e079c63          	bne	x15,x0,4484 <_vfprintf_r+0x1670>
    4090:	02012783          	lw	x15,32(x2)
    4094:	00fa8ab3          	add	x21,x21,x15
    4098:	41da8ab3          	sub	x21,x21,x29
    409c:	41478a33          	sub	x20,x15,x20
    40a0:	015a5463          	bge	x20,x21,40a8 <_vfprintf_r+0x1294>
    40a4:	000a0a93          	addi	x21,x20,0
    40a8:	03505863          	bge	x0,x21,40d8 <_vfprintf_r+0x12c4>
    40ac:	0d812783          	lw	x15,216(x2)
    40b0:	01560633          	add	x12,x12,x21
    40b4:	01d92023          	sw	x29,0(x18)
    40b8:	00178793          	addi	x15,x15,1
    40bc:	01592223          	sw	x21,4(x18)
    40c0:	0cc12e23          	sw	x12,220(x2)
    40c4:	0cf12c23          	sw	x15,216(x2)
    40c8:	00700713          	addi	x14,x0,7
    40cc:	00890913          	addi	x18,x18,8
    40d0:	00f75463          	bge	x14,x15,40d8 <_vfprintf_r+0x12c4>
    40d4:	4e80106f          	jal	x0,55bc <_vfprintf_r+0x27a8>
    40d8:	fffac793          	xori	x15,x21,-1
    40dc:	41f7d793          	srai	x15,x15,0x1f
    40e0:	00fafab3          	and	x21,x21,x15
    40e4:	415a0a33          	sub	x20,x20,x21
    40e8:	01404463          	blt	x0,x20,40f0 <_vfprintf_r+0x12dc>
    40ec:	80cff06f          	jal	x0,30f8 <_vfprintf_r+0x2e4>
    40f0:	01000a93          	addi	x21,x0,16
    40f4:	0d812703          	lw	x14,216(x2)
    40f8:	0000e797          	auipc	x15,0xe
    40fc:	e2478793          	addi	x15,x15,-476 # 11f1c <zeroes.0>
    4100:	654ada63          	bge	x21,x20,4754 <_vfprintf_r+0x1940>
    4104:	00090693          	addi	x13,x18,0
    4108:	000a8813          	addi	x16,x21,0
    410c:	000a0913          	addi	x18,x20,0
    4110:	00700b13          	addi	x22,x0,7
    4114:	000e0a13          	addi	x20,x28,0
    4118:	00078b93          	addi	x23,x15,0
    411c:	00c0006f          	jal	x0,4128 <_vfprintf_r+0x1314>
    4120:	ff090913          	addi	x18,x18,-16
    4124:	63285063          	bge	x16,x18,4744 <_vfprintf_r+0x1930>
    4128:	01060613          	addi	x12,x12,16
    412c:	00170713          	addi	x14,x14,1
    4130:	0176a023          	sw	x23,0(x13)
    4134:	0156a223          	sw	x21,4(x13)
    4138:	0cc12e23          	sw	x12,220(x2)
    413c:	0ce12c23          	sw	x14,216(x2)
    4140:	00868693          	addi	x13,x13,8
    4144:	fceb5ee3          	bge	x22,x14,4120 <_vfprintf_r+0x130c>
    4148:	00812583          	lw	x11,8(x2)
    414c:	00c12503          	lw	x10,12(x2)
    4150:	0d410613          	addi	x12,x2,212
    4154:	679010ef          	jal	x1,5fcc <__sprint_r>
    4158:	c60516e3          	bne	x10,x0,3dc4 <_vfprintf_r+0xfb0>
    415c:	0dc12603          	lw	x12,220(x2)
    4160:	0d812703          	lw	x14,216(x2)
    4164:	00098693          	addi	x13,x19,0
    4168:	01000813          	addi	x16,x0,16
    416c:	fb5ff06f          	jal	x0,4120 <_vfprintf_r+0x130c>
    4170:	00ec77b3          	and	x15,x24,x14
    4174:	a4079863          	bne	x15,x0,33c4 <_vfprintf_r+0x5b0>
    4178:	01592023          	sw	x21,0(x18)
    417c:	00e92223          	sw	x14,4(x18)
    4180:	0cc12e23          	sw	x12,220(x2)
    4184:	0d412c23          	sw	x20,216(x2)
    4188:	00700793          	addi	x15,x0,7
    418c:	b147d463          	bge	x15,x20,3494 <_vfprintf_r+0x680>
    4190:	00812583          	lw	x11,8(x2)
    4194:	00c12503          	lw	x10,12(x2)
    4198:	0d410613          	addi	x12,x2,212
    419c:	01c12e23          	sw	x28,28(x2)
    41a0:	62d010ef          	jal	x1,5fcc <__sprint_r>
    41a4:	c20510e3          	bne	x10,x0,3dc4 <_vfprintf_r+0xfb0>
    41a8:	0dc12603          	lw	x12,220(x2)
    41ac:	0d812a03          	lw	x20,216(x2)
    41b0:	01c12e03          	lw	x28,28(x2)
    41b4:	00098b13          	addi	x22,x19,0
    41b8:	adcff06f          	jal	x0,3494 <_vfprintf_r+0x680>
    41bc:	02012703          	lw	x14,32(x2)
    41c0:	00100793          	addi	x15,x0,1
    41c4:	ace7d863          	bge	x15,x14,3494 <_vfprintf_r+0x680>
    41c8:	01100793          	addi	x15,x0,17
    41cc:	00e7c463          	blt	x15,x14,41d4 <_vfprintf_r+0x13c0>
    41d0:	7600106f          	jal	x0,5930 <_vfprintf_r+0x2b1c>
    41d4:	0000e797          	auipc	x15,0xe
    41d8:	d4878793          	addi	x15,x15,-696 # 11f1c <zeroes.0>
    41dc:	000b0693          	addi	x13,x22,0
    41e0:	01000a93          	addi	x21,x0,16
    41e4:	00700713          	addi	x14,x0,7
    41e8:	000e0b13          	addi	x22,x28,0
    41ec:	00078b93          	addi	x23,x15,0
    41f0:	00c0006f          	jal	x0,41fc <_vfprintf_r+0x13e8>
    41f4:	ff090913          	addi	x18,x18,-16
    41f8:	6b2ada63          	bge	x21,x18,48ac <_vfprintf_r+0x1a98>
    41fc:	01060613          	addi	x12,x12,16
    4200:	001a0a13          	addi	x20,x20,1
    4204:	0176a023          	sw	x23,0(x13)
    4208:	0156a223          	sw	x21,4(x13)
    420c:	0cc12e23          	sw	x12,220(x2)
    4210:	0d412c23          	sw	x20,216(x2)
    4214:	00868693          	addi	x13,x13,8
    4218:	fd475ee3          	bge	x14,x20,41f4 <_vfprintf_r+0x13e0>
    421c:	00812583          	lw	x11,8(x2)
    4220:	00c12503          	lw	x10,12(x2)
    4224:	0d410613          	addi	x12,x2,212
    4228:	5a5010ef          	jal	x1,5fcc <__sprint_r>
    422c:	b8051ce3          	bne	x10,x0,3dc4 <_vfprintf_r+0xfb0>
    4230:	0dc12603          	lw	x12,220(x2)
    4234:	0d812a03          	lw	x20,216(x2)
    4238:	00098693          	addi	x13,x19,0
    423c:	00700713          	addi	x14,x0,7
    4240:	fb5ff06f          	jal	x0,41f4 <_vfprintf_r+0x13e0>
    4244:	00000713          	addi	x14,x0,0
    4248:	1a010a93          	addi	x21,x2,416
    424c:	bb0ff06f          	jal	x0,35fc <_vfprintf_r+0x7e8>
    4250:	001c7793          	andi	x15,x24,1
    4254:	00079463          	bne	x15,x0,425c <_vfprintf_r+0x1448>
    4258:	ea1fe06f          	jal	x0,30f8 <_vfprintf_r+0x2e4>
    425c:	8a9ff06f          	jal	x0,3b04 <_vfprintf_r+0xcf0>
    4260:	000bcb03          	lbu	x22,0(x23)
    4264:	00f12c23          	sw	x15,24(x2)
    4268:	d45fe06f          	jal	x0,2fac <_vfprintf_r+0x198>
    426c:	01812703          	lw	x14,24(x2)
    4270:	00072783          	lw	x15,0(x14)
    4274:	00470713          	addi	x14,x14,4
    4278:	00e12c23          	sw	x14,24(x2)
    427c:	0007a603          	lw	x12,0(x15)
    4280:	0047a683          	lw	x13,4(x15)
    4284:	0087a703          	lw	x14,8(x15)
    4288:	00c7a783          	lw	x15,12(x15)
    428c:	80cff06f          	jal	x0,3298 <_vfprintf_r+0x484>
    4290:	01012603          	lw	x12,16(x2)
    4294:	0006a783          	lw	x15,0(x13)
    4298:	00e12c23          	sw	x14,24(x2)
    429c:	41f65693          	srai	x13,x12,0x1f
    42a0:	00c7a023          	sw	x12,0(x15)
    42a4:	00d7a223          	sw	x13,4(x15)
    42a8:	ec4ff06f          	jal	x0,396c <_vfprintf_r+0xb58>
    42ac:	01812783          	lw	x15,24(x2)
    42b0:	00478693          	addi	x13,x15,4
    42b4:	01812783          	lw	x15,24(x2)
    42b8:	00d12c23          	sw	x13,24(x2)
    42bc:	0007ad83          	lw	x27,0(x15)
    42c0:	00000793          	addi	x15,x0,0
    42c4:	e44ff06f          	jal	x0,3908 <_vfprintf_r+0xaf4>
    42c8:	01812703          	lw	x14,24(x2)
    42cc:	010c7793          	andi	x15,x24,16
    42d0:	00072d83          	lw	x27,0(x14)
    42d4:	00470693          	addi	x13,x14,4
    42d8:	00078463          	beq	x15,x0,42e0 <_vfprintf_r+0x14cc>
    42dc:	4880106f          	jal	x0,5764 <_vfprintf_r+0x2950>
    42e0:	040c7793          	andi	x15,x24,64
    42e4:	62078063          	beq	x15,x0,4904 <_vfprintf_r+0x1af0>
    42e8:	010d9d93          	slli	x27,x27,0x10
    42ec:	00d12c23          	sw	x13,24(x2)
    42f0:	010ddd93          	srli	x27,x27,0x10
    42f4:	000c0713          	addi	x14,x24,0
    42f8:	00000793          	addi	x15,x0,0
    42fc:	00100693          	addi	x13,x0,1
    4300:	c58ff06f          	jal	x0,3758 <_vfprintf_r+0x944>
    4304:	000c0713          	addi	x14,x24,0
    4308:	de4ff06f          	jal	x0,38ec <_vfprintf_r+0xad8>
    430c:	00070a13          	addi	x20,x14,0
    4310:	d1404ee3          	blt	x0,x20,402c <_vfprintf_r+0x1218>
    4314:	d41ff06f          	jal	x0,4054 <_vfprintf_r+0x1240>
    4318:	fff00a13          	addi	x20,x0,-1
    431c:	00068b93          	addi	x23,x13,0
    4320:	c91fe06f          	jal	x0,2fb0 <_vfprintf_r+0x19c>
    4324:	0000d797          	auipc	x15,0xd
    4328:	76078793          	addi	x15,x15,1888 # 11a84 <__clzsi2+0xec>
    432c:	000b8e13          	addi	x28,x23,0
    4330:	02f12a23          	sw	x15,52(x2)
    4334:	020c7793          	andi	x15,x24,32
    4338:	1a078863          	beq	x15,x0,44e8 <_vfprintf_r+0x16d4>
    433c:	01812783          	lw	x15,24(x2)
    4340:	00778793          	addi	x15,x15,7
    4344:	ff87f793          	andi	x15,x15,-8
    4348:	00878713          	addi	x14,x15,8
    434c:	0007ad83          	lw	x27,0(x15)
    4350:	0047a783          	lw	x15,4(x15)
    4354:	00e12c23          	sw	x14,24(x2)
    4358:	001c7713          	andi	x14,x24,1
    435c:	00070e63          	beq	x14,x0,4378 <_vfprintf_r+0x1564>
    4360:	00fde733          	or	x14,x27,x15
    4364:	00070a63          	beq	x14,x0,4378 <_vfprintf_r+0x1564>
    4368:	03000713          	addi	x14,x0,48
    436c:	0b610ca3          	sb	x22,185(x2)
    4370:	002c6c13          	ori	x24,x24,2
    4374:	0ae10c23          	sb	x14,184(x2)
    4378:	bffc7713          	andi	x14,x24,-1025
    437c:	00200693          	addi	x13,x0,2
    4380:	bd8ff06f          	jal	x0,3758 <_vfprintf_r+0x944>
    4384:	0000d797          	auipc	x15,0xd
    4388:	6ec78793          	addi	x15,x15,1772 # 11a70 <__clzsi2+0xd8>
    438c:	000b8e13          	addi	x28,x23,0
    4390:	02f12a23          	sw	x15,52(x2)
    4394:	fa1ff06f          	jal	x0,4334 <_vfprintf_r+0x1520>
    4398:	00812583          	lw	x11,8(x2)
    439c:	00c12503          	lw	x10,12(x2)
    43a0:	0d410613          	addi	x12,x2,212
    43a4:	01c12e23          	sw	x28,28(x2)
    43a8:	425010ef          	jal	x1,5fcc <__sprint_r>
    43ac:	a0051ce3          	bne	x10,x0,3dc4 <_vfprintf_r+0xfb0>
    43b0:	0dc12603          	lw	x12,220(x2)
    43b4:	01c12e03          	lw	x28,28(x2)
    43b8:	00098913          	addi	x18,x19,0
    43bc:	f78ff06f          	jal	x0,3b34 <_vfprintf_r+0xd20>
    43c0:	001bcb03          	lbu	x22,1(x23)
    43c4:	020c6c13          	ori	x24,x24,32
    43c8:	001b8b93          	addi	x23,x23,1
    43cc:	be1fe06f          	jal	x0,2fac <_vfprintf_r+0x198>
    43d0:	001bcb03          	lbu	x22,1(x23)
    43d4:	200c6c13          	ori	x24,x24,512
    43d8:	001b8b93          	addi	x23,x23,1
    43dc:	bd1fe06f          	jal	x0,2fac <_vfprintf_r+0x198>
    43e0:	00600793          	addi	x15,x0,6
    43e4:	000a0713          	addi	x14,x20,0
    43e8:	3147eae3          	bltu	x15,x20,4efc <_vfprintf_r+0x20e8>
    43ec:	01712c23          	sw	x23,24(x2)
    43f0:	00070d93          	addi	x27,x14,0
    43f4:	0000da97          	auipc	x21,0xd
    43f8:	6a4a8a93          	addi	x21,x21,1700 # 11a98 <__clzsi2+0x100>
    43fc:	c29fe06f          	jal	x0,3024 <_vfprintf_r+0x210>
    4400:	01000b13          	addi	x22,x0,16
    4404:	0d812583          	lw	x11,216(x2)
    4408:	0000e797          	auipc	x15,0xe
    440c:	b1478793          	addi	x15,x15,-1260 # 11f1c <zeroes.0>
    4410:	574b5463          	bge	x22,x20,4978 <_vfprintf_r+0x1b64>
    4414:	00090693          	addi	x13,x18,0
    4418:	000b0813          	addi	x16,x22,0
    441c:	000a0913          	addi	x18,x20,0
    4420:	00700713          	addi	x14,x0,7
    4424:	000e0a13          	addi	x20,x28,0
    4428:	00078b93          	addi	x23,x15,0
    442c:	00c0006f          	jal	x0,4438 <_vfprintf_r+0x1624>
    4430:	ff090913          	addi	x18,x18,-16
    4434:	53285a63          	bge	x16,x18,4968 <_vfprintf_r+0x1b54>
    4438:	01060613          	addi	x12,x12,16
    443c:	00158593          	addi	x11,x11,1
    4440:	0176a023          	sw	x23,0(x13)
    4444:	0166a223          	sw	x22,4(x13)
    4448:	0cc12e23          	sw	x12,220(x2)
    444c:	0cb12c23          	sw	x11,216(x2)
    4450:	00868693          	addi	x13,x13,8
    4454:	fcb75ee3          	bge	x14,x11,4430 <_vfprintf_r+0x161c>
    4458:	00812583          	lw	x11,8(x2)
    445c:	00c12503          	lw	x10,12(x2)
    4460:	0d410613          	addi	x12,x2,212
    4464:	369010ef          	jal	x1,5fcc <__sprint_r>
    4468:	94051ee3          	bne	x10,x0,3dc4 <_vfprintf_r+0xfb0>
    446c:	0dc12603          	lw	x12,220(x2)
    4470:	0d812583          	lw	x11,216(x2)
    4474:	00098693          	addi	x13,x19,0
    4478:	00700713          	addi	x14,x0,7
    447c:	01000813          	addi	x16,x0,16
    4480:	fb1ff06f          	jal	x0,4430 <_vfprintf_r+0x161c>
    4484:	02c12703          	lw	x14,44(x2)
    4488:	0d812783          	lw	x15,216(x2)
    448c:	03012683          	lw	x13,48(x2)
    4490:	00e60633          	add	x12,x12,x14
    4494:	00178793          	addi	x15,x15,1
    4498:	00e92223          	sw	x14,4(x18)
    449c:	00d92023          	sw	x13,0(x18)
    44a0:	0cc12e23          	sw	x12,220(x2)
    44a4:	0cf12c23          	sw	x15,216(x2)
    44a8:	00700713          	addi	x14,x0,7
    44ac:	00890913          	addi	x18,x18,8
    44b0:	bef750e3          	bge	x14,x15,4090 <_vfprintf_r+0x127c>
    44b4:	00812583          	lw	x11,8(x2)
    44b8:	00c12503          	lw	x10,12(x2)
    44bc:	0d410613          	addi	x12,x2,212
    44c0:	03d12223          	sw	x29,36(x2)
    44c4:	01c12e23          	sw	x28,28(x2)
    44c8:	305010ef          	jal	x1,5fcc <__sprint_r>
    44cc:	8e051ce3          	bne	x10,x0,3dc4 <_vfprintf_r+0xfb0>
    44d0:	0bc12a03          	lw	x20,188(x2)
    44d4:	0dc12603          	lw	x12,220(x2)
    44d8:	02412e83          	lw	x29,36(x2)
    44dc:	01c12e03          	lw	x28,28(x2)
    44e0:	00098913          	addi	x18,x19,0
    44e4:	badff06f          	jal	x0,4090 <_vfprintf_r+0x127c>
    44e8:	01812703          	lw	x14,24(x2)
    44ec:	010c7793          	andi	x15,x24,16
    44f0:	00072d83          	lw	x27,0(x14)
    44f4:	00470713          	addi	x14,x14,4
    44f8:	00e12c23          	sw	x14,24(x2)
    44fc:	06079e63          	bne	x15,x0,4578 <_vfprintf_r+0x1764>
    4500:	040c7793          	andi	x15,x24,64
    4504:	06078663          	beq	x15,x0,4570 <_vfprintf_r+0x175c>
    4508:	010d9d93          	slli	x27,x27,0x10
    450c:	010ddd93          	srli	x27,x27,0x10
    4510:	00000793          	addi	x15,x0,0
    4514:	e45ff06f          	jal	x0,4358 <_vfprintf_r+0x1544>
    4518:	00812583          	lw	x11,8(x2)
    451c:	00c12503          	lw	x10,12(x2)
    4520:	0d410613          	addi	x12,x2,212
    4524:	01c12e23          	sw	x28,28(x2)
    4528:	2a5010ef          	jal	x1,5fcc <__sprint_r>
    452c:	88051ce3          	bne	x10,x0,3dc4 <_vfprintf_r+0xfb0>
    4530:	0dc12603          	lw	x12,220(x2)
    4534:	0d812a03          	lw	x20,216(x2)
    4538:	01c12e03          	lw	x28,28(x2)
    453c:	00098b13          	addi	x22,x19,0
    4540:	ea5fe06f          	jal	x0,33e4 <_vfprintf_r+0x5d0>
    4544:	00812583          	lw	x11,8(x2)
    4548:	00c12503          	lw	x10,12(x2)
    454c:	0d410613          	addi	x12,x2,212
    4550:	01c12e23          	sw	x28,28(x2)
    4554:	279010ef          	jal	x1,5fcc <__sprint_r>
    4558:	860516e3          	bne	x10,x0,3dc4 <_vfprintf_r+0xfb0>
    455c:	0dc12603          	lw	x12,220(x2)
    4560:	0d812a03          	lw	x20,216(x2)
    4564:	01c12e03          	lw	x28,28(x2)
    4568:	00098b13          	addi	x22,x19,0
    456c:	ea9fe06f          	jal	x0,3414 <_vfprintf_r+0x600>
    4570:	200c7793          	andi	x15,x24,512
    4574:	1c079ae3          	bne	x15,x0,4f48 <_vfprintf_r+0x2134>
    4578:	00000793          	addi	x15,x0,0
    457c:	dddff06f          	jal	x0,4358 <_vfprintf_r+0x1544>
    4580:	ccccd837          	lui	x16,0xccccd
    4584:	00080e93          	addi	x29,x16,0 # ccccd000 <__heap_end+0xcc8cd000>
    4588:	04412a83          	lw	x21,68(x2)
    458c:	ccd80813          	addi	x16,x16,-819
    4590:	ccce8e93          	addi	x29,x29,-820
    4594:	40077f13          	andi	x30,x14,1024
    4598:	00000613          	addi	x12,x0,0
    459c:	1a010513          	addi	x10,x2,416
    45a0:	00500313          	addi	x6,x0,5
    45a4:	0ff00c13          	addi	x24,x0,255
    45a8:	0540006f          	jal	x0,45fc <_vfprintf_r+0x17e8>
    45ac:	01bbb6b3          	sltu	x13,x23,x27
    45b0:	00db86b3          	add	x13,x23,x13
    45b4:	0266f6b3          	remu	x13,x13,x6
    45b8:	40dd86b3          	sub	x13,x27,x13
    45bc:	00ddb5b3          	sltu	x11,x27,x13
    45c0:	40b785b3          	sub	x11,x15,x11
    45c4:	03d68fb3          	mul	x31,x13,x29
    45c8:	030585b3          	mul	x11,x11,x16
    45cc:	0306b533          	mulhu	x10,x13,x16
    45d0:	01f585b3          	add	x11,x11,x31
    45d4:	030686b3          	mul	x13,x13,x16
    45d8:	00a585b3          	add	x11,x11,x10
    45dc:	01f59513          	slli	x10,x11,0x1f
    45e0:	0015d593          	srli	x11,x11,0x1
    45e4:	0016d693          	srli	x13,x13,0x1
    45e8:	00d566b3          	or	x13,x10,x13
    45ec:	6a078663          	beq	x15,x0,4c98 <_vfprintf_r+0x1e84>
    45f0:	00068d93          	addi	x27,x13,0
    45f4:	00058793          	addi	x15,x11,0
    45f8:	00088513          	addi	x10,x17,0
    45fc:	00fd8bb3          	add	x23,x27,x15
    4600:	01bbb6b3          	sltu	x13,x23,x27
    4604:	00db86b3          	add	x13,x23,x13
    4608:	0266f6b3          	remu	x13,x13,x6
    460c:	00160613          	addi	x12,x12,1
    4610:	fff50893          	addi	x17,x10,-1
    4614:	40dd86b3          	sub	x13,x27,x13
    4618:	00ddb5b3          	sltu	x11,x27,x13
    461c:	40b785b3          	sub	x11,x15,x11
    4620:	0306bfb3          	mulhu	x31,x13,x16
    4624:	030585b3          	mul	x11,x11,x16
    4628:	030686b3          	mul	x13,x13,x16
    462c:	01f585b3          	add	x11,x11,x31
    4630:	01f59593          	slli	x11,x11,0x1f
    4634:	0016d693          	srli	x13,x13,0x1
    4638:	00d5e6b3          	or	x13,x11,x13
    463c:	00269593          	slli	x11,x13,0x2
    4640:	00d586b3          	add	x13,x11,x13
    4644:	00169693          	slli	x13,x13,0x1
    4648:	40dd86b3          	sub	x13,x27,x13
    464c:	03068693          	addi	x13,x13,48
    4650:	fed50fa3          	sb	x13,-1(x10)
    4654:	f40f0ce3          	beq	x30,x0,45ac <_vfprintf_r+0x1798>
    4658:	000ac683          	lbu	x13,0(x21)
    465c:	f4d618e3          	bne	x12,x13,45ac <_vfprintf_r+0x1798>
    4660:	f58606e3          	beq	x12,x24,45ac <_vfprintf_r+0x1798>
    4664:	58079063          	bne	x15,x0,4be4 <_vfprintf_r+0x1dd0>
    4668:	00900693          	addi	x13,x0,9
    466c:	57b6ec63          	bltu	x13,x27,4be4 <_vfprintf_r+0x1dd0>
    4670:	05512223          	sw	x21,68(x2)
    4674:	1a010793          	addi	x15,x2,416
    4678:	00088a93          	addi	x21,x17,0
    467c:	00070c13          	addi	x24,x14,0
    4680:	02c12023          	sw	x12,32(x2)
    4684:	41578733          	sub	x14,x15,x21
    4688:	f75fe06f          	jal	x0,35fc <_vfprintf_r+0x7e8>
    468c:	0d812783          	lw	x15,216(x2)
    4690:	00100713          	addi	x14,x0,1
    4694:	00160613          	addi	x12,x12,1
    4698:	0000d517          	auipc	x10,0xd
    469c:	40850513          	addi	x10,x10,1032 # 11aa0 <__clzsi2+0x108>
    46a0:	00178793          	addi	x15,x15,1
    46a4:	00e92223          	sw	x14,4(x18)
    46a8:	00a92023          	sw	x10,0(x18)
    46ac:	0cc12e23          	sw	x12,220(x2)
    46b0:	0cf12c23          	sw	x15,216(x2)
    46b4:	00700713          	addi	x14,x0,7
    46b8:	00890913          	addi	x18,x18,8
    46bc:	5ef74463          	blt	x14,x15,4ca4 <_vfprintf_r+0x1e90>
    46c0:	14059263          	bne	x11,x0,4804 <_vfprintf_r+0x19f0>
    46c4:	02012703          	lw	x14,32(x2)
    46c8:	001c7793          	andi	x15,x24,1
    46cc:	00e7e7b3          	or	x15,x15,x14
    46d0:	00079463          	bne	x15,x0,46d8 <_vfprintf_r+0x18c4>
    46d4:	a25fe06f          	jal	x0,30f8 <_vfprintf_r+0x2e4>
    46d8:	02c12783          	lw	x15,44(x2)
    46dc:	0d812703          	lw	x14,216(x2)
    46e0:	03012683          	lw	x13,48(x2)
    46e4:	00c78633          	add	x12,x15,x12
    46e8:	00170713          	addi	x14,x14,1
    46ec:	00f92223          	sw	x15,4(x18)
    46f0:	0cc12e23          	sw	x12,220(x2)
    46f4:	00d92023          	sw	x13,0(x18)
    46f8:	0ce12c23          	sw	x14,216(x2)
    46fc:	00700793          	addi	x15,x0,7
    4700:	08e7c4e3          	blt	x15,x14,4f88 <_vfprintf_r+0x2174>
    4704:	00890913          	addi	x18,x18,8
    4708:	1300006f          	jal	x0,4838 <_vfprintf_r+0x1a24>
    470c:	00c12503          	lw	x10,12(x2)
    4710:	b44fc0ef          	jal	x1,a54 <__sinit>
    4714:	01012783          	lw	x15,16(x2)
    4718:	f58fe06f          	jal	x0,2e70 <_vfprintf_r+0x5c>
    471c:	00812583          	lw	x11,8(x2)
    4720:	00c12503          	lw	x10,12(x2)
    4724:	0d410613          	addi	x12,x2,212
    4728:	01c12e23          	sw	x28,28(x2)
    472c:	0a1010ef          	jal	x1,5fcc <__sprint_r>
    4730:	e8051a63          	bne	x10,x0,3dc4 <_vfprintf_r+0xfb0>
    4734:	0dc12603          	lw	x12,220(x2)
    4738:	01c12e03          	lw	x28,28(x2)
    473c:	00098913          	addi	x18,x19,0
    4740:	bb8ff06f          	jal	x0,3af8 <_vfprintf_r+0xce4>
    4744:	000a0e13          	addi	x28,x20,0
    4748:	000b8793          	addi	x15,x23,0
    474c:	00090a13          	addi	x20,x18,0
    4750:	00068913          	addi	x18,x13,0
    4754:	01460633          	add	x12,x12,x20
    4758:	00170713          	addi	x14,x14,1
    475c:	0cc12e23          	sw	x12,220(x2)
    4760:	0ce12c23          	sw	x14,216(x2)
    4764:	00f92023          	sw	x15,0(x18)
    4768:	01492223          	sw	x20,4(x18)
    476c:	00700793          	addi	x15,x0,7
    4770:	00e7c463          	blt	x15,x14,4778 <_vfprintf_r+0x1964>
    4774:	981fe06f          	jal	x0,30f4 <_vfprintf_r+0x2e0>
    4778:	d49fe06f          	jal	x0,34c0 <_vfprintf_r+0x6ac>
    477c:	0e012603          	lw	x12,224(x2)
    4780:	0e412683          	lw	x13,228(x2)
    4784:	0e812703          	lw	x14,232(x2)
    4788:	0ec12783          	lw	x15,236(x2)
    478c:	09010593          	addi	x11,x2,144
    4790:	0a010513          	addi	x10,x2,160
    4794:	08012823          	sw	x0,144(x2)
    4798:	08012a23          	sw	x0,148(x2)
    479c:	08012c23          	sw	x0,152(x2)
    47a0:	08012e23          	sw	x0,156(x2)
    47a4:	0ac12023          	sw	x12,160(x2)
    47a8:	0ad12223          	sw	x13,164(x2)
    47ac:	0ae12423          	sw	x14,168(x2)
    47b0:	0af12623          	sw	x15,172(x2)
    47b4:	2ac0a0ef          	jal	x1,ea60 <__letf2>
    47b8:	01412e03          	lw	x28,20(x2)
    47bc:	5a0540e3          	blt	x10,x0,555c <_vfprintf_r+0x2748>
    47c0:	0b714783          	lbu	x15,183(x2)
    47c4:	04700713          	addi	x14,x0,71
    47c8:	0000da97          	auipc	x21,0xd
    47cc:	29ca8a93          	addi	x21,x21,668 # 11a64 <__clzsi2+0xcc>
    47d0:	01674663          	blt	x14,x22,47dc <_vfprintf_r+0x19c8>
    47d4:	0000da97          	auipc	x21,0xd
    47d8:	28ca8a93          	addi	x21,x21,652 # 11a60 <__clzsi2+0xc8>
    47dc:	00300d93          	addi	x27,x0,3
    47e0:	f7fc7c13          	andi	x24,x24,-129
    47e4:	000d8713          	addi	x14,x27,0
    47e8:	d89fe06f          	jal	x0,3570 <_vfprintf_r+0x75c>
    47ec:	01812783          	lw	x15,24(x2)
    47f0:	01012683          	lw	x13,16(x2)
    47f4:	0007a783          	lw	x15,0(x15)
    47f8:	00d7a023          	sw	x13,0(x15)
    47fc:	00e12c23          	sw	x14,24(x2)
    4800:	96cff06f          	jal	x0,396c <_vfprintf_r+0xb58>
    4804:	02c12783          	lw	x15,44(x2)
    4808:	0d812703          	lw	x14,216(x2)
    480c:	03012683          	lw	x13,48(x2)
    4810:	00c78633          	add	x12,x15,x12
    4814:	00170713          	addi	x14,x14,1
    4818:	00f92223          	sw	x15,4(x18)
    481c:	00d92023          	sw	x13,0(x18)
    4820:	0cc12e23          	sw	x12,220(x2)
    4824:	0ce12c23          	sw	x14,216(x2)
    4828:	00700793          	addi	x15,x0,7
    482c:	00890913          	addi	x18,x18,8
    4830:	74e7cc63          	blt	x15,x14,4f88 <_vfprintf_r+0x2174>
    4834:	5c05cae3          	blt	x11,x0,5608 <_vfprintf_r+0x27f4>
    4838:	02012783          	lw	x15,32(x2)
    483c:	00170713          	addi	x14,x14,1
    4840:	0ce12c23          	sw	x14,216(x2)
    4844:	00c78633          	add	x12,x15,x12
    4848:	00f92223          	sw	x15,4(x18)
    484c:	0cc12e23          	sw	x12,220(x2)
    4850:	01592023          	sw	x21,0(x18)
    4854:	00700793          	addi	x15,x0,7
    4858:	00e7c463          	blt	x15,x14,4860 <_vfprintf_r+0x1a4c>
    485c:	899fe06f          	jal	x0,30f4 <_vfprintf_r+0x2e0>
    4860:	c61fe06f          	jal	x0,34c0 <_vfprintf_r+0x6ac>
    4864:	000a8513          	addi	x10,x21,0
    4868:	03c12c23          	sw	x28,56(x2)
    486c:	bc4fe0ef          	jal	x1,2c30 <strlen>
    4870:	0b714783          	lbu	x15,183(x2)
    4874:	fff54693          	xori	x13,x10,-1
    4878:	41f6d693          	srai	x13,x13,0x1f
    487c:	01712c23          	sw	x23,24(x2)
    4880:	00012a23          	sw	x0,20(x2)
    4884:	02012223          	sw	x0,36(x2)
    4888:	02012423          	sw	x0,40(x2)
    488c:	00012e23          	sw	x0,28(x2)
    4890:	03812e03          	lw	x28,56(x2)
    4894:	00050713          	addi	x14,x10,0
    4898:	00d57db3          	and	x27,x10,x13
    489c:	00000a13          	addi	x20,x0,0
    48a0:	00078463          	beq	x15,x0,48a8 <_vfprintf_r+0x1a94>
    48a4:	ce5fe06f          	jal	x0,3588 <_vfprintf_r+0x774>
    48a8:	f90fe06f          	jal	x0,3038 <_vfprintf_r+0x224>
    48ac:	000b0e13          	addi	x28,x22,0
    48b0:	000b8793          	addi	x15,x23,0
    48b4:	00068b13          	addi	x22,x13,0
    48b8:	01260633          	add	x12,x12,x18
    48bc:	001a0a13          	addi	x20,x20,1
    48c0:	0cc12e23          	sw	x12,220(x2)
    48c4:	0d412c23          	sw	x20,216(x2)
    48c8:	00fb2023          	sw	x15,0(x22)
    48cc:	012b2223          	sw	x18,4(x22)
    48d0:	00700793          	addi	x15,x0,7
    48d4:	0147c463          	blt	x15,x20,48dc <_vfprintf_r+0x1ac8>
    48d8:	bb9fe06f          	jal	x0,3490 <_vfprintf_r+0x67c>
    48dc:	8b5ff06f          	jal	x0,4190 <_vfprintf_r+0x137c>
    48e0:	200c7793          	andi	x15,x24,512
    48e4:	66078863          	beq	x15,x0,4f54 <_vfprintf_r+0x2140>
    48e8:	018d9d93          	slli	x27,x27,0x18
    48ec:	418ddd93          	srai	x27,x27,0x18
    48f0:	41fdd793          	srai	x15,x27,0x1f
    48f4:	00d12c23          	sw	x13,24(x2)
    48f8:	000c0713          	addi	x14,x24,0
    48fc:	00078693          	addi	x13,x15,0
    4900:	cd9fe06f          	jal	x0,35d8 <_vfprintf_r+0x7c4>
    4904:	200c7793          	andi	x15,x24,512
    4908:	62078663          	beq	x15,x0,4f34 <_vfprintf_r+0x2120>
    490c:	00d12c23          	sw	x13,24(x2)
    4910:	0ffdfd93          	andi	x27,x27,255
    4914:	000c0713          	addi	x14,x24,0
    4918:	00000793          	addi	x15,x0,0
    491c:	00100693          	addi	x13,x0,1
    4920:	e39fe06f          	jal	x0,3758 <_vfprintf_r+0x944>
    4924:	200c7793          	andi	x15,x24,512
    4928:	5e078e63          	beq	x15,x0,4f24 <_vfprintf_r+0x2110>
    492c:	0ffdfd93          	andi	x27,x27,255
    4930:	00d12c23          	sw	x13,24(x2)
    4934:	000c0713          	addi	x14,x24,0
    4938:	00000793          	addi	x15,x0,0
    493c:	fcdfe06f          	jal	x0,3908 <_vfprintf_r+0xaf4>
    4940:	0ec12783          	lw	x15,236(x2)
    4944:	6207cc63          	blt	x15,x0,4f7c <_vfprintf_r+0x2168>
    4948:	0b714783          	lbu	x15,183(x2)
    494c:	04700713          	addi	x14,x0,71
    4950:	0000da97          	auipc	x21,0xd
    4954:	11ca8a93          	addi	x21,x21,284 # 11a6c <__clzsi2+0xd4>
    4958:	e96742e3          	blt	x14,x22,47dc <_vfprintf_r+0x19c8>
    495c:	0000da97          	auipc	x21,0xd
    4960:	10ca8a93          	addi	x21,x21,268 # 11a68 <__clzsi2+0xd0>
    4964:	e79ff06f          	jal	x0,47dc <_vfprintf_r+0x19c8>
    4968:	000a0e13          	addi	x28,x20,0
    496c:	000b8793          	addi	x15,x23,0
    4970:	00090a13          	addi	x20,x18,0
    4974:	00068913          	addi	x18,x13,0
    4978:	01460633          	add	x12,x12,x20
    497c:	00158593          	addi	x11,x11,1
    4980:	00f92023          	sw	x15,0(x18)
    4984:	01492223          	sw	x20,4(x18)
    4988:	0cc12e23          	sw	x12,220(x2)
    498c:	0cb12c23          	sw	x11,216(x2)
    4990:	00700793          	addi	x15,x0,7
    4994:	00890913          	addi	x18,x18,8
    4998:	ecb7da63          	bge	x15,x11,406c <_vfprintf_r+0x1258>
    499c:	00812583          	lw	x11,8(x2)
    49a0:	00c12503          	lw	x10,12(x2)
    49a4:	0d410613          	addi	x12,x2,212
    49a8:	03c12c23          	sw	x28,56(x2)
    49ac:	620010ef          	jal	x1,5fcc <__sprint_r>
    49b0:	c0051a63          	bne	x10,x0,3dc4 <_vfprintf_r+0xfb0>
    49b4:	0dc12603          	lw	x12,220(x2)
    49b8:	03812e03          	lw	x28,56(x2)
    49bc:	00098913          	addi	x18,x19,0
    49c0:	eacff06f          	jal	x0,406c <_vfprintf_r+0x1258>
    49c4:	02012783          	lw	x15,32(x2)
    49c8:	05a12823          	sw	x26,80(x2)
    49cc:	02812d03          	lw	x26,40(x2)
    49d0:	05512a23          	sw	x21,84(x2)
    49d4:	03b12423          	sw	x27,40(x2)
    49d8:	03812c23          	sw	x24,56(x2)
    49dc:	05c12623          	sw	x28,76(x2)
    49e0:	00fa8bb3          	add	x23,x21,x15
    49e4:	00090513          	addi	x10,x18,0
    49e8:	04412b03          	lw	x22,68(x2)
    49ec:	04812d83          	lw	x27,72(x2)
    49f0:	02412a83          	lw	x21,36(x2)
    49f4:	00700713          	addi	x14,x0,7
    49f8:	01000793          	addi	x15,x0,16
    49fc:	0000da17          	auipc	x20,0xd
    4a00:	520a0a13          	addi	x20,x20,1312 # 11f1c <zeroes.0>
    4a04:	000e8913          	addi	x18,x29,0
    4a08:	09a05663          	bge	x0,x26,4a94 <_vfprintf_r+0x1c80>
    4a0c:	17505c63          	bge	x0,x21,4b84 <_vfprintf_r+0x1d70>
    4a10:	fffa8a93          	addi	x21,x21,-1
    4a14:	0d812683          	lw	x13,216(x2)
    4a18:	04012583          	lw	x11,64(x2)
    4a1c:	01b60633          	add	x12,x12,x27
    4a20:	00168693          	addi	x13,x13,1
    4a24:	00b52023          	sw	x11,0(x10)
    4a28:	01b52223          	sw	x27,4(x10)
    4a2c:	0cc12e23          	sw	x12,220(x2)
    4a30:	0cd12c23          	sw	x13,216(x2)
    4a34:	00850513          	addi	x10,x10,8
    4a38:	14d74c63          	blt	x14,x13,4b90 <_vfprintf_r+0x1d7c>
    4a3c:	000b4583          	lbu	x11,0(x22)
    4a40:	412b8c33          	sub	x24,x23,x18
    4a44:	0185d463          	bge	x11,x24,4a4c <_vfprintf_r+0x1c38>
    4a48:	00058c13          	addi	x24,x11,0
    4a4c:	03805663          	bge	x0,x24,4a78 <_vfprintf_r+0x1c64>
    4a50:	0d812583          	lw	x11,216(x2)
    4a54:	01860633          	add	x12,x12,x24
    4a58:	0cc12e23          	sw	x12,220(x2)
    4a5c:	00158593          	addi	x11,x11,1
    4a60:	01252023          	sw	x18,0(x10)
    4a64:	01852223          	sw	x24,4(x10)
    4a68:	0cb12c23          	sw	x11,216(x2)
    4a6c:	14b74663          	blt	x14,x11,4bb8 <_vfprintf_r+0x1da4>
    4a70:	000b4583          	lbu	x11,0(x22)
    4a74:	00850513          	addi	x10,x10,8
    4a78:	fffc4e13          	xori	x28,x24,-1
    4a7c:	41fe5e13          	srai	x28,x28,0x1f
    4a80:	01cc76b3          	and	x13,x24,x28
    4a84:	40d58c33          	sub	x24,x11,x13
    4a88:	05804263          	blt	x0,x24,4acc <_vfprintf_r+0x1cb8>
    4a8c:	00b90933          	add	x18,x18,x11
    4a90:	f7a04ee3          	blt	x0,x26,4a0c <_vfprintf_r+0x1bf8>
    4a94:	f7504ee3          	blt	x0,x21,4a10 <_vfprintf_r+0x1bfc>
    4a98:	05412a83          	lw	x21,84(x2)
    4a9c:	02012783          	lw	x15,32(x2)
    4aa0:	00090e93          	addi	x29,x18,0
    4aa4:	05612223          	sw	x22,68(x2)
    4aa8:	00fa87b3          	add	x15,x21,x15
    4aac:	03812c03          	lw	x24,56(x2)
    4ab0:	04c12e03          	lw	x28,76(x2)
    4ab4:	05012d03          	lw	x26,80(x2)
    4ab8:	02812d83          	lw	x27,40(x2)
    4abc:	00050913          	addi	x18,x10,0
    4ac0:	dbd7fe63          	bgeu	x15,x29,407c <_vfprintf_r+0x1268>
    4ac4:	00078e93          	addi	x29,x15,0
    4ac8:	db4ff06f          	jal	x0,407c <_vfprintf_r+0x1268>
    4acc:	0d812583          	lw	x11,216(x2)
    4ad0:	0000de17          	auipc	x28,0xd
    4ad4:	44ce0e13          	addi	x28,x28,1100 # 11f1c <zeroes.0>
    4ad8:	0987d063          	bge	x15,x24,4b58 <_vfprintf_r+0x1d44>
    4adc:	01212e23          	sw	x18,28(x2)
    4ae0:	000c0913          	addi	x18,x24,0
    4ae4:	000b8c13          	addi	x24,x23,0
    4ae8:	000a0b93          	addi	x23,x20,0
    4aec:	00c0006f          	jal	x0,4af8 <_vfprintf_r+0x1ce4>
    4af0:	ff090913          	addi	x18,x18,-16
    4af4:	0527da63          	bge	x15,x18,4b48 <_vfprintf_r+0x1d34>
    4af8:	01060613          	addi	x12,x12,16
    4afc:	00158593          	addi	x11,x11,1
    4b00:	01452023          	sw	x20,0(x10)
    4b04:	00f52223          	sw	x15,4(x10)
    4b08:	0cc12e23          	sw	x12,220(x2)
    4b0c:	0cb12c23          	sw	x11,216(x2)
    4b10:	00850513          	addi	x10,x10,8
    4b14:	fcb75ee3          	bge	x14,x11,4af0 <_vfprintf_r+0x1cdc>
    4b18:	00812583          	lw	x11,8(x2)
    4b1c:	00c12503          	lw	x10,12(x2)
    4b20:	0d410613          	addi	x12,x2,212
    4b24:	4a8010ef          	jal	x1,5fcc <__sprint_r>
    4b28:	a8051e63          	bne	x10,x0,3dc4 <_vfprintf_r+0xfb0>
    4b2c:	01000793          	addi	x15,x0,16
    4b30:	ff090913          	addi	x18,x18,-16
    4b34:	0dc12603          	lw	x12,220(x2)
    4b38:	0d812583          	lw	x11,216(x2)
    4b3c:	00098513          	addi	x10,x19,0
    4b40:	00700713          	addi	x14,x0,7
    4b44:	fb27cae3          	blt	x15,x18,4af8 <_vfprintf_r+0x1ce4>
    4b48:	000b8e13          	addi	x28,x23,0
    4b4c:	000c0b93          	addi	x23,x24,0
    4b50:	00090c13          	addi	x24,x18,0
    4b54:	01c12903          	lw	x18,28(x2)
    4b58:	01860633          	add	x12,x12,x24
    4b5c:	00158593          	addi	x11,x11,1
    4b60:	0cc12e23          	sw	x12,220(x2)
    4b64:	0cb12c23          	sw	x11,216(x2)
    4b68:	01c52023          	sw	x28,0(x10)
    4b6c:	01852223          	sw	x24,4(x10)
    4b70:	1ab748e3          	blt	x14,x11,5520 <_vfprintf_r+0x270c>
    4b74:	000b4583          	lbu	x11,0(x22)
    4b78:	00850513          	addi	x10,x10,8
    4b7c:	00b90933          	add	x18,x18,x11
    4b80:	f11ff06f          	jal	x0,4a90 <_vfprintf_r+0x1c7c>
    4b84:	fffb0b13          	addi	x22,x22,-1
    4b88:	fffd0d13          	addi	x26,x26,-1
    4b8c:	e89ff06f          	jal	x0,4a14 <_vfprintf_r+0x1c00>
    4b90:	00812583          	lw	x11,8(x2)
    4b94:	00c12503          	lw	x10,12(x2)
    4b98:	0d410613          	addi	x12,x2,212
    4b9c:	430010ef          	jal	x1,5fcc <__sprint_r>
    4ba0:	a2051263          	bne	x10,x0,3dc4 <_vfprintf_r+0xfb0>
    4ba4:	0dc12603          	lw	x12,220(x2)
    4ba8:	00098513          	addi	x10,x19,0
    4bac:	01000793          	addi	x15,x0,16
    4bb0:	00700713          	addi	x14,x0,7
    4bb4:	e89ff06f          	jal	x0,4a3c <_vfprintf_r+0x1c28>
    4bb8:	00812583          	lw	x11,8(x2)
    4bbc:	00c12503          	lw	x10,12(x2)
    4bc0:	0d410613          	addi	x12,x2,212
    4bc4:	408010ef          	jal	x1,5fcc <__sprint_r>
    4bc8:	9e051e63          	bne	x10,x0,3dc4 <_vfprintf_r+0xfb0>
