
/mnt/c/Users/kersz/Documents/ufrgs/IC/core-v-verif/cv32e40p/tests/programs/custom/basic/basic.elf:     file format elf32-littleriscv


Disassembly of section .vectors:

00000000 <__vector_start>:
.section .vectors, "ax"
.option norvc
.global vector_table

vector_table:
	j u_sw_irq_handler
   0:	12c0006f          	jal	x0,12c <u_sw_irq_handler>
	j __no_irq_handler
   4:	0f40006f          	jal	x0,f8 <__no_irq_handler>
	j __no_irq_handler
   8:	0f00006f          	jal	x0,f8 <__no_irq_handler>
	j m_software_irq_handler
   c:	0fa0006f          	jal	x0,106 <m_software_irq_handler>
	j __no_irq_handler
  10:	0e80006f          	jal	x0,f8 <__no_irq_handler>
	j __no_irq_handler
  14:	0e40006f          	jal	x0,f8 <__no_irq_handler>
	j __no_irq_handler
  18:	0e00006f          	jal	x0,f8 <__no_irq_handler>
	j m_timer_irq_handler
  1c:	0ec0006f          	jal	x0,108 <m_timer_irq_handler>
	j __no_irq_handler
  20:	0d80006f          	jal	x0,f8 <__no_irq_handler>
	j __no_irq_handler
  24:	0d40006f          	jal	x0,f8 <__no_irq_handler>
	j __no_irq_handler
  28:	0d00006f          	jal	x0,f8 <__no_irq_handler>
	j m_external_irq_handler
  2c:	0de0006f          	jal	x0,10a <m_external_irq_handler>
	j __no_irq_handler
  30:	0c80006f          	jal	x0,f8 <__no_irq_handler>
	j __no_irq_handler
  34:	0c40006f          	jal	x0,f8 <__no_irq_handler>
	j __no_irq_handler
  38:	0c00006f          	jal	x0,f8 <__no_irq_handler>
	j __no_irq_handler
  3c:	0bc0006f          	jal	x0,f8 <__no_irq_handler>
	j m_fast0_irq_handler
  40:	0cc0006f          	jal	x0,10c <m_fast0_irq_handler>
	j m_fast1_irq_handler
  44:	0ca0006f          	jal	x0,10e <m_fast1_irq_handler>
	j m_fast2_irq_handler
  48:	0c80006f          	jal	x0,110 <m_fast2_irq_handler>
	j m_fast3_irq_handler
  4c:	0c60006f          	jal	x0,112 <m_fast3_irq_handler>
	j m_fast4_irq_handler
  50:	0c40006f          	jal	x0,114 <m_fast4_irq_handler>
	j m_fast5_irq_handler
  54:	0c20006f          	jal	x0,116 <m_fast5_irq_handler>
	j m_fast6_irq_handler
  58:	0c00006f          	jal	x0,118 <m_fast6_irq_handler>
	j m_fast7_irq_handler
  5c:	0be0006f          	jal	x0,11a <m_fast7_irq_handler>
	j m_fast8_irq_handler
  60:	0bc0006f          	jal	x0,11c <m_fast8_irq_handler>
	j m_fast9_irq_handler
  64:	0ba0006f          	jal	x0,11e <m_fast9_irq_handler>
	j m_fast10_irq_handler
  68:	0b80006f          	jal	x0,120 <m_fast10_irq_handler>
	j m_fast11_irq_handler
  6c:	0b60006f          	jal	x0,122 <m_fast11_irq_handler>
	j m_fast12_irq_handler
  70:	0b40006f          	jal	x0,124 <m_fast12_irq_handler>
	j m_fast13_irq_handler
  74:	0b20006f          	jal	x0,126 <m_fast13_irq_handler>
	j m_fast14_irq_handler
  78:	0b00006f          	jal	x0,128 <m_fast14_irq_handler>
	j m_fast15_irq_handler
  7c:	0ae0006f          	jal	x0,12a <m_fast15_irq_handler>

Disassembly of section .init:

00000080 <_start>:

_start:
/* initialize global pointer */
.option push
.option norelax
1:	auipc gp, %pcrel_hi(__global_pointer$)
  80:	00013197          	auipc	x3,0x13
	addi  gp, gp, %pcrel_lo(1b)
  84:	c2018193          	addi	x3,x3,-992 # 12ca0 <__global_pointer$>
.option pop

/* initialize stack pointer */
	la sp, __stack_end
  88:	00400117          	auipc	x2,0x400
  8c:	f7810113          	addi	x2,x2,-136 # 400000 <__heap_end>

/* set vector table address */
	la a0, __vector_start
  90:	00000517          	auipc	x10,0x0
  94:	f7050513          	addi	x10,x10,-144 # 0 <__vector_start>
	ori a0, a0, 1 /*vector mode = vectored */
  98:	00156513          	ori	x10,x10,1
	csrw mtvec, a0
  9c:	30551073          	csrrw	x0,mtvec,x10

/* clear the bss segment */
	la a0, _edata
  a0:	f1818513          	addi	x10,x3,-232 # 12bb8 <errno>
	la a2, _end
  a4:	22418613          	addi	x12,x3,548 # 12ec4 <__bss_end>
	sub a2, a2, a0
  a8:	8e09                	c.sub	x12,x10
	li a1, 0
  aa:	4581                	c.li	x11,0
	call memset
  ac:	2e61                	c.jal	444 <memset>

/* new-style constructors and destructors */
	la a0, __libc_fini_array
  ae:	00002517          	auipc	x10,0x2
  b2:	82250513          	addi	x10,x10,-2014 # 18d0 <__libc_fini_array>
	call atexit
  b6:	223020ef          	jal	x1,2ad8 <atexit>
	call __libc_init_array
  ba:	15f020ef          	jal	x1,2a18 <__libc_init_array>
//	lw a0, 0(sp)                    /* a0 = argc */
//	addi a1, sp, __SIZEOF_POINTER__ /* a1 = argv */
//	li a2, 0                        /* a2 = envp = NULL */
// Initialize these variables to 0. Cannot use argc or argv
// since the stack is not initialized
	li a0, 0
  be:	4501                	c.li	x10,0
	li a1, 0
  c0:	4581                	c.li	x11,0
	li a2, 0
  c2:	4601                	c.li	x12,0

	call main
  c4:	2021                	c.jal	cc <main>
	tail exit
  c6:	1e70206f          	jal	x0,2aac <exit>

000000ca <_fini>:
.type   _fini, @function
_init:
_fini:
 /* These don't have to do anything since we use init_array/fini_array. Prevent
    missing symbol error */
	ret
  ca:	8082                	c.jr	x1

Disassembly of section .text:

000000cc <main>:
#include <stdio.h>
#include <stdlib.h>

int main()
{
    printf("Basic Print Test");
      cc:	6549                	c.lui	x10,0x12
{
      ce:	1141                	c.addi	x2,-16
    printf("Basic Print Test");
      d0:	a2050513          	addi	x10,x10,-1504 # 11a20 <__clzsi2+0x88>
{
      d4:	c606                	c.swsp	x1,12(x2)
    printf("Basic Print Test");
      d6:	23b9                	c.jal	624 <printf>
    return EXIT_SUCCESS;
}
      d8:	40b2                	c.lwsp	x1,12(x2)
      da:	4501                	c.li	x10,0
      dc:	0141                	c.addi	x2,16
      de:	8082                	c.jr	x1

000000e0 <register_fini>:
      e0:	00000793          	addi	x15,x0,0
      e4:	00078863          	beq	x15,x0,f4 <register_fini+0x14>
      e8:	00001517          	auipc	x10,0x1
      ec:	7e850513          	addi	x10,x10,2024 # 18d0 <__libc_fini_array>
      f0:	1e90206f          	jal	x0,2ad8 <atexit>
      f4:	00008067          	jalr	x0,0(x1)

000000f8 <__no_irq_handler>:
.weak m_fast15_irq_handler


/* exception handling */
__no_irq_handler:
	la a0, no_exception_handler_msg
      f8:	00012517          	auipc	x10,0x12
      fc:	b5b50513          	addi	x10,x10,-1189 # 11c53 <no_exception_handler_msg>
	jal ra, puts
     100:	640000ef          	jal	x1,740 <puts>
	j __no_irq_handler
     104:	bfd5                	c.j	f8 <__no_irq_handler>

00000106 <m_software_irq_handler>:

m_software_irq_handler:
	j __no_irq_handler
     106:	bfcd                	c.j	f8 <__no_irq_handler>

00000108 <m_timer_irq_handler>:

m_timer_irq_handler:
	j __no_irq_handler
     108:	bfc5                	c.j	f8 <__no_irq_handler>

0000010a <m_external_irq_handler>:

m_external_irq_handler:
	j __no_irq_handler
     10a:	b7fd                	c.j	f8 <__no_irq_handler>

0000010c <m_fast0_irq_handler>:

m_fast0_irq_handler:
	j __no_irq_handler
     10c:	b7f5                	c.j	f8 <__no_irq_handler>

0000010e <m_fast1_irq_handler>:

m_fast1_irq_handler:
	j __no_irq_handler
     10e:	b7ed                	c.j	f8 <__no_irq_handler>

00000110 <m_fast2_irq_handler>:

m_fast2_irq_handler:
	j __no_irq_handler
     110:	b7e5                	c.j	f8 <__no_irq_handler>

00000112 <m_fast3_irq_handler>:

m_fast3_irq_handler:
	j __no_irq_handler
     112:	b7dd                	c.j	f8 <__no_irq_handler>

00000114 <m_fast4_irq_handler>:

m_fast4_irq_handler:
	j __no_irq_handler
     114:	b7d5                	c.j	f8 <__no_irq_handler>

00000116 <m_fast5_irq_handler>:

m_fast5_irq_handler:
	j __no_irq_handler
     116:	b7cd                	c.j	f8 <__no_irq_handler>

00000118 <m_fast6_irq_handler>:

m_fast6_irq_handler:
	j __no_irq_handler
     118:	b7c5                	c.j	f8 <__no_irq_handler>

0000011a <m_fast7_irq_handler>:

m_fast7_irq_handler:
	j __no_irq_handler
     11a:	bff9                	c.j	f8 <__no_irq_handler>

0000011c <m_fast8_irq_handler>:

m_fast8_irq_handler:
	j __no_irq_handler
     11c:	bff1                	c.j	f8 <__no_irq_handler>

0000011e <m_fast9_irq_handler>:

m_fast9_irq_handler:
	j __no_irq_handler
     11e:	bfe9                	c.j	f8 <__no_irq_handler>

00000120 <m_fast10_irq_handler>:

m_fast10_irq_handler:
	j __no_irq_handler
     120:	bfe1                	c.j	f8 <__no_irq_handler>

00000122 <m_fast11_irq_handler>:

m_fast11_irq_handler:
	j __no_irq_handler
     122:	bfd9                	c.j	f8 <__no_irq_handler>

00000124 <m_fast12_irq_handler>:

m_fast12_irq_handler:
	j __no_irq_handler
     124:	bfd1                	c.j	f8 <__no_irq_handler>

00000126 <m_fast13_irq_handler>:

m_fast13_irq_handler:
	j __no_irq_handler
     126:	bfc9                	c.j	f8 <__no_irq_handler>

00000128 <m_fast14_irq_handler>:

m_fast14_irq_handler:
	j __no_irq_handler
     128:	bfc1                	c.j	f8 <__no_irq_handler>

0000012a <m_fast15_irq_handler>:

m_fast15_irq_handler:
	j __no_irq_handler
     12a:	b7f9                	c.j	f8 <__no_irq_handler>

0000012c <u_sw_irq_handler>:

u_sw_irq_handler:
	/* While we are still using puts in handlers, save all caller saved
	   regs.  Eventually, some of these saves could be deferred.  */
	addi sp,sp,-64
     12c:	7139                	c.addi16sp	x2,-64
	sw ra, 0(sp)
     12e:	c006                	c.swsp	x1,0(x2)
	sw a0, 4(sp)
     130:	c22a                	c.swsp	x10,4(x2)
	sw a1, 8(sp)
     132:	c42e                	c.swsp	x11,8(x2)
	sw a2, 12(sp)
     134:	c632                	c.swsp	x12,12(x2)
	sw a3, 16(sp)
     136:	c836                	c.swsp	x13,16(x2)
	sw a4, 20(sp)
     138:	ca3a                	c.swsp	x14,20(x2)
	sw a5, 24(sp)
     13a:	cc3e                	c.swsp	x15,24(x2)
	sw a6, 28(sp)
     13c:	ce42                	c.swsp	x16,28(x2)
	sw a7, 32(sp)
     13e:	d046                	c.swsp	x17,32(x2)
	sw t0, 36(sp)
     140:	d216                	c.swsp	x5,36(x2)
	sw t1, 40(sp)
     142:	d41a                	c.swsp	x6,40(x2)
	sw t2, 44(sp)
     144:	d61e                	c.swsp	x7,44(x2)
	sw t3, 48(sp)
     146:	d872                	c.swsp	x28,48(x2)
	sw t4, 52(sp)
     148:	da76                	c.swsp	x29,52(x2)
	sw t5, 56(sp)
     14a:	dc7a                	c.swsp	x30,56(x2)
	sw t6, 60(sp)
     14c:	de7e                	c.swsp	x31,60(x2)
	csrr t0, mcause
     14e:	342022f3          	csrrs	x5,mcause,x0
	li t1, EXCEPTION_ILLEGAL_INSN
     152:	4309                	c.li	x6,2
	beq t0, t1, handle_illegal_insn
     154:	02628363          	beq	x5,x6,17a <handle_illegal_insn>
	li t1, EXCEPTION_ECALL_M
     158:	432d                	c.li	x6,11
	beq t0, t1, handle_ecall
     15a:	00628663          	beq	x5,x6,166 <handle_ecall>
	li t1, EXCEPTION_BREAKPOINT
     15e:	430d                	c.li	x6,3
	beq t0, t1, handle_ebreak
     160:	00628663          	beq	x5,x6,16c <handle_ebreak>
	j handle_unknown
     164:	a015                	c.j	188 <handle_unknown>

00000166 <handle_ecall>:

handle_ecall:
	jal ra, handle_syscall
     166:	204000ef          	jal	x1,36a <handle_syscall>
	j end_handler_incr_mepc
     16a:	a035                	c.j	196 <end_handler_incr_mepc>

0000016c <handle_ebreak>:

handle_ebreak:
	/* TODO support debug handling requirements.  */
	la a0, ebreak_msg
     16c:	00012517          	auipc	x10,0x12
     170:	a8650513          	addi	x10,x10,-1402 # 11bf2 <ebreak_msg>
	jal ra, puts
     174:	5cc000ef          	jal	x1,740 <puts>
	j end_handler_incr_mepc
     178:	a839                	c.j	196 <end_handler_incr_mepc>

0000017a <handle_illegal_insn>:

handle_illegal_insn:
	la a0, illegal_insn_msg
     17a:	00012517          	auipc	x10,0x12
     17e:	a0c50513          	addi	x10,x10,-1524 # 11b86 <illegal_insn_msg>
	jal ra, puts
     182:	5be000ef          	jal	x1,740 <puts>
	j end_handler_incr_mepc
     186:	a801                	c.j	196 <end_handler_incr_mepc>

00000188 <handle_unknown>:

handle_unknown:
	la a0, unknown_msg
     188:	00012517          	auipc	x10,0x12
     18c:	a9a50513          	addi	x10,x10,-1382 # 11c22 <unknown_msg>
	jal ra, puts
     190:	5b0000ef          	jal	x1,740 <puts>
	/* We don't know what interrupt/exception is being handled, so don't
	   increment mepc.  */
	j end_handler_ret
     194:	a831                	c.j	1b0 <end_handler_ret>

00000196 <end_handler_incr_mepc>:

end_handler_incr_mepc:
	csrr t0, mepc
     196:	341022f3          	csrrs	x5,mepc,x0
	lb t1, 0(t0)
     19a:	00028303          	lb	x6,0(x5)
	li a0, 0x3
     19e:	450d                	c.li	x10,3
	and t1, t1, a0
     1a0:	00a37333          	and	x6,x6,x10
	/* Increment mepc by 2 or 4 depending on whether the instruction at mepc
	   is compressed or not.  */
	bne t1, a0, end_handler_incr_mepc2
     1a4:	00a31363          	bne	x6,x10,1aa <end_handler_incr_mepc2>
	addi t0, t0, 2
     1a8:	0289                	c.addi	x5,2

000001aa <end_handler_incr_mepc2>:
end_handler_incr_mepc2:
	addi t0, t0, 2
     1aa:	0289                	c.addi	x5,2
	csrw mepc, t0
     1ac:	34129073          	csrrw	x0,mepc,x5

000001b0 <end_handler_ret>:
end_handler_ret:
	lw ra, 0(sp)
     1b0:	4082                	c.lwsp	x1,0(x2)
	lw a0, 4(sp)
     1b2:	4512                	c.lwsp	x10,4(x2)
	lw a1, 8(sp)
     1b4:	45a2                	c.lwsp	x11,8(x2)
	lw a2, 12(sp)
     1b6:	4632                	c.lwsp	x12,12(x2)
	lw a3, 16(sp)
     1b8:	46c2                	c.lwsp	x13,16(x2)
	lw a4, 20(sp)
     1ba:	4752                	c.lwsp	x14,20(x2)
	lw a5, 24(sp)
     1bc:	47e2                	c.lwsp	x15,24(x2)
	lw a6, 28(sp)
     1be:	4872                	c.lwsp	x16,28(x2)
	lw a7, 32(sp)
     1c0:	5882                	c.lwsp	x17,32(x2)
	lw t0, 36(sp)
     1c2:	5292                	c.lwsp	x5,36(x2)
	lw t1, 40(sp)
     1c4:	5322                	c.lwsp	x6,40(x2)
	lw t2, 44(sp)
     1c6:	53b2                	c.lwsp	x7,44(x2)
	lw t3, 48(sp)
     1c8:	5e42                	c.lwsp	x28,48(x2)
	lw t4, 52(sp)
     1ca:	5ed2                	c.lwsp	x29,52(x2)
	lw t5, 56(sp)
     1cc:	5f62                	c.lwsp	x30,56(x2)
	lw t6, 60(sp)
     1ce:	5ff2                	c.lwsp	x31,60(x2)
	addi sp,sp,64
     1d0:	6121                	c.addi16sp	x2,64
	mret
     1d2:	30200073          	mret

000001d6 <__syscall_error>:
#endif
/* Upstream newlib now defines this in libgloss/riscv/internal_syscall.h.  */
long
__syscall_error(long a0)
{
  errno = -a0;
     1d6:	40a00533          	sub	x10,x0,x10
     1da:	f0a1ac23          	sw	x10,-232(x3) # 12bb8 <errno>
  return -1;
}
     1de:	557d                	c.li	x10,-1
     1e0:	8082                	c.jr	x1

000001e2 <unimplemented_syscall>:

void unimplemented_syscall()
{
  const char *p = "BSP: Unimplemented system call called!\n";
     1e2:	67c9                	c.lui	x15,0x12
     1e4:	a3478793          	addi	x15,x15,-1484 # 11a34 <__clzsi2+0x9c>
  while (*p)
    *(volatile int *)STDOUT_REG = *(p++);
     1e8:	100006b7          	lui	x13,0x10000
  while (*p)
     1ec:	0007c703          	lbu	x14,0(x15)
     1f0:	e311                	c.bnez	x14,1f4 <unimplemented_syscall+0x12>
}
     1f2:	8082                	c.jr	x1
    *(volatile int *)STDOUT_REG = *(p++);
     1f4:	0785                	c.addi	x15,1
     1f6:	c298                	c.sw	x14,0(x13)
     1f8:	bfd5                	c.j	1ec <unimplemented_syscall+0xa>

000001fa <nanosleep>:

int nanosleep(const struct timespec *rqtp, struct timespec *rmtp)
{
  errno = ENOSYS;
     1fa:	05800713          	addi	x14,x0,88
     1fe:	f0e1ac23          	sw	x14,-232(x3) # 12bb8 <errno>
  return -1;
}
     202:	557d                	c.li	x10,-1
     204:	8082                	c.jr	x1

00000206 <_access>:

int _access(const char *file, int mode)
{
  errno = ENOSYS;
     206:	05800713          	addi	x14,x0,88
     20a:	f0e1ac23          	sw	x14,-232(x3) # 12bb8 <errno>
  return -1;
}
     20e:	557d                	c.li	x10,-1
     210:	8082                	c.jr	x1

00000212 <_chdir>:

int _chdir(const char *path)
{
  errno = ENOSYS;
     212:	05800713          	addi	x14,x0,88
     216:	f0e1ac23          	sw	x14,-232(x3) # 12bb8 <errno>
  return -1;
}
     21a:	557d                	c.li	x10,-1
     21c:	8082                	c.jr	x1

0000021e <_chmod>:

int _chmod(const char *path, mode_t mode)
{
  errno = ENOSYS;
     21e:	05800713          	addi	x14,x0,88
     222:	f0e1ac23          	sw	x14,-232(x3) # 12bb8 <errno>
  return -1;
}
     226:	557d                	c.li	x10,-1
     228:	8082                	c.jr	x1

0000022a <_chown>:

int _chown(const char *path, uid_t owner, gid_t group)
{
  errno = ENOSYS;
     22a:	05800713          	addi	x14,x0,88
     22e:	f0e1ac23          	sw	x14,-232(x3) # 12bb8 <errno>
  return -1;
}
     232:	557d                	c.li	x10,-1
     234:	8082                	c.jr	x1

00000236 <_close>:

int _close(int file)
{
  return -1;
}
     236:	557d                	c.li	x10,-1
     238:	8082                	c.jr	x1

0000023a <_execve>:

int _execve(const char *name, char *const argv[], char *const env[])
{
  errno = ENOMEM;
     23a:	4731                	c.li	x14,12
     23c:	f0e1ac23          	sw	x14,-232(x3) # 12bb8 <errno>
  return -1;
}
     240:	557d                	c.li	x10,-1
     242:	8082                	c.jr	x1

00000244 <_exit>:

void _exit(int exit_status)
{
  *(volatile int *)EXIT_REG = exit_status;
     244:	200007b7          	lui	x15,0x20000
     248:	c3c8                	c.sw	x10,4(x15)
  asm volatile("wfi");
     24a:	10500073          	wfi
  /* _exit should not return */
  while (1) {};
     24e:	a001                	c.j	24e <_exit+0xa>

00000250 <_faccessat>:
}

int _faccessat(int dirfd, const char *file, int mode, int flags)
{
  errno = ENOSYS;
     250:	05800713          	addi	x14,x0,88
     254:	f0e1ac23          	sw	x14,-232(x3) # 12bb8 <errno>
  return -1;
}
     258:	557d                	c.li	x10,-1
     25a:	8082                	c.jr	x1

0000025c <_fork>:

int _fork(void)
{
  errno = EAGAIN;
     25c:	472d                	c.li	x14,11
     25e:	f0e1ac23          	sw	x14,-232(x3) # 12bb8 <errno>
  return -1;
}
     262:	557d                	c.li	x10,-1
     264:	8082                	c.jr	x1

00000266 <_fstat>:

int _fstat(int file, struct stat *st)
{
  st->st_mode = S_IFCHR;
     266:	6789                	c.lui	x15,0x2
     268:	c1dc                	c.sw	x15,4(x11)
  return 0;
  // errno = -ENOSYS;
  // return -1;
}
     26a:	4501                	c.li	x10,0
     26c:	8082                	c.jr	x1

0000026e <_fstatat>:

int _fstatat(int dirfd, const char *file, struct stat *st, int flags)
{
  errno = ENOSYS;
     26e:	05800713          	addi	x14,x0,88
     272:	f0e1ac23          	sw	x14,-232(x3) # 12bb8 <errno>
  return -1;
}
     276:	557d                	c.li	x10,-1
     278:	8082                	c.jr	x1

0000027a <_ftime>:

int _ftime(struct timeb *tp)
     27a:	05800713          	addi	x14,x0,88
     27e:	f0e1ac23          	sw	x14,-232(x3) # 12bb8 <errno>
     282:	557d                	c.li	x10,-1
     284:	8082                	c.jr	x1

00000286 <_getcwd>:
  return -1;
}

char *_getcwd(char *buf, size_t size)
{
  errno = -ENOSYS;
     286:	fa800713          	addi	x14,x0,-88
     28a:	f0e1ac23          	sw	x14,-232(x3) # 12bb8 <errno>
  return NULL;
}
     28e:	4501                	c.li	x10,0
     290:	8082                	c.jr	x1

00000292 <_getpid>:

int _getpid()
{
  return 1;
}
     292:	4505                	c.li	x10,1
     294:	8082                	c.jr	x1

00000296 <_gettimeofday>:

int _gettimeofday(struct timeval *tp, void *tzp)
{
  errno = -ENOSYS;
     296:	fa800713          	addi	x14,x0,-88
     29a:	f0e1ac23          	sw	x14,-232(x3) # 12bb8 <errno>
  return -1;
}
     29e:	557d                	c.li	x10,-1
     2a0:	8082                	c.jr	x1

000002a2 <_isatty>:

int _isatty(int file)
{
  return (file == STDOUT_FILENO);
     2a2:	157d                	c.addi	x10,-1
}
     2a4:	00153513          	sltiu	x10,x10,1
     2a8:	8082                	c.jr	x1

000002aa <_kill>:

int _kill(int pid, int sig)
{
  errno = EINVAL;
     2aa:	4759                	c.li	x14,22
     2ac:	f0e1ac23          	sw	x14,-232(x3) # 12bb8 <errno>
  return -1;
}
     2b0:	557d                	c.li	x10,-1
     2b2:	8082                	c.jr	x1

000002b4 <_link>:

int _link(const char *old_name, const char *new_name)
{
  errno = EMLINK;
     2b4:	477d                	c.li	x14,31
     2b6:	f0e1ac23          	sw	x14,-232(x3) # 12bb8 <errno>
  return -1;
}
     2ba:	557d                	c.li	x10,-1
     2bc:	8082                	c.jr	x1

000002be <_lseek>:

off_t _lseek(int file, off_t ptr, int dir)
{
  return 0;
}
     2be:	4501                	c.li	x10,0
     2c0:	8082                	c.jr	x1

000002c2 <_lstat>:

int _lstat(const char *file, struct stat *st)
     2c2:	05800713          	addi	x14,x0,88
     2c6:	f0e1ac23          	sw	x14,-232(x3) # 12bb8 <errno>
     2ca:	557d                	c.li	x10,-1
     2cc:	8082                	c.jr	x1

000002ce <_open>:
}

int _open(const char *name, int flags, int mode)
{
  return -1;
}
     2ce:	557d                	c.li	x10,-1
     2d0:	8082                	c.jr	x1

000002d2 <_openat>:

int _openat(int dirfd, const char *name, int flags, int mode)
     2d2:	05800713          	addi	x14,x0,88
     2d6:	f0e1ac23          	sw	x14,-232(x3) # 12bb8 <errno>
     2da:	557d                	c.li	x10,-1
     2dc:	8082                	c.jr	x1

000002de <_read>:
}

ssize_t _read(int file, void *ptr, size_t len)
{
  return 0;
}
     2de:	4501                	c.li	x10,0
     2e0:	8082                	c.jr	x1

000002e2 <_stat>:

int _stat(const char *file, struct stat *st)
{
  st->st_mode = S_IFCHR;
     2e2:	6789                	c.lui	x15,0x2
     2e4:	c1dc                	c.sw	x15,4(x11)
  return 0;
  // errno = ENOSYS;
  // return -1;
}
     2e6:	4501                	c.li	x10,0
     2e8:	8082                	c.jr	x1

000002ea <_sysconf>:

long _sysconf(int name)
     2ea:	557d                	c.li	x10,-1
     2ec:	8082                	c.jr	x1

000002ee <_times>:
}

clock_t _times(struct tms *buf)
{
  return -1;
}
     2ee:	557d                	c.li	x10,-1
     2f0:	8082                	c.jr	x1

000002f2 <_unlink>:

int _unlink(const char *name)
{
  errno = ENOENT;
     2f2:	4709                	c.li	x14,2
     2f4:	f0e1ac23          	sw	x14,-232(x3) # 12bb8 <errno>
  return -1;
}
     2f8:	557d                	c.li	x10,-1
     2fa:	8082                	c.jr	x1

000002fc <_utime>:

int _utime(const char *path, const struct utimbuf *times)
     2fc:	05800713          	addi	x14,x0,88
     300:	f0e1ac23          	sw	x14,-232(x3) # 12bb8 <errno>
     304:	557d                	c.li	x10,-1
     306:	8082                	c.jr	x1

00000308 <_wait>:
  return -1;
}

int _wait(int *status)
{
  errno = ECHILD;
     308:	4729                	c.li	x14,10
     30a:	f0e1ac23          	sw	x14,-232(x3) # 12bb8 <errno>
  return -1;
}
     30e:	557d                	c.li	x10,-1
     310:	8082                	c.jr	x1

00000312 <_write>:

ssize_t _write(int file, const void *ptr, size_t len)
{
  const char *cptr = (char *)ptr;
  if (file != STDOUT_FILENO)
     312:	4685                	c.li	x13,1
    {
      errno = ENOSYS;
      return -1;
    }

  const void *eptr = cptr + len;
     314:	00c587b3          	add	x15,x11,x12
  while (cptr != eptr)
    *(volatile int *)STDOUT_REG = *cptr++;
     318:	10000737          	lui	x14,0x10000
  if (file != STDOUT_FILENO)
     31c:	00d50c63          	beq	x10,x13,334 <_write+0x22>
      errno = ENOSYS;
     320:	05800713          	addi	x14,x0,88
     324:	f0e1ac23          	sw	x14,-232(x3) # 12bb8 <errno>
      return -1;
     328:	557d                	c.li	x10,-1
     32a:	8082                	c.jr	x1
    *(volatile int *)STDOUT_REG = *cptr++;
     32c:	0005c683          	lbu	x13,0(x11)
     330:	0585                	c.addi	x11,1
     332:	c314                	c.sw	x13,0(x14)
  while (cptr != eptr)
     334:	fef59ce3          	bne	x11,x15,32c <_write+0x1a>
  return len;
     338:	8532                	c.mv	x10,x12
}
     33a:	8082                	c.jr	x1

0000033c <_brk>:
extern char __heap_end[];
static char *brk = __heap_start;

int _brk(void *addr)
{
  brk = addr;
     33c:	f0a1a423          	sw	x10,-248(x3) # 12ba8 <brk>
  return 0;
}
     340:	4501                	c.li	x10,0
     342:	8082                	c.jr	x1

00000344 <_sbrk>:

void *_sbrk(ptrdiff_t incr)
{
     344:	87aa                	c.mv	x15,x10
  char *old_brk = brk;
     346:	f081a503          	lw	x10,-248(x3) # 12ba8 <brk>
  register long sp asm("sp");

  char *new_brk = brk += incr;
     34a:	97aa                	c.add	x15,x10
     34c:	f0f1a423          	sw	x15,-248(x3) # 12ba8 <brk>
  if (new_brk < (char *) sp && new_brk < __heap_end)
     350:	0027f863          	bgeu	x15,x2,360 <_sbrk+0x1c>
     354:	00400737          	lui	x14,0x400
     358:	00070713          	addi	x14,x14,0 # 400000 <__heap_end>
     35c:	00e7e663          	bltu	x15,x14,368 <_sbrk+0x24>

      return old_brk;
    }
  else
    {
      errno = ENOMEM;
     360:	4731                	c.li	x14,12
     362:	f0e1ac23          	sw	x14,-232(x3) # 12bb8 <errno>
      return (void *) -1;
     366:	557d                	c.li	x10,-1
    }
}
     368:	8082                	c.jr	x1

0000036a <handle_syscall>:
    register long syscall_id asm("t0");
  #else
    long syscall_id = a7;
  #endif

  switch (syscall_id) {
     36a:	08100793          	addi	x15,x0,129
     36e:	0af88c63          	beq	x17,x15,426 <handle_syscall+0xbc>
     372:	0717c763          	blt	x15,x17,3e0 <handle_syscall+0x76>
     376:	04000793          	addi	x15,x0,64
     37a:	0517c663          	blt	x15,x17,3c6 <handle_syscall+0x5c>
     37e:	02f00793          	addi	x15,x0,47
     382:	0317c563          	blt	x15,x17,3ac <handle_syscall+0x42>
     386:	47c5                	c.li	x15,17
     388:	04f89b63          	bne	x17,x15,3de <handle_syscall+0x74>
  errno = -ENOSYS;
     38c:	fa800713          	addi	x14,x0,-88
     390:	a861                	c.j	428 <handle_syscall+0xbe>
  switch (syscall_id) {
     392:	c0088893          	addi	x17,x17,-1024
     396:	47bd                	c.li	x15,15
     398:	0517e363          	bltu	x15,x17,3de <handle_syscall+0x74>
     39c:	67c9                	c.lui	x15,0x12
     39e:	c8478793          	addi	x15,x15,-892 # 11c84 <no_exception_handler_msg+0x31>
     3a2:	088a                	c.slli	x17,0x2
     3a4:	98be                	c.add	x17,x15
     3a6:	0008a783          	lw	x15,0(x17)
     3aa:	8782                	c.jr	x15
     3ac:	fd088893          	addi	x17,x17,-48
     3b0:	47c1                	c.li	x15,16
     3b2:	0317e663          	bltu	x15,x17,3de <handle_syscall+0x74>
     3b6:	67c9                	c.lui	x15,0x12
     3b8:	cc478793          	addi	x15,x15,-828 # 11cc4 <no_exception_handler_msg+0x71>
     3bc:	088a                	c.slli	x17,0x2
     3be:	98be                	c.add	x17,x15
     3c0:	0008a783          	lw	x15,0(x17)
     3c4:	8782                	c.jr	x15
     3c6:	05000793          	addi	x15,x0,80
     3ca:	06f88963          	beq	x17,x15,43c <handle_syscall+0xd2>
     3ce:	05d00793          	addi	x15,x0,93
     3d2:	04f88363          	beq	x17,x15,418 <handle_syscall+0xae>
     3d6:	04f00793          	addi	x15,x0,79
     3da:	04f88a63          	beq	x17,x15,42e <handle_syscall+0xc4>
      break;
    case SYS_times:
      _times ((struct tms *) a0);
      break;
    default:
      unimplemented_syscall ();
     3de:	b511                	c.j	1e2 <unimplemented_syscall>
  switch (syscall_id) {
     3e0:	40f00793          	addi	x15,x0,1039
     3e4:	ff17cde3          	blt	x15,x17,3de <handle_syscall+0x74>
     3e8:	3ff00793          	addi	x15,x0,1023
     3ec:	fb17c3e3          	blt	x15,x17,392 <handle_syscall+0x28>
     3f0:	0ac00793          	addi	x15,x0,172
     3f4:	04f88763          	beq	x17,x15,442 <handle_syscall+0xd8>
     3f8:	0117c963          	blt	x15,x17,40a <handle_syscall+0xa0>
     3fc:	09900793          	addi	x15,x0,153
     400:	04f88163          	beq	x17,x15,442 <handle_syscall+0xd8>
     404:	0a900793          	addi	x15,x0,169
     408:	b741                	c.j	388 <handle_syscall+0x1e>
     40a:	0d600793          	addi	x15,x0,214
     40e:	fcf898e3          	bne	x17,x15,3de <handle_syscall+0x74>
  brk = addr;
     412:	f0a1a423          	sw	x10,-248(x3) # 12ba8 <brk>
  return 0;
     416:	8082                	c.jr	x1
  *(volatile int *)EXIT_REG = exit_status;
     418:	200007b7          	lui	x15,0x20000
     41c:	c3c8                	c.sw	x10,4(x15)
  asm volatile("wfi");
     41e:	10500073          	wfi
  while (1) {};
     422:	a001                	c.j	422 <handle_syscall+0xb8>
      _write (a0, (const void *) a1, a2);
     424:	b5fd                	c.j	312 <_write>
  errno = EINVAL;
     426:	4759                	c.li	x14,22
  errno = ENOSYS;
     428:	f0e1ac23          	sw	x14,-232(x3) # 12bb8 <errno>
  return -1;
     42c:	8082                	c.jr	x1
  errno = ENOSYS;
     42e:	05800713          	addi	x14,x0,88
     432:	bfdd                	c.j	428 <handle_syscall+0xbe>
  errno = EMLINK;
     434:	477d                	c.li	x14,31
     436:	bfcd                	c.j	428 <handle_syscall+0xbe>
  errno = ENOENT;
     438:	4709                	c.li	x14,2
     43a:	b7fd                	c.j	428 <handle_syscall+0xbe>
  st->st_mode = S_IFCHR;
     43c:	6789                	c.lui	x15,0x2
     43e:	c1dc                	c.sw	x15,4(x11)
  return 0;
     440:	8082                	c.jr	x1
      break;
  }
}
     442:	8082                	c.jr	x1

00000444 <memset>:
     444:	00f00313          	addi	x6,x0,15
     448:	00050713          	addi	x14,x10,0
     44c:	02c37e63          	bgeu	x6,x12,488 <memset+0x44>
     450:	00f77793          	andi	x15,x14,15
     454:	0a079063          	bne	x15,x0,4f4 <memset+0xb0>
     458:	08059263          	bne	x11,x0,4dc <memset+0x98>
     45c:	ff067693          	andi	x13,x12,-16
     460:	00f67613          	andi	x12,x12,15
     464:	00e686b3          	add	x13,x13,x14
     468:	00b72023          	sw	x11,0(x14)
     46c:	00b72223          	sw	x11,4(x14)
     470:	00b72423          	sw	x11,8(x14)
     474:	00b72623          	sw	x11,12(x14)
     478:	01070713          	addi	x14,x14,16
     47c:	fed766e3          	bltu	x14,x13,468 <memset+0x24>
     480:	00061463          	bne	x12,x0,488 <memset+0x44>
     484:	00008067          	jalr	x0,0(x1)
     488:	40c306b3          	sub	x13,x6,x12
     48c:	00269693          	slli	x13,x13,0x2
     490:	00000297          	auipc	x5,0x0
     494:	005686b3          	add	x13,x13,x5
     498:	00c68067          	jalr	x0,12(x13) # 1000000c <__heap_end+0xfc0000c>
     49c:	00b70723          	sb	x11,14(x14)
     4a0:	00b706a3          	sb	x11,13(x14)
     4a4:	00b70623          	sb	x11,12(x14)
     4a8:	00b705a3          	sb	x11,11(x14)
     4ac:	00b70523          	sb	x11,10(x14)
     4b0:	00b704a3          	sb	x11,9(x14)
     4b4:	00b70423          	sb	x11,8(x14)
     4b8:	00b703a3          	sb	x11,7(x14)
     4bc:	00b70323          	sb	x11,6(x14)
     4c0:	00b702a3          	sb	x11,5(x14)
     4c4:	00b70223          	sb	x11,4(x14)
     4c8:	00b701a3          	sb	x11,3(x14)
     4cc:	00b70123          	sb	x11,2(x14)
     4d0:	00b700a3          	sb	x11,1(x14)
     4d4:	00b70023          	sb	x11,0(x14)
     4d8:	00008067          	jalr	x0,0(x1)
     4dc:	0ff5f593          	andi	x11,x11,255
     4e0:	00859693          	slli	x13,x11,0x8
     4e4:	00d5e5b3          	or	x11,x11,x13
     4e8:	01059693          	slli	x13,x11,0x10
     4ec:	00d5e5b3          	or	x11,x11,x13
     4f0:	f6dff06f          	jal	x0,45c <memset+0x18>
     4f4:	00279693          	slli	x13,x15,0x2
     4f8:	00000297          	auipc	x5,0x0
     4fc:	005686b3          	add	x13,x13,x5
     500:	00008293          	addi	x5,x1,0
     504:	fa0680e7          	jalr	x1,-96(x13)
     508:	00028093          	addi	x1,x5,0 # 4f8 <memset+0xb4>
     50c:	ff078793          	addi	x15,x15,-16 # 1ff0 <memmove+0xa4>
     510:	40f70733          	sub	x14,x14,x15
     514:	00f60633          	add	x12,x12,x15
     518:	f6c378e3          	bgeu	x6,x12,488 <memset+0x44>
     51c:	f3dff06f          	jal	x0,458 <memset+0x14>

00000520 <_reclaim_reent>:
     520:	f141a783          	lw	x15,-236(x3) # 12bb4 <_impure_ptr>
     524:	0aa78e63          	beq	x15,x10,5e0 <_reclaim_reent+0xc0>
     528:	04452583          	lw	x11,68(x10)
     52c:	fe010113          	addi	x2,x2,-32
     530:	00912a23          	sw	x9,20(x2)
     534:	00112e23          	sw	x1,28(x2)
     538:	00050493          	addi	x9,x10,0
     53c:	04058c63          	beq	x11,x0,594 <_reclaim_reent+0x74>
     540:	01212823          	sw	x18,16(x2)
     544:	01312623          	sw	x19,12(x2)
     548:	00812c23          	sw	x8,24(x2)
     54c:	00000913          	addi	x18,x0,0
     550:	08000993          	addi	x19,x0,128
     554:	012587b3          	add	x15,x11,x18
     558:	0007a403          	lw	x8,0(x15)
     55c:	00040e63          	beq	x8,x0,578 <_reclaim_reent+0x58>
     560:	00040593          	addi	x11,x8,0
     564:	00042403          	lw	x8,0(x8)
     568:	00048513          	addi	x10,x9,0
     56c:	4f8010ef          	jal	x1,1a64 <_free_r>
     570:	fe0418e3          	bne	x8,x0,560 <_reclaim_reent+0x40>
     574:	0444a583          	lw	x11,68(x9)
     578:	00490913          	addi	x18,x18,4
     57c:	fd391ce3          	bne	x18,x19,554 <_reclaim_reent+0x34>
     580:	00048513          	addi	x10,x9,0
     584:	4e0010ef          	jal	x1,1a64 <_free_r>
     588:	01812403          	lw	x8,24(x2)
     58c:	01012903          	lw	x18,16(x2)
     590:	00c12983          	lw	x19,12(x2)
     594:	0384a583          	lw	x11,56(x9)
     598:	00058663          	beq	x11,x0,5a4 <_reclaim_reent+0x84>
     59c:	00048513          	addi	x10,x9,0
     5a0:	4c4010ef          	jal	x1,1a64 <_free_r>
     5a4:	04c4a583          	lw	x11,76(x9)
     5a8:	00058663          	beq	x11,x0,5b4 <_reclaim_reent+0x94>
     5ac:	00048513          	addi	x10,x9,0
     5b0:	4b4010ef          	jal	x1,1a64 <_free_r>
     5b4:	0344a783          	lw	x15,52(x9)
     5b8:	00078c63          	beq	x15,x0,5d0 <_reclaim_reent+0xb0>
     5bc:	01c12083          	lw	x1,28(x2)
     5c0:	00048513          	addi	x10,x9,0
     5c4:	01412483          	lw	x9,20(x2)
     5c8:	02010113          	addi	x2,x2,32
     5cc:	00078067          	jalr	x0,0(x15)
     5d0:	01c12083          	lw	x1,28(x2)
     5d4:	01412483          	lw	x9,20(x2)
     5d8:	02010113          	addi	x2,x2,32
     5dc:	00008067          	jalr	x0,0(x1)
     5e0:	00008067          	jalr	x0,0(x1)

000005e4 <_printf_r>:
     5e4:	fc010113          	addi	x2,x2,-64
     5e8:	02c12423          	sw	x12,40(x2)
     5ec:	02d12623          	sw	x13,44(x2)
     5f0:	02e12823          	sw	x14,48(x2)
     5f4:	02f12a23          	sw	x15,52(x2)
     5f8:	03012c23          	sw	x16,56(x2)
     5fc:	03112e23          	sw	x17,60(x2)
     600:	00058613          	addi	x12,x11,0
     604:	00852583          	lw	x11,8(x10)
     608:	02810693          	addi	x13,x2,40
     60c:	00112e23          	sw	x1,28(x2)
     610:	00d12623          	sw	x13,12(x2)
     614:	001020ef          	jal	x1,2e14 <_vfprintf_r>
     618:	01c12083          	lw	x1,28(x2)
     61c:	04010113          	addi	x2,x2,64
     620:	00008067          	jalr	x0,0(x1)

00000624 <printf>:
     624:	fc010113          	addi	x2,x2,-64
     628:	02c12423          	sw	x12,40(x2)
     62c:	02d12623          	sw	x13,44(x2)
     630:	02f12a23          	sw	x15,52(x2)
     634:	02b12223          	sw	x11,36(x2)
     638:	02e12823          	sw	x14,48(x2)
     63c:	03012c23          	sw	x16,56(x2)
     640:	03112e23          	sw	x17,60(x2)
     644:	f141a783          	lw	x15,-236(x3) # 12bb4 <_impure_ptr>
     648:	0087a583          	lw	x11,8(x15)
     64c:	02410693          	addi	x13,x2,36
     650:	00050613          	addi	x12,x10,0
     654:	00078513          	addi	x10,x15,0
     658:	00112e23          	sw	x1,28(x2)
     65c:	00d12623          	sw	x13,12(x2)
     660:	7b4020ef          	jal	x1,2e14 <_vfprintf_r>
     664:	01c12083          	lw	x1,28(x2)
     668:	04010113          	addi	x2,x2,64
     66c:	00008067          	jalr	x0,0(x1)

00000670 <_puts_r>:
     670:	fc010113          	addi	x2,x2,-64
     674:	02812c23          	sw	x8,56(x2)
     678:	00050413          	addi	x8,x10,0
     67c:	00058513          	addi	x10,x11,0
     680:	02912a23          	sw	x9,52(x2)
     684:	02112e23          	sw	x1,60(x2)
     688:	00058493          	addi	x9,x11,0
     68c:	5a4020ef          	jal	x1,2c30 <strlen>
     690:	03442783          	lw	x15,52(x8)
     694:	00011597          	auipc	x11,0x11
     698:	3c858593          	addi	x11,x11,968 # 11a5c <__clzsi2+0xc4>
     69c:	00150813          	addi	x16,x10,1
     6a0:	00100613          	addi	x12,x0,1
     6a4:	02010693          	addi	x13,x2,32
     6a8:	00200713          	addi	x14,x0,2
     6ac:	02b12423          	sw	x11,40(x2)
     6b0:	02912023          	sw	x9,32(x2)
     6b4:	02a12223          	sw	x10,36(x2)
     6b8:	01012e23          	sw	x16,28(x2)
     6bc:	02c12623          	sw	x12,44(x2)
     6c0:	00d12a23          	sw	x13,20(x2)
     6c4:	00e12c23          	sw	x14,24(x2)
     6c8:	00842583          	lw	x11,8(x8)
     6cc:	06078063          	beq	x15,x0,72c <_puts_r+0xbc>
     6d0:	00c59783          	lh	x15,12(x11)
     6d4:	00002637          	lui	x12,0x2
     6d8:	01279713          	slli	x14,x15,0x12
     6dc:	02074063          	blt	x14,x0,6fc <_puts_r+0x8c>
     6e0:	0645a703          	lw	x14,100(x11)
     6e4:	ffffe6b7          	lui	x13,0xffffe
     6e8:	fff68693          	addi	x13,x13,-1 # ffffdfff <__heap_end+0xffbfdfff>
     6ec:	00c7e7b3          	or	x15,x15,x12
     6f0:	00d77733          	and	x14,x14,x13
     6f4:	00f59623          	sh	x15,12(x11)
     6f8:	06e5a223          	sw	x14,100(x11)
     6fc:	00040513          	addi	x10,x8,0
     700:	01410613          	addi	x12,x2,20
     704:	3ac000ef          	jal	x1,ab0 <__sfvwrite_r>
     708:	03c12083          	lw	x1,60(x2)
     70c:	03812403          	lw	x8,56(x2)
     710:	00153513          	sltiu	x10,x10,1
     714:	40a00533          	sub	x10,x0,x10
     718:	00b57513          	andi	x10,x10,11
     71c:	03412483          	lw	x9,52(x2)
     720:	fff50513          	addi	x10,x10,-1
     724:	04010113          	addi	x2,x2,64
     728:	00008067          	jalr	x0,0(x1)
     72c:	00040513          	addi	x10,x8,0
     730:	00b12623          	sw	x11,12(x2)
     734:	320000ef          	jal	x1,a54 <__sinit>
     738:	00c12583          	lw	x11,12(x2)
     73c:	f95ff06f          	jal	x0,6d0 <_puts_r+0x60>

00000740 <puts>:
     740:	00050593          	addi	x11,x10,0
     744:	f141a503          	lw	x10,-236(x3) # 12bb4 <_impure_ptr>
     748:	f29ff06f          	jal	x0,670 <_puts_r>

0000074c <__fp_lock>:
     74c:	00000513          	addi	x10,x0,0
     750:	00008067          	jalr	x0,0(x1)

00000754 <stdio_exit_handler>:
     754:	00012617          	auipc	x12,0x12
     758:	d4c60613          	addi	x12,x12,-692 # 124a0 <__sglue>
     75c:	00001597          	auipc	x11,0x1
     760:	85058593          	addi	x11,x11,-1968 # fac <_fclose_r>
     764:	c1818513          	addi	x10,x3,-1000 # 128b8 <_impure_data>
     768:	1010106f          	jal	x0,2068 <_fwalk_sglue>

0000076c <cleanup_stdio>:
     76c:	00452583          	lw	x11,4(x10)
     770:	ff010113          	addi	x2,x2,-16
     774:	00812423          	sw	x8,8(x2)
     778:	00112623          	sw	x1,12(x2)
     77c:	f3418793          	addi	x15,x3,-204 # 12bd4 <__sf>
     780:	00050413          	addi	x8,x10,0
     784:	00f58463          	beq	x11,x15,78c <cleanup_stdio+0x20>
     788:	025000ef          	jal	x1,fac <_fclose_r>
     78c:	00842583          	lw	x11,8(x8)
     790:	f9c18793          	addi	x15,x3,-100 # 12c3c <__sf+0x68>
     794:	00f58663          	beq	x11,x15,7a0 <cleanup_stdio+0x34>
     798:	00040513          	addi	x10,x8,0
     79c:	011000ef          	jal	x1,fac <_fclose_r>
     7a0:	00c42583          	lw	x11,12(x8)
     7a4:	00418793          	addi	x15,x3,4 # 12ca4 <__global_pointer$+0x4>
     7a8:	00f58c63          	beq	x11,x15,7c0 <cleanup_stdio+0x54>
     7ac:	00040513          	addi	x10,x8,0
     7b0:	00812403          	lw	x8,8(x2)
     7b4:	00c12083          	lw	x1,12(x2)
     7b8:	01010113          	addi	x2,x2,16
     7bc:	7f00006f          	jal	x0,fac <_fclose_r>
     7c0:	00c12083          	lw	x1,12(x2)
     7c4:	00812403          	lw	x8,8(x2)
     7c8:	01010113          	addi	x2,x2,16
     7cc:	00008067          	jalr	x0,0(x1)

000007d0 <__fp_unlock>:
     7d0:	00000513          	addi	x10,x0,0
     7d4:	00008067          	jalr	x0,0(x1)

000007d8 <global_stdio_init.part.0>:
     7d8:	fe010113          	addi	x2,x2,-32
     7dc:	00112e23          	sw	x1,28(x2)
     7e0:	00812c23          	sw	x8,24(x2)
     7e4:	00912a23          	sw	x9,20(x2)
     7e8:	f3418413          	addi	x8,x3,-204 # 12bd4 <__sf>
     7ec:	01212823          	sw	x18,16(x2)
     7f0:	01312623          	sw	x19,12(x2)
     7f4:	01412423          	sw	x20,8(x2)
     7f8:	00000717          	auipc	x14,0x0
     7fc:	f5c70713          	addi	x14,x14,-164 # 754 <stdio_exit_handler>
     800:	00400793          	addi	x15,x0,4
     804:	00800613          	addi	x12,x0,8
     808:	00000593          	addi	x11,x0,0
     80c:	f9018513          	addi	x10,x3,-112 # 12c30 <__sf+0x5c>
     810:	f0e1ae23          	sw	x14,-228(x3) # 12bbc <__stdio_exit_handler>
     814:	00f42623          	sw	x15,12(x8)
     818:	00042023          	sw	x0,0(x8)
     81c:	00042223          	sw	x0,4(x8)
     820:	00042423          	sw	x0,8(x8)
     824:	06042223          	sw	x0,100(x8)
     828:	00042823          	sw	x0,16(x8)
     82c:	00042a23          	sw	x0,20(x8)
     830:	00042c23          	sw	x0,24(x8)
     834:	c11ff0ef          	jal	x1,444 <memset>
     838:	000107b7          	lui	x15,0x10
     83c:	00002a17          	auipc	x20,0x2
     840:	480a0a13          	addi	x20,x20,1152 # 2cbc <__sread>
     844:	00002997          	auipc	x19,0x2
     848:	4dc98993          	addi	x19,x19,1244 # 2d20 <__swrite>
     84c:	00002917          	auipc	x18,0x2
     850:	55c90913          	addi	x18,x18,1372 # 2da8 <__sseek>
     854:	00002497          	auipc	x9,0x2
     858:	5b848493          	addi	x9,x9,1464 # 2e0c <__sclose>
     85c:	00978793          	addi	x15,x15,9 # 10009 <__subtf3+0x301>
     860:	00800613          	addi	x12,x0,8
     864:	00000593          	addi	x11,x0,0
     868:	ff818513          	addi	x10,x3,-8 # 12c98 <__sf+0xc4>
     86c:	06f42a23          	sw	x15,116(x8)
     870:	03442023          	sw	x20,32(x8)
     874:	03342223          	sw	x19,36(x8)
     878:	03242423          	sw	x18,40(x8)
     87c:	02942623          	sw	x9,44(x8)
     880:	00842e23          	sw	x8,28(x8)
     884:	06042423          	sw	x0,104(x8)
     888:	06042623          	sw	x0,108(x8)
     88c:	06042823          	sw	x0,112(x8)
     890:	0c042623          	sw	x0,204(x8)
     894:	06042c23          	sw	x0,120(x8)
     898:	06042e23          	sw	x0,124(x8)
     89c:	08042023          	sw	x0,128(x8)
     8a0:	ba5ff0ef          	jal	x1,444 <memset>
     8a4:	000207b7          	lui	x15,0x20
     8a8:	01278793          	addi	x15,x15,18 # 20012 <__heap_start+0xd142>
     8ac:	f9c18713          	addi	x14,x3,-100 # 12c3c <__sf+0x68>
     8b0:	00800613          	addi	x12,x0,8
     8b4:	00000593          	addi	x11,x0,0
     8b8:	06018513          	addi	x10,x3,96 # 12d00 <__global_pointer$+0x60>
     8bc:	09442423          	sw	x20,136(x8)
     8c0:	09342623          	sw	x19,140(x8)
     8c4:	09242823          	sw	x18,144(x8)
     8c8:	08942a23          	sw	x9,148(x8)
     8cc:	0cf42e23          	sw	x15,220(x8)
     8d0:	0c042823          	sw	x0,208(x8)
     8d4:	0c042a23          	sw	x0,212(x8)
     8d8:	0c042c23          	sw	x0,216(x8)
     8dc:	12042a23          	sw	x0,308(x8)
     8e0:	0e042023          	sw	x0,224(x8)
     8e4:	0e042223          	sw	x0,228(x8)
     8e8:	0e042423          	sw	x0,232(x8)
     8ec:	08e42223          	sw	x14,132(x8)
     8f0:	b55ff0ef          	jal	x1,444 <memset>
     8f4:	00418793          	addi	x15,x3,4 # 12ca4 <__global_pointer$+0x4>
     8f8:	0f442823          	sw	x20,240(x8)
     8fc:	0f342a23          	sw	x19,244(x8)
     900:	0f242c23          	sw	x18,248(x8)
     904:	0e942e23          	sw	x9,252(x8)
     908:	01c12083          	lw	x1,28(x2)
     90c:	0ef42623          	sw	x15,236(x8)
     910:	01812403          	lw	x8,24(x2)
     914:	01412483          	lw	x9,20(x2)
     918:	01012903          	lw	x18,16(x2)
     91c:	00c12983          	lw	x19,12(x2)
     920:	00812a03          	lw	x20,8(x2)
     924:	02010113          	addi	x2,x2,32
     928:	00008067          	jalr	x0,0(x1)

0000092c <__sfp>:
     92c:	fe010113          	addi	x2,x2,-32
     930:	01312623          	sw	x19,12(x2)
     934:	00112e23          	sw	x1,28(x2)
     938:	00812c23          	sw	x8,24(x2)
     93c:	00912a23          	sw	x9,20(x2)
     940:	01212823          	sw	x18,16(x2)
     944:	f1c1a783          	lw	x15,-228(x3) # 12bbc <__stdio_exit_handler>
     948:	00050993          	addi	x19,x10,0
     94c:	0e078863          	beq	x15,x0,a3c <__sfp+0x110>
     950:	00012917          	auipc	x18,0x12
     954:	b5090913          	addi	x18,x18,-1200 # 124a0 <__sglue>
     958:	fff00493          	addi	x9,x0,-1
     95c:	00492783          	lw	x15,4(x18)
     960:	00892403          	lw	x8,8(x18)
     964:	fff78793          	addi	x15,x15,-1
     968:	0007d863          	bge	x15,x0,978 <__sfp+0x4c>
     96c:	0800006f          	jal	x0,9ec <__sfp+0xc0>
     970:	06840413          	addi	x8,x8,104
     974:	06978c63          	beq	x15,x9,9ec <__sfp+0xc0>
     978:	00c41703          	lh	x14,12(x8)
     97c:	fff78793          	addi	x15,x15,-1
     980:	fe0718e3          	bne	x14,x0,970 <__sfp+0x44>
     984:	ffff07b7          	lui	x15,0xffff0
     988:	00178793          	addi	x15,x15,1 # ffff0001 <__heap_end+0xffbf0001>
     98c:	06042223          	sw	x0,100(x8)
     990:	00042023          	sw	x0,0(x8)
     994:	00042423          	sw	x0,8(x8)
     998:	00042223          	sw	x0,4(x8)
     99c:	00042823          	sw	x0,16(x8)
     9a0:	00042a23          	sw	x0,20(x8)
     9a4:	00042c23          	sw	x0,24(x8)
     9a8:	00f42623          	sw	x15,12(x8)
     9ac:	00800613          	addi	x12,x0,8
     9b0:	00000593          	addi	x11,x0,0
     9b4:	05c40513          	addi	x10,x8,92
     9b8:	a8dff0ef          	jal	x1,444 <memset>
     9bc:	02042823          	sw	x0,48(x8)
     9c0:	02042a23          	sw	x0,52(x8)
     9c4:	04042223          	sw	x0,68(x8)
     9c8:	04042423          	sw	x0,72(x8)
     9cc:	01c12083          	lw	x1,28(x2)
     9d0:	00040513          	addi	x10,x8,0
     9d4:	01812403          	lw	x8,24(x2)
     9d8:	01412483          	lw	x9,20(x2)
     9dc:	01012903          	lw	x18,16(x2)
     9e0:	00c12983          	lw	x19,12(x2)
     9e4:	02010113          	addi	x2,x2,32
     9e8:	00008067          	jalr	x0,0(x1)
     9ec:	00092403          	lw	x8,0(x18)
     9f0:	00040663          	beq	x8,x0,9fc <__sfp+0xd0>
     9f4:	00040913          	addi	x18,x8,0
     9f8:	f65ff06f          	jal	x0,95c <__sfp+0x30>
     9fc:	1ac00593          	addi	x11,x0,428
     a00:	00098513          	addi	x10,x19,0
     a04:	6bc000ef          	jal	x1,10c0 <_malloc_r>
     a08:	00050413          	addi	x8,x10,0
     a0c:	02050c63          	beq	x10,x0,a44 <__sfp+0x118>
     a10:	00400793          	addi	x15,x0,4
     a14:	00c50513          	addi	x10,x10,12
     a18:	00042023          	sw	x0,0(x8)
     a1c:	00f42223          	sw	x15,4(x8)
     a20:	00a42423          	sw	x10,8(x8)
     a24:	1a000613          	addi	x12,x0,416
     a28:	00000593          	addi	x11,x0,0
     a2c:	a19ff0ef          	jal	x1,444 <memset>
     a30:	00892023          	sw	x8,0(x18)
     a34:	00040913          	addi	x18,x8,0
     a38:	f25ff06f          	jal	x0,95c <__sfp+0x30>
     a3c:	d9dff0ef          	jal	x1,7d8 <global_stdio_init.part.0>
     a40:	f11ff06f          	jal	x0,950 <__sfp+0x24>
     a44:	00092023          	sw	x0,0(x18)
     a48:	00c00793          	addi	x15,x0,12
     a4c:	00f9a023          	sw	x15,0(x19)
     a50:	f7dff06f          	jal	x0,9cc <__sfp+0xa0>

00000a54 <__sinit>:
     a54:	03452783          	lw	x15,52(x10)
     a58:	00078463          	beq	x15,x0,a60 <__sinit+0xc>
     a5c:	00008067          	jalr	x0,0(x1)
     a60:	00000797          	auipc	x15,0x0
     a64:	d0c78793          	addi	x15,x15,-756 # 76c <cleanup_stdio>
     a68:	02f52a23          	sw	x15,52(x10)
     a6c:	f1c1a783          	lw	x15,-228(x3) # 12bbc <__stdio_exit_handler>
     a70:	fe0796e3          	bne	x15,x0,a5c <__sinit+0x8>
     a74:	d65ff06f          	jal	x0,7d8 <global_stdio_init.part.0>

00000a78 <__sfp_lock_acquire>:
     a78:	00008067          	jalr	x0,0(x1)

00000a7c <__sfp_lock_release>:
     a7c:	00008067          	jalr	x0,0(x1)

00000a80 <__fp_lock_all>:
     a80:	00012617          	auipc	x12,0x12
     a84:	a2060613          	addi	x12,x12,-1504 # 124a0 <__sglue>
     a88:	00000597          	auipc	x11,0x0
     a8c:	cc458593          	addi	x11,x11,-828 # 74c <__fp_lock>
     a90:	00000513          	addi	x10,x0,0
     a94:	5d40106f          	jal	x0,2068 <_fwalk_sglue>

00000a98 <__fp_unlock_all>:
     a98:	00012617          	auipc	x12,0x12
     a9c:	a0860613          	addi	x12,x12,-1528 # 124a0 <__sglue>
     aa0:	00000597          	auipc	x11,0x0
     aa4:	d3058593          	addi	x11,x11,-720 # 7d0 <__fp_unlock>
     aa8:	00000513          	addi	x10,x0,0
     aac:	5bc0106f          	jal	x0,2068 <_fwalk_sglue>

00000ab0 <__sfvwrite_r>:
     ab0:	00862783          	lw	x15,8(x12)
     ab4:	24078063          	beq	x15,x0,cf4 <__sfvwrite_r+0x244>
     ab8:	00c59703          	lh	x14,12(x11)
     abc:	fd010113          	addi	x2,x2,-48
     ac0:	02812423          	sw	x8,40(x2)
     ac4:	01412c23          	sw	x20,24(x2)
     ac8:	01512a23          	sw	x21,20(x2)
     acc:	02112623          	sw	x1,44(x2)
     ad0:	00877793          	andi	x15,x14,8
     ad4:	00060a13          	addi	x20,x12,0
     ad8:	00050a93          	addi	x21,x10,0
     adc:	00058413          	addi	x8,x11,0
     ae0:	0a078263          	beq	x15,x0,b84 <__sfvwrite_r+0xd4>
     ae4:	0105a783          	lw	x15,16(x11)
     ae8:	08078e63          	beq	x15,x0,b84 <__sfvwrite_r+0xd4>
     aec:	02912223          	sw	x9,36(x2)
     af0:	03212023          	sw	x18,32(x2)
     af4:	01312e23          	sw	x19,28(x2)
     af8:	01612823          	sw	x22,16(x2)
     afc:	00277793          	andi	x15,x14,2
     b00:	000a2483          	lw	x9,0(x20)
     b04:	0a078863          	beq	x15,x0,bb4 <__sfvwrite_r+0x104>
     b08:	80000b37          	lui	x22,0x80000
     b0c:	c00b0b13          	addi	x22,x22,-1024 # 7ffffc00 <__heap_end+0x7fbffc00>
     b10:	00000993          	addi	x19,x0,0
     b14:	00000913          	addi	x18,x0,0
     b18:	00098613          	addi	x12,x19,0
     b1c:	000a8513          	addi	x10,x21,0
     b20:	1c090263          	beq	x18,x0,ce4 <__sfvwrite_r+0x234>
     b24:	00090693          	addi	x13,x18,0
     b28:	012b7463          	bgeu	x22,x18,b30 <__sfvwrite_r+0x80>
     b2c:	000b0693          	addi	x13,x22,0
     b30:	02442783          	lw	x15,36(x8)
     b34:	01c42583          	lw	x11,28(x8)
     b38:	000780e7          	jalr	x1,0(x15)
     b3c:	44a05663          	bge	x0,x10,f88 <__sfvwrite_r+0x4d8>
     b40:	008a2783          	lw	x15,8(x20)
     b44:	00a989b3          	add	x19,x19,x10
     b48:	40a90933          	sub	x18,x18,x10
     b4c:	40a787b3          	sub	x15,x15,x10
     b50:	00fa2423          	sw	x15,8(x20)
     b54:	fc0792e3          	bne	x15,x0,b18 <__sfvwrite_r+0x68>
     b58:	02412483          	lw	x9,36(x2)
     b5c:	02012903          	lw	x18,32(x2)
     b60:	01c12983          	lw	x19,28(x2)
     b64:	01012b03          	lw	x22,16(x2)
     b68:	00000513          	addi	x10,x0,0
     b6c:	02c12083          	lw	x1,44(x2)
     b70:	02812403          	lw	x8,40(x2)
     b74:	01812a03          	lw	x20,24(x2)
     b78:	01412a83          	lw	x21,20(x2)
     b7c:	03010113          	addi	x2,x2,48
     b80:	00008067          	jalr	x0,0(x1)
     b84:	00040593          	addi	x11,x8,0
     b88:	000a8513          	addi	x10,x21,0
     b8c:	761010ef          	jal	x1,2aec <__swsetup_r>
     b90:	28051e63          	bne	x10,x0,e2c <__sfvwrite_r+0x37c>
     b94:	00c41703          	lh	x14,12(x8)
     b98:	02912223          	sw	x9,36(x2)
     b9c:	03212023          	sw	x18,32(x2)
     ba0:	01312e23          	sw	x19,28(x2)
     ba4:	01612823          	sw	x22,16(x2)
     ba8:	00277793          	andi	x15,x14,2
     bac:	000a2483          	lw	x9,0(x20)
     bb0:	f4079ce3          	bne	x15,x0,b08 <__sfvwrite_r+0x58>
     bb4:	01712623          	sw	x23,12(x2)
     bb8:	01812423          	sw	x24,8(x2)
     bbc:	01912223          	sw	x25,4(x2)
     bc0:	00177793          	andi	x15,x14,1
     bc4:	12079c63          	bne	x15,x0,cfc <__sfvwrite_r+0x24c>
     bc8:	80000bb7          	lui	x23,0x80000
     bcc:	fffb8b93          	addi	x23,x23,-1 # 7fffffff <__heap_end+0x7fbfffff>
     bd0:	00000b13          	addi	x22,x0,0
     bd4:	00000913          	addi	x18,x0,0
     bd8:	0e090e63          	beq	x18,x0,cd4 <__sfvwrite_r+0x224>
     bdc:	20077793          	andi	x15,x14,512
     be0:	00042503          	lw	x10,0(x8)
     be4:	00842c03          	lw	x24,8(x8)
     be8:	24078663          	beq	x15,x0,e34 <__sfvwrite_r+0x384>
     bec:	000c0c93          	addi	x25,x24,0
     bf0:	31896263          	bltu	x18,x24,ef4 <__sfvwrite_r+0x444>
     bf4:	48077793          	andi	x15,x14,1152
     bf8:	08078a63          	beq	x15,x0,c8c <__sfvwrite_r+0x1dc>
     bfc:	01442683          	lw	x13,20(x8)
     c00:	01042583          	lw	x11,16(x8)
     c04:	00169793          	slli	x15,x13,0x1
     c08:	00d787b3          	add	x15,x15,x13
     c0c:	01f7d993          	srli	x19,x15,0x1f
     c10:	40b50c33          	sub	x24,x10,x11
     c14:	00f989b3          	add	x19,x19,x15
     c18:	001c0793          	addi	x15,x24,1
     c1c:	4019d993          	srai	x19,x19,0x1
     c20:	012787b3          	add	x15,x15,x18
     c24:	00098613          	addi	x12,x19,0
     c28:	00f9f663          	bgeu	x19,x15,c34 <__sfvwrite_r+0x184>
     c2c:	00078993          	addi	x19,x15,0
     c30:	00078613          	addi	x12,x15,0
     c34:	40077713          	andi	x14,x14,1024
     c38:	30070463          	beq	x14,x0,f40 <__sfvwrite_r+0x490>
     c3c:	00060593          	addi	x11,x12,0
     c40:	000a8513          	addi	x10,x21,0
     c44:	47c000ef          	jal	x1,10c0 <_malloc_r>
     c48:	00050c93          	addi	x25,x10,0
     c4c:	34050263          	beq	x10,x0,f90 <__sfvwrite_r+0x4e0>
     c50:	01042583          	lw	x11,16(x8)
     c54:	000c0613          	addi	x12,x24,0
     c58:	104010ef          	jal	x1,1d5c <memcpy>
     c5c:	00c45783          	lhu	x15,12(x8)
     c60:	b7f7f793          	andi	x15,x15,-1153
     c64:	0807e793          	ori	x15,x15,128
     c68:	00f41623          	sh	x15,12(x8)
     c6c:	018c8533          	add	x10,x25,x24
     c70:	41898c33          	sub	x24,x19,x24
     c74:	01942823          	sw	x25,16(x8)
     c78:	01842423          	sw	x24,8(x8)
     c7c:	00a42023          	sw	x10,0(x8)
     c80:	01342a23          	sw	x19,20(x8)
     c84:	00090c13          	addi	x24,x18,0
     c88:	00090c93          	addi	x25,x18,0
     c8c:	000b0593          	addi	x11,x22,0
     c90:	000c8613          	addi	x12,x25,0
     c94:	2b8010ef          	jal	x1,1f4c <memmove>
     c98:	00042783          	lw	x15,0(x8)
     c9c:	00842703          	lw	x14,8(x8)
     ca0:	00090993          	addi	x19,x18,0
     ca4:	019787b3          	add	x15,x15,x25
     ca8:	00f42023          	sw	x15,0(x8)
     cac:	008a2783          	lw	x15,8(x20)
     cb0:	41870733          	sub	x14,x14,x24
     cb4:	00e42423          	sw	x14,8(x8)
     cb8:	413787b3          	sub	x15,x15,x19
     cbc:	00fa2423          	sw	x15,8(x20)
     cc0:	00000913          	addi	x18,x0,0
     cc4:	013b0b33          	add	x22,x22,x19
     cc8:	1c078263          	beq	x15,x0,e8c <__sfvwrite_r+0x3dc>
     ccc:	00c41703          	lh	x14,12(x8)
     cd0:	f00916e3          	bne	x18,x0,bdc <__sfvwrite_r+0x12c>
     cd4:	0004ab03          	lw	x22,0(x9)
     cd8:	0044a903          	lw	x18,4(x9)
     cdc:	00848493          	addi	x9,x9,8
     ce0:	ef9ff06f          	jal	x0,bd8 <__sfvwrite_r+0x128>
     ce4:	0004a983          	lw	x19,0(x9)
     ce8:	0044a903          	lw	x18,4(x9)
     cec:	00848493          	addi	x9,x9,8
     cf0:	e29ff06f          	jal	x0,b18 <__sfvwrite_r+0x68>
     cf4:	00000513          	addi	x10,x0,0
     cf8:	00008067          	jalr	x0,0(x1)
     cfc:	01a12023          	sw	x26,0(x2)
     d00:	00000b13          	addi	x22,x0,0
     d04:	00000513          	addi	x10,x0,0
     d08:	00000d13          	addi	x26,x0,0
     d0c:	00000993          	addi	x19,x0,0
     d10:	00a00c13          	addi	x24,x0,10
     d14:	00100b93          	addi	x23,x0,1
     d18:	08098663          	beq	x19,x0,da4 <__sfvwrite_r+0x2f4>
     d1c:	08050e63          	beq	x10,x0,db8 <__sfvwrite_r+0x308>
     d20:	000b0793          	addi	x15,x22,0
     d24:	00098c93          	addi	x25,x19,0
     d28:	0137f463          	bgeu	x15,x19,d30 <__sfvwrite_r+0x280>
     d2c:	00078c93          	addi	x25,x15,0
     d30:	00042503          	lw	x10,0(x8)
     d34:	01042783          	lw	x15,16(x8)
     d38:	01442683          	lw	x13,20(x8)
     d3c:	00a7f863          	bgeu	x15,x10,d4c <__sfvwrite_r+0x29c>
     d40:	00842903          	lw	x18,8(x8)
     d44:	01268933          	add	x18,x13,x18
     d48:	09994863          	blt	x18,x25,dd8 <__sfvwrite_r+0x328>
     d4c:	1cdcc463          	blt	x25,x13,f14 <__sfvwrite_r+0x464>
     d50:	02442783          	lw	x15,36(x8)
     d54:	01c42583          	lw	x11,28(x8)
     d58:	000d0613          	addi	x12,x26,0
     d5c:	000a8513          	addi	x10,x21,0
     d60:	000780e7          	jalr	x1,0(x15)
     d64:	00050913          	addi	x18,x10,0
     d68:	08a05c63          	bge	x0,x10,e00 <__sfvwrite_r+0x350>
     d6c:	412b0b33          	sub	x22,x22,x18
     d70:	000b8513          	addi	x10,x23,0
     d74:	180b0663          	beq	x22,x0,f00 <__sfvwrite_r+0x450>
     d78:	008a2783          	lw	x15,8(x20)
     d7c:	012d0d33          	add	x26,x26,x18
     d80:	412989b3          	sub	x19,x19,x18
     d84:	412787b3          	sub	x15,x15,x18
     d88:	00fa2423          	sw	x15,8(x20)
     d8c:	f80796e3          	bne	x15,x0,d18 <__sfvwrite_r+0x268>
     d90:	00c12b83          	lw	x23,12(x2)
     d94:	00812c03          	lw	x24,8(x2)
     d98:	00412c83          	lw	x25,4(x2)
     d9c:	00012d03          	lw	x26,0(x2)
     da0:	db9ff06f          	jal	x0,b58 <__sfvwrite_r+0xa8>
     da4:	0044a983          	lw	x19,4(x9)
     da8:	00048793          	addi	x15,x9,0
     dac:	00848493          	addi	x9,x9,8
     db0:	fe098ae3          	beq	x19,x0,da4 <__sfvwrite_r+0x2f4>
     db4:	0007ad03          	lw	x26,0(x15)
     db8:	00098613          	addi	x12,x19,0
     dbc:	000c0593          	addi	x11,x24,0
     dc0:	000d0513          	addi	x10,x26,0
     dc4:	0bc010ef          	jal	x1,1e80 <memchr>
     dc8:	1a050a63          	beq	x10,x0,f7c <__sfvwrite_r+0x4cc>
     dcc:	00150513          	addi	x10,x10,1
     dd0:	41a50b33          	sub	x22,x10,x26
     dd4:	f4dff06f          	jal	x0,d20 <__sfvwrite_r+0x270>
     dd8:	000d0593          	addi	x11,x26,0
     ddc:	00090613          	addi	x12,x18,0
     de0:	16c010ef          	jal	x1,1f4c <memmove>
     de4:	00042783          	lw	x15,0(x8)
     de8:	00040593          	addi	x11,x8,0
     dec:	000a8513          	addi	x10,x21,0
     df0:	012787b3          	add	x15,x15,x18
     df4:	00f42023          	sw	x15,0(x8)
     df8:	339010ef          	jal	x1,2930 <_fflush_r>
     dfc:	f60508e3          	beq	x10,x0,d6c <__sfvwrite_r+0x2bc>
     e00:	00c41783          	lh	x15,12(x8)
     e04:	00c12b83          	lw	x23,12(x2)
     e08:	00812c03          	lw	x24,8(x2)
     e0c:	00412c83          	lw	x25,4(x2)
     e10:	00012d03          	lw	x26,0(x2)
     e14:	02412483          	lw	x9,36(x2)
     e18:	02012903          	lw	x18,32(x2)
     e1c:	01c12983          	lw	x19,28(x2)
     e20:	01012b03          	lw	x22,16(x2)
     e24:	0407e793          	ori	x15,x15,64
     e28:	00f41623          	sh	x15,12(x8)
     e2c:	fff00513          	addi	x10,x0,-1
     e30:	d3dff06f          	jal	x0,b6c <__sfvwrite_r+0xbc>
     e34:	01042783          	lw	x15,16(x8)
     e38:	06a7e263          	bltu	x15,x10,e9c <__sfvwrite_r+0x3ec>
     e3c:	01442783          	lw	x15,20(x8)
     e40:	04f96e63          	bltu	x18,x15,e9c <__sfvwrite_r+0x3ec>
     e44:	00090693          	addi	x13,x18,0
     e48:	012bf463          	bgeu	x23,x18,e50 <__sfvwrite_r+0x3a0>
     e4c:	000b8693          	addi	x13,x23,0
     e50:	02f6e7b3          	rem	x15,x13,x15
     e54:	02442703          	lw	x14,36(x8)
     e58:	01c42583          	lw	x11,28(x8)
     e5c:	000b0613          	addi	x12,x22,0
     e60:	000a8513          	addi	x10,x21,0
     e64:	40f686b3          	sub	x13,x13,x15
     e68:	000700e7          	jalr	x1,0(x14)
     e6c:	00050993          	addi	x19,x10,0
     e70:	06a05863          	bge	x0,x10,ee0 <__sfvwrite_r+0x430>
     e74:	008a2783          	lw	x15,8(x20)
     e78:	41390933          	sub	x18,x18,x19
     e7c:	013b0b33          	add	x22,x22,x19
     e80:	413787b3          	sub	x15,x15,x19
     e84:	00fa2423          	sw	x15,8(x20)
     e88:	e40792e3          	bne	x15,x0,ccc <__sfvwrite_r+0x21c>
     e8c:	00c12b83          	lw	x23,12(x2)
     e90:	00812c03          	lw	x24,8(x2)
     e94:	00412c83          	lw	x25,4(x2)
     e98:	cc1ff06f          	jal	x0,b58 <__sfvwrite_r+0xa8>
     e9c:	000c0993          	addi	x19,x24,0
     ea0:	01897463          	bgeu	x18,x24,ea8 <__sfvwrite_r+0x3f8>
     ea4:	00090993          	addi	x19,x18,0
     ea8:	00098613          	addi	x12,x19,0
     eac:	000b0593          	addi	x11,x22,0
     eb0:	09c010ef          	jal	x1,1f4c <memmove>
     eb4:	00042703          	lw	x14,0(x8)
     eb8:	00842783          	lw	x15,8(x8)
     ebc:	01370733          	add	x14,x14,x19
     ec0:	413787b3          	sub	x15,x15,x19
     ec4:	00e42023          	sw	x14,0(x8)
     ec8:	00f42423          	sw	x15,8(x8)
     ecc:	fa0794e3          	bne	x15,x0,e74 <__sfvwrite_r+0x3c4>
     ed0:	00040593          	addi	x11,x8,0
     ed4:	000a8513          	addi	x10,x21,0
     ed8:	259010ef          	jal	x1,2930 <_fflush_r>
     edc:	f8050ce3          	beq	x10,x0,e74 <__sfvwrite_r+0x3c4>
     ee0:	00c41783          	lh	x15,12(x8)
     ee4:	00c12b83          	lw	x23,12(x2)
     ee8:	00812c03          	lw	x24,8(x2)
     eec:	00412c83          	lw	x25,4(x2)
     ef0:	f25ff06f          	jal	x0,e14 <__sfvwrite_r+0x364>
     ef4:	00090c13          	addi	x24,x18,0
     ef8:	00090c93          	addi	x25,x18,0
     efc:	d91ff06f          	jal	x0,c8c <__sfvwrite_r+0x1dc>
     f00:	00040593          	addi	x11,x8,0
     f04:	000a8513          	addi	x10,x21,0
     f08:	229010ef          	jal	x1,2930 <_fflush_r>
     f0c:	e60506e3          	beq	x10,x0,d78 <__sfvwrite_r+0x2c8>
     f10:	ef1ff06f          	jal	x0,e00 <__sfvwrite_r+0x350>
     f14:	000c8613          	addi	x12,x25,0
     f18:	000d0593          	addi	x11,x26,0
     f1c:	030010ef          	jal	x1,1f4c <memmove>
     f20:	00842703          	lw	x14,8(x8)
     f24:	00042783          	lw	x15,0(x8)
     f28:	000c8913          	addi	x18,x25,0
     f2c:	41970733          	sub	x14,x14,x25
     f30:	019787b3          	add	x15,x15,x25
     f34:	00e42423          	sw	x14,8(x8)
     f38:	00f42023          	sw	x15,0(x8)
     f3c:	e31ff06f          	jal	x0,d6c <__sfvwrite_r+0x2bc>
     f40:	000a8513          	addi	x10,x21,0
     f44:	1d8010ef          	jal	x1,211c <_realloc_r>
     f48:	00050c93          	addi	x25,x10,0
     f4c:	d20510e3          	bne	x10,x0,c6c <__sfvwrite_r+0x1bc>
     f50:	01042583          	lw	x11,16(x8)
     f54:	000a8513          	addi	x10,x21,0
     f58:	30d000ef          	jal	x1,1a64 <_free_r>
     f5c:	00c41783          	lh	x15,12(x8)
     f60:	00c00713          	addi	x14,x0,12
     f64:	00c12b83          	lw	x23,12(x2)
     f68:	00812c03          	lw	x24,8(x2)
     f6c:	00412c83          	lw	x25,4(x2)
     f70:	00eaa023          	sw	x14,0(x21)
     f74:	f7f7f793          	andi	x15,x15,-129
     f78:	e9dff06f          	jal	x0,e14 <__sfvwrite_r+0x364>
     f7c:	00198793          	addi	x15,x19,1
     f80:	00078b13          	addi	x22,x15,0
     f84:	da1ff06f          	jal	x0,d24 <__sfvwrite_r+0x274>
     f88:	00c41783          	lh	x15,12(x8)
     f8c:	e89ff06f          	jal	x0,e14 <__sfvwrite_r+0x364>
     f90:	00c00793          	addi	x15,x0,12
     f94:	00faa023          	sw	x15,0(x21)
     f98:	00c12b83          	lw	x23,12(x2)
     f9c:	00c41783          	lh	x15,12(x8)
     fa0:	00812c03          	lw	x24,8(x2)
     fa4:	00412c83          	lw	x25,4(x2)
     fa8:	e6dff06f          	jal	x0,e14 <__sfvwrite_r+0x364>

00000fac <_fclose_r>:
     fac:	ff010113          	addi	x2,x2,-16
     fb0:	00112623          	sw	x1,12(x2)
     fb4:	01212023          	sw	x18,0(x2)
     fb8:	02058863          	beq	x11,x0,fe8 <_fclose_r+0x3c>
     fbc:	00812423          	sw	x8,8(x2)
     fc0:	00912223          	sw	x9,4(x2)
     fc4:	00058413          	addi	x8,x11,0
     fc8:	00050493          	addi	x9,x10,0
     fcc:	00050663          	beq	x10,x0,fd8 <_fclose_r+0x2c>
     fd0:	03452783          	lw	x15,52(x10)
     fd4:	0c078c63          	beq	x15,x0,10ac <_fclose_r+0x100>
     fd8:	00c41783          	lh	x15,12(x8)
     fdc:	02079263          	bne	x15,x0,1000 <_fclose_r+0x54>
     fe0:	00812403          	lw	x8,8(x2)
     fe4:	00412483          	lw	x9,4(x2)
     fe8:	00c12083          	lw	x1,12(x2)
     fec:	00000913          	addi	x18,x0,0
     ff0:	00090513          	addi	x10,x18,0
     ff4:	00012903          	lw	x18,0(x2)
     ff8:	01010113          	addi	x2,x2,16
     ffc:	00008067          	jalr	x0,0(x1)
    1000:	00040593          	addi	x11,x8,0
    1004:	00048513          	addi	x10,x9,0
    1008:	6d0010ef          	jal	x1,26d8 <__sflush_r>
    100c:	02c42783          	lw	x15,44(x8)
    1010:	00050913          	addi	x18,x10,0
    1014:	00078a63          	beq	x15,x0,1028 <_fclose_r+0x7c>
    1018:	01c42583          	lw	x11,28(x8)
    101c:	00048513          	addi	x10,x9,0
    1020:	000780e7          	jalr	x1,0(x15)
    1024:	06054463          	blt	x10,x0,108c <_fclose_r+0xe0>
    1028:	00c45783          	lhu	x15,12(x8)
    102c:	0807f793          	andi	x15,x15,128
    1030:	06079663          	bne	x15,x0,109c <_fclose_r+0xf0>
    1034:	03042583          	lw	x11,48(x8)
    1038:	00058c63          	beq	x11,x0,1050 <_fclose_r+0xa4>
    103c:	04040793          	addi	x15,x8,64
    1040:	00f58663          	beq	x11,x15,104c <_fclose_r+0xa0>
    1044:	00048513          	addi	x10,x9,0
    1048:	21d000ef          	jal	x1,1a64 <_free_r>
    104c:	02042823          	sw	x0,48(x8)
    1050:	04442583          	lw	x11,68(x8)
    1054:	00058863          	beq	x11,x0,1064 <_fclose_r+0xb8>
    1058:	00048513          	addi	x10,x9,0
    105c:	209000ef          	jal	x1,1a64 <_free_r>
    1060:	04042223          	sw	x0,68(x8)
    1064:	a15ff0ef          	jal	x1,a78 <__sfp_lock_acquire>
    1068:	00041623          	sh	x0,12(x8)
    106c:	a11ff0ef          	jal	x1,a7c <__sfp_lock_release>
    1070:	00c12083          	lw	x1,12(x2)
    1074:	00812403          	lw	x8,8(x2)
    1078:	00412483          	lw	x9,4(x2)
    107c:	00090513          	addi	x10,x18,0
    1080:	00012903          	lw	x18,0(x2)
    1084:	01010113          	addi	x2,x2,16
    1088:	00008067          	jalr	x0,0(x1)
    108c:	00c45783          	lhu	x15,12(x8)
    1090:	fff00913          	addi	x18,x0,-1
    1094:	0807f793          	andi	x15,x15,128
    1098:	f8078ee3          	beq	x15,x0,1034 <_fclose_r+0x88>
    109c:	01042583          	lw	x11,16(x8)
    10a0:	00048513          	addi	x10,x9,0
    10a4:	1c1000ef          	jal	x1,1a64 <_free_r>
    10a8:	f8dff06f          	jal	x0,1034 <_fclose_r+0x88>
    10ac:	9a9ff0ef          	jal	x1,a54 <__sinit>
    10b0:	f29ff06f          	jal	x0,fd8 <_fclose_r+0x2c>

000010b4 <fclose>:
    10b4:	00050593          	addi	x11,x10,0
    10b8:	f141a503          	lw	x10,-236(x3) # 12bb4 <_impure_ptr>
    10bc:	ef1ff06f          	jal	x0,fac <_fclose_r>

000010c0 <_malloc_r>:
    10c0:	fd010113          	addi	x2,x2,-48
    10c4:	03212023          	sw	x18,32(x2)
    10c8:	02112623          	sw	x1,44(x2)
    10cc:	02812423          	sw	x8,40(x2)
    10d0:	02912223          	sw	x9,36(x2)
    10d4:	01312e23          	sw	x19,28(x2)
    10d8:	00b58793          	addi	x15,x11,11
    10dc:	01600713          	addi	x14,x0,22
    10e0:	00050913          	addi	x18,x10,0
    10e4:	08f76063          	bltu	x14,x15,1164 <_malloc_r+0xa4>
    10e8:	01000493          	addi	x9,x0,16
    10ec:	20b4e263          	bltu	x9,x11,12f0 <_malloc_r+0x230>
    10f0:	121010ef          	jal	x1,2a10 <__malloc_lock>
    10f4:	01800793          	addi	x15,x0,24
    10f8:	00200593          	addi	x11,x0,2
    10fc:	00011997          	auipc	x19,0x11
    1100:	3b098993          	addi	x19,x19,944 # 124ac <__malloc_av_>
    1104:	00f987b3          	add	x15,x19,x15
    1108:	0047a403          	lw	x8,4(x15)
    110c:	ff878713          	addi	x14,x15,-8
    1110:	44e40a63          	beq	x8,x14,1564 <_malloc_r+0x4a4>
    1114:	00442783          	lw	x15,4(x8)
    1118:	00c42683          	lw	x13,12(x8)
    111c:	00842603          	lw	x12,8(x8)
    1120:	ffc7f793          	andi	x15,x15,-4
    1124:	00f407b3          	add	x15,x8,x15
    1128:	0047a703          	lw	x14,4(x15)
    112c:	00d62623          	sw	x13,12(x12)
    1130:	00c6a423          	sw	x12,8(x13)
    1134:	00176713          	ori	x14,x14,1
    1138:	00090513          	addi	x10,x18,0
    113c:	00e7a223          	sw	x14,4(x15)
    1140:	0d5010ef          	jal	x1,2a14 <__malloc_unlock>
    1144:	02c12083          	lw	x1,44(x2)
    1148:	00840513          	addi	x10,x8,8
    114c:	02812403          	lw	x8,40(x2)
    1150:	02412483          	lw	x9,36(x2)
    1154:	02012903          	lw	x18,32(x2)
    1158:	01c12983          	lw	x19,28(x2)
    115c:	03010113          	addi	x2,x2,48
    1160:	00008067          	jalr	x0,0(x1)
    1164:	ff87f493          	andi	x9,x15,-8
    1168:	1807c463          	blt	x15,x0,12f0 <_malloc_r+0x230>
    116c:	18b4e263          	bltu	x9,x11,12f0 <_malloc_r+0x230>
    1170:	0a1010ef          	jal	x1,2a10 <__malloc_lock>
    1174:	1f700793          	addi	x15,x0,503
    1178:	5097f063          	bgeu	x15,x9,1678 <_malloc_r+0x5b8>
    117c:	0094d793          	srli	x15,x9,0x9
    1180:	18078c63          	beq	x15,x0,1318 <_malloc_r+0x258>
    1184:	00400713          	addi	x14,x0,4
    1188:	44f76663          	bltu	x14,x15,15d4 <_malloc_r+0x514>
    118c:	0064d793          	srli	x15,x9,0x6
    1190:	03978593          	addi	x11,x15,57
    1194:	03878813          	addi	x16,x15,56
    1198:	00359613          	slli	x12,x11,0x3
    119c:	00011997          	auipc	x19,0x11
    11a0:	31098993          	addi	x19,x19,784 # 124ac <__malloc_av_>
    11a4:	00c98633          	add	x12,x19,x12
    11a8:	00462403          	lw	x8,4(x12)
    11ac:	ff860613          	addi	x12,x12,-8
    11b0:	02860863          	beq	x12,x8,11e0 <_malloc_r+0x120>
    11b4:	00f00513          	addi	x10,x0,15
    11b8:	0140006f          	jal	x0,11cc <_malloc_r+0x10c>
    11bc:	00c42683          	lw	x13,12(x8)
    11c0:	36075063          	bge	x14,x0,1520 <_malloc_r+0x460>
    11c4:	00d60e63          	beq	x12,x13,11e0 <_malloc_r+0x120>
    11c8:	00068413          	addi	x8,x13,0
    11cc:	00442783          	lw	x15,4(x8)
    11d0:	ffc7f793          	andi	x15,x15,-4
    11d4:	40978733          	sub	x14,x15,x9
    11d8:	fee552e3          	bge	x10,x14,11bc <_malloc_r+0xfc>
    11dc:	00080593          	addi	x11,x16,0
    11e0:	0109a403          	lw	x8,16(x19)
    11e4:	81418893          	addi	x17,x3,-2028 # 124b4 <__malloc_av_+0x8>
    11e8:	2b140c63          	beq	x8,x17,14a0 <_malloc_r+0x3e0>
    11ec:	00442783          	lw	x15,4(x8)
    11f0:	00f00693          	addi	x13,x0,15
    11f4:	ffc7f793          	andi	x15,x15,-4
    11f8:	40978733          	sub	x14,x15,x9
    11fc:	48e6c463          	blt	x13,x14,1684 <_malloc_r+0x5c4>
    1200:	0119aa23          	sw	x17,20(x19)
    1204:	0119a823          	sw	x17,16(x19)
    1208:	44075863          	bge	x14,x0,1658 <_malloc_r+0x598>
    120c:	1ff00713          	addi	x14,x0,511
    1210:	0049a503          	lw	x10,4(x19)
    1214:	36f76063          	bltu	x14,x15,1574 <_malloc_r+0x4b4>
    1218:	ff87f713          	andi	x14,x15,-8
    121c:	00870713          	addi	x14,x14,8
    1220:	00e98733          	add	x14,x19,x14
    1224:	00072683          	lw	x13,0(x14)
    1228:	0057d613          	srli	x12,x15,0x5
    122c:	00100793          	addi	x15,x0,1
    1230:	00c797b3          	sll	x15,x15,x12
    1234:	00f56533          	or	x10,x10,x15
    1238:	ff870793          	addi	x15,x14,-8
    123c:	00d42423          	sw	x13,8(x8)
    1240:	00f42623          	sw	x15,12(x8)
    1244:	00a9a223          	sw	x10,4(x19)
    1248:	00872023          	sw	x8,0(x14)
    124c:	0086a623          	sw	x8,12(x13)
    1250:	4025d793          	srai	x15,x11,0x2
    1254:	00100613          	addi	x12,x0,1
    1258:	00f61633          	sll	x12,x12,x15
    125c:	0cc56663          	bltu	x10,x12,1328 <_malloc_r+0x268>
    1260:	00a677b3          	and	x15,x12,x10
    1264:	02079463          	bne	x15,x0,128c <_malloc_r+0x1cc>
    1268:	00161613          	slli	x12,x12,0x1
    126c:	ffc5f593          	andi	x11,x11,-4
    1270:	00a677b3          	and	x15,x12,x10
    1274:	00458593          	addi	x11,x11,4
    1278:	00079a63          	bne	x15,x0,128c <_malloc_r+0x1cc>
    127c:	00161613          	slli	x12,x12,0x1
    1280:	00a677b3          	and	x15,x12,x10
    1284:	00458593          	addi	x11,x11,4
    1288:	fe078ae3          	beq	x15,x0,127c <_malloc_r+0x1bc>
    128c:	00f00813          	addi	x16,x0,15
    1290:	00359313          	slli	x6,x11,0x3
    1294:	00698333          	add	x6,x19,x6
    1298:	00030513          	addi	x10,x6,0
    129c:	00c52783          	lw	x15,12(x10)
    12a0:	00058e13          	addi	x28,x11,0
    12a4:	34f50a63          	beq	x10,x15,15f8 <_malloc_r+0x538>
    12a8:	0047a703          	lw	x14,4(x15)
    12ac:	00078413          	addi	x8,x15,0
    12b0:	00c7a783          	lw	x15,12(x15)
    12b4:	ffc77713          	andi	x14,x14,-4
    12b8:	409706b3          	sub	x13,x14,x9
    12bc:	34d84a63          	blt	x16,x13,1610 <_malloc_r+0x550>
    12c0:	fe06c2e3          	blt	x13,x0,12a4 <_malloc_r+0x1e4>
    12c4:	00e40733          	add	x14,x8,x14
    12c8:	00472683          	lw	x13,4(x14)
    12cc:	00842603          	lw	x12,8(x8)
    12d0:	00090513          	addi	x10,x18,0
    12d4:	0016e693          	ori	x13,x13,1
    12d8:	00d72223          	sw	x13,4(x14)
    12dc:	00f62623          	sw	x15,12(x12)
    12e0:	00c7a423          	sw	x12,8(x15)
    12e4:	730010ef          	jal	x1,2a14 <__malloc_unlock>
    12e8:	00840513          	addi	x10,x8,8
    12ec:	0100006f          	jal	x0,12fc <_malloc_r+0x23c>
    12f0:	00c00793          	addi	x15,x0,12
    12f4:	00f92023          	sw	x15,0(x18)
    12f8:	00000513          	addi	x10,x0,0
    12fc:	02c12083          	lw	x1,44(x2)
    1300:	02812403          	lw	x8,40(x2)
    1304:	02412483          	lw	x9,36(x2)
    1308:	02012903          	lw	x18,32(x2)
    130c:	01c12983          	lw	x19,28(x2)
    1310:	03010113          	addi	x2,x2,48
    1314:	00008067          	jalr	x0,0(x1)
    1318:	20000613          	addi	x12,x0,512
    131c:	04000593          	addi	x11,x0,64
    1320:	03f00813          	addi	x16,x0,63
    1324:	e79ff06f          	jal	x0,119c <_malloc_r+0xdc>
    1328:	0089a403          	lw	x8,8(x19)
    132c:	01612823          	sw	x22,16(x2)
    1330:	00442783          	lw	x15,4(x8)
    1334:	ffc7fb13          	andi	x22,x15,-4
    1338:	009b6863          	bltu	x22,x9,1348 <_malloc_r+0x288>
    133c:	409b0733          	sub	x14,x22,x9
    1340:	00f00793          	addi	x15,x0,15
    1344:	18e7cc63          	blt	x15,x14,14dc <_malloc_r+0x41c>
    1348:	01912223          	sw	x25,4(x2)
    134c:	f0c18c93          	addi	x25,x3,-244 # 12bac <__malloc_sbrk_base>
    1350:	000ca703          	lw	x14,0(x25)
    1354:	01412c23          	sw	x20,24(x2)
    1358:	01512a23          	sw	x21,20(x2)
    135c:	01712623          	sw	x23,12(x2)
    1360:	f281aa83          	lw	x21,-216(x3) # 12bc8 <__malloc_top_pad>
    1364:	fff00793          	addi	x15,x0,-1
    1368:	01548ab3          	add	x21,x9,x21
    136c:	01640a33          	add	x20,x8,x22
    1370:	3ef70063          	beq	x14,x15,1750 <_malloc_r+0x690>
    1374:	000017b7          	lui	x15,0x1
    1378:	00f78793          	addi	x15,x15,15 # 100f <_fclose_r+0x63>
    137c:	00fa8ab3          	add	x21,x21,x15
    1380:	fffff7b7          	lui	x15,0xfffff
    1384:	00fafab3          	and	x21,x21,x15
    1388:	000a8593          	addi	x11,x21,0
    138c:	00090513          	addi	x10,x18,0
    1390:	194060ef          	jal	x1,7524 <_sbrk_r>
    1394:	fff00793          	addi	x15,x0,-1
    1398:	00050b93          	addi	x23,x10,0
    139c:	46f50c63          	beq	x10,x15,1814 <_malloc_r+0x754>
    13a0:	01812423          	sw	x24,8(x2)
    13a4:	11456263          	bltu	x10,x20,14a8 <_malloc_r+0x3e8>
    13a8:	06c18c13          	addi	x24,x3,108 # 12d0c <__malloc_current_mallinfo>
    13ac:	000c2583          	lw	x11,0(x24)
    13b0:	00ba85b3          	add	x11,x21,x11
    13b4:	00bc2023          	sw	x11,0(x24)
    13b8:	00058713          	addi	x14,x11,0
    13bc:	46aa0263          	beq	x20,x10,1820 <_malloc_r+0x760>
    13c0:	000ca683          	lw	x13,0(x25)
    13c4:	fff00793          	addi	x15,x0,-1
    13c8:	46f68a63          	beq	x13,x15,183c <_malloc_r+0x77c>
    13cc:	414b87b3          	sub	x15,x23,x20
    13d0:	00e787b3          	add	x15,x15,x14
    13d4:	00fc2023          	sw	x15,0(x24)
    13d8:	007bfc93          	andi	x25,x23,7
    13dc:	380c8a63          	beq	x25,x0,1770 <_malloc_r+0x6b0>
    13e0:	419b8bb3          	sub	x23,x23,x25
    13e4:	000015b7          	lui	x11,0x1
    13e8:	008b8b93          	addi	x23,x23,8
    13ec:	00858593          	addi	x11,x11,8 # 1008 <_fclose_r+0x5c>
    13f0:	015b8ab3          	add	x21,x23,x21
    13f4:	419585b3          	sub	x11,x11,x25
    13f8:	415585b3          	sub	x11,x11,x21
    13fc:	01459593          	slli	x11,x11,0x14
    1400:	0145da13          	srli	x20,x11,0x14
    1404:	000a0593          	addi	x11,x20,0
    1408:	00090513          	addi	x10,x18,0
    140c:	118060ef          	jal	x1,7524 <_sbrk_r>
    1410:	fff00793          	addi	x15,x0,-1
    1414:	46f50463          	beq	x10,x15,187c <_malloc_r+0x7bc>
    1418:	41750533          	sub	x10,x10,x23
    141c:	01450ab3          	add	x21,x10,x20
    1420:	000c2703          	lw	x14,0(x24)
    1424:	0179a423          	sw	x23,8(x19)
    1428:	001ae793          	ori	x15,x21,1
    142c:	00ea05b3          	add	x11,x20,x14
    1430:	00fba223          	sw	x15,4(x23)
    1434:	00bc2023          	sw	x11,0(x24)
    1438:	03340e63          	beq	x8,x19,1474 <_malloc_r+0x3b4>
    143c:	00f00693          	addi	x13,x0,15
    1440:	3566fe63          	bgeu	x13,x22,179c <_malloc_r+0x6dc>
    1444:	00442703          	lw	x14,4(x8)
    1448:	ff4b0793          	addi	x15,x22,-12
    144c:	ff87f793          	andi	x15,x15,-8
    1450:	00177713          	andi	x14,x14,1
    1454:	00f76733          	or	x14,x14,x15
    1458:	00e42223          	sw	x14,4(x8)
    145c:	00500613          	addi	x12,x0,5
    1460:	00f40733          	add	x14,x8,x15
    1464:	00c72223          	sw	x12,4(x14)
    1468:	00c72423          	sw	x12,8(x14)
    146c:	2cf6e663          	bltu	x13,x15,1738 <_malloc_r+0x678>
    1470:	004ba783          	lw	x15,4(x23)
    1474:	f2418713          	addi	x14,x3,-220 # 12bc4 <__malloc_max_sbrked_mem>
    1478:	00072683          	lw	x13,0(x14)
    147c:	00b6f463          	bgeu	x13,x11,1484 <_malloc_r+0x3c4>
    1480:	00b72023          	sw	x11,0(x14)
    1484:	f2018713          	addi	x14,x3,-224 # 12bc0 <__malloc_max_total_mem>
    1488:	00072683          	lw	x13,0(x14)
    148c:	00b6f463          	bgeu	x13,x11,1494 <_malloc_r+0x3d4>
    1490:	00b72023          	sw	x11,0(x14)
    1494:	00812c03          	lw	x24,8(x2)
    1498:	000b8413          	addi	x8,x23,0
    149c:	01c0006f          	jal	x0,14b8 <_malloc_r+0x3f8>
    14a0:	0049a503          	lw	x10,4(x19)
    14a4:	dadff06f          	jal	x0,1250 <_malloc_r+0x190>
    14a8:	35340c63          	beq	x8,x19,1800 <_malloc_r+0x740>
    14ac:	0089a403          	lw	x8,8(x19)
    14b0:	00812c03          	lw	x24,8(x2)
    14b4:	00442783          	lw	x15,4(x8)
    14b8:	ffc7f793          	andi	x15,x15,-4
    14bc:	40978733          	sub	x14,x15,x9
    14c0:	2e97e463          	bltu	x15,x9,17a8 <_malloc_r+0x6e8>
    14c4:	00f00793          	addi	x15,x0,15
    14c8:	2ee7d063          	bge	x15,x14,17a8 <_malloc_r+0x6e8>
    14cc:	01812a03          	lw	x20,24(x2)
    14d0:	01412a83          	lw	x21,20(x2)
    14d4:	00c12b83          	lw	x23,12(x2)
    14d8:	00412c83          	lw	x25,4(x2)
    14dc:	0014e793          	ori	x15,x9,1
    14e0:	00f42223          	sw	x15,4(x8)
    14e4:	009404b3          	add	x9,x8,x9
    14e8:	0099a423          	sw	x9,8(x19)
    14ec:	00176713          	ori	x14,x14,1
    14f0:	00090513          	addi	x10,x18,0
    14f4:	00e4a223          	sw	x14,4(x9)
    14f8:	51c010ef          	jal	x1,2a14 <__malloc_unlock>
    14fc:	02c12083          	lw	x1,44(x2)
    1500:	00840513          	addi	x10,x8,8
    1504:	02812403          	lw	x8,40(x2)
    1508:	01012b03          	lw	x22,16(x2)
    150c:	02412483          	lw	x9,36(x2)
    1510:	02012903          	lw	x18,32(x2)
    1514:	01c12983          	lw	x19,28(x2)
    1518:	03010113          	addi	x2,x2,48
    151c:	00008067          	jalr	x0,0(x1)
    1520:	00842603          	lw	x12,8(x8)
    1524:	00f407b3          	add	x15,x8,x15
    1528:	0047a703          	lw	x14,4(x15) # fffff004 <__heap_end+0xffbff004>
    152c:	00d62623          	sw	x13,12(x12)
    1530:	00c6a423          	sw	x12,8(x13)
    1534:	00176713          	ori	x14,x14,1
    1538:	00090513          	addi	x10,x18,0
    153c:	00e7a223          	sw	x14,4(x15)
    1540:	4d4010ef          	jal	x1,2a14 <__malloc_unlock>
    1544:	02c12083          	lw	x1,44(x2)
    1548:	00840513          	addi	x10,x8,8
    154c:	02812403          	lw	x8,40(x2)
    1550:	02412483          	lw	x9,36(x2)
    1554:	02012903          	lw	x18,32(x2)
    1558:	01c12983          	lw	x19,28(x2)
    155c:	03010113          	addi	x2,x2,48
    1560:	00008067          	jalr	x0,0(x1)
    1564:	00c7a403          	lw	x8,12(x15)
    1568:	00258593          	addi	x11,x11,2
    156c:	c6878ae3          	beq	x15,x8,11e0 <_malloc_r+0x120>
    1570:	ba5ff06f          	jal	x0,1114 <_malloc_r+0x54>
    1574:	0097d713          	srli	x14,x15,0x9
    1578:	00400693          	addi	x13,x0,4
    157c:	14e6f263          	bgeu	x13,x14,16c0 <_malloc_r+0x600>
    1580:	01400693          	addi	x13,x0,20
    1584:	24e6e263          	bltu	x13,x14,17c8 <_malloc_r+0x708>
    1588:	05c70613          	addi	x12,x14,92
    158c:	00361613          	slli	x12,x12,0x3
    1590:	05b70693          	addi	x13,x14,91
    1594:	00c98633          	add	x12,x19,x12
    1598:	00062703          	lw	x14,0(x12)
    159c:	ff860613          	addi	x12,x12,-8
    15a0:	00e61863          	bne	x12,x14,15b0 <_malloc_r+0x4f0>
    15a4:	1b40006f          	jal	x0,1758 <_malloc_r+0x698>
    15a8:	00872703          	lw	x14,8(x14)
    15ac:	00e60863          	beq	x12,x14,15bc <_malloc_r+0x4fc>
    15b0:	00472683          	lw	x13,4(x14)
    15b4:	ffc6f693          	andi	x13,x13,-4
    15b8:	fed7e8e3          	bltu	x15,x13,15a8 <_malloc_r+0x4e8>
    15bc:	00c72603          	lw	x12,12(x14)
    15c0:	00c42623          	sw	x12,12(x8)
    15c4:	00e42423          	sw	x14,8(x8)
    15c8:	00862423          	sw	x8,8(x12)
    15cc:	00872623          	sw	x8,12(x14)
    15d0:	c81ff06f          	jal	x0,1250 <_malloc_r+0x190>
    15d4:	01400713          	addi	x14,x0,20
    15d8:	0ef77e63          	bgeu	x14,x15,16d4 <_malloc_r+0x614>
    15dc:	05400713          	addi	x14,x0,84
    15e0:	20f76263          	bltu	x14,x15,17e4 <_malloc_r+0x724>
    15e4:	00c4d793          	srli	x15,x9,0xc
    15e8:	06f78593          	addi	x11,x15,111
    15ec:	06e78813          	addi	x16,x15,110
    15f0:	00359613          	slli	x12,x11,0x3
    15f4:	ba9ff06f          	jal	x0,119c <_malloc_r+0xdc>
    15f8:	001e0e13          	addi	x28,x28,1
    15fc:	003e7793          	andi	x15,x28,3
    1600:	00850513          	addi	x10,x10,8
    1604:	0e078663          	beq	x15,x0,16f0 <_malloc_r+0x630>
    1608:	00c52783          	lw	x15,12(x10)
    160c:	c99ff06f          	jal	x0,12a4 <_malloc_r+0x1e4>
    1610:	00842603          	lw	x12,8(x8)
    1614:	0014e593          	ori	x11,x9,1
    1618:	00b42223          	sw	x11,4(x8)
    161c:	00f62623          	sw	x15,12(x12)
    1620:	00c7a423          	sw	x12,8(x15)
    1624:	009404b3          	add	x9,x8,x9
    1628:	0099aa23          	sw	x9,20(x19)
    162c:	0099a823          	sw	x9,16(x19)
    1630:	0016e793          	ori	x15,x13,1
    1634:	00e40733          	add	x14,x8,x14
    1638:	0114a623          	sw	x17,12(x9)
    163c:	0114a423          	sw	x17,8(x9)
    1640:	00f4a223          	sw	x15,4(x9)
    1644:	00090513          	addi	x10,x18,0
    1648:	00d72023          	sw	x13,0(x14)
    164c:	3c8010ef          	jal	x1,2a14 <__malloc_unlock>
    1650:	00840513          	addi	x10,x8,8
    1654:	ca9ff06f          	jal	x0,12fc <_malloc_r+0x23c>
    1658:	00f407b3          	add	x15,x8,x15
    165c:	0047a703          	lw	x14,4(x15)
    1660:	00090513          	addi	x10,x18,0
    1664:	00176713          	ori	x14,x14,1
    1668:	00e7a223          	sw	x14,4(x15)
    166c:	3a8010ef          	jal	x1,2a14 <__malloc_unlock>
    1670:	00840513          	addi	x10,x8,8
    1674:	c89ff06f          	jal	x0,12fc <_malloc_r+0x23c>
    1678:	0034d593          	srli	x11,x9,0x3
    167c:	00848793          	addi	x15,x9,8
    1680:	a7dff06f          	jal	x0,10fc <_malloc_r+0x3c>
    1684:	0014e693          	ori	x13,x9,1
    1688:	00d42223          	sw	x13,4(x8)
    168c:	009404b3          	add	x9,x8,x9
    1690:	0099aa23          	sw	x9,20(x19)
    1694:	0099a823          	sw	x9,16(x19)
    1698:	00176693          	ori	x13,x14,1
    169c:	00f407b3          	add	x15,x8,x15
    16a0:	0114a623          	sw	x17,12(x9)
    16a4:	0114a423          	sw	x17,8(x9)
    16a8:	00d4a223          	sw	x13,4(x9)
    16ac:	00090513          	addi	x10,x18,0
    16b0:	00e7a023          	sw	x14,0(x15)
    16b4:	360010ef          	jal	x1,2a14 <__malloc_unlock>
    16b8:	00840513          	addi	x10,x8,8
    16bc:	c41ff06f          	jal	x0,12fc <_malloc_r+0x23c>
    16c0:	0067d713          	srli	x14,x15,0x6
    16c4:	03970613          	addi	x12,x14,57
    16c8:	00361613          	slli	x12,x12,0x3
    16cc:	03870693          	addi	x13,x14,56
    16d0:	ec5ff06f          	jal	x0,1594 <_malloc_r+0x4d4>
    16d4:	05c78593          	addi	x11,x15,92
    16d8:	05b78813          	addi	x16,x15,91
    16dc:	00359613          	slli	x12,x11,0x3
    16e0:	abdff06f          	jal	x0,119c <_malloc_r+0xdc>
    16e4:	00832783          	lw	x15,8(x6)
    16e8:	fff58593          	addi	x11,x11,-1
    16ec:	1c679e63          	bne	x15,x6,18c8 <_malloc_r+0x808>
    16f0:	0035f793          	andi	x15,x11,3
    16f4:	ff830313          	addi	x6,x6,-8
    16f8:	fe0796e3          	bne	x15,x0,16e4 <_malloc_r+0x624>
    16fc:	0049a703          	lw	x14,4(x19)
    1700:	fff64793          	xori	x15,x12,-1
    1704:	00e7f7b3          	and	x15,x15,x14
    1708:	00f9a223          	sw	x15,4(x19)
    170c:	00161613          	slli	x12,x12,0x1
    1710:	c0c7ece3          	bltu	x15,x12,1328 <_malloc_r+0x268>
    1714:	c0060ae3          	beq	x12,x0,1328 <_malloc_r+0x268>
    1718:	00f67733          	and	x14,x12,x15
    171c:	00071a63          	bne	x14,x0,1730 <_malloc_r+0x670>
    1720:	00161613          	slli	x12,x12,0x1
    1724:	00f67733          	and	x14,x12,x15
    1728:	004e0e13          	addi	x28,x28,4
    172c:	fe070ae3          	beq	x14,x0,1720 <_malloc_r+0x660>
    1730:	000e0593          	addi	x11,x28,0
    1734:	b5dff06f          	jal	x0,1290 <_malloc_r+0x1d0>
    1738:	00840593          	addi	x11,x8,8
    173c:	00090513          	addi	x10,x18,0
    1740:	324000ef          	jal	x1,1a64 <_free_r>
    1744:	000c2583          	lw	x11,0(x24)
    1748:	0089ab83          	lw	x23,8(x19)
    174c:	d25ff06f          	jal	x0,1470 <_malloc_r+0x3b0>
    1750:	010a8a93          	addi	x21,x21,16
    1754:	c35ff06f          	jal	x0,1388 <_malloc_r+0x2c8>
    1758:	4026d693          	srai	x13,x13,0x2
    175c:	00100793          	addi	x15,x0,1
    1760:	00d797b3          	sll	x15,x15,x13
    1764:	00f56533          	or	x10,x10,x15
    1768:	00a9a223          	sw	x10,4(x19)
    176c:	e55ff06f          	jal	x0,15c0 <_malloc_r+0x500>
    1770:	015b85b3          	add	x11,x23,x21
    1774:	40b005b3          	sub	x11,x0,x11
    1778:	01459593          	slli	x11,x11,0x14
    177c:	0145da13          	srli	x20,x11,0x14
    1780:	000a0593          	addi	x11,x20,0
    1784:	00090513          	addi	x10,x18,0
    1788:	59d050ef          	jal	x1,7524 <_sbrk_r>
    178c:	fff00793          	addi	x15,x0,-1
    1790:	c8f514e3          	bne	x10,x15,1418 <_malloc_r+0x358>
    1794:	00000a13          	addi	x20,x0,0
    1798:	c89ff06f          	jal	x0,1420 <_malloc_r+0x360>
    179c:	00812c03          	lw	x24,8(x2)
    17a0:	00100793          	addi	x15,x0,1
    17a4:	00fba223          	sw	x15,4(x23)
    17a8:	00090513          	addi	x10,x18,0
    17ac:	268010ef          	jal	x1,2a14 <__malloc_unlock>
    17b0:	01812a03          	lw	x20,24(x2)
    17b4:	01412a83          	lw	x21,20(x2)
    17b8:	01012b03          	lw	x22,16(x2)
    17bc:	00c12b83          	lw	x23,12(x2)
    17c0:	00412c83          	lw	x25,4(x2)
    17c4:	b35ff06f          	jal	x0,12f8 <_malloc_r+0x238>
    17c8:	05400693          	addi	x13,x0,84
    17cc:	06e6ec63          	bltu	x13,x14,1844 <_malloc_r+0x784>
    17d0:	00c7d713          	srli	x14,x15,0xc
    17d4:	06f70613          	addi	x12,x14,111
    17d8:	00361613          	slli	x12,x12,0x3
    17dc:	06e70693          	addi	x13,x14,110
    17e0:	db5ff06f          	jal	x0,1594 <_malloc_r+0x4d4>
    17e4:	15400713          	addi	x14,x0,340
    17e8:	06f76c63          	bltu	x14,x15,1860 <_malloc_r+0x7a0>
    17ec:	00f4d793          	srli	x15,x9,0xf
    17f0:	07878593          	addi	x11,x15,120
    17f4:	07778813          	addi	x16,x15,119
    17f8:	00359613          	slli	x12,x11,0x3
    17fc:	9a1ff06f          	jal	x0,119c <_malloc_r+0xdc>
    1800:	06c18c13          	addi	x24,x3,108 # 12d0c <__malloc_current_mallinfo>
    1804:	000c2703          	lw	x14,0(x24)
    1808:	00ea8733          	add	x14,x21,x14
    180c:	00ec2023          	sw	x14,0(x24)
    1810:	bb1ff06f          	jal	x0,13c0 <_malloc_r+0x300>
    1814:	0089a403          	lw	x8,8(x19)
    1818:	00442783          	lw	x15,4(x8)
    181c:	c9dff06f          	jal	x0,14b8 <_malloc_r+0x3f8>
    1820:	01451793          	slli	x15,x10,0x14
    1824:	b8079ee3          	bne	x15,x0,13c0 <_malloc_r+0x300>
    1828:	0089ab83          	lw	x23,8(x19)
    182c:	015b07b3          	add	x15,x22,x21
    1830:	0017e793          	ori	x15,x15,1
    1834:	00fba223          	sw	x15,4(x23)
    1838:	c3dff06f          	jal	x0,1474 <_malloc_r+0x3b4>
    183c:	017ca023          	sw	x23,0(x25)
    1840:	b99ff06f          	jal	x0,13d8 <_malloc_r+0x318>
    1844:	15400693          	addi	x13,x0,340
    1848:	04e6e463          	bltu	x13,x14,1890 <_malloc_r+0x7d0>
    184c:	00f7d713          	srli	x14,x15,0xf
    1850:	07870613          	addi	x12,x14,120
    1854:	00361613          	slli	x12,x12,0x3
    1858:	07770693          	addi	x13,x14,119
    185c:	d39ff06f          	jal	x0,1594 <_malloc_r+0x4d4>
    1860:	55400713          	addi	x14,x0,1364
    1864:	04f76463          	bltu	x14,x15,18ac <_malloc_r+0x7ec>
    1868:	0124d793          	srli	x15,x9,0x12
    186c:	07d78593          	addi	x11,x15,125
    1870:	07c78813          	addi	x16,x15,124
    1874:	00359613          	slli	x12,x11,0x3
    1878:	925ff06f          	jal	x0,119c <_malloc_r+0xdc>
    187c:	ff8c8c93          	addi	x25,x25,-8
    1880:	019a8ab3          	add	x21,x21,x25
    1884:	417a8ab3          	sub	x21,x21,x23
    1888:	00000a13          	addi	x20,x0,0
    188c:	b95ff06f          	jal	x0,1420 <_malloc_r+0x360>
    1890:	55400693          	addi	x13,x0,1364
    1894:	02e6e463          	bltu	x13,x14,18bc <_malloc_r+0x7fc>
    1898:	0127d713          	srli	x14,x15,0x12
    189c:	07d70613          	addi	x12,x14,125
    18a0:	00361613          	slli	x12,x12,0x3
    18a4:	07c70693          	addi	x13,x14,124
    18a8:	cedff06f          	jal	x0,1594 <_malloc_r+0x4d4>
    18ac:	3f800613          	addi	x12,x0,1016
    18b0:	07f00593          	addi	x11,x0,127
    18b4:	07e00813          	addi	x16,x0,126
    18b8:	8e5ff06f          	jal	x0,119c <_malloc_r+0xdc>
    18bc:	3f800613          	addi	x12,x0,1016
    18c0:	07e00693          	addi	x13,x0,126
    18c4:	cd1ff06f          	jal	x0,1594 <_malloc_r+0x4d4>
    18c8:	0049a783          	lw	x15,4(x19)
    18cc:	e41ff06f          	jal	x0,170c <_malloc_r+0x64c>

000018d0 <__libc_fini_array>:
    18d0:	ff010113          	addi	x2,x2,-16
    18d4:	00812423          	sw	x8,8(x2)
    18d8:	00011797          	auipc	x15,0x11
    18dc:	bc878793          	addi	x15,x15,-1080 # 124a0 <__sglue>
    18e0:	00011417          	auipc	x8,0x11
    18e4:	bc040413          	addi	x8,x8,-1088 # 124a0 <__sglue>
    18e8:	40f40433          	sub	x8,x8,x15
    18ec:	00912223          	sw	x9,4(x2)
    18f0:	00112623          	sw	x1,12(x2)
    18f4:	40245493          	srai	x9,x8,0x2
    18f8:	02048063          	beq	x9,x0,1918 <__libc_fini_array+0x48>
    18fc:	ffc40413          	addi	x8,x8,-4
    1900:	00f40433          	add	x8,x8,x15
    1904:	00042783          	lw	x15,0(x8)
    1908:	fff48493          	addi	x9,x9,-1
    190c:	ffc40413          	addi	x8,x8,-4
    1910:	000780e7          	jalr	x1,0(x15)
    1914:	fe0498e3          	bne	x9,x0,1904 <__libc_fini_array+0x34>
    1918:	00c12083          	lw	x1,12(x2)
    191c:	00812403          	lw	x8,8(x2)
    1920:	00412483          	lw	x9,4(x2)
    1924:	01010113          	addi	x2,x2,16
    1928:	00008067          	jalr	x0,0(x1)

0000192c <_malloc_trim_r>:
    192c:	fe010113          	addi	x2,x2,-32
    1930:	00812c23          	sw	x8,24(x2)
    1934:	00912a23          	sw	x9,20(x2)
    1938:	01212823          	sw	x18,16(x2)
    193c:	01312623          	sw	x19,12(x2)
    1940:	01412423          	sw	x20,8(x2)
    1944:	00058993          	addi	x19,x11,0
    1948:	00112e23          	sw	x1,28(x2)
    194c:	00050913          	addi	x18,x10,0
    1950:	00011a17          	auipc	x20,0x11
    1954:	b5ca0a13          	addi	x20,x20,-1188 # 124ac <__malloc_av_>
    1958:	0b8010ef          	jal	x1,2a10 <__malloc_lock>
    195c:	008a2783          	lw	x15,8(x20)
    1960:	00001437          	lui	x8,0x1
    1964:	fef40413          	addi	x8,x8,-17 # fef <_fclose_r+0x43>
    1968:	0047a483          	lw	x9,4(x15)
    196c:	000017b7          	lui	x15,0x1
    1970:	ffc4f493          	andi	x9,x9,-4
    1974:	00848433          	add	x8,x9,x8
    1978:	41340433          	sub	x8,x8,x19
    197c:	00c45413          	srli	x8,x8,0xc
    1980:	fff40413          	addi	x8,x8,-1
    1984:	00c41413          	slli	x8,x8,0xc
    1988:	00f44e63          	blt	x8,x15,19a4 <_malloc_trim_r+0x78>
    198c:	00000593          	addi	x11,x0,0
    1990:	00090513          	addi	x10,x18,0
    1994:	391050ef          	jal	x1,7524 <_sbrk_r>
    1998:	008a2783          	lw	x15,8(x20)
    199c:	009787b3          	add	x15,x15,x9
    19a0:	02f50863          	beq	x10,x15,19d0 <_malloc_trim_r+0xa4>
    19a4:	00090513          	addi	x10,x18,0
    19a8:	06c010ef          	jal	x1,2a14 <__malloc_unlock>
    19ac:	01c12083          	lw	x1,28(x2)
    19b0:	01812403          	lw	x8,24(x2)
    19b4:	01412483          	lw	x9,20(x2)
    19b8:	01012903          	lw	x18,16(x2)
    19bc:	00c12983          	lw	x19,12(x2)
    19c0:	00812a03          	lw	x20,8(x2)
    19c4:	00000513          	addi	x10,x0,0
    19c8:	02010113          	addi	x2,x2,32
    19cc:	00008067          	jalr	x0,0(x1)
    19d0:	408005b3          	sub	x11,x0,x8
    19d4:	00090513          	addi	x10,x18,0
    19d8:	34d050ef          	jal	x1,7524 <_sbrk_r>
    19dc:	fff00793          	addi	x15,x0,-1
    19e0:	04f50863          	beq	x10,x15,1a30 <_malloc_trim_r+0x104>
    19e4:	06c18713          	addi	x14,x3,108 # 12d0c <__malloc_current_mallinfo>
    19e8:	008a2683          	lw	x13,8(x20)
    19ec:	00072783          	lw	x15,0(x14)
    19f0:	408484b3          	sub	x9,x9,x8
    19f4:	0014e493          	ori	x9,x9,1
    19f8:	00090513          	addi	x10,x18,0
    19fc:	408787b3          	sub	x15,x15,x8
    1a00:	0096a223          	sw	x9,4(x13)
    1a04:	00f72023          	sw	x15,0(x14)
    1a08:	00c010ef          	jal	x1,2a14 <__malloc_unlock>
    1a0c:	01c12083          	lw	x1,28(x2)
    1a10:	01812403          	lw	x8,24(x2)
    1a14:	01412483          	lw	x9,20(x2)
    1a18:	01012903          	lw	x18,16(x2)
    1a1c:	00c12983          	lw	x19,12(x2)
    1a20:	00812a03          	lw	x20,8(x2)
    1a24:	00100513          	addi	x10,x0,1
    1a28:	02010113          	addi	x2,x2,32
    1a2c:	00008067          	jalr	x0,0(x1)
    1a30:	00000593          	addi	x11,x0,0
    1a34:	00090513          	addi	x10,x18,0
    1a38:	2ed050ef          	jal	x1,7524 <_sbrk_r>
    1a3c:	008a2703          	lw	x14,8(x20)
    1a40:	00f00693          	addi	x13,x0,15
    1a44:	40e507b3          	sub	x15,x10,x14
    1a48:	f4f6dee3          	bge	x13,x15,19a4 <_malloc_trim_r+0x78>
    1a4c:	f0c1a683          	lw	x13,-244(x3) # 12bac <__malloc_sbrk_base>
    1a50:	0017e793          	ori	x15,x15,1
    1a54:	40d50533          	sub	x10,x10,x13
    1a58:	00f72223          	sw	x15,4(x14)
    1a5c:	06a1a623          	sw	x10,108(x3) # 12d0c <__malloc_current_mallinfo>
    1a60:	f45ff06f          	jal	x0,19a4 <_malloc_trim_r+0x78>

00001a64 <_free_r>:
    1a64:	16058e63          	beq	x11,x0,1be0 <_free_r+0x17c>
    1a68:	ff010113          	addi	x2,x2,-16
    1a6c:	00812423          	sw	x8,8(x2)
    1a70:	00912223          	sw	x9,4(x2)
    1a74:	00058413          	addi	x8,x11,0
    1a78:	00050493          	addi	x9,x10,0
    1a7c:	00112623          	sw	x1,12(x2)
    1a80:	791000ef          	jal	x1,2a10 <__malloc_lock>
    1a84:	ffc42583          	lw	x11,-4(x8)
    1a88:	ff840713          	addi	x14,x8,-8
    1a8c:	00011817          	auipc	x16,0x11
    1a90:	a2080813          	addi	x16,x16,-1504 # 124ac <__malloc_av_>
    1a94:	ffe5f793          	andi	x15,x11,-2
    1a98:	00f70633          	add	x12,x14,x15
    1a9c:	00462683          	lw	x13,4(x12)
    1aa0:	00882503          	lw	x10,8(x16)
    1aa4:	0015f893          	andi	x17,x11,1
    1aa8:	ffc6f693          	andi	x13,x13,-4
    1aac:	18c50c63          	beq	x10,x12,1c44 <_free_r+0x1e0>
    1ab0:	00d62223          	sw	x13,4(x12)
    1ab4:	00d60533          	add	x10,x12,x13
    1ab8:	00452503          	lw	x10,4(x10)
    1abc:	00157513          	andi	x10,x10,1
    1ac0:	08089c63          	bne	x17,x0,1b58 <_free_r+0xf4>
    1ac4:	ff842303          	lw	x6,-8(x8)
    1ac8:	00011897          	auipc	x17,0x11
    1acc:	9ec88893          	addi	x17,x17,-1556 # 124b4 <__malloc_av_+0x8>
    1ad0:	40670733          	sub	x14,x14,x6
    1ad4:	00872583          	lw	x11,8(x14)
    1ad8:	006787b3          	add	x15,x15,x6
    1adc:	13158e63          	beq	x11,x17,1c18 <_free_r+0x1b4>
    1ae0:	00c72303          	lw	x6,12(x14)
    1ae4:	0065a623          	sw	x6,12(x11)
    1ae8:	00b32423          	sw	x11,8(x6)
    1aec:	1a050063          	beq	x10,x0,1c8c <_free_r+0x228>
    1af0:	0017e693          	ori	x13,x15,1
    1af4:	00d72223          	sw	x13,4(x14)
    1af8:	00f62023          	sw	x15,0(x12)
    1afc:	1ff00693          	addi	x13,x0,511
    1b00:	06f6e863          	bltu	x13,x15,1b70 <_free_r+0x10c>
    1b04:	ff87f693          	andi	x13,x15,-8
    1b08:	00868693          	addi	x13,x13,8
    1b0c:	00482583          	lw	x11,4(x16)
    1b10:	00d806b3          	add	x13,x16,x13
    1b14:	0006a603          	lw	x12,0(x13)
    1b18:	0057d513          	srli	x10,x15,0x5
    1b1c:	00100793          	addi	x15,x0,1
    1b20:	00a797b3          	sll	x15,x15,x10
    1b24:	00b7e7b3          	or	x15,x15,x11
    1b28:	ff868593          	addi	x11,x13,-8
    1b2c:	00c72423          	sw	x12,8(x14)
    1b30:	00b72623          	sw	x11,12(x14)
    1b34:	00f82223          	sw	x15,4(x16)
    1b38:	00e6a023          	sw	x14,0(x13)
    1b3c:	00e62623          	sw	x14,12(x12)
    1b40:	00812403          	lw	x8,8(x2)
    1b44:	00c12083          	lw	x1,12(x2)
    1b48:	00048513          	addi	x10,x9,0
    1b4c:	00412483          	lw	x9,4(x2)
    1b50:	01010113          	addi	x2,x2,16
    1b54:	6c10006f          	jal	x0,2a14 <__malloc_unlock>
    1b58:	08050663          	beq	x10,x0,1be4 <_free_r+0x180>
    1b5c:	0015e593          	ori	x11,x11,1
    1b60:	feb42e23          	sw	x11,-4(x8)
    1b64:	00f62023          	sw	x15,0(x12)
    1b68:	1ff00693          	addi	x13,x0,511
    1b6c:	f8f6fce3          	bgeu	x13,x15,1b04 <_free_r+0xa0>
    1b70:	0097d693          	srli	x13,x15,0x9
    1b74:	00400613          	addi	x12,x0,4
    1b78:	10d66e63          	bltu	x12,x13,1c94 <_free_r+0x230>
    1b7c:	0067d693          	srli	x13,x15,0x6
    1b80:	03968593          	addi	x11,x13,57
    1b84:	00359593          	slli	x11,x11,0x3
    1b88:	03868613          	addi	x12,x13,56
    1b8c:	00b805b3          	add	x11,x16,x11
    1b90:	0005a683          	lw	x13,0(x11)
    1b94:	ff858593          	addi	x11,x11,-8
    1b98:	00d59863          	bne	x11,x13,1ba8 <_free_r+0x144>
    1b9c:	1500006f          	jal	x0,1cec <_free_r+0x288>
    1ba0:	0086a683          	lw	x13,8(x13)
    1ba4:	00d58863          	beq	x11,x13,1bb4 <_free_r+0x150>
    1ba8:	0046a603          	lw	x12,4(x13)
    1bac:	ffc67613          	andi	x12,x12,-4
    1bb0:	fec7e8e3          	bltu	x15,x12,1ba0 <_free_r+0x13c>
    1bb4:	00c6a583          	lw	x11,12(x13)
    1bb8:	00b72623          	sw	x11,12(x14)
    1bbc:	00d72423          	sw	x13,8(x14)
    1bc0:	00812403          	lw	x8,8(x2)
    1bc4:	00c12083          	lw	x1,12(x2)
    1bc8:	00e5a423          	sw	x14,8(x11)
    1bcc:	00048513          	addi	x10,x9,0
    1bd0:	00412483          	lw	x9,4(x2)
    1bd4:	00e6a623          	sw	x14,12(x13)
    1bd8:	01010113          	addi	x2,x2,16
    1bdc:	6390006f          	jal	x0,2a14 <__malloc_unlock>
    1be0:	00008067          	jalr	x0,0(x1)
    1be4:	00d787b3          	add	x15,x15,x13
    1be8:	00011897          	auipc	x17,0x11
    1bec:	8cc88893          	addi	x17,x17,-1844 # 124b4 <__malloc_av_+0x8>
    1bf0:	00862683          	lw	x13,8(x12)
    1bf4:	0d168a63          	beq	x13,x17,1cc8 <_free_r+0x264>
    1bf8:	00c62503          	lw	x10,12(x12)
    1bfc:	0017e593          	ori	x11,x15,1
    1c00:	00f70633          	add	x12,x14,x15
    1c04:	00a6a623          	sw	x10,12(x13)
    1c08:	00d52423          	sw	x13,8(x10)
    1c0c:	00b72223          	sw	x11,4(x14)
    1c10:	00f62023          	sw	x15,0(x12)
    1c14:	ee9ff06f          	jal	x0,1afc <_free_r+0x98>
    1c18:	12051a63          	bne	x10,x0,1d4c <_free_r+0x2e8>
    1c1c:	00862583          	lw	x11,8(x12)
    1c20:	00c62603          	lw	x12,12(x12)
    1c24:	00f686b3          	add	x13,x13,x15
    1c28:	0016e793          	ori	x15,x13,1
    1c2c:	00c5a623          	sw	x12,12(x11)
    1c30:	00b62423          	sw	x11,8(x12)
    1c34:	00f72223          	sw	x15,4(x14)
    1c38:	00d70733          	add	x14,x14,x13
    1c3c:	00d72023          	sw	x13,0(x14)
    1c40:	f01ff06f          	jal	x0,1b40 <_free_r+0xdc>
    1c44:	00d786b3          	add	x13,x15,x13
    1c48:	02089063          	bne	x17,x0,1c68 <_free_r+0x204>
    1c4c:	ff842583          	lw	x11,-8(x8)
    1c50:	40b70733          	sub	x14,x14,x11
    1c54:	00c72783          	lw	x15,12(x14)
    1c58:	00872603          	lw	x12,8(x14)
    1c5c:	00b686b3          	add	x13,x13,x11
    1c60:	00f62623          	sw	x15,12(x12)
    1c64:	00c7a423          	sw	x12,8(x15) # 1008 <_fclose_r+0x5c>
    1c68:	0016e793          	ori	x15,x13,1
    1c6c:	00f72223          	sw	x15,4(x14)
    1c70:	00e82423          	sw	x14,8(x16)
    1c74:	f101a783          	lw	x15,-240(x3) # 12bb0 <__malloc_trim_threshold>
    1c78:	ecf6e4e3          	bltu	x13,x15,1b40 <_free_r+0xdc>
    1c7c:	f281a583          	lw	x11,-216(x3) # 12bc8 <__malloc_top_pad>
    1c80:	00048513          	addi	x10,x9,0
    1c84:	ca9ff0ef          	jal	x1,192c <_malloc_trim_r>
    1c88:	eb9ff06f          	jal	x0,1b40 <_free_r+0xdc>
    1c8c:	00d787b3          	add	x15,x15,x13
    1c90:	f61ff06f          	jal	x0,1bf0 <_free_r+0x18c>
    1c94:	01400613          	addi	x12,x0,20
    1c98:	02d67063          	bgeu	x12,x13,1cb8 <_free_r+0x254>
    1c9c:	05400613          	addi	x12,x0,84
    1ca0:	06d66463          	bltu	x12,x13,1d08 <_free_r+0x2a4>
    1ca4:	00c7d693          	srli	x13,x15,0xc
    1ca8:	06f68593          	addi	x11,x13,111
    1cac:	00359593          	slli	x11,x11,0x3
    1cb0:	06e68613          	addi	x12,x13,110
    1cb4:	ed9ff06f          	jal	x0,1b8c <_free_r+0x128>
    1cb8:	05c68593          	addi	x11,x13,92
    1cbc:	00359593          	slli	x11,x11,0x3
    1cc0:	05b68613          	addi	x12,x13,91
    1cc4:	ec9ff06f          	jal	x0,1b8c <_free_r+0x128>
    1cc8:	00e82a23          	sw	x14,20(x16)
    1ccc:	00e82823          	sw	x14,16(x16)
    1cd0:	0017e693          	ori	x13,x15,1
    1cd4:	01172623          	sw	x17,12(x14)
    1cd8:	01172423          	sw	x17,8(x14)
    1cdc:	00d72223          	sw	x13,4(x14)
    1ce0:	00f70733          	add	x14,x14,x15
    1ce4:	00f72023          	sw	x15,0(x14)
    1ce8:	e59ff06f          	jal	x0,1b40 <_free_r+0xdc>
    1cec:	00482503          	lw	x10,4(x16)
    1cf0:	40265613          	srai	x12,x12,0x2
    1cf4:	00100793          	addi	x15,x0,1
    1cf8:	00c797b3          	sll	x15,x15,x12
    1cfc:	00a7e7b3          	or	x15,x15,x10
    1d00:	00f82223          	sw	x15,4(x16)
    1d04:	eb5ff06f          	jal	x0,1bb8 <_free_r+0x154>
    1d08:	15400613          	addi	x12,x0,340
    1d0c:	00d66c63          	bltu	x12,x13,1d24 <_free_r+0x2c0>
    1d10:	00f7d693          	srli	x13,x15,0xf
    1d14:	07868593          	addi	x11,x13,120
    1d18:	00359593          	slli	x11,x11,0x3
    1d1c:	07768613          	addi	x12,x13,119
    1d20:	e6dff06f          	jal	x0,1b8c <_free_r+0x128>
    1d24:	55400613          	addi	x12,x0,1364
    1d28:	00d66c63          	bltu	x12,x13,1d40 <_free_r+0x2dc>
    1d2c:	0127d693          	srli	x13,x15,0x12
    1d30:	07d68593          	addi	x11,x13,125
    1d34:	00359593          	slli	x11,x11,0x3
    1d38:	07c68613          	addi	x12,x13,124
    1d3c:	e51ff06f          	jal	x0,1b8c <_free_r+0x128>
    1d40:	3f800593          	addi	x11,x0,1016
    1d44:	07e00613          	addi	x12,x0,126
    1d48:	e45ff06f          	jal	x0,1b8c <_free_r+0x128>
    1d4c:	0017e693          	ori	x13,x15,1
    1d50:	00d72223          	sw	x13,4(x14)
    1d54:	00f62023          	sw	x15,0(x12)
    1d58:	de9ff06f          	jal	x0,1b40 <_free_r+0xdc>

00001d5c <memcpy>:
    1d5c:	00a5c7b3          	xor	x15,x11,x10
    1d60:	0037f793          	andi	x15,x15,3
    1d64:	00c508b3          	add	x17,x10,x12
    1d68:	06079463          	bne	x15,x0,1dd0 <memcpy+0x74>
    1d6c:	00300793          	addi	x15,x0,3
    1d70:	06c7f063          	bgeu	x15,x12,1dd0 <memcpy+0x74>
    1d74:	00357793          	andi	x15,x10,3
    1d78:	00050713          	addi	x14,x10,0
    1d7c:	0c079863          	bne	x15,x0,1e4c <memcpy+0xf0>
    1d80:	ffc8f613          	andi	x12,x17,-4
    1d84:	40e606b3          	sub	x13,x12,x14
    1d88:	02000793          	addi	x15,x0,32
    1d8c:	06d7c263          	blt	x15,x13,1df0 <memcpy+0x94>
    1d90:	00058693          	addi	x13,x11,0
    1d94:	00070793          	addi	x15,x14,0
    1d98:	02c77863          	bgeu	x14,x12,1dc8 <memcpy+0x6c>
    1d9c:	0006a803          	lw	x16,0(x13)
    1da0:	00478793          	addi	x15,x15,4
    1da4:	00468693          	addi	x13,x13,4
    1da8:	ff07ae23          	sw	x16,-4(x15)
    1dac:	fec7e8e3          	bltu	x15,x12,1d9c <memcpy+0x40>
    1db0:	fff60793          	addi	x15,x12,-1
    1db4:	40e787b3          	sub	x15,x15,x14
    1db8:	ffc7f793          	andi	x15,x15,-4
    1dbc:	00478793          	addi	x15,x15,4
    1dc0:	00f70733          	add	x14,x14,x15
    1dc4:	00f585b3          	add	x11,x11,x15
    1dc8:	01176863          	bltu	x14,x17,1dd8 <memcpy+0x7c>
    1dcc:	00008067          	jalr	x0,0(x1)
    1dd0:	00050713          	addi	x14,x10,0
    1dd4:	ff157ce3          	bgeu	x10,x17,1dcc <memcpy+0x70>
    1dd8:	0005c783          	lbu	x15,0(x11)
    1ddc:	00170713          	addi	x14,x14,1
    1de0:	00158593          	addi	x11,x11,1
    1de4:	fef70fa3          	sb	x15,-1(x14)
    1de8:	fee898e3          	bne	x17,x14,1dd8 <memcpy+0x7c>
    1dec:	00008067          	jalr	x0,0(x1)
    1df0:	0205a683          	lw	x13,32(x11)
    1df4:	0005a383          	lw	x7,0(x11)
    1df8:	0045a283          	lw	x5,4(x11)
    1dfc:	0085af83          	lw	x31,8(x11)
    1e00:	00c5af03          	lw	x30,12(x11)
    1e04:	0105ae83          	lw	x29,16(x11)
    1e08:	0145ae03          	lw	x28,20(x11)
    1e0c:	0185a303          	lw	x6,24(x11)
    1e10:	01c5a803          	lw	x16,28(x11)
    1e14:	02470713          	addi	x14,x14,36
    1e18:	fed72e23          	sw	x13,-4(x14)
    1e1c:	fc772e23          	sw	x7,-36(x14)
    1e20:	40e606b3          	sub	x13,x12,x14
    1e24:	fe572023          	sw	x5,-32(x14)
    1e28:	fff72223          	sw	x31,-28(x14)
    1e2c:	ffe72423          	sw	x30,-24(x14)
    1e30:	ffd72623          	sw	x29,-20(x14)
    1e34:	ffc72823          	sw	x28,-16(x14)
    1e38:	fe672a23          	sw	x6,-12(x14)
    1e3c:	ff072c23          	sw	x16,-8(x14)
    1e40:	02458593          	addi	x11,x11,36
    1e44:	fad7c6e3          	blt	x15,x13,1df0 <memcpy+0x94>
    1e48:	f49ff06f          	jal	x0,1d90 <memcpy+0x34>
    1e4c:	0005c683          	lbu	x13,0(x11)
    1e50:	00170713          	addi	x14,x14,1
    1e54:	00377793          	andi	x15,x14,3
    1e58:	fed70fa3          	sb	x13,-1(x14)
    1e5c:	00158593          	addi	x11,x11,1
    1e60:	f20780e3          	beq	x15,x0,1d80 <memcpy+0x24>
    1e64:	0005c683          	lbu	x13,0(x11)
    1e68:	00170713          	addi	x14,x14,1
    1e6c:	00377793          	andi	x15,x14,3
    1e70:	fed70fa3          	sb	x13,-1(x14)
    1e74:	00158593          	addi	x11,x11,1
    1e78:	fc079ae3          	bne	x15,x0,1e4c <memcpy+0xf0>
    1e7c:	f05ff06f          	jal	x0,1d80 <memcpy+0x24>

00001e80 <memchr>:
    1e80:	00357713          	andi	x14,x10,3
    1e84:	00050793          	addi	x15,x10,0
    1e88:	0ff5f813          	andi	x16,x11,255
    1e8c:	00050313          	addi	x6,x10,0
    1e90:	02070e63          	beq	x14,x0,1ecc <memchr+0x4c>
    1e94:	00c508b3          	add	x17,x10,x12
    1e98:	0140006f          	jal	x0,1eac <memchr+0x2c>
    1e9c:	0007c683          	lbu	x13,0(x15)
    1ea0:	0b068263          	beq	x13,x16,1f44 <memchr+0xc4>
    1ea4:	00070e63          	beq	x14,x0,1ec0 <memchr+0x40>
    1ea8:	00050793          	addi	x15,x10,0
    1eac:	00178513          	addi	x10,x15,1
    1eb0:	00357713          	andi	x14,x10,3
    1eb4:	fef894e3          	bne	x17,x15,1e9c <memchr+0x1c>
    1eb8:	00000513          	addi	x10,x0,0
    1ebc:	00008067          	jalr	x0,0(x1)
    1ec0:	fff60613          	addi	x12,x12,-1
    1ec4:	00660633          	add	x12,x12,x6
    1ec8:	40f60633          	sub	x12,x12,x15
    1ecc:	00300793          	addi	x15,x0,3
    1ed0:	04c7fa63          	bgeu	x15,x12,1f24 <memchr+0xa4>
    1ed4:	0ff5f593          	andi	x11,x11,255
    1ed8:	00859693          	slli	x13,x11,0x8
    1edc:	00b686b3          	add	x13,x13,x11
    1ee0:	01069713          	slli	x14,x13,0x10
    1ee4:	feff0337          	lui	x6,0xfeff0
    1ee8:	808088b7          	lui	x17,0x80808
    1eec:	00078593          	addi	x11,x15,0
    1ef0:	00e686b3          	add	x13,x13,x14
    1ef4:	eff30313          	addi	x6,x6,-257 # fefefeff <__heap_end+0xfebefeff>
    1ef8:	08088893          	addi	x17,x17,128 # 80808080 <__heap_end+0x80408080>
    1efc:	00052783          	lw	x15,0(x10)
    1f00:	00f6c7b3          	xor	x15,x13,x15
    1f04:	00678733          	add	x14,x15,x6
    1f08:	fff7c793          	xori	x15,x15,-1
    1f0c:	00f777b3          	and	x15,x14,x15
    1f10:	0117f7b3          	and	x15,x15,x17
    1f14:	00079a63          	bne	x15,x0,1f28 <memchr+0xa8>
    1f18:	ffc60613          	addi	x12,x12,-4
    1f1c:	00450513          	addi	x10,x10,4
    1f20:	fcc5eee3          	bltu	x11,x12,1efc <memchr+0x7c>
    1f24:	f8060ae3          	beq	x12,x0,1eb8 <memchr+0x38>
    1f28:	00c50633          	add	x12,x10,x12
    1f2c:	00c0006f          	jal	x0,1f38 <memchr+0xb8>
    1f30:	00150513          	addi	x10,x10,1
    1f34:	f8a602e3          	beq	x12,x10,1eb8 <memchr+0x38>
    1f38:	00054783          	lbu	x15,0(x10)
    1f3c:	ff079ae3          	bne	x15,x16,1f30 <memchr+0xb0>
    1f40:	00008067          	jalr	x0,0(x1)
    1f44:	00078513          	addi	x10,x15,0
    1f48:	00008067          	jalr	x0,0(x1)

00001f4c <memmove>:
    1f4c:	02a5f663          	bgeu	x11,x10,1f78 <memmove+0x2c>
    1f50:	00c58733          	add	x14,x11,x12
    1f54:	02e57263          	bgeu	x10,x14,1f78 <memmove+0x2c>
    1f58:	00c507b3          	add	x15,x10,x12
    1f5c:	04060663          	beq	x12,x0,1fa8 <memmove+0x5c>
    1f60:	fff74683          	lbu	x13,-1(x14)
    1f64:	fff78793          	addi	x15,x15,-1
    1f68:	fff70713          	addi	x14,x14,-1
    1f6c:	00d78023          	sb	x13,0(x15)
    1f70:	fef518e3          	bne	x10,x15,1f60 <memmove+0x14>
    1f74:	00008067          	jalr	x0,0(x1)
    1f78:	00f00793          	addi	x15,x0,15
    1f7c:	02c7e863          	bltu	x15,x12,1fac <memmove+0x60>
    1f80:	00050793          	addi	x15,x10,0
    1f84:	fff60693          	addi	x13,x12,-1
    1f88:	0c060a63          	beq	x12,x0,205c <memmove+0x110>
    1f8c:	00168693          	addi	x13,x13,1
    1f90:	00d786b3          	add	x13,x15,x13
    1f94:	0005c703          	lbu	x14,0(x11)
    1f98:	00178793          	addi	x15,x15,1
    1f9c:	00158593          	addi	x11,x11,1
    1fa0:	fee78fa3          	sb	x14,-1(x15)
    1fa4:	fed798e3          	bne	x15,x13,1f94 <memmove+0x48>
    1fa8:	00008067          	jalr	x0,0(x1)
    1fac:	00b567b3          	or	x15,x10,x11
    1fb0:	0037f793          	andi	x15,x15,3
    1fb4:	08079e63          	bne	x15,x0,2050 <memmove+0x104>
    1fb8:	ff060893          	addi	x17,x12,-16
    1fbc:	ff08f893          	andi	x17,x17,-16
    1fc0:	01088893          	addi	x17,x17,16
    1fc4:	011507b3          	add	x15,x10,x17
    1fc8:	00058693          	addi	x13,x11,0
    1fcc:	00050713          	addi	x14,x10,0
    1fd0:	0006a803          	lw	x16,0(x13)
    1fd4:	01068693          	addi	x13,x13,16
    1fd8:	01070713          	addi	x14,x14,16
    1fdc:	ff072823          	sw	x16,-16(x14)
    1fe0:	ff46a803          	lw	x16,-12(x13)
    1fe4:	ff072a23          	sw	x16,-12(x14)
    1fe8:	ff86a803          	lw	x16,-8(x13)
    1fec:	ff072c23          	sw	x16,-8(x14)
    1ff0:	ffc6a803          	lw	x16,-4(x13)
    1ff4:	ff072e23          	sw	x16,-4(x14)
    1ff8:	fcf71ce3          	bne	x14,x15,1fd0 <memmove+0x84>
    1ffc:	00c67713          	andi	x14,x12,12
    2000:	011585b3          	add	x11,x11,x17
    2004:	00f67813          	andi	x16,x12,15
    2008:	04070c63          	beq	x14,x0,2060 <memmove+0x114>
    200c:	00058693          	addi	x13,x11,0
    2010:	00078713          	addi	x14,x15,0
    2014:	01078eb3          	add	x29,x15,x16
    2018:	00300e13          	addi	x28,x0,3
    201c:	0006a303          	lw	x6,0(x13)
    2020:	00470713          	addi	x14,x14,4
    2024:	40ee88b3          	sub	x17,x29,x14
    2028:	fe672e23          	sw	x6,-4(x14)
    202c:	00468693          	addi	x13,x13,4
    2030:	ff1e66e3          	bltu	x28,x17,201c <memmove+0xd0>
    2034:	ffc80713          	addi	x14,x16,-4
    2038:	ffc77713          	andi	x14,x14,-4
    203c:	00470713          	addi	x14,x14,4
    2040:	00e787b3          	add	x15,x15,x14
    2044:	00e585b3          	add	x11,x11,x14
    2048:	00367613          	andi	x12,x12,3
    204c:	f39ff06f          	jal	x0,1f84 <memmove+0x38>
    2050:	fff60693          	addi	x13,x12,-1
    2054:	00050793          	addi	x15,x10,0
    2058:	f35ff06f          	jal	x0,1f8c <memmove+0x40>
    205c:	00008067          	jalr	x0,0(x1)
    2060:	00080613          	addi	x12,x16,0
    2064:	f21ff06f          	jal	x0,1f84 <memmove+0x38>

00002068 <_fwalk_sglue>:
    2068:	fd010113          	addi	x2,x2,-48
    206c:	03212023          	sw	x18,32(x2)
    2070:	01312e23          	sw	x19,28(x2)
    2074:	01412c23          	sw	x20,24(x2)
    2078:	01512a23          	sw	x21,20(x2)
    207c:	01612823          	sw	x22,16(x2)
    2080:	01712623          	sw	x23,12(x2)
    2084:	02112623          	sw	x1,44(x2)
    2088:	02812423          	sw	x8,40(x2)
    208c:	02912223          	sw	x9,36(x2)
    2090:	00050b13          	addi	x22,x10,0
    2094:	00058b93          	addi	x23,x11,0
    2098:	00060a93          	addi	x21,x12,0
    209c:	00000a13          	addi	x20,x0,0
    20a0:	00100993          	addi	x19,x0,1
    20a4:	fff00913          	addi	x18,x0,-1
    20a8:	004aa483          	lw	x9,4(x21)
    20ac:	008aa403          	lw	x8,8(x21)
    20b0:	fff48493          	addi	x9,x9,-1
    20b4:	0204c863          	blt	x9,x0,20e4 <_fwalk_sglue+0x7c>
    20b8:	00c45783          	lhu	x15,12(x8)
    20bc:	00f9fe63          	bgeu	x19,x15,20d8 <_fwalk_sglue+0x70>
    20c0:	00e41783          	lh	x15,14(x8)
    20c4:	00040593          	addi	x11,x8,0
    20c8:	000b0513          	addi	x10,x22,0
    20cc:	01278663          	beq	x15,x18,20d8 <_fwalk_sglue+0x70>
    20d0:	000b80e7          	jalr	x1,0(x23)
    20d4:	00aa6a33          	or	x20,x20,x10
    20d8:	fff48493          	addi	x9,x9,-1
    20dc:	06840413          	addi	x8,x8,104
    20e0:	fd249ce3          	bne	x9,x18,20b8 <_fwalk_sglue+0x50>
    20e4:	000aaa83          	lw	x21,0(x21)
    20e8:	fc0a90e3          	bne	x21,x0,20a8 <_fwalk_sglue+0x40>
    20ec:	02c12083          	lw	x1,44(x2)
    20f0:	02812403          	lw	x8,40(x2)
    20f4:	02412483          	lw	x9,36(x2)
    20f8:	02012903          	lw	x18,32(x2)
    20fc:	01c12983          	lw	x19,28(x2)
    2100:	01412a83          	lw	x21,20(x2)
    2104:	01012b03          	lw	x22,16(x2)
    2108:	00c12b83          	lw	x23,12(x2)
    210c:	000a0513          	addi	x10,x20,0
    2110:	01812a03          	lw	x20,24(x2)
    2114:	03010113          	addi	x2,x2,48
    2118:	00008067          	jalr	x0,0(x1)

0000211c <_realloc_r>:
    211c:	fd010113          	addi	x2,x2,-48
    2120:	02912223          	sw	x9,36(x2)
    2124:	02112623          	sw	x1,44(x2)
    2128:	00060493          	addi	x9,x12,0
    212c:	1e058863          	beq	x11,x0,231c <_realloc_r+0x200>
    2130:	02812423          	sw	x8,40(x2)
    2134:	03212023          	sw	x18,32(x2)
    2138:	00058413          	addi	x8,x11,0
    213c:	01312e23          	sw	x19,28(x2)
    2140:	01512a23          	sw	x21,20(x2)
    2144:	01412c23          	sw	x20,24(x2)
    2148:	00050913          	addi	x18,x10,0
    214c:	0c5000ef          	jal	x1,2a10 <__malloc_lock>
    2150:	ffc42703          	lw	x14,-4(x8)
    2154:	00b48793          	addi	x15,x9,11
    2158:	01600693          	addi	x13,x0,22
    215c:	ffc77993          	andi	x19,x14,-4
    2160:	ff840a93          	addi	x21,x8,-8
    2164:	10f6f263          	bgeu	x13,x15,2268 <_realloc_r+0x14c>
    2168:	ff87fa13          	andi	x20,x15,-8
    216c:	1007c263          	blt	x15,x0,2270 <_realloc_r+0x154>
    2170:	109a6063          	bltu	x20,x9,2270 <_realloc_r+0x154>
    2174:	1349d263          	bge	x19,x20,2298 <_realloc_r+0x17c>
    2178:	01812423          	sw	x24,8(x2)
    217c:	00010c17          	auipc	x24,0x10
    2180:	330c0c13          	addi	x24,x24,816 # 124ac <__malloc_av_>
    2184:	008c2603          	lw	x12,8(x24)
    2188:	013a86b3          	add	x13,x21,x19
    218c:	0046a783          	lw	x15,4(x13)
    2190:	1cd60863          	beq	x12,x13,2360 <_realloc_r+0x244>
    2194:	ffe7f613          	andi	x12,x15,-2
    2198:	00c68633          	add	x12,x13,x12
    219c:	00462603          	lw	x12,4(x12)
    21a0:	00167613          	andi	x12,x12,1
    21a4:	14061a63          	bne	x12,x0,22f8 <_realloc_r+0x1dc>
    21a8:	ffc7f793          	andi	x15,x15,-4
    21ac:	00f98633          	add	x12,x19,x15
    21b0:	0d465863          	bge	x12,x20,2280 <_realloc_r+0x164>
    21b4:	00177713          	andi	x14,x14,1
    21b8:	02071c63          	bne	x14,x0,21f0 <_realloc_r+0xd4>
    21bc:	01712623          	sw	x23,12(x2)
    21c0:	ff842b83          	lw	x23,-8(x8)
    21c4:	01612823          	sw	x22,16(x2)
    21c8:	417a8bb3          	sub	x23,x21,x23
    21cc:	004ba703          	lw	x14,4(x23)
    21d0:	ffc77713          	andi	x14,x14,-4
    21d4:	00e787b3          	add	x15,x15,x14
    21d8:	01378b33          	add	x22,x15,x19
    21dc:	334b5263          	bge	x22,x20,2500 <_realloc_r+0x3e4>
    21e0:	00e98b33          	add	x22,x19,x14
    21e4:	294b5863          	bge	x22,x20,2474 <_realloc_r+0x358>
    21e8:	01012b03          	lw	x22,16(x2)
    21ec:	00c12b83          	lw	x23,12(x2)
    21f0:	00048593          	addi	x11,x9,0
    21f4:	00090513          	addi	x10,x18,0
    21f8:	ec9fe0ef          	jal	x1,10c0 <_malloc_r>
    21fc:	00050493          	addi	x9,x10,0
    2200:	40050063          	beq	x10,x0,2600 <_realloc_r+0x4e4>
    2204:	ffc42783          	lw	x15,-4(x8)
    2208:	ff850713          	addi	x14,x10,-8
    220c:	ffe7f793          	andi	x15,x15,-2
    2210:	00fa87b3          	add	x15,x21,x15
    2214:	24e78663          	beq	x15,x14,2460 <_realloc_r+0x344>
    2218:	ffc98613          	addi	x12,x19,-4
    221c:	02400793          	addi	x15,x0,36
    2220:	2cc7ea63          	bltu	x15,x12,24f4 <_realloc_r+0x3d8>
    2224:	01300713          	addi	x14,x0,19
    2228:	20c76a63          	bltu	x14,x12,243c <_realloc_r+0x320>
    222c:	00050793          	addi	x15,x10,0
    2230:	00040713          	addi	x14,x8,0
    2234:	00072683          	lw	x13,0(x14)
    2238:	00d7a023          	sw	x13,0(x15)
    223c:	00472683          	lw	x13,4(x14)
    2240:	00d7a223          	sw	x13,4(x15)
    2244:	00872703          	lw	x14,8(x14)
    2248:	00e7a423          	sw	x14,8(x15)
    224c:	00040593          	addi	x11,x8,0
    2250:	00090513          	addi	x10,x18,0
    2254:	811ff0ef          	jal	x1,1a64 <_free_r>
    2258:	00090513          	addi	x10,x18,0
    225c:	7b8000ef          	jal	x1,2a14 <__malloc_unlock>
    2260:	00812c03          	lw	x24,8(x2)
    2264:	06c0006f          	jal	x0,22d0 <_realloc_r+0x1b4>
    2268:	01000a13          	addi	x20,x0,16
    226c:	f09a74e3          	bgeu	x20,x9,2174 <_realloc_r+0x58>
    2270:	00c00793          	addi	x15,x0,12
    2274:	00f92023          	sw	x15,0(x18)
    2278:	00000493          	addi	x9,x0,0
    227c:	0540006f          	jal	x0,22d0 <_realloc_r+0x1b4>
    2280:	00c6a783          	lw	x15,12(x13)
    2284:	0086a703          	lw	x14,8(x13)
    2288:	00812c03          	lw	x24,8(x2)
    228c:	00060993          	addi	x19,x12,0
    2290:	00f72623          	sw	x15,12(x14)
    2294:	00e7a423          	sw	x14,8(x15)
    2298:	004aa783          	lw	x15,4(x21)
    229c:	414986b3          	sub	x13,x19,x20
    22a0:	00f00613          	addi	x12,x0,15
    22a4:	0017f793          	andi	x15,x15,1
    22a8:	013a8733          	add	x14,x21,x19
    22ac:	08d66263          	bltu	x12,x13,2330 <_realloc_r+0x214>
    22b0:	0137e7b3          	or	x15,x15,x19
    22b4:	00faa223          	sw	x15,4(x21)
    22b8:	00472783          	lw	x15,4(x14)
    22bc:	0017e793          	ori	x15,x15,1
    22c0:	00f72223          	sw	x15,4(x14)
    22c4:	00090513          	addi	x10,x18,0
    22c8:	74c000ef          	jal	x1,2a14 <__malloc_unlock>
    22cc:	00040493          	addi	x9,x8,0
    22d0:	02812403          	lw	x8,40(x2)
    22d4:	02c12083          	lw	x1,44(x2)
    22d8:	02012903          	lw	x18,32(x2)
    22dc:	01c12983          	lw	x19,28(x2)
    22e0:	01812a03          	lw	x20,24(x2)
    22e4:	01412a83          	lw	x21,20(x2)
    22e8:	00048513          	addi	x10,x9,0
    22ec:	02412483          	lw	x9,36(x2)
    22f0:	03010113          	addi	x2,x2,48
    22f4:	00008067          	jalr	x0,0(x1)
    22f8:	00177713          	andi	x14,x14,1
    22fc:	ee071ae3          	bne	x14,x0,21f0 <_realloc_r+0xd4>
    2300:	01712623          	sw	x23,12(x2)
    2304:	ff842b83          	lw	x23,-8(x8)
    2308:	01612823          	sw	x22,16(x2)
    230c:	417a8bb3          	sub	x23,x21,x23
    2310:	004ba703          	lw	x14,4(x23)
    2314:	ffc77713          	andi	x14,x14,-4
    2318:	ec9ff06f          	jal	x0,21e0 <_realloc_r+0xc4>
    231c:	02c12083          	lw	x1,44(x2)
    2320:	02412483          	lw	x9,36(x2)
    2324:	00060593          	addi	x11,x12,0
    2328:	03010113          	addi	x2,x2,48
    232c:	d95fe06f          	jal	x0,10c0 <_malloc_r>
    2330:	0147e7b3          	or	x15,x15,x20
    2334:	00faa223          	sw	x15,4(x21)
    2338:	014a85b3          	add	x11,x21,x20
    233c:	0016e693          	ori	x13,x13,1
    2340:	00d5a223          	sw	x13,4(x11)
    2344:	00472783          	lw	x15,4(x14)
    2348:	00858593          	addi	x11,x11,8
    234c:	00090513          	addi	x10,x18,0
    2350:	0017e793          	ori	x15,x15,1
    2354:	00f72223          	sw	x15,4(x14)
    2358:	f0cff0ef          	jal	x1,1a64 <_free_r>
    235c:	f69ff06f          	jal	x0,22c4 <_realloc_r+0x1a8>
    2360:	ffc7f793          	andi	x15,x15,-4
    2364:	013786b3          	add	x13,x15,x19
    2368:	010a0613          	addi	x12,x20,16
    236c:	22c6de63          	bge	x13,x12,25a8 <_realloc_r+0x48c>
    2370:	00177713          	andi	x14,x14,1
    2374:	e6071ee3          	bne	x14,x0,21f0 <_realloc_r+0xd4>
    2378:	01712623          	sw	x23,12(x2)
    237c:	ff842b83          	lw	x23,-8(x8)
    2380:	01612823          	sw	x22,16(x2)
    2384:	417a8bb3          	sub	x23,x21,x23
    2388:	004ba703          	lw	x14,4(x23)
    238c:	ffc77713          	andi	x14,x14,-4
    2390:	00e787b3          	add	x15,x15,x14
    2394:	01378b33          	add	x22,x15,x19
    2398:	e4cb44e3          	blt	x22,x12,21e0 <_realloc_r+0xc4>
    239c:	00cba783          	lw	x15,12(x23)
    23a0:	008ba703          	lw	x14,8(x23)
    23a4:	ffc98613          	addi	x12,x19,-4
    23a8:	02400693          	addi	x13,x0,36
    23ac:	00f72623          	sw	x15,12(x14)
    23b0:	00e7a423          	sw	x14,8(x15)
    23b4:	008b8493          	addi	x9,x23,8
    23b8:	28c6ee63          	bltu	x13,x12,2654 <_realloc_r+0x538>
    23bc:	01300713          	addi	x14,x0,19
    23c0:	00048793          	addi	x15,x9,0
    23c4:	02c77263          	bgeu	x14,x12,23e8 <_realloc_r+0x2cc>
    23c8:	00042703          	lw	x14,0(x8)
    23cc:	01b00793          	addi	x15,x0,27
    23d0:	00eba423          	sw	x14,8(x23)
    23d4:	00442703          	lw	x14,4(x8)
    23d8:	00eba623          	sw	x14,12(x23)
    23dc:	2ac7e263          	bltu	x15,x12,2680 <_realloc_r+0x564>
    23e0:	00840413          	addi	x8,x8,8
    23e4:	010b8793          	addi	x15,x23,16
    23e8:	00042703          	lw	x14,0(x8)
    23ec:	00e7a023          	sw	x14,0(x15)
    23f0:	00442703          	lw	x14,4(x8)
    23f4:	00e7a223          	sw	x14,4(x15)
    23f8:	00842703          	lw	x14,8(x8)
    23fc:	00e7a423          	sw	x14,8(x15)
    2400:	014b8733          	add	x14,x23,x20
    2404:	414b07b3          	sub	x15,x22,x20
    2408:	00ec2423          	sw	x14,8(x24)
    240c:	0017e793          	ori	x15,x15,1
    2410:	00f72223          	sw	x15,4(x14)
    2414:	004ba783          	lw	x15,4(x23)
    2418:	00090513          	addi	x10,x18,0
    241c:	0017f793          	andi	x15,x15,1
    2420:	0147e7b3          	or	x15,x15,x20
    2424:	00fba223          	sw	x15,4(x23)
    2428:	5ec000ef          	jal	x1,2a14 <__malloc_unlock>
    242c:	01012b03          	lw	x22,16(x2)
    2430:	00c12b83          	lw	x23,12(x2)
    2434:	00812c03          	lw	x24,8(x2)
    2438:	e99ff06f          	jal	x0,22d0 <_realloc_r+0x1b4>
    243c:	00042683          	lw	x13,0(x8)
    2440:	01b00713          	addi	x14,x0,27
    2444:	00d52023          	sw	x13,0(x10)
    2448:	00442683          	lw	x13,4(x8)
    244c:	00d52223          	sw	x13,4(x10)
    2450:	12c76c63          	bltu	x14,x12,2588 <_realloc_r+0x46c>
    2454:	00840713          	addi	x14,x8,8
    2458:	00850793          	addi	x15,x10,8
    245c:	dd9ff06f          	jal	x0,2234 <_realloc_r+0x118>
    2460:	ffc52783          	lw	x15,-4(x10)
    2464:	00812c03          	lw	x24,8(x2)
    2468:	ffc7f793          	andi	x15,x15,-4
    246c:	00f989b3          	add	x19,x19,x15
    2470:	e29ff06f          	jal	x0,2298 <_realloc_r+0x17c>
    2474:	00cba783          	lw	x15,12(x23)
    2478:	008ba683          	lw	x13,8(x23)
    247c:	ffc98613          	addi	x12,x19,-4
    2480:	02400593          	addi	x11,x0,36
    2484:	00f6a623          	sw	x15,12(x13)
    2488:	00d7a423          	sw	x13,8(x15)
    248c:	008b8493          	addi	x9,x23,8
    2490:	0ec5e463          	bltu	x11,x12,2578 <_realloc_r+0x45c>
    2494:	01300693          	addi	x13,x0,19
    2498:	00048793          	addi	x15,x9,0
    249c:	02c6f263          	bgeu	x13,x12,24c0 <_realloc_r+0x3a4>
    24a0:	00042703          	lw	x14,0(x8)
    24a4:	01b00793          	addi	x15,x0,27
    24a8:	00eba423          	sw	x14,8(x23)
    24ac:	00442703          	lw	x14,4(x8)
    24b0:	00eba623          	sw	x14,12(x23)
    24b4:	12c7e663          	bltu	x15,x12,25e0 <_realloc_r+0x4c4>
    24b8:	00840413          	addi	x8,x8,8
    24bc:	010b8793          	addi	x15,x23,16
    24c0:	00042683          	lw	x13,0(x8)
    24c4:	00d7a023          	sw	x13,0(x15)
    24c8:	00442683          	lw	x13,4(x8)
    24cc:	00d7a223          	sw	x13,4(x15)
    24d0:	00842683          	lw	x13,8(x8)
    24d4:	00d7a423          	sw	x13,8(x15)
    24d8:	000b0993          	addi	x19,x22,0
    24dc:	000b8a93          	addi	x21,x23,0
    24e0:	01012b03          	lw	x22,16(x2)
    24e4:	00c12b83          	lw	x23,12(x2)
    24e8:	00812c03          	lw	x24,8(x2)
    24ec:	00048413          	addi	x8,x9,0
    24f0:	da9ff06f          	jal	x0,2298 <_realloc_r+0x17c>
    24f4:	00040593          	addi	x11,x8,0
    24f8:	a55ff0ef          	jal	x1,1f4c <memmove>
    24fc:	d51ff06f          	jal	x0,224c <_realloc_r+0x130>
    2500:	00c6a783          	lw	x15,12(x13)
    2504:	0086a703          	lw	x14,8(x13)
    2508:	ffc98613          	addi	x12,x19,-4
    250c:	02400693          	addi	x13,x0,36
    2510:	00f72623          	sw	x15,12(x14)
    2514:	00e7a423          	sw	x14,8(x15)
    2518:	008ba703          	lw	x14,8(x23)
    251c:	00cba783          	lw	x15,12(x23)
    2520:	008b8493          	addi	x9,x23,8
    2524:	00f72623          	sw	x15,12(x14)
    2528:	00e7a423          	sw	x14,8(x15)
    252c:	04c6e663          	bltu	x13,x12,2578 <_realloc_r+0x45c>
    2530:	01300713          	addi	x14,x0,19
    2534:	00048793          	addi	x15,x9,0
    2538:	02c77263          	bgeu	x14,x12,255c <_realloc_r+0x440>
    253c:	00042703          	lw	x14,0(x8)
    2540:	01b00793          	addi	x15,x0,27
    2544:	00eba423          	sw	x14,8(x23)
    2548:	00442703          	lw	x14,4(x8)
    254c:	00eba623          	sw	x14,12(x23)
    2550:	0ec7e063          	bltu	x15,x12,2630 <_realloc_r+0x514>
    2554:	00840413          	addi	x8,x8,8
    2558:	010b8793          	addi	x15,x23,16
    255c:	00042703          	lw	x14,0(x8)
    2560:	00e7a023          	sw	x14,0(x15)
    2564:	00442703          	lw	x14,4(x8)
    2568:	00e7a223          	sw	x14,4(x15)
    256c:	00842703          	lw	x14,8(x8)
    2570:	00e7a423          	sw	x14,8(x15)
    2574:	f65ff06f          	jal	x0,24d8 <_realloc_r+0x3bc>
    2578:	00040593          	addi	x11,x8,0
    257c:	00048513          	addi	x10,x9,0
    2580:	9cdff0ef          	jal	x1,1f4c <memmove>
    2584:	f55ff06f          	jal	x0,24d8 <_realloc_r+0x3bc>
    2588:	00842703          	lw	x14,8(x8)
    258c:	00e52423          	sw	x14,8(x10)
    2590:	00c42703          	lw	x14,12(x8)
    2594:	00e52623          	sw	x14,12(x10)
    2598:	06f60e63          	beq	x12,x15,2614 <_realloc_r+0x4f8>
    259c:	01040713          	addi	x14,x8,16
    25a0:	01050793          	addi	x15,x10,16
    25a4:	c91ff06f          	jal	x0,2234 <_realloc_r+0x118>
    25a8:	014a8ab3          	add	x21,x21,x20
    25ac:	414687b3          	sub	x15,x13,x20
    25b0:	015c2423          	sw	x21,8(x24)
    25b4:	0017e793          	ori	x15,x15,1
    25b8:	00faa223          	sw	x15,4(x21)
    25bc:	ffc42783          	lw	x15,-4(x8)
    25c0:	00090513          	addi	x10,x18,0
    25c4:	00040493          	addi	x9,x8,0
    25c8:	0017f793          	andi	x15,x15,1
    25cc:	0147e7b3          	or	x15,x15,x20
    25d0:	fef42e23          	sw	x15,-4(x8)
    25d4:	440000ef          	jal	x1,2a14 <__malloc_unlock>
    25d8:	00812c03          	lw	x24,8(x2)
    25dc:	cf5ff06f          	jal	x0,22d0 <_realloc_r+0x1b4>
    25e0:	00842783          	lw	x15,8(x8)
    25e4:	00fba823          	sw	x15,16(x23)
    25e8:	00c42783          	lw	x15,12(x8)
    25ec:	00fbaa23          	sw	x15,20(x23)
    25f0:	06b60a63          	beq	x12,x11,2664 <_realloc_r+0x548>
    25f4:	01040413          	addi	x8,x8,16
    25f8:	018b8793          	addi	x15,x23,24
    25fc:	ec5ff06f          	jal	x0,24c0 <_realloc_r+0x3a4>
    2600:	00090513          	addi	x10,x18,0
    2604:	410000ef          	jal	x1,2a14 <__malloc_unlock>
    2608:	00000493          	addi	x9,x0,0
    260c:	00812c03          	lw	x24,8(x2)
    2610:	cc1ff06f          	jal	x0,22d0 <_realloc_r+0x1b4>
    2614:	01042683          	lw	x13,16(x8)
    2618:	01840713          	addi	x14,x8,24
    261c:	01850793          	addi	x15,x10,24
    2620:	00d52823          	sw	x13,16(x10)
    2624:	01442683          	lw	x13,20(x8)
    2628:	00d52a23          	sw	x13,20(x10)
    262c:	c09ff06f          	jal	x0,2234 <_realloc_r+0x118>
    2630:	00842703          	lw	x14,8(x8)
    2634:	02400793          	addi	x15,x0,36
    2638:	00eba823          	sw	x14,16(x23)
    263c:	00c42703          	lw	x14,12(x8)
    2640:	00ebaa23          	sw	x14,20(x23)
    2644:	04f60e63          	beq	x12,x15,26a0 <_realloc_r+0x584>
    2648:	01040413          	addi	x8,x8,16
    264c:	018b8793          	addi	x15,x23,24
    2650:	f0dff06f          	jal	x0,255c <_realloc_r+0x440>
    2654:	00040593          	addi	x11,x8,0
    2658:	00048513          	addi	x10,x9,0
    265c:	8f1ff0ef          	jal	x1,1f4c <memmove>
    2660:	da1ff06f          	jal	x0,2400 <_realloc_r+0x2e4>
    2664:	01042703          	lw	x14,16(x8)
    2668:	020b8793          	addi	x15,x23,32
    266c:	01840413          	addi	x8,x8,24
    2670:	00ebac23          	sw	x14,24(x23)
    2674:	ffc42703          	lw	x14,-4(x8)
    2678:	00ebae23          	sw	x14,28(x23)
    267c:	e45ff06f          	jal	x0,24c0 <_realloc_r+0x3a4>
    2680:	00842783          	lw	x15,8(x8)
    2684:	00fba823          	sw	x15,16(x23)
    2688:	00c42783          	lw	x15,12(x8)
    268c:	00fbaa23          	sw	x15,20(x23)
    2690:	02d60663          	beq	x12,x13,26bc <_realloc_r+0x5a0>
    2694:	01040413          	addi	x8,x8,16
    2698:	018b8793          	addi	x15,x23,24
    269c:	d4dff06f          	jal	x0,23e8 <_realloc_r+0x2cc>
    26a0:	01042703          	lw	x14,16(x8)
    26a4:	020b8793          	addi	x15,x23,32
    26a8:	01840413          	addi	x8,x8,24
    26ac:	00ebac23          	sw	x14,24(x23)
    26b0:	ffc42703          	lw	x14,-4(x8)
    26b4:	00ebae23          	sw	x14,28(x23)
    26b8:	ea5ff06f          	jal	x0,255c <_realloc_r+0x440>
    26bc:	01042703          	lw	x14,16(x8)
    26c0:	020b8793          	addi	x15,x23,32
    26c4:	01840413          	addi	x8,x8,24
    26c8:	00ebac23          	sw	x14,24(x23)
    26cc:	ffc42703          	lw	x14,-4(x8)
    26d0:	00ebae23          	sw	x14,28(x23)
    26d4:	d15ff06f          	jal	x0,23e8 <_realloc_r+0x2cc>

000026d8 <__sflush_r>:
    26d8:	00c59703          	lh	x14,12(x11)
    26dc:	fe010113          	addi	x2,x2,-32
    26e0:	00812c23          	sw	x8,24(x2)
    26e4:	01312623          	sw	x19,12(x2)
    26e8:	00112e23          	sw	x1,28(x2)
    26ec:	00877793          	andi	x15,x14,8
    26f0:	00058413          	addi	x8,x11,0
    26f4:	00050993          	addi	x19,x10,0
    26f8:	12079063          	bne	x15,x0,2818 <__sflush_r+0x140>
    26fc:	000017b7          	lui	x15,0x1
    2700:	80078793          	addi	x15,x15,-2048 # 800 <global_stdio_init.part.0+0x28>
    2704:	0045a683          	lw	x13,4(x11)
    2708:	00f767b3          	or	x15,x14,x15
    270c:	00f59623          	sh	x15,12(x11)
    2710:	18d05a63          	bge	x0,x13,28a4 <__sflush_r+0x1cc>
    2714:	02842803          	lw	x16,40(x8)
    2718:	0e080463          	beq	x16,x0,2800 <__sflush_r+0x128>
    271c:	00912a23          	sw	x9,20(x2)
    2720:	01371693          	slli	x13,x14,0x13
    2724:	0009a483          	lw	x9,0(x19)
    2728:	0009a023          	sw	x0,0(x19)
    272c:	1806c863          	blt	x13,x0,28bc <__sflush_r+0x1e4>
    2730:	01c42583          	lw	x11,28(x8)
    2734:	00000613          	addi	x12,x0,0
    2738:	00100693          	addi	x13,x0,1
    273c:	00098513          	addi	x10,x19,0
    2740:	000800e7          	jalr	x1,0(x16)
    2744:	fff00793          	addi	x15,x0,-1
    2748:	00050613          	addi	x12,x10,0
    274c:	1af50a63          	beq	x10,x15,2900 <__sflush_r+0x228>
    2750:	00c41783          	lh	x15,12(x8)
    2754:	02842803          	lw	x16,40(x8)
    2758:	0047f793          	andi	x15,x15,4
    275c:	00078e63          	beq	x15,x0,2778 <__sflush_r+0xa0>
    2760:	00442703          	lw	x14,4(x8)
    2764:	03042783          	lw	x15,48(x8)
    2768:	40e60633          	sub	x12,x12,x14
    276c:	00078663          	beq	x15,x0,2778 <__sflush_r+0xa0>
    2770:	03c42783          	lw	x15,60(x8)
    2774:	40f60633          	sub	x12,x12,x15
    2778:	01c42583          	lw	x11,28(x8)
    277c:	00000693          	addi	x13,x0,0
    2780:	00098513          	addi	x10,x19,0
    2784:	000800e7          	jalr	x1,0(x16)
    2788:	fff00713          	addi	x14,x0,-1
    278c:	00c41783          	lh	x15,12(x8)
    2790:	12e51a63          	bne	x10,x14,28c4 <__sflush_r+0x1ec>
    2794:	0009a683          	lw	x13,0(x19)
    2798:	01d00713          	addi	x14,x0,29
    279c:	18d76063          	bltu	x14,x13,291c <__sflush_r+0x244>
    27a0:	20400737          	lui	x14,0x20400
    27a4:	00170713          	addi	x14,x14,1 # 20400001 <__heap_end+0x20000001>
    27a8:	00d75733          	srl	x14,x14,x13
    27ac:	00177713          	andi	x14,x14,1
    27b0:	16070663          	beq	x14,x0,291c <__sflush_r+0x244>
    27b4:	01042603          	lw	x12,16(x8)
    27b8:	fffff737          	lui	x14,0xfffff
    27bc:	7ff70713          	addi	x14,x14,2047 # fffff7ff <__heap_end+0xffbff7ff>
    27c0:	00e7f733          	and	x14,x15,x14
    27c4:	00e41623          	sh	x14,12(x8)
    27c8:	00042223          	sw	x0,4(x8)
    27cc:	00c42023          	sw	x12,0(x8)
    27d0:	01379713          	slli	x14,x15,0x13
    27d4:	00075463          	bge	x14,x0,27dc <__sflush_r+0x104>
    27d8:	10068863          	beq	x13,x0,28e8 <__sflush_r+0x210>
    27dc:	03042583          	lw	x11,48(x8)
    27e0:	0099a023          	sw	x9,0(x19)
    27e4:	10058a63          	beq	x11,x0,28f8 <__sflush_r+0x220>
    27e8:	04040793          	addi	x15,x8,64
    27ec:	00f58663          	beq	x11,x15,27f8 <__sflush_r+0x120>
    27f0:	00098513          	addi	x10,x19,0
    27f4:	a70ff0ef          	jal	x1,1a64 <_free_r>
    27f8:	01412483          	lw	x9,20(x2)
    27fc:	02042823          	sw	x0,48(x8)
    2800:	01c12083          	lw	x1,28(x2)
    2804:	01812403          	lw	x8,24(x2)
    2808:	00c12983          	lw	x19,12(x2)
    280c:	00000513          	addi	x10,x0,0
    2810:	02010113          	addi	x2,x2,32
    2814:	00008067          	jalr	x0,0(x1)
    2818:	01212823          	sw	x18,16(x2)
    281c:	0105a903          	lw	x18,16(x11)
    2820:	08090a63          	beq	x18,x0,28b4 <__sflush_r+0x1dc>
    2824:	00912a23          	sw	x9,20(x2)
    2828:	0005a483          	lw	x9,0(x11)
    282c:	00377713          	andi	x14,x14,3
    2830:	0125a023          	sw	x18,0(x11)
    2834:	412484b3          	sub	x9,x9,x18
    2838:	00000793          	addi	x15,x0,0
    283c:	00071463          	bne	x14,x0,2844 <__sflush_r+0x16c>
    2840:	0145a783          	lw	x15,20(x11)
    2844:	00f42423          	sw	x15,8(x8)
    2848:	00904863          	blt	x0,x9,2858 <__sflush_r+0x180>
    284c:	0640006f          	jal	x0,28b0 <__sflush_r+0x1d8>
    2850:	00a90933          	add	x18,x18,x10
    2854:	04905e63          	bge	x0,x9,28b0 <__sflush_r+0x1d8>
    2858:	02442783          	lw	x15,36(x8)
    285c:	01c42583          	lw	x11,28(x8)
    2860:	00048693          	addi	x13,x9,0
    2864:	00090613          	addi	x12,x18,0
    2868:	00098513          	addi	x10,x19,0
    286c:	000780e7          	jalr	x1,0(x15)
    2870:	40a484b3          	sub	x9,x9,x10
    2874:	fca04ee3          	blt	x0,x10,2850 <__sflush_r+0x178>
    2878:	00c41783          	lh	x15,12(x8)
    287c:	01012903          	lw	x18,16(x2)
    2880:	0407e793          	ori	x15,x15,64
    2884:	01c12083          	lw	x1,28(x2)
    2888:	00f41623          	sh	x15,12(x8)
    288c:	01812403          	lw	x8,24(x2)
    2890:	01412483          	lw	x9,20(x2)
    2894:	00c12983          	lw	x19,12(x2)
    2898:	fff00513          	addi	x10,x0,-1
    289c:	02010113          	addi	x2,x2,32
    28a0:	00008067          	jalr	x0,0(x1)
    28a4:	03c5a683          	lw	x13,60(x11)
    28a8:	e6d046e3          	blt	x0,x13,2714 <__sflush_r+0x3c>
    28ac:	f55ff06f          	jal	x0,2800 <__sflush_r+0x128>
    28b0:	01412483          	lw	x9,20(x2)
    28b4:	01012903          	lw	x18,16(x2)
    28b8:	f49ff06f          	jal	x0,2800 <__sflush_r+0x128>
    28bc:	05042603          	lw	x12,80(x8)
    28c0:	e99ff06f          	jal	x0,2758 <__sflush_r+0x80>
    28c4:	01042683          	lw	x13,16(x8)
    28c8:	fffff737          	lui	x14,0xfffff
    28cc:	7ff70713          	addi	x14,x14,2047 # fffff7ff <__heap_end+0xffbff7ff>
    28d0:	00e7f733          	and	x14,x15,x14
    28d4:	00e41623          	sh	x14,12(x8)
    28d8:	00042223          	sw	x0,4(x8)
    28dc:	00d42023          	sw	x13,0(x8)
    28e0:	01379713          	slli	x14,x15,0x13
    28e4:	ee075ce3          	bge	x14,x0,27dc <__sflush_r+0x104>
    28e8:	03042583          	lw	x11,48(x8)
    28ec:	04a42823          	sw	x10,80(x8)
    28f0:	0099a023          	sw	x9,0(x19)
    28f4:	ee059ae3          	bne	x11,x0,27e8 <__sflush_r+0x110>
    28f8:	01412483          	lw	x9,20(x2)
    28fc:	f05ff06f          	jal	x0,2800 <__sflush_r+0x128>
    2900:	0009a783          	lw	x15,0(x19)
    2904:	e40786e3          	beq	x15,x0,2750 <__sflush_r+0x78>
    2908:	01d00713          	addi	x14,x0,29
    290c:	00e78c63          	beq	x15,x14,2924 <__sflush_r+0x24c>
    2910:	01600713          	addi	x14,x0,22
    2914:	00e78863          	beq	x15,x14,2924 <__sflush_r+0x24c>
    2918:	00c41783          	lh	x15,12(x8)
    291c:	0407e793          	ori	x15,x15,64
    2920:	f65ff06f          	jal	x0,2884 <__sflush_r+0x1ac>
    2924:	0099a023          	sw	x9,0(x19)
    2928:	01412483          	lw	x9,20(x2)
    292c:	ed5ff06f          	jal	x0,2800 <__sflush_r+0x128>

00002930 <_fflush_r>:
    2930:	fe010113          	addi	x2,x2,-32
    2934:	00812c23          	sw	x8,24(x2)
    2938:	00112e23          	sw	x1,28(x2)
    293c:	00050413          	addi	x8,x10,0
    2940:	00050663          	beq	x10,x0,294c <_fflush_r+0x1c>
    2944:	03452783          	lw	x15,52(x10)
    2948:	02078a63          	beq	x15,x0,297c <_fflush_r+0x4c>
    294c:	00c59783          	lh	x15,12(x11)
    2950:	00079c63          	bne	x15,x0,2968 <_fflush_r+0x38>
    2954:	01c12083          	lw	x1,28(x2)
    2958:	01812403          	lw	x8,24(x2)
    295c:	00000513          	addi	x10,x0,0
    2960:	02010113          	addi	x2,x2,32
    2964:	00008067          	jalr	x0,0(x1)
    2968:	00040513          	addi	x10,x8,0
    296c:	01812403          	lw	x8,24(x2)
    2970:	01c12083          	lw	x1,28(x2)
    2974:	02010113          	addi	x2,x2,32
    2978:	d61ff06f          	jal	x0,26d8 <__sflush_r>
    297c:	00b12623          	sw	x11,12(x2)
    2980:	8d4fe0ef          	jal	x1,a54 <__sinit>
    2984:	00c12583          	lw	x11,12(x2)
    2988:	fc5ff06f          	jal	x0,294c <_fflush_r+0x1c>

0000298c <fflush>:
    298c:	06050063          	beq	x10,x0,29ec <fflush+0x60>
    2990:	00050593          	addi	x11,x10,0
    2994:	f141a503          	lw	x10,-236(x3) # 12bb4 <_impure_ptr>
    2998:	00050663          	beq	x10,x0,29a4 <fflush+0x18>
    299c:	03452783          	lw	x15,52(x10)
    29a0:	00078c63          	beq	x15,x0,29b8 <fflush+0x2c>
    29a4:	00c59783          	lh	x15,12(x11)
    29a8:	00079663          	bne	x15,x0,29b4 <fflush+0x28>
    29ac:	00000513          	addi	x10,x0,0
    29b0:	00008067          	jalr	x0,0(x1)
    29b4:	d25ff06f          	jal	x0,26d8 <__sflush_r>
    29b8:	fe010113          	addi	x2,x2,-32
    29bc:	00b12623          	sw	x11,12(x2)
    29c0:	00a12423          	sw	x10,8(x2)
    29c4:	00112e23          	sw	x1,28(x2)
    29c8:	88cfe0ef          	jal	x1,a54 <__sinit>
    29cc:	00c12583          	lw	x11,12(x2)
    29d0:	00812503          	lw	x10,8(x2)
    29d4:	00c59783          	lh	x15,12(x11)
    29d8:	02079663          	bne	x15,x0,2a04 <fflush+0x78>
    29dc:	01c12083          	lw	x1,28(x2)
    29e0:	00000513          	addi	x10,x0,0
    29e4:	02010113          	addi	x2,x2,32
    29e8:	00008067          	jalr	x0,0(x1)
    29ec:	00010617          	auipc	x12,0x10
    29f0:	ab460613          	addi	x12,x12,-1356 # 124a0 <__sglue>
    29f4:	00000597          	auipc	x11,0x0
    29f8:	f3c58593          	addi	x11,x11,-196 # 2930 <_fflush_r>
    29fc:	c1818513          	addi	x10,x3,-1000 # 128b8 <_impure_data>
    2a00:	e68ff06f          	jal	x0,2068 <_fwalk_sglue>
    2a04:	01c12083          	lw	x1,28(x2)
    2a08:	02010113          	addi	x2,x2,32
    2a0c:	ccdff06f          	jal	x0,26d8 <__sflush_r>

00002a10 <__malloc_lock>:
    2a10:	00008067          	jalr	x0,0(x1)

00002a14 <__malloc_unlock>:
    2a14:	00008067          	jalr	x0,0(x1)

00002a18 <__libc_init_array>:
    2a18:	ff010113          	addi	x2,x2,-16
    2a1c:	00812423          	sw	x8,8(x2)
    2a20:	01212023          	sw	x18,0(x2)
    2a24:	00010797          	auipc	x15,0x10
    2a28:	a7878793          	addi	x15,x15,-1416 # 1249c <__init_array_start>
    2a2c:	00010417          	auipc	x8,0x10
    2a30:	a7040413          	addi	x8,x8,-1424 # 1249c <__init_array_start>
    2a34:	00112623          	sw	x1,12(x2)
    2a38:	00912223          	sw	x9,4(x2)
    2a3c:	40878933          	sub	x18,x15,x8
    2a40:	02878063          	beq	x15,x8,2a60 <__libc_init_array+0x48>
    2a44:	40295913          	srai	x18,x18,0x2
    2a48:	00000493          	addi	x9,x0,0
    2a4c:	00042783          	lw	x15,0(x8)
    2a50:	00148493          	addi	x9,x9,1
    2a54:	00440413          	addi	x8,x8,4
    2a58:	000780e7          	jalr	x1,0(x15)
    2a5c:	ff24e8e3          	bltu	x9,x18,2a4c <__libc_init_array+0x34>
    2a60:	00010797          	auipc	x15,0x10
    2a64:	a4078793          	addi	x15,x15,-1472 # 124a0 <__sglue>
    2a68:	00010417          	auipc	x8,0x10
    2a6c:	a3440413          	addi	x8,x8,-1484 # 1249c <__init_array_start>
    2a70:	40878933          	sub	x18,x15,x8
    2a74:	40295913          	srai	x18,x18,0x2
    2a78:	00878e63          	beq	x15,x8,2a94 <__libc_init_array+0x7c>
    2a7c:	00000493          	addi	x9,x0,0
    2a80:	00042783          	lw	x15,0(x8)
    2a84:	00148493          	addi	x9,x9,1
    2a88:	00440413          	addi	x8,x8,4
    2a8c:	000780e7          	jalr	x1,0(x15)
    2a90:	ff24e8e3          	bltu	x9,x18,2a80 <__libc_init_array+0x68>
    2a94:	00c12083          	lw	x1,12(x2)
    2a98:	00812403          	lw	x8,8(x2)
    2a9c:	00412483          	lw	x9,4(x2)
    2aa0:	00012903          	lw	x18,0(x2)
    2aa4:	01010113          	addi	x2,x2,16
    2aa8:	00008067          	jalr	x0,0(x1)

00002aac <exit>:
    2aac:	ff010113          	addi	x2,x2,-16
    2ab0:	00000593          	addi	x11,x0,0
    2ab4:	00812423          	sw	x8,8(x2)
    2ab8:	00112623          	sw	x1,12(x2)
    2abc:	00050413          	addi	x8,x10,0
    2ac0:	179060ef          	jal	x1,9438 <__call_exitprocs>
    2ac4:	f1c1a783          	lw	x15,-228(x3) # 12bbc <__stdio_exit_handler>
    2ac8:	00078463          	beq	x15,x0,2ad0 <exit+0x24>
    2acc:	000780e7          	jalr	x1,0(x15)
    2ad0:	00040513          	addi	x10,x8,0
    2ad4:	f70fd0ef          	jal	x1,244 <_exit>

00002ad8 <atexit>:
    2ad8:	00050593          	addi	x11,x10,0
    2adc:	00000693          	addi	x13,x0,0
    2ae0:	00000613          	addi	x12,x0,0
    2ae4:	00000513          	addi	x10,x0,0
    2ae8:	3810606f          	jal	x0,9668 <__register_exitproc>

00002aec <__swsetup_r>:
    2aec:	ff010113          	addi	x2,x2,-16
    2af0:	00812423          	sw	x8,8(x2)
    2af4:	00912223          	sw	x9,4(x2)
    2af8:	00112623          	sw	x1,12(x2)
    2afc:	f141a783          	lw	x15,-236(x3) # 12bb4 <_impure_ptr>
    2b00:	00050493          	addi	x9,x10,0
    2b04:	00058413          	addi	x8,x11,0
    2b08:	00078663          	beq	x15,x0,2b14 <__swsetup_r+0x28>
    2b0c:	0347a703          	lw	x14,52(x15)
    2b10:	0e070e63          	beq	x14,x0,2c0c <__swsetup_r+0x120>
    2b14:	00c41783          	lh	x15,12(x8)
    2b18:	0087f713          	andi	x14,x15,8
    2b1c:	04070063          	beq	x14,x0,2b5c <__swsetup_r+0x70>
    2b20:	01042703          	lw	x14,16(x8)
    2b24:	04070c63          	beq	x14,x0,2b7c <__swsetup_r+0x90>
    2b28:	0017f693          	andi	x13,x15,1
    2b2c:	06068c63          	beq	x13,x0,2ba4 <__swsetup_r+0xb8>
    2b30:	01442683          	lw	x13,20(x8)
    2b34:	00042423          	sw	x0,8(x8)
    2b38:	00000513          	addi	x10,x0,0
    2b3c:	40d006b3          	sub	x13,x0,x13
    2b40:	00d42c23          	sw	x13,24(x8)
    2b44:	06070e63          	beq	x14,x0,2bc0 <__swsetup_r+0xd4>
    2b48:	00c12083          	lw	x1,12(x2)
    2b4c:	00812403          	lw	x8,8(x2)
    2b50:	00412483          	lw	x9,4(x2)
    2b54:	01010113          	addi	x2,x2,16
    2b58:	00008067          	jalr	x0,0(x1)
    2b5c:	0107f713          	andi	x14,x15,16
    2b60:	0a070c63          	beq	x14,x0,2c18 <__swsetup_r+0x12c>
    2b64:	0047f713          	andi	x14,x15,4
    2b68:	06071863          	bne	x14,x0,2bd8 <__swsetup_r+0xec>
    2b6c:	01042703          	lw	x14,16(x8)
    2b70:	0087e793          	ori	x15,x15,8
    2b74:	00f41623          	sh	x15,12(x8)
    2b78:	fa0718e3          	bne	x14,x0,2b28 <__swsetup_r+0x3c>
    2b7c:	2807f693          	andi	x13,x15,640
    2b80:	20000613          	addi	x12,x0,512
    2b84:	fac682e3          	beq	x13,x12,2b28 <__swsetup_r+0x3c>
    2b88:	00048513          	addi	x10,x9,0
    2b8c:	00040593          	addi	x11,x8,0
    2b90:	501060ef          	jal	x1,9890 <__smakebuf_r>
    2b94:	00c41783          	lh	x15,12(x8)
    2b98:	01042703          	lw	x14,16(x8)
    2b9c:	0017f693          	andi	x13,x15,1
    2ba0:	f80698e3          	bne	x13,x0,2b30 <__swsetup_r+0x44>
    2ba4:	0027f693          	andi	x13,x15,2
    2ba8:	00000613          	addi	x12,x0,0
    2bac:	00069463          	bne	x13,x0,2bb4 <__swsetup_r+0xc8>
    2bb0:	01442603          	lw	x12,20(x8)
    2bb4:	00c42423          	sw	x12,8(x8)
    2bb8:	00000513          	addi	x10,x0,0
    2bbc:	f80716e3          	bne	x14,x0,2b48 <__swsetup_r+0x5c>
    2bc0:	0807f713          	andi	x14,x15,128
    2bc4:	f80702e3          	beq	x14,x0,2b48 <__swsetup_r+0x5c>
    2bc8:	0407e793          	ori	x15,x15,64
    2bcc:	00f41623          	sh	x15,12(x8)
    2bd0:	fff00513          	addi	x10,x0,-1
    2bd4:	f75ff06f          	jal	x0,2b48 <__swsetup_r+0x5c>
    2bd8:	03042583          	lw	x11,48(x8)
    2bdc:	00058e63          	beq	x11,x0,2bf8 <__swsetup_r+0x10c>
    2be0:	04040713          	addi	x14,x8,64
    2be4:	00e58863          	beq	x11,x14,2bf4 <__swsetup_r+0x108>
    2be8:	00048513          	addi	x10,x9,0
    2bec:	e79fe0ef          	jal	x1,1a64 <_free_r>
    2bf0:	00c41783          	lh	x15,12(x8)
    2bf4:	02042823          	sw	x0,48(x8)
    2bf8:	01042703          	lw	x14,16(x8)
    2bfc:	fdb7f793          	andi	x15,x15,-37
    2c00:	00042223          	sw	x0,4(x8)
    2c04:	00e42023          	sw	x14,0(x8)
    2c08:	f69ff06f          	jal	x0,2b70 <__swsetup_r+0x84>
    2c0c:	00078513          	addi	x10,x15,0
    2c10:	e45fd0ef          	jal	x1,a54 <__sinit>
    2c14:	f01ff06f          	jal	x0,2b14 <__swsetup_r+0x28>
    2c18:	00900713          	addi	x14,x0,9
    2c1c:	0407e793          	ori	x15,x15,64
    2c20:	00e4a023          	sw	x14,0(x9)
    2c24:	00f41623          	sh	x15,12(x8)
    2c28:	fff00513          	addi	x10,x0,-1
    2c2c:	f1dff06f          	jal	x0,2b48 <__swsetup_r+0x5c>

00002c30 <strlen>:
    2c30:	00357793          	andi	x15,x10,3
    2c34:	00050713          	addi	x14,x10,0
    2c38:	04079c63          	bne	x15,x0,2c90 <strlen+0x60>
    2c3c:	7f7f86b7          	lui	x13,0x7f7f8
    2c40:	f7f68693          	addi	x13,x13,-129 # 7f7f7f7f <__heap_end+0x7f3f7f7f>
    2c44:	fff00593          	addi	x11,x0,-1
    2c48:	00072603          	lw	x12,0(x14)
    2c4c:	00470713          	addi	x14,x14,4
    2c50:	00d677b3          	and	x15,x12,x13
    2c54:	00d787b3          	add	x15,x15,x13
    2c58:	00c7e7b3          	or	x15,x15,x12
    2c5c:	00d7e7b3          	or	x15,x15,x13
    2c60:	feb784e3          	beq	x15,x11,2c48 <strlen+0x18>
    2c64:	ffc74683          	lbu	x13,-4(x14)
    2c68:	40a707b3          	sub	x15,x14,x10
    2c6c:	04068463          	beq	x13,x0,2cb4 <strlen+0x84>
    2c70:	ffd74683          	lbu	x13,-3(x14)
    2c74:	02068c63          	beq	x13,x0,2cac <strlen+0x7c>
    2c78:	ffe74503          	lbu	x10,-2(x14)
    2c7c:	00a03533          	sltu	x10,x0,x10
    2c80:	00f50533          	add	x10,x10,x15
    2c84:	ffe50513          	addi	x10,x10,-2
    2c88:	00008067          	jalr	x0,0(x1)
    2c8c:	fa0688e3          	beq	x13,x0,2c3c <strlen+0xc>
    2c90:	00074783          	lbu	x15,0(x14)
    2c94:	00170713          	addi	x14,x14,1
    2c98:	00377693          	andi	x13,x14,3
    2c9c:	fe0798e3          	bne	x15,x0,2c8c <strlen+0x5c>
    2ca0:	40a70733          	sub	x14,x14,x10
    2ca4:	fff70513          	addi	x10,x14,-1
    2ca8:	00008067          	jalr	x0,0(x1)
    2cac:	ffd78513          	addi	x10,x15,-3
    2cb0:	00008067          	jalr	x0,0(x1)
    2cb4:	ffc78513          	addi	x10,x15,-4
    2cb8:	00008067          	jalr	x0,0(x1)

00002cbc <__sread>:
    2cbc:	ff010113          	addi	x2,x2,-16
    2cc0:	00812423          	sw	x8,8(x2)
    2cc4:	00058413          	addi	x8,x11,0
    2cc8:	00e59583          	lh	x11,14(x11)
    2ccc:	00112623          	sw	x1,12(x2)
    2cd0:	345060ef          	jal	x1,9814 <_read_r>
    2cd4:	02054063          	blt	x10,x0,2cf4 <__sread+0x38>
    2cd8:	05042783          	lw	x15,80(x8)
    2cdc:	00c12083          	lw	x1,12(x2)
    2ce0:	00a787b3          	add	x15,x15,x10
    2ce4:	04f42823          	sw	x15,80(x8)
    2ce8:	00812403          	lw	x8,8(x2)
    2cec:	01010113          	addi	x2,x2,16
    2cf0:	00008067          	jalr	x0,0(x1)
    2cf4:	00c45783          	lhu	x15,12(x8)
    2cf8:	fffff737          	lui	x14,0xfffff
    2cfc:	fff70713          	addi	x14,x14,-1 # ffffefff <__heap_end+0xffbfefff>
    2d00:	00e7f7b3          	and	x15,x15,x14
    2d04:	00c12083          	lw	x1,12(x2)
    2d08:	00f41623          	sh	x15,12(x8)
    2d0c:	00812403          	lw	x8,8(x2)
    2d10:	01010113          	addi	x2,x2,16
    2d14:	00008067          	jalr	x0,0(x1)

00002d18 <__seofread>:
    2d18:	00000513          	addi	x10,x0,0
    2d1c:	00008067          	jalr	x0,0(x1)

00002d20 <__swrite>:
    2d20:	00c59783          	lh	x15,12(x11)
    2d24:	fe010113          	addi	x2,x2,-32
    2d28:	00812c23          	sw	x8,24(x2)
    2d2c:	00912a23          	sw	x9,20(x2)
    2d30:	01212823          	sw	x18,16(x2)
    2d34:	01312623          	sw	x19,12(x2)
    2d38:	00112e23          	sw	x1,28(x2)
    2d3c:	1007f713          	andi	x14,x15,256
    2d40:	00058413          	addi	x8,x11,0
    2d44:	00060913          	addi	x18,x12,0
    2d48:	00068993          	addi	x19,x13,0
    2d4c:	00050493          	addi	x9,x10,0
    2d50:	04071063          	bne	x14,x0,2d90 <__swrite+0x70>
    2d54:	fffff737          	lui	x14,0xfffff
    2d58:	fff70713          	addi	x14,x14,-1 # ffffefff <__heap_end+0xffbfefff>
    2d5c:	00e7f7b3          	and	x15,x15,x14
    2d60:	00e41583          	lh	x11,14(x8)
    2d64:	00f41623          	sh	x15,12(x8)
    2d68:	01812403          	lw	x8,24(x2)
    2d6c:	01c12083          	lw	x1,28(x2)
    2d70:	00098693          	addi	x13,x19,0
    2d74:	00090613          	addi	x12,x18,0
    2d78:	00c12983          	lw	x19,12(x2)
    2d7c:	01012903          	lw	x18,16(x2)
    2d80:	00048513          	addi	x10,x9,0
    2d84:	01412483          	lw	x9,20(x2)
    2d88:	02010113          	addi	x2,x2,32
    2d8c:	0610606f          	jal	x0,95ec <_write_r>
    2d90:	00e59583          	lh	x11,14(x11)
    2d94:	00200693          	addi	x13,x0,2
    2d98:	00000613          	addi	x12,x0,0
    2d9c:	7d4060ef          	jal	x1,9570 <_lseek_r>
    2da0:	00c41783          	lh	x15,12(x8)
    2da4:	fb1ff06f          	jal	x0,2d54 <__swrite+0x34>

00002da8 <__sseek>:
    2da8:	ff010113          	addi	x2,x2,-16
    2dac:	00812423          	sw	x8,8(x2)
    2db0:	00058413          	addi	x8,x11,0
    2db4:	00e59583          	lh	x11,14(x11)
    2db8:	00112623          	sw	x1,12(x2)
    2dbc:	7b4060ef          	jal	x1,9570 <_lseek_r>
    2dc0:	fff00713          	addi	x14,x0,-1
    2dc4:	00c41783          	lh	x15,12(x8)
    2dc8:	02e50263          	beq	x10,x14,2dec <__sseek+0x44>
    2dcc:	00001737          	lui	x14,0x1
    2dd0:	00e7e7b3          	or	x15,x15,x14
    2dd4:	00c12083          	lw	x1,12(x2)
    2dd8:	04a42823          	sw	x10,80(x8)
    2ddc:	00f41623          	sh	x15,12(x8)
    2de0:	00812403          	lw	x8,8(x2)
    2de4:	01010113          	addi	x2,x2,16
    2de8:	00008067          	jalr	x0,0(x1)
    2dec:	fffff737          	lui	x14,0xfffff
    2df0:	fff70713          	addi	x14,x14,-1 # ffffefff <__heap_end+0xffbfefff>
    2df4:	00e7f7b3          	and	x15,x15,x14
    2df8:	00c12083          	lw	x1,12(x2)
    2dfc:	00f41623          	sh	x15,12(x8)
    2e00:	00812403          	lw	x8,8(x2)
    2e04:	01010113          	addi	x2,x2,16
    2e08:	00008067          	jalr	x0,0(x1)

00002e0c <__sclose>:
    2e0c:	00e59583          	lh	x11,14(x11)
    2e10:	0f10606f          	jal	x0,9700 <_close_r>

00002e14 <_vfprintf_r>:
    2e14:	e2010113          	addi	x2,x2,-480
    2e18:	1c112e23          	sw	x1,476(x2)
    2e1c:	1c812c23          	sw	x8,472(x2)
    2e20:	00b12423          	sw	x11,8(x2)
    2e24:	00c12823          	sw	x12,16(x2)
    2e28:	00d12c23          	sw	x13,24(x2)
    2e2c:	00050413          	addi	x8,x10,0
    2e30:	00a12623          	sw	x10,12(x2)
    2e34:	3c8070ef          	jal	x1,a1fc <_localeconv_r>
    2e38:	00052783          	lw	x15,0(x10)
    2e3c:	00078513          	addi	x10,x15,0
    2e40:	02f12823          	sw	x15,48(x2)
    2e44:	dedff0ef          	jal	x1,2c30 <strlen>
    2e48:	02a12623          	sw	x10,44(x2)
    2e4c:	0e012023          	sw	x0,224(x2)
    2e50:	0e012223          	sw	x0,228(x2)
    2e54:	0e012423          	sw	x0,232(x2)
    2e58:	0e012623          	sw	x0,236(x2)
    2e5c:	01012783          	lw	x15,16(x2)
    2e60:	00040863          	beq	x8,x0,2e70 <_vfprintf_r+0x5c>
    2e64:	03442703          	lw	x14,52(x8)
    2e68:	00071463          	bne	x14,x0,2e70 <_vfprintf_r+0x5c>
    2e6c:	0a10106f          	jal	x0,470c <_vfprintf_r+0x18f8>
    2e70:	00812503          	lw	x10,8(x2)
    2e74:	000025b7          	lui	x11,0x2
    2e78:	00c51703          	lh	x14,12(x10)
    2e7c:	01271693          	slli	x13,x14,0x12
    2e80:	0206c063          	blt	x13,x0,2ea0 <_vfprintf_r+0x8c>
    2e84:	06452683          	lw	x13,100(x10)
    2e88:	ffffe637          	lui	x12,0xffffe
    2e8c:	fff60613          	addi	x12,x12,-1 # ffffdfff <__heap_end+0xffbfdfff>
    2e90:	00b76733          	or	x14,x14,x11
    2e94:	00c6f6b3          	and	x13,x13,x12
    2e98:	00e51623          	sh	x14,12(x10)
    2e9c:	06d52223          	sw	x13,100(x10)
    2ea0:	00877693          	andi	x13,x14,8
    2ea4:	30068863          	beq	x13,x0,31b4 <_vfprintf_r+0x3a0>
    2ea8:	00812683          	lw	x13,8(x2)
    2eac:	0106a683          	lw	x13,16(x13)
    2eb0:	30068263          	beq	x13,x0,31b4 <_vfprintf_r+0x3a0>
    2eb4:	01a77713          	andi	x14,x14,26
    2eb8:	00a00693          	addi	x13,x0,10
    2ebc:	32d70463          	beq	x14,x13,31e4 <_vfprintf_r+0x3d0>
    2ec0:	1c912a23          	sw	x9,468(x2)
    2ec4:	1d212823          	sw	x18,464(x2)
    2ec8:	1d312623          	sw	x19,460(x2)
    2ecc:	1d512223          	sw	x21,452(x2)
    2ed0:	1b912a23          	sw	x25,436(x2)
    2ed4:	1d412423          	sw	x20,456(x2)
    2ed8:	1d612023          	sw	x22,448(x2)
    2edc:	1b712e23          	sw	x23,444(x2)
    2ee0:	1b812c23          	sw	x24,440(x2)
    2ee4:	1ba12823          	sw	x26,432(x2)
    2ee8:	1bb12623          	sw	x27,428(x2)
    2eec:	00078a93          	addi	x21,x15,0
    2ef0:	000ac783          	lbu	x15,0(x21)
    2ef4:	0fc10993          	addi	x19,x2,252
    2ef8:	0c012e23          	sw	x0,220(x2)
    2efc:	0c012c23          	sw	x0,216(x2)
    2f00:	0d312a23          	sw	x19,212(x2)
    2f04:	02012023          	sw	x0,32(x2)
    2f08:	02012a23          	sw	x0,52(x2)
    2f0c:	02012e23          	sw	x0,60(x2)
    2f10:	04012223          	sw	x0,68(x2)
    2f14:	04012423          	sw	x0,72(x2)
    2f18:	04012023          	sw	x0,64(x2)
    2f1c:	00012823          	sw	x0,16(x2)
    2f20:	02500413          	addi	x8,x0,37
    2f24:	00700c93          	addi	x25,x0,7
    2f28:	01000493          	addi	x9,x0,16
    2f2c:	00098913          	addi	x18,x19,0
    2f30:	22078263          	beq	x15,x0,3154 <_vfprintf_r+0x340>
    2f34:	000a8a13          	addi	x20,x21,0
    2f38:	2e878463          	beq	x15,x8,3220 <_vfprintf_r+0x40c>
    2f3c:	001a4783          	lbu	x15,1(x20)
    2f40:	001a0a13          	addi	x20,x20,1
    2f44:	fe079ae3          	bne	x15,x0,2f38 <_vfprintf_r+0x124>
    2f48:	415a0b33          	sub	x22,x20,x21
    2f4c:	215a0463          	beq	x20,x21,3154 <_vfprintf_r+0x340>
    2f50:	0dc12703          	lw	x14,220(x2)
    2f54:	0d812783          	lw	x15,216(x2)
    2f58:	01592023          	sw	x21,0(x18)
    2f5c:	01670733          	add	x14,x14,x22
    2f60:	00178793          	addi	x15,x15,1
    2f64:	01692223          	sw	x22,4(x18)
    2f68:	0ce12e23          	sw	x14,220(x2)
    2f6c:	0cf12c23          	sw	x15,216(x2)
    2f70:	00890913          	addi	x18,x18,8
    2f74:	2afcce63          	blt	x25,x15,3230 <_vfprintf_r+0x41c>
    2f78:	01012703          	lw	x14,16(x2)
    2f7c:	000a4783          	lbu	x15,0(x20)
    2f80:	01670733          	add	x14,x14,x22
    2f84:	00e12823          	sw	x14,16(x2)
    2f88:	1c078663          	beq	x15,x0,3154 <_vfprintf_r+0x340>
    2f8c:	001a0e13          	addi	x28,x20,1
    2f90:	001a4b03          	lbu	x22,1(x20)
    2f94:	0a010ba3          	sb	x0,183(x2)
    2f98:	fff00a13          	addi	x20,x0,-1
    2f9c:	00000d13          	addi	x26,x0,0
    2fa0:	00000c13          	addi	x24,x0,0
    2fa4:	05a00d93          	addi	x27,x0,90
    2fa8:	000e0b93          	addi	x23,x28,0
    2fac:	001b8b93          	addi	x23,x23,1
    2fb0:	fe0b0793          	addi	x15,x22,-32
    2fb4:	04fdea63          	bltu	x27,x15,3008 <_vfprintf_r+0x1f4>
    2fb8:	0000f717          	auipc	x14,0xf
    2fbc:	d5070713          	addi	x14,x14,-688 # 11d08 <no_exception_handler_msg+0xb5>
    2fc0:	00279793          	slli	x15,x15,0x2
    2fc4:	00e787b3          	add	x15,x15,x14
    2fc8:	0007a783          	lw	x15,0(x15)
    2fcc:	00e787b3          	add	x15,x15,x14
    2fd0:	00078067          	jalr	x0,0(x15)
    2fd4:	fd0b0713          	addi	x14,x22,-48
    2fd8:	00000d13          	addi	x26,x0,0
    2fdc:	00900693          	addi	x13,x0,9
    2fe0:	002d1793          	slli	x15,x26,0x2
    2fe4:	000bcb03          	lbu	x22,0(x23)
    2fe8:	01a787b3          	add	x15,x15,x26
    2fec:	00179793          	slli	x15,x15,0x1
    2ff0:	00f70d33          	add	x26,x14,x15
    2ff4:	fd0b0713          	addi	x14,x22,-48
    2ff8:	001b8b93          	addi	x23,x23,1
    2ffc:	fee6f2e3          	bgeu	x13,x14,2fe0 <_vfprintf_r+0x1cc>
    3000:	fe0b0793          	addi	x15,x22,-32
    3004:	fafdfae3          	bgeu	x27,x15,2fb8 <_vfprintf_r+0x1a4>
    3008:	000b8e13          	addi	x28,x23,0
    300c:	140b0463          	beq	x22,x0,3154 <_vfprintf_r+0x340>
    3010:	00100d93          	addi	x27,x0,1
    3014:	13610e23          	sb	x22,316(x2)
    3018:	0a010ba3          	sb	x0,183(x2)
    301c:	000d8713          	addi	x14,x27,0
    3020:	13c10a93          	addi	x21,x2,316
    3024:	00012a23          	sw	x0,20(x2)
    3028:	00000a13          	addi	x20,x0,0
    302c:	02012223          	sw	x0,36(x2)
    3030:	02012423          	sw	x0,40(x2)
    3034:	00012e23          	sw	x0,28(x2)
    3038:	002c7f13          	andi	x30,x24,2
    303c:	000f0463          	beq	x30,x0,3044 <_vfprintf_r+0x230>
    3040:	002d8d93          	addi	x27,x27,2
    3044:	084c7e93          	andi	x29,x24,132
    3048:	0dc12603          	lw	x12,220(x2)
    304c:	000e9663          	bne	x29,x0,3058 <_vfprintf_r+0x244>
    3050:	41bd07b3          	sub	x15,x26,x27
    3054:	58f048e3          	blt	x0,x15,3de4 <_vfprintf_r+0xfd0>
    3058:	0b714783          	lbu	x15,183(x2)
    305c:	02078863          	beq	x15,x0,308c <_vfprintf_r+0x278>
    3060:	0d812783          	lw	x15,216(x2)
    3064:	00160613          	addi	x12,x12,1
    3068:	0b710593          	addi	x11,x2,183
    306c:	00178793          	addi	x15,x15,1
    3070:	00100513          	addi	x10,x0,1
    3074:	00b92023          	sw	x11,0(x18)
    3078:	00a92223          	sw	x10,4(x18)
    307c:	0cc12e23          	sw	x12,220(x2)
    3080:	0cf12c23          	sw	x15,216(x2)
    3084:	00890913          	addi	x18,x18,8
    3088:	2efcc063          	blt	x25,x15,3368 <_vfprintf_r+0x554>
    308c:	020f0863          	beq	x30,x0,30bc <_vfprintf_r+0x2a8>
    3090:	0d812783          	lw	x15,216(x2)
    3094:	00260613          	addi	x12,x12,2
    3098:	0b810513          	addi	x10,x2,184
    309c:	00178793          	addi	x15,x15,1
    30a0:	00200593          	addi	x11,x0,2
    30a4:	00a92023          	sw	x10,0(x18)
    30a8:	00b92223          	sw	x11,4(x18)
    30ac:	0cc12e23          	sw	x12,220(x2)
    30b0:	0cf12c23          	sw	x15,216(x2)
    30b4:	00890913          	addi	x18,x18,8
    30b8:	64fcc6e3          	blt	x25,x15,3f04 <_vfprintf_r+0x10f0>
    30bc:	08000793          	addi	x15,x0,128
    30c0:	30fe80e3          	beq	x29,x15,3bc0 <_vfprintf_r+0xdac>
    30c4:	40ea0a33          	sub	x20,x20,x14
    30c8:	414040e3          	blt	x0,x20,3cc8 <_vfprintf_r+0xeb4>
    30cc:	100c7793          	andi	x15,x24,256
    30d0:	18079ee3          	bne	x15,x0,3a6c <_vfprintf_r+0xc58>
    30d4:	0d812783          	lw	x15,216(x2)
    30d8:	00e60633          	add	x12,x12,x14
    30dc:	0cc12e23          	sw	x12,220(x2)
    30e0:	00178793          	addi	x15,x15,1
    30e4:	01592023          	sw	x21,0(x18)
    30e8:	00e92223          	sw	x14,4(x18)
    30ec:	0cf12c23          	sw	x15,216(x2)
    30f0:	3cfcc863          	blt	x25,x15,34c0 <_vfprintf_r+0x6ac>
    30f4:	00890913          	addi	x18,x18,8
    30f8:	004c7313          	andi	x6,x24,4
    30fc:	00030663          	beq	x6,x0,3108 <_vfprintf_r+0x2f4>
    3100:	41bd0a33          	sub	x20,x26,x27
    3104:	63404ce3          	blt	x0,x20,3f3c <_vfprintf_r+0x1128>
    3108:	000d0893          	addi	x17,x26,0
    310c:	01bd5463          	bge	x26,x27,3114 <_vfprintf_r+0x300>
    3110:	000d8893          	addi	x17,x27,0
    3114:	01012783          	lw	x15,16(x2)
    3118:	011787b3          	add	x15,x15,x17
    311c:	00f12823          	sw	x15,16(x2)
    3120:	480614e3          	bne	x12,x0,3da8 <_vfprintf_r+0xf94>
    3124:	01412783          	lw	x15,20(x2)
    3128:	0c012c23          	sw	x0,216(x2)
    312c:	00078c63          	beq	x15,x0,3144 <_vfprintf_r+0x330>
    3130:	01412583          	lw	x11,20(x2)
    3134:	00c12503          	lw	x10,12(x2)
    3138:	01c12e23          	sw	x28,28(x2)
    313c:	929fe0ef          	jal	x1,1a64 <_free_r>
    3140:	01c12e03          	lw	x28,28(x2)
    3144:	00098913          	addi	x18,x19,0
    3148:	000e0a93          	addi	x21,x28,0
    314c:	000ac783          	lbu	x15,0(x21)
    3150:	de0792e3          	bne	x15,x0,2f34 <_vfprintf_r+0x120>
    3154:	0dc12783          	lw	x15,220(x2)
    3158:	00078463          	beq	x15,x0,3160 <_vfprintf_r+0x34c>
    315c:	60d0106f          	jal	x0,4f68 <_vfprintf_r+0x2154>
    3160:	00812783          	lw	x15,8(x2)
    3164:	1d412483          	lw	x9,468(x2)
    3168:	1d012903          	lw	x18,464(x2)
    316c:	00c7d783          	lhu	x15,12(x15)
    3170:	1cc12983          	lw	x19,460(x2)
    3174:	1c812a03          	lw	x20,456(x2)
    3178:	0407f793          	andi	x15,x15,64
    317c:	1c412a83          	lw	x21,452(x2)
    3180:	1c012b03          	lw	x22,448(x2)
    3184:	1bc12b83          	lw	x23,444(x2)
    3188:	1b812c03          	lw	x24,440(x2)
    318c:	1b412c83          	lw	x25,436(x2)
    3190:	1b012d03          	lw	x26,432(x2)
    3194:	1ac12d83          	lw	x27,428(x2)
    3198:	00078463          	beq	x15,x0,31a0 <_vfprintf_r+0x38c>
    319c:	4600206f          	jal	x0,55fc <_vfprintf_r+0x27e8>
    31a0:	1dc12083          	lw	x1,476(x2)
    31a4:	1d812403          	lw	x8,472(x2)
    31a8:	01012503          	lw	x10,16(x2)
    31ac:	1e010113          	addi	x2,x2,480
    31b0:	00008067          	jalr	x0,0(x1)
    31b4:	00812583          	lw	x11,8(x2)
    31b8:	00c12503          	lw	x10,12(x2)
    31bc:	00f12823          	sw	x15,16(x2)
    31c0:	92dff0ef          	jal	x1,2aec <__swsetup_r>
    31c4:	01012783          	lw	x15,16(x2)
    31c8:	00050463          	beq	x10,x0,31d0 <_vfprintf_r+0x3bc>
    31cc:	4300206f          	jal	x0,55fc <_vfprintf_r+0x27e8>
    31d0:	00812703          	lw	x14,8(x2)
    31d4:	00a00693          	addi	x13,x0,10
    31d8:	00c71703          	lh	x14,12(x14)
    31dc:	01a77713          	andi	x14,x14,26
    31e0:	ced710e3          	bne	x14,x13,2ec0 <_vfprintf_r+0xac>
    31e4:	00812703          	lw	x14,8(x2)
    31e8:	00e71703          	lh	x14,14(x14)
    31ec:	cc074ae3          	blt	x14,x0,2ec0 <_vfprintf_r+0xac>
    31f0:	01812683          	lw	x13,24(x2)
    31f4:	00812583          	lw	x11,8(x2)
    31f8:	00c12503          	lw	x10,12(x2)
    31fc:	00078613          	addi	x12,x15,0
    3200:	7e4020ef          	jal	x1,59e4 <__sbprintf>
    3204:	00a12823          	sw	x10,16(x2)
    3208:	f99ff06f          	jal	x0,31a0 <_vfprintf_r+0x38c>
    320c:	000bcb03          	lbu	x22,0(x23)
    3210:	d9dff06f          	jal	x0,2fac <_vfprintf_r+0x198>
    3214:	000bcb03          	lbu	x22,0(x23)
    3218:	020c6c13          	ori	x24,x24,32
    321c:	d91ff06f          	jal	x0,2fac <_vfprintf_r+0x198>
    3220:	415a0b33          	sub	x22,x20,x21
    3224:	d35a16e3          	bne	x20,x21,2f50 <_vfprintf_r+0x13c>
    3228:	000a4783          	lbu	x15,0(x20)
    322c:	d5dff06f          	jal	x0,2f88 <_vfprintf_r+0x174>
    3230:	00812583          	lw	x11,8(x2)
    3234:	00c12503          	lw	x10,12(x2)
    3238:	0d410613          	addi	x12,x2,212
    323c:	591020ef          	jal	x1,5fcc <__sprint_r>
    3240:	f20510e3          	bne	x10,x0,3160 <_vfprintf_r+0x34c>
    3244:	00098913          	addi	x18,x19,0
    3248:	d31ff06f          	jal	x0,2f78 <_vfprintf_r+0x164>
    324c:	008c7793          	andi	x15,x24,8
    3250:	000b8e13          	addi	x28,x23,0
    3254:	00078463          	beq	x15,x0,325c <_vfprintf_r+0x448>
    3258:	0140106f          	jal	x0,426c <_vfprintf_r+0x1458>
    325c:	01812783          	lw	x15,24(x2)
    3260:	0a010513          	addi	x10,x2,160
    3264:	01712a23          	sw	x23,20(x2)
    3268:	00778793          	addi	x15,x15,7
    326c:	ff87f793          	andi	x15,x15,-8
    3270:	0047a603          	lw	x12,4(x15)
    3274:	0007a583          	lw	x11,0(x15)
    3278:	00878793          	addi	x15,x15,8
    327c:	00f12c23          	sw	x15,24(x2)
    3280:	4cc0e0ef          	jal	x1,1174c <__extenddftf2>
    3284:	0a012603          	lw	x12,160(x2)
    3288:	0a412683          	lw	x13,164(x2)
    328c:	0a812703          	lw	x14,168(x2)
    3290:	0ac12783          	lw	x15,172(x2)
    3294:	01412e03          	lw	x28,20(x2)
    3298:	0e010513          	addi	x10,x2,224
    329c:	01c12a23          	sw	x28,20(x2)
    32a0:	0ef12623          	sw	x15,236(x2)
    32a4:	0ec12023          	sw	x12,224(x2)
    32a8:	0ed12223          	sw	x13,228(x2)
    32ac:	0ee12423          	sw	x14,232(x2)
    32b0:	2d9020ef          	jal	x1,5d88 <_ldcheck>
    32b4:	0aa12e23          	sw	x10,188(x2)
    32b8:	00200793          	addi	x15,x0,2
    32bc:	01412e03          	lw	x28,20(x2)
    32c0:	00f51463          	bne	x10,x15,32c8 <_vfprintf_r+0x4b4>
    32c4:	4b80106f          	jal	x0,477c <_vfprintf_r+0x1968>
    32c8:	00100793          	addi	x15,x0,1
    32cc:	00f51463          	bne	x10,x15,32d4 <_vfprintf_r+0x4c0>
    32d0:	6700106f          	jal	x0,4940 <_vfprintf_r+0x1b2c>
    32d4:	06100713          	addi	x14,x0,97
    32d8:	00eb1463          	bne	x22,x14,32e0 <_vfprintf_r+0x4cc>
    32dc:	2780206f          	jal	x0,5554 <_vfprintf_r+0x2740>
    32e0:	04100713          	addi	x14,x0,65
    32e4:	00eb1463          	bne	x22,x14,32ec <_vfprintf_r+0x4d8>
    32e8:	4d50106f          	jal	x0,4fbc <_vfprintf_r+0x21a8>
    32ec:	fff00713          	addi	x14,x0,-1
    32f0:	00ea1463          	bne	x20,x14,32f8 <_vfprintf_r+0x4e4>
    32f4:	4b80206f          	jal	x0,57ac <_vfprintf_r+0x2998>
    32f8:	fdfb7713          	andi	x14,x22,-33
    32fc:	04700693          	addi	x13,x0,71
    3300:	00012a23          	sw	x0,20(x2)
    3304:	00d71463          	bne	x14,x13,330c <_vfprintf_r+0x4f8>
    3308:	4bc0206f          	jal	x0,57c4 <_vfprintf_r+0x29b0>
    330c:	0ec12e83          	lw	x29,236(x2)
    3310:	100c6793          	ori	x15,x24,256
    3314:	02012c23          	sw	x0,56(x2)
    3318:	0e012283          	lw	x5,224(x2)
    331c:	0e412f83          	lw	x31,228(x2)
    3320:	0e812f03          	lw	x30,232(x2)
    3324:	00078b93          	addi	x23,x15,0
    3328:	000eda63          	bge	x29,x0,333c <_vfprintf_r+0x528>
    332c:	800007b7          	lui	x15,0x80000
    3330:	00feceb3          	xor	x29,x29,x15
    3334:	02d00793          	addi	x15,x0,45
    3338:	02f12c23          	sw	x15,56(x2)
    333c:	fbfb0793          	addi	x15,x22,-65
    3340:	02500713          	addi	x14,x0,37
    3344:	00f77463          	bgeu	x14,x15,334c <_vfprintf_r+0x538>
    3348:	1890106f          	jal	x0,4cd0 <_vfprintf_r+0x1ebc>
    334c:	0000f717          	auipc	x14,0xf
    3350:	b2870713          	addi	x14,x14,-1240 # 11e74 <no_exception_handler_msg+0x221>
    3354:	00279793          	slli	x15,x15,0x2
    3358:	00e787b3          	add	x15,x15,x14
    335c:	0007a783          	lw	x15,0(x15) # 80000000 <__heap_end+0x7fc00000>
    3360:	00e787b3          	add	x15,x15,x14
    3364:	00078067          	jalr	x0,0(x15)
    3368:	00812583          	lw	x11,8(x2)
    336c:	00c12503          	lw	x10,12(x2)
    3370:	0d410613          	addi	x12,x2,212
    3374:	05c12a23          	sw	x28,84(x2)
    3378:	04e12823          	sw	x14,80(x2)
    337c:	05d12623          	sw	x29,76(x2)
    3380:	03e12c23          	sw	x30,56(x2)
    3384:	449020ef          	jal	x1,5fcc <__sprint_r>
    3388:	22051ee3          	bne	x10,x0,3dc4 <_vfprintf_r+0xfb0>
    338c:	0dc12603          	lw	x12,220(x2)
    3390:	05412e03          	lw	x28,84(x2)
    3394:	05012703          	lw	x14,80(x2)
    3398:	04c12e83          	lw	x29,76(x2)
    339c:	03812f03          	lw	x30,56(x2)
    33a0:	00098913          	addi	x18,x19,0
    33a4:	ce9ff06f          	jal	x0,308c <_vfprintf_r+0x278>
    33a8:	0d812783          	lw	x15,216(x2)
    33ac:	00100713          	addi	x14,x0,1
    33b0:	00e60633          	add	x12,x12,x14
    33b4:	00e78a33          	add	x20,x15,x14
    33b8:	02012783          	lw	x15,32(x2)
    33bc:	00890b13          	addi	x22,x18,8
    33c0:	5af758e3          	bge	x14,x15,4170 <_vfprintf_r+0x135c>
    33c4:	00100793          	addi	x15,x0,1
    33c8:	00f92223          	sw	x15,4(x18)
    33cc:	01592023          	sw	x21,0(x18)
    33d0:	0cc12e23          	sw	x12,220(x2)
    33d4:	0d412c23          	sw	x20,216(x2)
    33d8:	00700793          	addi	x15,x0,7
    33dc:	0147d463          	bge	x15,x20,33e4 <_vfprintf_r+0x5d0>
    33e0:	1380106f          	jal	x0,4518 <_vfprintf_r+0x1704>
    33e4:	02c12783          	lw	x15,44(x2)
    33e8:	03012703          	lw	x14,48(x2)
    33ec:	001a0a13          	addi	x20,x20,1
    33f0:	00f60633          	add	x12,x12,x15
    33f4:	00fb2223          	sw	x15,4(x22)
    33f8:	00eb2023          	sw	x14,0(x22)
    33fc:	0cc12e23          	sw	x12,220(x2)
    3400:	0d412c23          	sw	x20,216(x2)
    3404:	00700793          	addi	x15,x0,7
    3408:	008b0b13          	addi	x22,x22,8
    340c:	0147d463          	bge	x15,x20,3414 <_vfprintf_r+0x600>
    3410:	1340106f          	jal	x0,4544 <_vfprintf_r+0x1730>
    3414:	0ec12783          	lw	x15,236(x2)
    3418:	0e012503          	lw	x10,224(x2)
    341c:	0e412583          	lw	x11,228(x2)
    3420:	0e812703          	lw	x14,232(x2)
    3424:	0af12623          	sw	x15,172(x2)
    3428:	02012783          	lw	x15,32(x2)
    342c:	0aa12023          	sw	x10,160(x2)
    3430:	0ab12223          	sw	x11,164(x2)
    3434:	0a010513          	addi	x10,x2,160
    3438:	09010593          	addi	x11,x2,144
    343c:	03c12223          	sw	x28,36(x2)
    3440:	00c12e23          	sw	x12,28(x2)
    3444:	08012823          	sw	x0,144(x2)
    3448:	08012a23          	sw	x0,148(x2)
    344c:	08012c23          	sw	x0,152(x2)
    3450:	08012e23          	sw	x0,156(x2)
    3454:	0ae12423          	sw	x14,168(x2)
    3458:	fff78913          	addi	x18,x15,-1
    345c:	3d00b0ef          	jal	x1,e82c <__eqtf2>
    3460:	01c12603          	lw	x12,28(x2)
    3464:	02412e03          	lw	x28,36(x2)
    3468:	54050ae3          	beq	x10,x0,41bc <_vfprintf_r+0x13a8>
    346c:	001a0a13          	addi	x20,x20,1
    3470:	01260633          	add	x12,x12,x18
    3474:	001a8a93          	addi	x21,x21,1
    3478:	0d412c23          	sw	x20,216(x2)
    347c:	0cc12e23          	sw	x12,220(x2)
    3480:	015b2023          	sw	x21,0(x22)
    3484:	012b2223          	sw	x18,4(x22)
    3488:	00700793          	addi	x15,x0,7
    348c:	5147c2e3          	blt	x15,x20,4190 <_vfprintf_r+0x137c>
    3490:	008b0b13          	addi	x22,x22,8
    3494:	03c12683          	lw	x13,60(x2)
    3498:	0c410713          	addi	x14,x2,196
    349c:	001a0793          	addi	x15,x20,1
    34a0:	00c68633          	add	x12,x13,x12
    34a4:	00eb2023          	sw	x14,0(x22)
    34a8:	0cc12e23          	sw	x12,220(x2)
    34ac:	0cf12c23          	sw	x15,216(x2)
    34b0:	00db2223          	sw	x13,4(x22)
    34b4:	00700713          	addi	x14,x0,7
    34b8:	008b0913          	addi	x18,x22,8
    34bc:	c2f75ee3          	bge	x14,x15,30f8 <_vfprintf_r+0x2e4>
    34c0:	00812583          	lw	x11,8(x2)
    34c4:	00c12503          	lw	x10,12(x2)
    34c8:	0d410613          	addi	x12,x2,212
    34cc:	01c12e23          	sw	x28,28(x2)
    34d0:	2fd020ef          	jal	x1,5fcc <__sprint_r>
    34d4:	0e0518e3          	bne	x10,x0,3dc4 <_vfprintf_r+0xfb0>
    34d8:	0dc12603          	lw	x12,220(x2)
    34dc:	01c12e03          	lw	x28,28(x2)
    34e0:	00098913          	addi	x18,x19,0
    34e4:	c15ff06f          	jal	x0,30f8 <_vfprintf_r+0x2e4>
    34e8:	01812703          	lw	x14,24(x2)
    34ec:	00100d93          	addi	x27,x0,1
    34f0:	000b8e13          	addi	x28,x23,0
    34f4:	00072783          	lw	x15,0(x14)
    34f8:	0a010ba3          	sb	x0,183(x2)
    34fc:	13c10a93          	addi	x21,x2,316
    3500:	12f10e23          	sb	x15,316(x2)
    3504:	00470793          	addi	x15,x14,4
    3508:	00f12c23          	sw	x15,24(x2)
    350c:	000d8713          	addi	x14,x27,0
    3510:	b15ff06f          	jal	x0,3024 <_vfprintf_r+0x210>
    3514:	01812783          	lw	x15,24(x2)
    3518:	0a010ba3          	sb	x0,183(x2)
    351c:	000b8e13          	addi	x28,x23,0
    3520:	0007aa83          	lw	x21,0(x15)
    3524:	00478b93          	addi	x23,x15,4
    3528:	6a0a8ce3          	beq	x21,x0,43e0 <_vfprintf_r+0x15cc>
    352c:	000a5463          	bge	x20,x0,3534 <_vfprintf_r+0x720>
    3530:	3340106f          	jal	x0,4864 <_vfprintf_r+0x1a50>
    3534:	000a0613          	addi	x12,x20,0
    3538:	00000593          	addi	x11,x0,0
    353c:	000a8513          	addi	x10,x21,0
    3540:	01c12c23          	sw	x28,24(x2)
    3544:	93dfe0ef          	jal	x1,1e80 <memchr>
    3548:	00a12a23          	sw	x10,20(x2)
    354c:	0b714783          	lbu	x15,183(x2)
    3550:	01812e03          	lw	x28,24(x2)
    3554:	00051463          	bne	x10,x0,355c <_vfprintf_r+0x748>
    3558:	02c0206f          	jal	x0,5584 <_vfprintf_r+0x2770>
    355c:	41550733          	sub	x14,x10,x21
    3560:	fff74693          	xori	x13,x14,-1
    3564:	41f6d693          	srai	x13,x13,0x1f
    3568:	01712c23          	sw	x23,24(x2)
    356c:	00d77db3          	and	x27,x14,x13
    3570:	00012a23          	sw	x0,20(x2)
    3574:	02012223          	sw	x0,36(x2)
    3578:	02012423          	sw	x0,40(x2)
    357c:	00012e23          	sw	x0,28(x2)
    3580:	00000a13          	addi	x20,x0,0
    3584:	aa078ae3          	beq	x15,x0,3038 <_vfprintf_r+0x224>
    3588:	001d8d93          	addi	x27,x27,1
    358c:	aadff06f          	jal	x0,3038 <_vfprintf_r+0x224>
    3590:	020c7793          	andi	x15,x24,32
    3594:	000b8e13          	addi	x28,x23,0
    3598:	2e079c63          	bne	x15,x0,3890 <_vfprintf_r+0xa7c>
    359c:	01812703          	lw	x14,24(x2)
    35a0:	010c7793          	andi	x15,x24,16
    35a4:	00072d83          	lw	x27,0(x14)
    35a8:	00470693          	addi	x13,x14,4
    35ac:	00078463          	beq	x15,x0,35b4 <_vfprintf_r+0x7a0>
    35b0:	1bc0206f          	jal	x0,576c <_vfprintf_r+0x2958>
    35b4:	040c7793          	andi	x15,x24,64
    35b8:	00079463          	bne	x15,x0,35c0 <_vfprintf_r+0x7ac>
    35bc:	3240106f          	jal	x0,48e0 <_vfprintf_r+0x1acc>
    35c0:	010d9d93          	slli	x27,x27,0x10
    35c4:	410ddd93          	srai	x27,x27,0x10
    35c8:	41fdd793          	srai	x15,x27,0x1f
    35cc:	00d12c23          	sw	x13,24(x2)
    35d0:	000c0713          	addi	x14,x24,0
    35d4:	00078693          	addi	x13,x15,0
    35d8:	2206c663          	blt	x13,x0,3804 <_vfprintf_r+0x9f0>
    35dc:	2c0a4e63          	blt	x20,x0,38b8 <_vfprintf_r+0xaa4>
    35e0:	00fde6b3          	or	x13,x27,x15
    35e4:	f7f77713          	andi	x14,x14,-129
    35e8:	2c069863          	bne	x13,x0,38b8 <_vfprintf_r+0xaa4>
    35ec:	2c0a1c63          	bne	x20,x0,38c4 <_vfprintf_r+0xab0>
    35f0:	00070c13          	addi	x24,x14,0
    35f4:	1a010a93          	addi	x21,x2,416
    35f8:	00000713          	addi	x14,x0,0
    35fc:	0b714783          	lbu	x15,183(x2)
    3600:	000a0d93          	addi	x27,x20,0
    3604:	00ea5463          	bge	x20,x14,360c <_vfprintf_r+0x7f8>
    3608:	00070d93          	addi	x27,x14,0
    360c:	00012a23          	sw	x0,20(x2)
    3610:	02012223          	sw	x0,36(x2)
    3614:	02012423          	sw	x0,40(x2)
    3618:	00012e23          	sw	x0,28(x2)
    361c:	f60796e3          	bne	x15,x0,3588 <_vfprintf_r+0x774>
    3620:	a19ff06f          	jal	x0,3038 <_vfprintf_r+0x224>
    3624:	01812783          	lw	x15,24(x2)
    3628:	0007ad03          	lw	x26,0(x15)
    362c:	00478793          	addi	x15,x15,4
    3630:	420d58e3          	bge	x26,x0,4260 <_vfprintf_r+0x144c>
    3634:	41a00d33          	sub	x26,x0,x26
    3638:	00f12c23          	sw	x15,24(x2)
    363c:	000bcb03          	lbu	x22,0(x23)
    3640:	004c6c13          	ori	x24,x24,4
    3644:	969ff06f          	jal	x0,2fac <_vfprintf_r+0x198>
    3648:	02b00793          	addi	x15,x0,43
    364c:	000bcb03          	lbu	x22,0(x23)
    3650:	0af10ba3          	sb	x15,183(x2)
    3654:	959ff06f          	jal	x0,2fac <_vfprintf_r+0x198>
    3658:	000bcb03          	lbu	x22,0(x23)
    365c:	080c6c13          	ori	x24,x24,128
    3660:	94dff06f          	jal	x0,2fac <_vfprintf_r+0x198>
    3664:	000bcb03          	lbu	x22,0(x23)
    3668:	02a00793          	addi	x15,x0,42
    366c:	001b8693          	addi	x13,x23,1
    3670:	00fb1463          	bne	x22,x15,3678 <_vfprintf_r+0x864>
    3674:	2fc0206f          	jal	x0,5970 <_vfprintf_r+0x2b5c>
    3678:	00900613          	addi	x12,x0,9
    367c:	fd0b0713          	addi	x14,x22,-48
    3680:	00000a13          	addi	x20,x0,0
    3684:	02e66463          	bltu	x12,x14,36ac <_vfprintf_r+0x898>
    3688:	002a1793          	slli	x15,x20,0x2
    368c:	0006cb03          	lbu	x22,0(x13)
    3690:	014787b3          	add	x15,x15,x20
    3694:	00179793          	slli	x15,x15,0x1
    3698:	00e78a33          	add	x20,x15,x14
    369c:	fd0b0713          	addi	x14,x22,-48
    36a0:	00168693          	addi	x13,x13,1
    36a4:	fee672e3          	bgeu	x12,x14,3688 <_vfprintf_r+0x874>
    36a8:	460a48e3          	blt	x20,x0,4318 <_vfprintf_r+0x1504>
    36ac:	00068b93          	addi	x23,x13,0
    36b0:	901ff06f          	jal	x0,2fb0 <_vfprintf_r+0x19c>
    36b4:	00c12b03          	lw	x22,12(x2)
    36b8:	000b0513          	addi	x10,x22,0
    36bc:	341060ef          	jal	x1,a1fc <_localeconv_r>
    36c0:	00452783          	lw	x15,4(x10)
    36c4:	00078513          	addi	x10,x15,0
    36c8:	04f12023          	sw	x15,64(x2)
    36cc:	d64ff0ef          	jal	x1,2c30 <strlen>
    36d0:	00050793          	addi	x15,x10,0
    36d4:	000b0513          	addi	x10,x22,0
    36d8:	04f12423          	sw	x15,72(x2)
    36dc:	321060ef          	jal	x1,a1fc <_localeconv_r>
    36e0:	00852703          	lw	x14,8(x10)
    36e4:	04812783          	lw	x15,72(x2)
    36e8:	000bcb03          	lbu	x22,0(x23)
    36ec:	04e12223          	sw	x14,68(x2)
    36f0:	8a078ee3          	beq	x15,x0,2fac <_vfprintf_r+0x198>
    36f4:	8a070ce3          	beq	x14,x0,2fac <_vfprintf_r+0x198>
    36f8:	00074783          	lbu	x15,0(x14)
    36fc:	8a0788e3          	beq	x15,x0,2fac <_vfprintf_r+0x198>
    3700:	400c6c13          	ori	x24,x24,1024
    3704:	8a9ff06f          	jal	x0,2fac <_vfprintf_r+0x198>
    3708:	000bcb03          	lbu	x22,0(x23)
    370c:	001c6c13          	ori	x24,x24,1
    3710:	89dff06f          	jal	x0,2fac <_vfprintf_r+0x198>
    3714:	0b714783          	lbu	x15,183(x2)
    3718:	000bcb03          	lbu	x22,0(x23)
    371c:	880798e3          	bne	x15,x0,2fac <_vfprintf_r+0x198>
    3720:	02000793          	addi	x15,x0,32
    3724:	0af10ba3          	sb	x15,183(x2)
    3728:	885ff06f          	jal	x0,2fac <_vfprintf_r+0x198>
    372c:	020c7793          	andi	x15,x24,32
    3730:	000b8e13          	addi	x28,x23,0
    3734:	010c6713          	ori	x14,x24,16
    3738:	06079663          	bne	x15,x0,37a4 <_vfprintf_r+0x990>
    373c:	01812783          	lw	x15,24(x2)
    3740:	00478693          	addi	x13,x15,4
    3744:	01812783          	lw	x15,24(x2)
    3748:	00d12c23          	sw	x13,24(x2)
    374c:	00100693          	addi	x13,x0,1
    3750:	0007ad83          	lw	x27,0(x15)
    3754:	00000793          	addi	x15,x0,0
    3758:	00000613          	addi	x12,x0,0
    375c:	0ac10ba3          	sb	x12,183(x2)
    3760:	0c0a4263          	blt	x20,x0,3824 <_vfprintf_r+0xa10>
    3764:	00fde633          	or	x12,x27,x15
    3768:	f7f77c13          	andi	x24,x14,-129
    376c:	66061863          	bne	x12,x0,3ddc <_vfprintf_r+0xfc8>
    3770:	280a1e63          	bne	x20,x0,3a0c <_vfprintf_r+0xbf8>
    3774:	2c0698e3          	bne	x13,x0,4244 <_vfprintf_r+0x1430>
    3778:	00177713          	andi	x14,x14,1
    377c:	1a010a93          	addi	x21,x2,416
    3780:	e6070ee3          	beq	x14,x0,35fc <_vfprintf_r+0x7e8>
    3784:	03000793          	addi	x15,x0,48
    3788:	18f10fa3          	sb	x15,415(x2)
    378c:	19f10a93          	addi	x21,x2,415
    3790:	e6dff06f          	jal	x0,35fc <_vfprintf_r+0x7e8>
    3794:	020c7793          	andi	x15,x24,32
    3798:	000b8e13          	addi	x28,x23,0
    379c:	320786e3          	beq	x15,x0,42c8 <_vfprintf_r+0x14b4>
    37a0:	000c0713          	addi	x14,x24,0
    37a4:	01812783          	lw	x15,24(x2)
    37a8:	00778793          	addi	x15,x15,7
    37ac:	ff87f793          	andi	x15,x15,-8
    37b0:	00878693          	addi	x13,x15,8
    37b4:	0007ad83          	lw	x27,0(x15)
    37b8:	00d12c23          	sw	x13,24(x2)
    37bc:	0047a783          	lw	x15,4(x15)
    37c0:	00100693          	addi	x13,x0,1
    37c4:	f95ff06f          	jal	x0,3758 <_vfprintf_r+0x944>
    37c8:	000bcb03          	lbu	x22,0(x23)
    37cc:	008c6c13          	ori	x24,x24,8
    37d0:	fdcff06f          	jal	x0,2fac <_vfprintf_r+0x198>
    37d4:	020c7793          	andi	x15,x24,32
    37d8:	000b8e13          	addi	x28,x23,0
    37dc:	010c6713          	ori	x14,x24,16
    37e0:	0a079a63          	bne	x15,x0,3894 <_vfprintf_r+0xa80>
    37e4:	01812783          	lw	x15,24(x2)
    37e8:	00478693          	addi	x13,x15,4
    37ec:	01812783          	lw	x15,24(x2)
    37f0:	00d12c23          	sw	x13,24(x2)
    37f4:	0007ad83          	lw	x27,0(x15)
    37f8:	41fdd793          	srai	x15,x27,0x1f
    37fc:	00078693          	addi	x13,x15,0
    3800:	dc06dee3          	bge	x13,x0,35dc <_vfprintf_r+0x7c8>
    3804:	02d00613          	addi	x12,x0,45
    3808:	01b036b3          	sltu	x13,x0,x27
    380c:	40f007b3          	sub	x15,x0,x15
    3810:	0ac10ba3          	sb	x12,183(x2)
    3814:	40d787b3          	sub	x15,x15,x13
    3818:	41b00db3          	sub	x27,x0,x27
    381c:	00100693          	addi	x13,x0,1
    3820:	f40a52e3          	bge	x20,x0,3764 <_vfprintf_r+0x950>
    3824:	00100613          	addi	x12,x0,1
    3828:	08c68863          	beq	x13,x12,38b8 <_vfprintf_r+0xaa4>
    382c:	00200613          	addi	x12,x0,2
    3830:	1ec68c63          	beq	x13,x12,3a28 <_vfprintf_r+0xc14>
    3834:	1a010a93          	addi	x21,x2,416
    3838:	01d79613          	slli	x12,x15,0x1d
    383c:	007df693          	andi	x13,x27,7
    3840:	003ddd93          	srli	x27,x27,0x3
    3844:	000a8593          	addi	x11,x21,0
    3848:	03068693          	addi	x13,x13,48
    384c:	01b66db3          	or	x27,x12,x27
    3850:	0037d793          	srli	x15,x15,0x3
    3854:	00fde633          	or	x12,x27,x15
    3858:	feda8fa3          	sb	x13,-1(x21)
    385c:	fffa8a93          	addi	x21,x21,-1
    3860:	fc061ce3          	bne	x12,x0,3838 <_vfprintf_r+0xa24>
    3864:	00177793          	andi	x15,x14,1
    3868:	1e078a63          	beq	x15,x0,3a5c <_vfprintf_r+0xc48>
    386c:	03000793          	addi	x15,x0,48
    3870:	1ef68663          	beq	x13,x15,3a5c <_vfprintf_r+0xc48>
    3874:	ffe58593          	addi	x11,x11,-2 # 1ffe <memmove+0xb2>
    3878:	fefa8fa3          	sb	x15,-1(x21)
    387c:	1a010793          	addi	x15,x2,416
    3880:	00070c13          	addi	x24,x14,0
    3884:	00058a93          	addi	x21,x11,0
    3888:	40b78733          	sub	x14,x15,x11
    388c:	d71ff06f          	jal	x0,35fc <_vfprintf_r+0x7e8>
    3890:	000c0713          	addi	x14,x24,0
    3894:	01812783          	lw	x15,24(x2)
    3898:	00778793          	addi	x15,x15,7
    389c:	ff87f793          	andi	x15,x15,-8
    38a0:	0047a683          	lw	x13,4(x15)
    38a4:	00878613          	addi	x12,x15,8
    38a8:	0007ad83          	lw	x27,0(x15)
    38ac:	00c12c23          	sw	x12,24(x2)
    38b0:	00068793          	addi	x15,x13,0
    38b4:	d25ff06f          	jal	x0,35d8 <_vfprintf_r+0x7c4>
    38b8:	4c0794e3          	bne	x15,x0,4580 <_vfprintf_r+0x176c>
    38bc:	00900693          	addi	x13,x0,9
    38c0:	4db6e0e3          	bltu	x13,x27,4580 <_vfprintf_r+0x176c>
    38c4:	030d8d93          	addi	x27,x27,48
    38c8:	00070c13          	addi	x24,x14,0
    38cc:	19b10fa3          	sb	x27,415(x2)
    38d0:	00100713          	addi	x14,x0,1
    38d4:	19f10a93          	addi	x21,x2,415
    38d8:	d25ff06f          	jal	x0,35fc <_vfprintf_r+0x7e8>
    38dc:	020c7793          	andi	x15,x24,32
    38e0:	000b8e13          	addi	x28,x23,0
    38e4:	010c6713          	ori	x14,x24,16
    38e8:	1c0782e3          	beq	x15,x0,42ac <_vfprintf_r+0x1498>
    38ec:	01812783          	lw	x15,24(x2)
    38f0:	00778793          	addi	x15,x15,7
    38f4:	ff87f793          	andi	x15,x15,-8
    38f8:	00878693          	addi	x13,x15,8
    38fc:	0007ad83          	lw	x27,0(x15)
    3900:	0047a783          	lw	x15,4(x15)
    3904:	00d12c23          	sw	x13,24(x2)
    3908:	bff77713          	andi	x14,x14,-1025
    390c:	00000693          	addi	x13,x0,0
    3910:	e49ff06f          	jal	x0,3758 <_vfprintf_r+0x944>
    3914:	000bcb03          	lbu	x22,0(x23)
    3918:	06800793          	addi	x15,x0,104
    391c:	2afb0ae3          	beq	x22,x15,43d0 <_vfprintf_r+0x15bc>
    3920:	040c6c13          	ori	x24,x24,64
    3924:	e88ff06f          	jal	x0,2fac <_vfprintf_r+0x198>
    3928:	01812683          	lw	x13,24(x2)
    392c:	020c7793          	andi	x15,x24,32
    3930:	000b8e13          	addi	x28,x23,0
    3934:	00468713          	addi	x14,x13,4
    3938:	14079ce3          	bne	x15,x0,4290 <_vfprintf_r+0x147c>
    393c:	010c7793          	andi	x15,x24,16
    3940:	6a0796e3          	bne	x15,x0,47ec <_vfprintf_r+0x19d8>
    3944:	040c7793          	andi	x15,x24,64
    3948:	00078463          	beq	x15,x0,3950 <_vfprintf_r+0xb3c>
    394c:	5c00106f          	jal	x0,4f0c <_vfprintf_r+0x20f8>
    3950:	200c7313          	andi	x6,x24,512
    3954:	68030ce3          	beq	x6,x0,47ec <_vfprintf_r+0x19d8>
    3958:	01812783          	lw	x15,24(x2)
    395c:	01012683          	lw	x13,16(x2)
    3960:	00e12c23          	sw	x14,24(x2)
    3964:	0007a783          	lw	x15,0(x15)
    3968:	00d78023          	sb	x13,0(x15)
    396c:	000e0a93          	addi	x21,x28,0
    3970:	fdcff06f          	jal	x0,314c <_vfprintf_r+0x338>
    3974:	000bcb03          	lbu	x22,0(x23)
    3978:	06c00793          	addi	x15,x0,108
    397c:	24fb02e3          	beq	x22,x15,43c0 <_vfprintf_r+0x15ac>
    3980:	010c6c13          	ori	x24,x24,16
    3984:	e28ff06f          	jal	x0,2fac <_vfprintf_r+0x198>
    3988:	01812683          	lw	x13,24(x2)
    398c:	000087b7          	lui	x15,0x8
    3990:	83078793          	addi	x15,x15,-2000 # 7830 <__gdtoa+0x29c>
    3994:	0006ad83          	lw	x27,0(x13)
    3998:	00468693          	addi	x13,x13,4
    399c:	00d12c23          	sw	x13,24(x2)
    39a0:	0000e697          	auipc	x13,0xe
    39a4:	0d068693          	addi	x13,x13,208 # 11a70 <__clzsi2+0xd8>
    39a8:	0af11c23          	sh	x15,184(x2)
    39ac:	02d12a23          	sw	x13,52(x2)
    39b0:	000b8e13          	addi	x28,x23,0
    39b4:	002c6713          	ori	x14,x24,2
    39b8:	00000793          	addi	x15,x0,0
    39bc:	00200693          	addi	x13,x0,2
    39c0:	07800b13          	addi	x22,x0,120
    39c4:	d95ff06f          	jal	x0,3758 <_vfprintf_r+0x944>
    39c8:	020c7793          	andi	x15,x24,32
    39cc:	000b8e13          	addi	x28,x23,0
    39d0:	12079ae3          	bne	x15,x0,4304 <_vfprintf_r+0x14f0>
    39d4:	01812703          	lw	x14,24(x2)
    39d8:	010c7793          	andi	x15,x24,16
    39dc:	00072d83          	lw	x27,0(x14)
    39e0:	00470693          	addi	x13,x14,4
    39e4:	00078463          	beq	x15,x0,39ec <_vfprintf_r+0xbd8>
    39e8:	40d0106f          	jal	x0,55f4 <_vfprintf_r+0x27e0>
    39ec:	040c7793          	andi	x15,x24,64
    39f0:	72078ae3          	beq	x15,x0,4924 <_vfprintf_r+0x1b10>
    39f4:	010d9d93          	slli	x27,x27,0x10
    39f8:	010ddd93          	srli	x27,x27,0x10
    39fc:	00d12c23          	sw	x13,24(x2)
    3a00:	000c0713          	addi	x14,x24,0
    3a04:	00000793          	addi	x15,x0,0
    3a08:	f01ff06f          	jal	x0,3908 <_vfprintf_r+0xaf4>
    3a0c:	00100713          	addi	x14,x0,1
    3a10:	00e69463          	bne	x13,x14,3a18 <_vfprintf_r+0xc04>
    3a14:	5910106f          	jal	x0,57a4 <_vfprintf_r+0x2990>
    3a18:	00200713          	addi	x14,x0,2
    3a1c:	00e68463          	beq	x13,x14,3a24 <_vfprintf_r+0xc10>
    3a20:	4e40106f          	jal	x0,4f04 <_vfprintf_r+0x20f0>
    3a24:	000c0713          	addi	x14,x24,0
    3a28:	03412583          	lw	x11,52(x2)
    3a2c:	1a010a93          	addi	x21,x2,416
    3a30:	00fdf693          	andi	x13,x27,15
    3a34:	00d586b3          	add	x13,x11,x13
    3a38:	0006c683          	lbu	x13,0(x13)
    3a3c:	01c79613          	slli	x12,x15,0x1c
    3a40:	004ddd93          	srli	x27,x27,0x4
    3a44:	01b66db3          	or	x27,x12,x27
    3a48:	0047d793          	srli	x15,x15,0x4
    3a4c:	feda8fa3          	sb	x13,-1(x21)
    3a50:	00fde6b3          	or	x13,x27,x15
    3a54:	fffa8a93          	addi	x21,x21,-1
    3a58:	fc069ce3          	bne	x13,x0,3a30 <_vfprintf_r+0xc1c>
    3a5c:	1a010793          	addi	x15,x2,416
    3a60:	00070c13          	addi	x24,x14,0
    3a64:	41578733          	sub	x14,x15,x21
    3a68:	b95ff06f          	jal	x0,35fc <_vfprintf_r+0x7e8>
    3a6c:	06500793          	addi	x15,x0,101
    3a70:	9367dce3          	bge	x15,x22,33a8 <_vfprintf_r+0x594>
    3a74:	0e012503          	lw	x10,224(x2)
    3a78:	0e412583          	lw	x11,228(x2)
    3a7c:	0e812703          	lw	x14,232(x2)
    3a80:	0ec12783          	lw	x15,236(x2)
    3a84:	0aa12023          	sw	x10,160(x2)
    3a88:	0ab12223          	sw	x11,164(x2)
    3a8c:	0a010513          	addi	x10,x2,160
    3a90:	09010593          	addi	x11,x2,144
    3a94:	04c12623          	sw	x12,76(x2)
    3a98:	03c12c23          	sw	x28,56(x2)
    3a9c:	08012823          	sw	x0,144(x2)
    3aa0:	08012a23          	sw	x0,148(x2)
    3aa4:	08012c23          	sw	x0,152(x2)
    3aa8:	08012e23          	sw	x0,156(x2)
    3aac:	0ae12423          	sw	x14,168(x2)
    3ab0:	0af12623          	sw	x15,172(x2)
    3ab4:	5790a0ef          	jal	x1,e82c <__eqtf2>
    3ab8:	03812e03          	lw	x28,56(x2)
    3abc:	04c12603          	lw	x12,76(x2)
    3ac0:	54051863          	bne	x10,x0,4010 <_vfprintf_r+0x11fc>
    3ac4:	0d812783          	lw	x15,216(x2)
    3ac8:	00100713          	addi	x14,x0,1
    3acc:	00160613          	addi	x12,x12,1
    3ad0:	0000e597          	auipc	x11,0xe
    3ad4:	fd058593          	addi	x11,x11,-48 # 11aa0 <__clzsi2+0x108>
    3ad8:	00178793          	addi	x15,x15,1
    3adc:	00e92223          	sw	x14,4(x18)
    3ae0:	00b92023          	sw	x11,0(x18)
    3ae4:	0cc12e23          	sw	x12,220(x2)
    3ae8:	0cf12c23          	sw	x15,216(x2)
    3aec:	00700713          	addi	x14,x0,7
    3af0:	00890913          	addi	x18,x18,8
    3af4:	42f744e3          	blt	x14,x15,471c <_vfprintf_r+0x1908>
    3af8:	0bc12783          	lw	x15,188(x2)
    3afc:	02012703          	lw	x14,32(x2)
    3b00:	74e7d863          	bge	x15,x14,4250 <_vfprintf_r+0x143c>
    3b04:	02c12703          	lw	x14,44(x2)
    3b08:	0d812783          	lw	x15,216(x2)
    3b0c:	03012683          	lw	x13,48(x2)
    3b10:	00e60633          	add	x12,x12,x14
    3b14:	00178793          	addi	x15,x15,1
    3b18:	00e92223          	sw	x14,4(x18)
    3b1c:	00d92023          	sw	x13,0(x18)
    3b20:	0cc12e23          	sw	x12,220(x2)
    3b24:	0cf12c23          	sw	x15,216(x2)
    3b28:	00700713          	addi	x14,x0,7
    3b2c:	00890913          	addi	x18,x18,8
    3b30:	06f744e3          	blt	x14,x15,4398 <_vfprintf_r+0x1584>
    3b34:	02012783          	lw	x15,32(x2)
    3b38:	fff78a13          	addi	x20,x15,-1
    3b3c:	db405e63          	bge	x0,x20,30f8 <_vfprintf_r+0x2e4>
    3b40:	01000a93          	addi	x21,x0,16
    3b44:	0d812703          	lw	x14,216(x2)
    3b48:	0000e797          	auipc	x15,0xe
    3b4c:	3d478793          	addi	x15,x15,980 # 11f1c <zeroes.0>
    3b50:	414ad2e3          	bge	x21,x20,4754 <_vfprintf_r+0x1940>
    3b54:	00090693          	addi	x13,x18,0
    3b58:	000a8813          	addi	x16,x21,0
    3b5c:	000a0913          	addi	x18,x20,0
    3b60:	00700b13          	addi	x22,x0,7
    3b64:	000e0a13          	addi	x20,x28,0
    3b68:	00078b93          	addi	x23,x15,0
    3b6c:	00c0006f          	jal	x0,3b78 <_vfprintf_r+0xd64>
    3b70:	ff090913          	addi	x18,x18,-16
    3b74:	3d2858e3          	bge	x16,x18,4744 <_vfprintf_r+0x1930>
    3b78:	01060613          	addi	x12,x12,16
    3b7c:	00170713          	addi	x14,x14,1
    3b80:	0176a023          	sw	x23,0(x13)
    3b84:	0156a223          	sw	x21,4(x13)
    3b88:	0cc12e23          	sw	x12,220(x2)
    3b8c:	0ce12c23          	sw	x14,216(x2)
    3b90:	00868693          	addi	x13,x13,8
    3b94:	fceb5ee3          	bge	x22,x14,3b70 <_vfprintf_r+0xd5c>
    3b98:	00812583          	lw	x11,8(x2)
    3b9c:	00c12503          	lw	x10,12(x2)
    3ba0:	0d410613          	addi	x12,x2,212
    3ba4:	428020ef          	jal	x1,5fcc <__sprint_r>
    3ba8:	20051e63          	bne	x10,x0,3dc4 <_vfprintf_r+0xfb0>
    3bac:	0dc12603          	lw	x12,220(x2)
    3bb0:	0d812703          	lw	x14,216(x2)
    3bb4:	00098693          	addi	x13,x19,0
    3bb8:	01000813          	addi	x16,x0,16
    3bbc:	fb5ff06f          	jal	x0,3b70 <_vfprintf_r+0xd5c>
    3bc0:	41bd0833          	sub	x16,x26,x27
    3bc4:	d1005063          	bge	x0,x16,30c4 <_vfprintf_r+0x2b0>
    3bc8:	01000e93          	addi	x29,x0,16
    3bcc:	0d812583          	lw	x11,216(x2)
    3bd0:	0000e797          	auipc	x15,0xe
    3bd4:	34c78793          	addi	x15,x15,844 # 11f1c <zeroes.0>
    3bd8:	090ede63          	bge	x29,x16,3c74 <_vfprintf_r+0xe60>
    3bdc:	00070b93          	addi	x23,x14,0
    3be0:	05412623          	sw	x20,76(x2)
    3be4:	00090713          	addi	x14,x18,0
    3be8:	000e8f93          	addi	x31,x29,0
    3bec:	00700f13          	addi	x30,x0,7
    3bf0:	03c12c23          	sw	x28,56(x2)
    3bf4:	00080913          	addi	x18,x16,0
    3bf8:	00078a13          	addi	x20,x15,0
    3bfc:	00c0006f          	jal	x0,3c08 <_vfprintf_r+0xdf4>
    3c00:	ff090913          	addi	x18,x18,-16
    3c04:	052fdc63          	bge	x31,x18,3c5c <_vfprintf_r+0xe48>
    3c08:	01060613          	addi	x12,x12,16
    3c0c:	00158593          	addi	x11,x11,1
    3c10:	01472023          	sw	x20,0(x14)
    3c14:	01d72223          	sw	x29,4(x14)
    3c18:	0cc12e23          	sw	x12,220(x2)
    3c1c:	0cb12c23          	sw	x11,216(x2)
    3c20:	00870713          	addi	x14,x14,8
    3c24:	fcbf5ee3          	bge	x30,x11,3c00 <_vfprintf_r+0xdec>
    3c28:	00812583          	lw	x11,8(x2)
    3c2c:	00c12503          	lw	x10,12(x2)
    3c30:	0d410613          	addi	x12,x2,212
    3c34:	398020ef          	jal	x1,5fcc <__sprint_r>
    3c38:	18051663          	bne	x10,x0,3dc4 <_vfprintf_r+0xfb0>
    3c3c:	01000f93          	addi	x31,x0,16
    3c40:	ff090913          	addi	x18,x18,-16
    3c44:	0dc12603          	lw	x12,220(x2)
    3c48:	0d812583          	lw	x11,216(x2)
    3c4c:	00098713          	addi	x14,x19,0
    3c50:	00700f13          	addi	x30,x0,7
    3c54:	000f8e93          	addi	x29,x31,0
    3c58:	fb2fc8e3          	blt	x31,x18,3c08 <_vfprintf_r+0xdf4>
    3c5c:	000a0793          	addi	x15,x20,0
    3c60:	03812e03          	lw	x28,56(x2)
    3c64:	04c12a03          	lw	x20,76(x2)
    3c68:	00090813          	addi	x16,x18,0
    3c6c:	00070913          	addi	x18,x14,0
    3c70:	000b8713          	addi	x14,x23,0
    3c74:	01060633          	add	x12,x12,x16
    3c78:	00158593          	addi	x11,x11,1
    3c7c:	00f92023          	sw	x15,0(x18)
    3c80:	01092223          	sw	x16,4(x18)
    3c84:	0cc12e23          	sw	x12,220(x2)
    3c88:	0cb12c23          	sw	x11,216(x2)
    3c8c:	00700793          	addi	x15,x0,7
    3c90:	00890913          	addi	x18,x18,8
    3c94:	c2b7d863          	bge	x15,x11,30c4 <_vfprintf_r+0x2b0>
    3c98:	00812583          	lw	x11,8(x2)
    3c9c:	00c12503          	lw	x10,12(x2)
    3ca0:	0d410613          	addi	x12,x2,212
    3ca4:	05c12623          	sw	x28,76(x2)
    3ca8:	02e12c23          	sw	x14,56(x2)
    3cac:	320020ef          	jal	x1,5fcc <__sprint_r>
    3cb0:	10051a63          	bne	x10,x0,3dc4 <_vfprintf_r+0xfb0>
    3cb4:	0dc12603          	lw	x12,220(x2)
    3cb8:	04c12e03          	lw	x28,76(x2)
    3cbc:	03812703          	lw	x14,56(x2)
    3cc0:	00098913          	addi	x18,x19,0
    3cc4:	c00ff06f          	jal	x0,30c4 <_vfprintf_r+0x2b0>
    3cc8:	0d812583          	lw	x11,216(x2)
    3ccc:	0000e797          	auipc	x15,0xe
    3cd0:	25078793          	addi	x15,x15,592 # 11f1c <zeroes.0>
    3cd4:	0944d063          	bge	x9,x20,3d54 <_vfprintf_r+0xf40>
    3cd8:	02e12c23          	sw	x14,56(x2)
    3cdc:	000a0b93          	addi	x23,x20,0
    3ce0:	00090713          	addi	x14,x18,0
    3ce4:	000e0a13          	addi	x20,x28,0
    3ce8:	00078913          	addi	x18,x15,0
    3cec:	00c0006f          	jal	x0,3cf8 <_vfprintf_r+0xee4>
    3cf0:	ff0b8b93          	addi	x23,x23,-16
    3cf4:	0574d663          	bge	x9,x23,3d40 <_vfprintf_r+0xf2c>
    3cf8:	01060613          	addi	x12,x12,16
    3cfc:	00158593          	addi	x11,x11,1
    3d00:	01272023          	sw	x18,0(x14)
    3d04:	00972223          	sw	x9,4(x14)
    3d08:	0cc12e23          	sw	x12,220(x2)
    3d0c:	0cb12c23          	sw	x11,216(x2)
    3d10:	00870713          	addi	x14,x14,8
    3d14:	fcbcdee3          	bge	x25,x11,3cf0 <_vfprintf_r+0xedc>
    3d18:	00812583          	lw	x11,8(x2)
    3d1c:	00c12503          	lw	x10,12(x2)
    3d20:	0d410613          	addi	x12,x2,212
    3d24:	2a8020ef          	jal	x1,5fcc <__sprint_r>
    3d28:	08051e63          	bne	x10,x0,3dc4 <_vfprintf_r+0xfb0>
    3d2c:	ff0b8b93          	addi	x23,x23,-16
    3d30:	0dc12603          	lw	x12,220(x2)
    3d34:	0d812583          	lw	x11,216(x2)
    3d38:	00098713          	addi	x14,x19,0
    3d3c:	fb74cee3          	blt	x9,x23,3cf8 <_vfprintf_r+0xee4>
    3d40:	00090793          	addi	x15,x18,0
    3d44:	00070913          	addi	x18,x14,0
    3d48:	03812703          	lw	x14,56(x2)
    3d4c:	000a0e13          	addi	x28,x20,0
    3d50:	000b8a13          	addi	x20,x23,0
    3d54:	01460633          	add	x12,x12,x20
    3d58:	00158593          	addi	x11,x11,1
    3d5c:	00f92023          	sw	x15,0(x18)
    3d60:	01492223          	sw	x20,4(x18)
    3d64:	0cc12e23          	sw	x12,220(x2)
    3d68:	0cb12c23          	sw	x11,216(x2)
    3d6c:	00700793          	addi	x15,x0,7
    3d70:	00890913          	addi	x18,x18,8
    3d74:	b4b7dc63          	bge	x15,x11,30cc <_vfprintf_r+0x2b8>
    3d78:	00812583          	lw	x11,8(x2)
    3d7c:	00c12503          	lw	x10,12(x2)
    3d80:	0d410613          	addi	x12,x2,212
    3d84:	05c12623          	sw	x28,76(x2)
    3d88:	02e12c23          	sw	x14,56(x2)
    3d8c:	240020ef          	jal	x1,5fcc <__sprint_r>
    3d90:	02051a63          	bne	x10,x0,3dc4 <_vfprintf_r+0xfb0>
    3d94:	0dc12603          	lw	x12,220(x2)
    3d98:	04c12e03          	lw	x28,76(x2)
    3d9c:	03812703          	lw	x14,56(x2)
    3da0:	00098913          	addi	x18,x19,0
    3da4:	b28ff06f          	jal	x0,30cc <_vfprintf_r+0x2b8>
    3da8:	00812583          	lw	x11,8(x2)
    3dac:	00c12503          	lw	x10,12(x2)
    3db0:	0d410613          	addi	x12,x2,212
    3db4:	01c12e23          	sw	x28,28(x2)
    3db8:	214020ef          	jal	x1,5fcc <__sprint_r>
    3dbc:	01c12e03          	lw	x28,28(x2)
    3dc0:	b6050263          	beq	x10,x0,3124 <_vfprintf_r+0x310>
    3dc4:	01412383          	lw	x7,20(x2)
    3dc8:	b8038c63          	beq	x7,x0,3160 <_vfprintf_r+0x34c>
    3dcc:	00c12503          	lw	x10,12(x2)
    3dd0:	00038593          	addi	x11,x7,0
    3dd4:	c91fd0ef          	jal	x1,1a64 <_free_r>
    3dd8:	b88ff06f          	jal	x0,3160 <_vfprintf_r+0x34c>
    3ddc:	000c0713          	addi	x14,x24,0
    3de0:	a45ff06f          	jal	x0,3824 <_vfprintf_r+0xa10>
    3de4:	01000f93          	addi	x31,x0,16
    3de8:	0d812583          	lw	x11,216(x2)
    3dec:	0000e817          	auipc	x16,0xe
    3df0:	12080813          	addi	x16,x16,288 # 11f0c <blanks.1>
    3df4:	0affd663          	bge	x31,x15,3ea0 <_vfprintf_r+0x108c>
    3df8:	00070b93          	addi	x23,x14,0
    3dfc:	05412a23          	sw	x20,84(x2)
    3e00:	00090713          	addi	x14,x18,0
    3e04:	000f8393          	addi	x7,x31,0
    3e08:	00700293          	addi	x5,x0,7
    3e0c:	03e12c23          	sw	x30,56(x2)
    3e10:	05d12623          	sw	x29,76(x2)
    3e14:	05c12823          	sw	x28,80(x2)
    3e18:	00078913          	addi	x18,x15,0
    3e1c:	00080a13          	addi	x20,x16,0
    3e20:	00c0006f          	jal	x0,3e2c <_vfprintf_r+0x1018>
    3e24:	ff090913          	addi	x18,x18,-16
    3e28:	0523dc63          	bge	x7,x18,3e80 <_vfprintf_r+0x106c>
    3e2c:	01060613          	addi	x12,x12,16
    3e30:	00158593          	addi	x11,x11,1
    3e34:	01472023          	sw	x20,0(x14)
    3e38:	01f72223          	sw	x31,4(x14)
    3e3c:	0cc12e23          	sw	x12,220(x2)
    3e40:	0cb12c23          	sw	x11,216(x2)
    3e44:	00870713          	addi	x14,x14,8
    3e48:	fcb2dee3          	bge	x5,x11,3e24 <_vfprintf_r+0x1010>
    3e4c:	00812583          	lw	x11,8(x2)
    3e50:	00c12503          	lw	x10,12(x2)
    3e54:	0d410613          	addi	x12,x2,212
    3e58:	174020ef          	jal	x1,5fcc <__sprint_r>
    3e5c:	f60514e3          	bne	x10,x0,3dc4 <_vfprintf_r+0xfb0>
    3e60:	01000393          	addi	x7,x0,16
    3e64:	ff090913          	addi	x18,x18,-16
    3e68:	0dc12603          	lw	x12,220(x2)
    3e6c:	0d812583          	lw	x11,216(x2)
    3e70:	00098713          	addi	x14,x19,0
    3e74:	00700293          	addi	x5,x0,7
    3e78:	00038f93          	addi	x31,x7,0
    3e7c:	fb23c8e3          	blt	x7,x18,3e2c <_vfprintf_r+0x1018>
    3e80:	000a0813          	addi	x16,x20,0
    3e84:	03812f03          	lw	x30,56(x2)
    3e88:	04c12e83          	lw	x29,76(x2)
    3e8c:	05012e03          	lw	x28,80(x2)
    3e90:	05412a03          	lw	x20,84(x2)
    3e94:	00090793          	addi	x15,x18,0
    3e98:	00070913          	addi	x18,x14,0
    3e9c:	000b8713          	addi	x14,x23,0
    3ea0:	00f60633          	add	x12,x12,x15
    3ea4:	00158593          	addi	x11,x11,1
    3ea8:	00f92223          	sw	x15,4(x18)
    3eac:	01092023          	sw	x16,0(x18)
    3eb0:	0cc12e23          	sw	x12,220(x2)
    3eb4:	0cb12c23          	sw	x11,216(x2)
    3eb8:	00700793          	addi	x15,x0,7
    3ebc:	00890913          	addi	x18,x18,8
    3ec0:	98b7dc63          	bge	x15,x11,3058 <_vfprintf_r+0x244>
    3ec4:	00812583          	lw	x11,8(x2)
    3ec8:	00c12503          	lw	x10,12(x2)
    3ecc:	0d410613          	addi	x12,x2,212
    3ed0:	05c12a23          	sw	x28,84(x2)
    3ed4:	04e12823          	sw	x14,80(x2)
    3ed8:	05d12623          	sw	x29,76(x2)
    3edc:	03e12c23          	sw	x30,56(x2)
    3ee0:	0ec020ef          	jal	x1,5fcc <__sprint_r>
    3ee4:	ee0510e3          	bne	x10,x0,3dc4 <_vfprintf_r+0xfb0>
    3ee8:	0dc12603          	lw	x12,220(x2)
    3eec:	05412e03          	lw	x28,84(x2)
    3ef0:	05012703          	lw	x14,80(x2)
    3ef4:	04c12e83          	lw	x29,76(x2)
    3ef8:	03812f03          	lw	x30,56(x2)
    3efc:	00098913          	addi	x18,x19,0
    3f00:	958ff06f          	jal	x0,3058 <_vfprintf_r+0x244>
    3f04:	00812583          	lw	x11,8(x2)
    3f08:	00c12503          	lw	x10,12(x2)
    3f0c:	0d410613          	addi	x12,x2,212
    3f10:	05c12823          	sw	x28,80(x2)
    3f14:	04e12623          	sw	x14,76(x2)
    3f18:	03d12c23          	sw	x29,56(x2)
    3f1c:	0b0020ef          	jal	x1,5fcc <__sprint_r>
    3f20:	ea0512e3          	bne	x10,x0,3dc4 <_vfprintf_r+0xfb0>
    3f24:	0dc12603          	lw	x12,220(x2)
    3f28:	05012e03          	lw	x28,80(x2)
    3f2c:	04c12703          	lw	x14,76(x2)
    3f30:	03812e83          	lw	x29,56(x2)
    3f34:	00098913          	addi	x18,x19,0
    3f38:	984ff06f          	jal	x0,30bc <_vfprintf_r+0x2a8>
    3f3c:	01000a93          	addi	x21,x0,16
    3f40:	0d812783          	lw	x15,216(x2)
    3f44:	0000e817          	auipc	x16,0xe
    3f48:	fc880813          	addi	x16,x16,-56 # 11f0c <blanks.1>
    3f4c:	094ad063          	bge	x21,x20,3fcc <_vfprintf_r+0x11b8>
    3f50:	00090713          	addi	x14,x18,0
    3f54:	000a8c13          	addi	x24,x21,0
    3f58:	000a0913          	addi	x18,x20,0
    3f5c:	00700b13          	addi	x22,x0,7
    3f60:	000e0a13          	addi	x20,x28,0
    3f64:	00080b93          	addi	x23,x16,0
    3f68:	00c0006f          	jal	x0,3f74 <_vfprintf_r+0x1160>
    3f6c:	ff090913          	addi	x18,x18,-16
    3f70:	052c5663          	bge	x24,x18,3fbc <_vfprintf_r+0x11a8>
    3f74:	01060613          	addi	x12,x12,16
    3f78:	00178793          	addi	x15,x15,1
    3f7c:	01772023          	sw	x23,0(x14)
    3f80:	01572223          	sw	x21,4(x14)
    3f84:	0cc12e23          	sw	x12,220(x2)
    3f88:	0cf12c23          	sw	x15,216(x2)
    3f8c:	00870713          	addi	x14,x14,8
    3f90:	fcfb5ee3          	bge	x22,x15,3f6c <_vfprintf_r+0x1158>
    3f94:	00812583          	lw	x11,8(x2)
    3f98:	00c12503          	lw	x10,12(x2)
    3f9c:	0d410613          	addi	x12,x2,212
    3fa0:	02c020ef          	jal	x1,5fcc <__sprint_r>
    3fa4:	e20510e3          	bne	x10,x0,3dc4 <_vfprintf_r+0xfb0>
    3fa8:	ff090913          	addi	x18,x18,-16
    3fac:	0dc12603          	lw	x12,220(x2)
    3fb0:	0d812783          	lw	x15,216(x2)
    3fb4:	00098713          	addi	x14,x19,0
    3fb8:	fb2c4ee3          	blt	x24,x18,3f74 <_vfprintf_r+0x1160>
    3fbc:	000a0e13          	addi	x28,x20,0
    3fc0:	000b8813          	addi	x16,x23,0
    3fc4:	00090a13          	addi	x20,x18,0
    3fc8:	00070913          	addi	x18,x14,0
    3fcc:	01460633          	add	x12,x12,x20
    3fd0:	00178793          	addi	x15,x15,1
    3fd4:	0cc12e23          	sw	x12,220(x2)
    3fd8:	0cf12c23          	sw	x15,216(x2)
    3fdc:	01092023          	sw	x16,0(x18)
    3fe0:	01492223          	sw	x20,4(x18)
    3fe4:	00700713          	addi	x14,x0,7
    3fe8:	92f75063          	bge	x14,x15,3108 <_vfprintf_r+0x2f4>
    3fec:	00812583          	lw	x11,8(x2)
    3ff0:	00c12503          	lw	x10,12(x2)
    3ff4:	0d410613          	addi	x12,x2,212
    3ff8:	01c12e23          	sw	x28,28(x2)
    3ffc:	7d1010ef          	jal	x1,5fcc <__sprint_r>
    4000:	dc0512e3          	bne	x10,x0,3dc4 <_vfprintf_r+0xfb0>
    4004:	0dc12603          	lw	x12,220(x2)
    4008:	01c12e03          	lw	x28,28(x2)
    400c:	8fcff06f          	jal	x0,3108 <_vfprintf_r+0x2f4>
    4010:	0bc12583          	lw	x11,188(x2)
    4014:	66b05c63          	bge	x0,x11,468c <_vfprintf_r+0x1878>
    4018:	01c12783          	lw	x15,28(x2)
    401c:	02012703          	lw	x14,32(x2)
    4020:	00078a13          	addi	x20,x15,0
    4024:	2ef74463          	blt	x14,x15,430c <_vfprintf_r+0x14f8>
    4028:	03405663          	bge	x0,x20,4054 <_vfprintf_r+0x1240>
    402c:	0d812783          	lw	x15,216(x2)
    4030:	01460633          	add	x12,x12,x20
    4034:	01592023          	sw	x21,0(x18)
    4038:	00178793          	addi	x15,x15,1
    403c:	01492223          	sw	x20,4(x18)
    4040:	0cc12e23          	sw	x12,220(x2)
    4044:	0cf12c23          	sw	x15,216(x2)
    4048:	00700713          	addi	x14,x0,7
    404c:	00890913          	addi	x18,x18,8
    4050:	68f740e3          	blt	x14,x15,4ed0 <_vfprintf_r+0x20bc>
    4054:	fffa4793          	xori	x15,x20,-1
    4058:	41f7d793          	srai	x15,x15,0x1f
    405c:	00fa7a33          	and	x20,x20,x15
    4060:	01c12783          	lw	x15,28(x2)
    4064:	41478a33          	sub	x20,x15,x20
    4068:	39404c63          	blt	x0,x20,4400 <_vfprintf_r+0x15ec>
    406c:	01c12703          	lw	x14,28(x2)
    4070:	400c7793          	andi	x15,x24,1024
    4074:	00ea8eb3          	add	x29,x21,x14
    4078:	140796e3          	bne	x15,x0,49c4 <_vfprintf_r+0x1bb0>
    407c:	0bc12a03          	lw	x20,188(x2)
    4080:	02012783          	lw	x15,32(x2)
    4084:	40fa4063          	blt	x20,x15,4484 <_vfprintf_r+0x1670>
    4088:	001c7793          	andi	x15,x24,1
    408c:	3e079c63          	bne	x15,x0,4484 <_vfprintf_r+0x1670>
    4090:	02012783          	lw	x15,32(x2)
    4094:	00fa8ab3          	add	x21,x21,x15
    4098:	41da8ab3          	sub	x21,x21,x29
    409c:	41478a33          	sub	x20,x15,x20
    40a0:	015a5463          	bge	x20,x21,40a8 <_vfprintf_r+0x1294>
    40a4:	000a0a93          	addi	x21,x20,0
    40a8:	03505863          	bge	x0,x21,40d8 <_vfprintf_r+0x12c4>
    40ac:	0d812783          	lw	x15,216(x2)
    40b0:	01560633          	add	x12,x12,x21
    40b4:	01d92023          	sw	x29,0(x18)
    40b8:	00178793          	addi	x15,x15,1
    40bc:	01592223          	sw	x21,4(x18)
    40c0:	0cc12e23          	sw	x12,220(x2)
    40c4:	0cf12c23          	sw	x15,216(x2)
    40c8:	00700713          	addi	x14,x0,7
    40cc:	00890913          	addi	x18,x18,8
    40d0:	00f75463          	bge	x14,x15,40d8 <_vfprintf_r+0x12c4>
    40d4:	4e80106f          	jal	x0,55bc <_vfprintf_r+0x27a8>
    40d8:	fffac793          	xori	x15,x21,-1
    40dc:	41f7d793          	srai	x15,x15,0x1f
    40e0:	00fafab3          	and	x21,x21,x15
    40e4:	415a0a33          	sub	x20,x20,x21
    40e8:	01404463          	blt	x0,x20,40f0 <_vfprintf_r+0x12dc>
    40ec:	80cff06f          	jal	x0,30f8 <_vfprintf_r+0x2e4>
    40f0:	01000a93          	addi	x21,x0,16
    40f4:	0d812703          	lw	x14,216(x2)
    40f8:	0000e797          	auipc	x15,0xe
    40fc:	e2478793          	addi	x15,x15,-476 # 11f1c <zeroes.0>
    4100:	654ada63          	bge	x21,x20,4754 <_vfprintf_r+0x1940>
    4104:	00090693          	addi	x13,x18,0
    4108:	000a8813          	addi	x16,x21,0
    410c:	000a0913          	addi	x18,x20,0
    4110:	00700b13          	addi	x22,x0,7
    4114:	000e0a13          	addi	x20,x28,0
    4118:	00078b93          	addi	x23,x15,0
    411c:	00c0006f          	jal	x0,4128 <_vfprintf_r+0x1314>
    4120:	ff090913          	addi	x18,x18,-16
    4124:	63285063          	bge	x16,x18,4744 <_vfprintf_r+0x1930>
    4128:	01060613          	addi	x12,x12,16
    412c:	00170713          	addi	x14,x14,1
    4130:	0176a023          	sw	x23,0(x13)
    4134:	0156a223          	sw	x21,4(x13)
    4138:	0cc12e23          	sw	x12,220(x2)
    413c:	0ce12c23          	sw	x14,216(x2)
    4140:	00868693          	addi	x13,x13,8
    4144:	fceb5ee3          	bge	x22,x14,4120 <_vfprintf_r+0x130c>
    4148:	00812583          	lw	x11,8(x2)
    414c:	00c12503          	lw	x10,12(x2)
    4150:	0d410613          	addi	x12,x2,212
    4154:	679010ef          	jal	x1,5fcc <__sprint_r>
    4158:	c60516e3          	bne	x10,x0,3dc4 <_vfprintf_r+0xfb0>
    415c:	0dc12603          	lw	x12,220(x2)
    4160:	0d812703          	lw	x14,216(x2)
    4164:	00098693          	addi	x13,x19,0
    4168:	01000813          	addi	x16,x0,16
    416c:	fb5ff06f          	jal	x0,4120 <_vfprintf_r+0x130c>
    4170:	00ec77b3          	and	x15,x24,x14
    4174:	a4079863          	bne	x15,x0,33c4 <_vfprintf_r+0x5b0>
    4178:	01592023          	sw	x21,0(x18)
    417c:	00e92223          	sw	x14,4(x18)
    4180:	0cc12e23          	sw	x12,220(x2)
    4184:	0d412c23          	sw	x20,216(x2)
    4188:	00700793          	addi	x15,x0,7
    418c:	b147d463          	bge	x15,x20,3494 <_vfprintf_r+0x680>
    4190:	00812583          	lw	x11,8(x2)
    4194:	00c12503          	lw	x10,12(x2)
    4198:	0d410613          	addi	x12,x2,212
    419c:	01c12e23          	sw	x28,28(x2)
    41a0:	62d010ef          	jal	x1,5fcc <__sprint_r>
    41a4:	c20510e3          	bne	x10,x0,3dc4 <_vfprintf_r+0xfb0>
    41a8:	0dc12603          	lw	x12,220(x2)
    41ac:	0d812a03          	lw	x20,216(x2)
    41b0:	01c12e03          	lw	x28,28(x2)
    41b4:	00098b13          	addi	x22,x19,0
    41b8:	adcff06f          	jal	x0,3494 <_vfprintf_r+0x680>
    41bc:	02012703          	lw	x14,32(x2)
    41c0:	00100793          	addi	x15,x0,1
    41c4:	ace7d863          	bge	x15,x14,3494 <_vfprintf_r+0x680>
    41c8:	01100793          	addi	x15,x0,17
    41cc:	00e7c463          	blt	x15,x14,41d4 <_vfprintf_r+0x13c0>
    41d0:	7600106f          	jal	x0,5930 <_vfprintf_r+0x2b1c>
    41d4:	0000e797          	auipc	x15,0xe
    41d8:	d4878793          	addi	x15,x15,-696 # 11f1c <zeroes.0>
    41dc:	000b0693          	addi	x13,x22,0
    41e0:	01000a93          	addi	x21,x0,16
    41e4:	00700713          	addi	x14,x0,7
    41e8:	000e0b13          	addi	x22,x28,0
    41ec:	00078b93          	addi	x23,x15,0
    41f0:	00c0006f          	jal	x0,41fc <_vfprintf_r+0x13e8>
    41f4:	ff090913          	addi	x18,x18,-16
    41f8:	6b2ada63          	bge	x21,x18,48ac <_vfprintf_r+0x1a98>
    41fc:	01060613          	addi	x12,x12,16
    4200:	001a0a13          	addi	x20,x20,1
    4204:	0176a023          	sw	x23,0(x13)
    4208:	0156a223          	sw	x21,4(x13)
    420c:	0cc12e23          	sw	x12,220(x2)
    4210:	0d412c23          	sw	x20,216(x2)
    4214:	00868693          	addi	x13,x13,8
    4218:	fd475ee3          	bge	x14,x20,41f4 <_vfprintf_r+0x13e0>
    421c:	00812583          	lw	x11,8(x2)
    4220:	00c12503          	lw	x10,12(x2)
    4224:	0d410613          	addi	x12,x2,212
    4228:	5a5010ef          	jal	x1,5fcc <__sprint_r>
    422c:	b8051ce3          	bne	x10,x0,3dc4 <_vfprintf_r+0xfb0>
    4230:	0dc12603          	lw	x12,220(x2)
    4234:	0d812a03          	lw	x20,216(x2)
    4238:	00098693          	addi	x13,x19,0
    423c:	00700713          	addi	x14,x0,7
    4240:	fb5ff06f          	jal	x0,41f4 <_vfprintf_r+0x13e0>
    4244:	00000713          	addi	x14,x0,0
    4248:	1a010a93          	addi	x21,x2,416
    424c:	bb0ff06f          	jal	x0,35fc <_vfprintf_r+0x7e8>
    4250:	001c7793          	andi	x15,x24,1
    4254:	00079463          	bne	x15,x0,425c <_vfprintf_r+0x1448>
    4258:	ea1fe06f          	jal	x0,30f8 <_vfprintf_r+0x2e4>
    425c:	8a9ff06f          	jal	x0,3b04 <_vfprintf_r+0xcf0>
    4260:	000bcb03          	lbu	x22,0(x23)
    4264:	00f12c23          	sw	x15,24(x2)
    4268:	d45fe06f          	jal	x0,2fac <_vfprintf_r+0x198>
    426c:	01812703          	lw	x14,24(x2)
    4270:	00072783          	lw	x15,0(x14)
    4274:	00470713          	addi	x14,x14,4
    4278:	00e12c23          	sw	x14,24(x2)
    427c:	0007a603          	lw	x12,0(x15)
    4280:	0047a683          	lw	x13,4(x15)
    4284:	0087a703          	lw	x14,8(x15)
    4288:	00c7a783          	lw	x15,12(x15)
    428c:	80cff06f          	jal	x0,3298 <_vfprintf_r+0x484>
    4290:	01012603          	lw	x12,16(x2)
    4294:	0006a783          	lw	x15,0(x13)
    4298:	00e12c23          	sw	x14,24(x2)
    429c:	41f65693          	srai	x13,x12,0x1f
    42a0:	00c7a023          	sw	x12,0(x15)
    42a4:	00d7a223          	sw	x13,4(x15)
    42a8:	ec4ff06f          	jal	x0,396c <_vfprintf_r+0xb58>
    42ac:	01812783          	lw	x15,24(x2)
    42b0:	00478693          	addi	x13,x15,4
    42b4:	01812783          	lw	x15,24(x2)
    42b8:	00d12c23          	sw	x13,24(x2)
    42bc:	0007ad83          	lw	x27,0(x15)
    42c0:	00000793          	addi	x15,x0,0
    42c4:	e44ff06f          	jal	x0,3908 <_vfprintf_r+0xaf4>
    42c8:	01812703          	lw	x14,24(x2)
    42cc:	010c7793          	andi	x15,x24,16
    42d0:	00072d83          	lw	x27,0(x14)
    42d4:	00470693          	addi	x13,x14,4
    42d8:	00078463          	beq	x15,x0,42e0 <_vfprintf_r+0x14cc>
    42dc:	4880106f          	jal	x0,5764 <_vfprintf_r+0x2950>
    42e0:	040c7793          	andi	x15,x24,64
    42e4:	62078063          	beq	x15,x0,4904 <_vfprintf_r+0x1af0>
    42e8:	010d9d93          	slli	x27,x27,0x10
    42ec:	00d12c23          	sw	x13,24(x2)
    42f0:	010ddd93          	srli	x27,x27,0x10
    42f4:	000c0713          	addi	x14,x24,0
    42f8:	00000793          	addi	x15,x0,0
    42fc:	00100693          	addi	x13,x0,1
    4300:	c58ff06f          	jal	x0,3758 <_vfprintf_r+0x944>
    4304:	000c0713          	addi	x14,x24,0
    4308:	de4ff06f          	jal	x0,38ec <_vfprintf_r+0xad8>
    430c:	00070a13          	addi	x20,x14,0
    4310:	d1404ee3          	blt	x0,x20,402c <_vfprintf_r+0x1218>
    4314:	d41ff06f          	jal	x0,4054 <_vfprintf_r+0x1240>
    4318:	fff00a13          	addi	x20,x0,-1
    431c:	00068b93          	addi	x23,x13,0
    4320:	c91fe06f          	jal	x0,2fb0 <_vfprintf_r+0x19c>
    4324:	0000d797          	auipc	x15,0xd
    4328:	76078793          	addi	x15,x15,1888 # 11a84 <__clzsi2+0xec>
    432c:	000b8e13          	addi	x28,x23,0
    4330:	02f12a23          	sw	x15,52(x2)
    4334:	020c7793          	andi	x15,x24,32
    4338:	1a078863          	beq	x15,x0,44e8 <_vfprintf_r+0x16d4>
    433c:	01812783          	lw	x15,24(x2)
    4340:	00778793          	addi	x15,x15,7
    4344:	ff87f793          	andi	x15,x15,-8
    4348:	00878713          	addi	x14,x15,8
    434c:	0007ad83          	lw	x27,0(x15)
    4350:	0047a783          	lw	x15,4(x15)
    4354:	00e12c23          	sw	x14,24(x2)
    4358:	001c7713          	andi	x14,x24,1
    435c:	00070e63          	beq	x14,x0,4378 <_vfprintf_r+0x1564>
    4360:	00fde733          	or	x14,x27,x15
    4364:	00070a63          	beq	x14,x0,4378 <_vfprintf_r+0x1564>
    4368:	03000713          	addi	x14,x0,48
    436c:	0b610ca3          	sb	x22,185(x2)
    4370:	002c6c13          	ori	x24,x24,2
    4374:	0ae10c23          	sb	x14,184(x2)
    4378:	bffc7713          	andi	x14,x24,-1025
    437c:	00200693          	addi	x13,x0,2
    4380:	bd8ff06f          	jal	x0,3758 <_vfprintf_r+0x944>
    4384:	0000d797          	auipc	x15,0xd
    4388:	6ec78793          	addi	x15,x15,1772 # 11a70 <__clzsi2+0xd8>
    438c:	000b8e13          	addi	x28,x23,0
    4390:	02f12a23          	sw	x15,52(x2)
    4394:	fa1ff06f          	jal	x0,4334 <_vfprintf_r+0x1520>
    4398:	00812583          	lw	x11,8(x2)
    439c:	00c12503          	lw	x10,12(x2)
    43a0:	0d410613          	addi	x12,x2,212
    43a4:	01c12e23          	sw	x28,28(x2)
    43a8:	425010ef          	jal	x1,5fcc <__sprint_r>
    43ac:	a0051ce3          	bne	x10,x0,3dc4 <_vfprintf_r+0xfb0>
    43b0:	0dc12603          	lw	x12,220(x2)
    43b4:	01c12e03          	lw	x28,28(x2)
    43b8:	00098913          	addi	x18,x19,0
    43bc:	f78ff06f          	jal	x0,3b34 <_vfprintf_r+0xd20>
    43c0:	001bcb03          	lbu	x22,1(x23)
    43c4:	020c6c13          	ori	x24,x24,32
    43c8:	001b8b93          	addi	x23,x23,1
    43cc:	be1fe06f          	jal	x0,2fac <_vfprintf_r+0x198>
    43d0:	001bcb03          	lbu	x22,1(x23)
    43d4:	200c6c13          	ori	x24,x24,512
    43d8:	001b8b93          	addi	x23,x23,1
    43dc:	bd1fe06f          	jal	x0,2fac <_vfprintf_r+0x198>
    43e0:	00600793          	addi	x15,x0,6
    43e4:	000a0713          	addi	x14,x20,0
    43e8:	3147eae3          	bltu	x15,x20,4efc <_vfprintf_r+0x20e8>
    43ec:	01712c23          	sw	x23,24(x2)
    43f0:	00070d93          	addi	x27,x14,0
    43f4:	0000da97          	auipc	x21,0xd
    43f8:	6a4a8a93          	addi	x21,x21,1700 # 11a98 <__clzsi2+0x100>
    43fc:	c29fe06f          	jal	x0,3024 <_vfprintf_r+0x210>
    4400:	01000b13          	addi	x22,x0,16
    4404:	0d812583          	lw	x11,216(x2)
    4408:	0000e797          	auipc	x15,0xe
    440c:	b1478793          	addi	x15,x15,-1260 # 11f1c <zeroes.0>
    4410:	574b5463          	bge	x22,x20,4978 <_vfprintf_r+0x1b64>
    4414:	00090693          	addi	x13,x18,0
    4418:	000b0813          	addi	x16,x22,0
    441c:	000a0913          	addi	x18,x20,0
    4420:	00700713          	addi	x14,x0,7
    4424:	000e0a13          	addi	x20,x28,0
    4428:	00078b93          	addi	x23,x15,0
    442c:	00c0006f          	jal	x0,4438 <_vfprintf_r+0x1624>
    4430:	ff090913          	addi	x18,x18,-16
    4434:	53285a63          	bge	x16,x18,4968 <_vfprintf_r+0x1b54>
    4438:	01060613          	addi	x12,x12,16
    443c:	00158593          	addi	x11,x11,1
    4440:	0176a023          	sw	x23,0(x13)
    4444:	0166a223          	sw	x22,4(x13)
    4448:	0cc12e23          	sw	x12,220(x2)
    444c:	0cb12c23          	sw	x11,216(x2)
    4450:	00868693          	addi	x13,x13,8
    4454:	fcb75ee3          	bge	x14,x11,4430 <_vfprintf_r+0x161c>
    4458:	00812583          	lw	x11,8(x2)
    445c:	00c12503          	lw	x10,12(x2)
    4460:	0d410613          	addi	x12,x2,212
    4464:	369010ef          	jal	x1,5fcc <__sprint_r>
    4468:	94051ee3          	bne	x10,x0,3dc4 <_vfprintf_r+0xfb0>
    446c:	0dc12603          	lw	x12,220(x2)
    4470:	0d812583          	lw	x11,216(x2)
    4474:	00098693          	addi	x13,x19,0
    4478:	00700713          	addi	x14,x0,7
    447c:	01000813          	addi	x16,x0,16
    4480:	fb1ff06f          	jal	x0,4430 <_vfprintf_r+0x161c>
    4484:	02c12703          	lw	x14,44(x2)
    4488:	0d812783          	lw	x15,216(x2)
    448c:	03012683          	lw	x13,48(x2)
    4490:	00e60633          	add	x12,x12,x14
    4494:	00178793          	addi	x15,x15,1
    4498:	00e92223          	sw	x14,4(x18)
    449c:	00d92023          	sw	x13,0(x18)
    44a0:	0cc12e23          	sw	x12,220(x2)
    44a4:	0cf12c23          	sw	x15,216(x2)
    44a8:	00700713          	addi	x14,x0,7
    44ac:	00890913          	addi	x18,x18,8
    44b0:	bef750e3          	bge	x14,x15,4090 <_vfprintf_r+0x127c>
    44b4:	00812583          	lw	x11,8(x2)
    44b8:	00c12503          	lw	x10,12(x2)
    44bc:	0d410613          	addi	x12,x2,212
    44c0:	03d12223          	sw	x29,36(x2)
    44c4:	01c12e23          	sw	x28,28(x2)
    44c8:	305010ef          	jal	x1,5fcc <__sprint_r>
    44cc:	8e051ce3          	bne	x10,x0,3dc4 <_vfprintf_r+0xfb0>
    44d0:	0bc12a03          	lw	x20,188(x2)
    44d4:	0dc12603          	lw	x12,220(x2)
    44d8:	02412e83          	lw	x29,36(x2)
    44dc:	01c12e03          	lw	x28,28(x2)
    44e0:	00098913          	addi	x18,x19,0
    44e4:	badff06f          	jal	x0,4090 <_vfprintf_r+0x127c>
    44e8:	01812703          	lw	x14,24(x2)
    44ec:	010c7793          	andi	x15,x24,16
    44f0:	00072d83          	lw	x27,0(x14)
    44f4:	00470713          	addi	x14,x14,4
    44f8:	00e12c23          	sw	x14,24(x2)
    44fc:	06079e63          	bne	x15,x0,4578 <_vfprintf_r+0x1764>
    4500:	040c7793          	andi	x15,x24,64
    4504:	06078663          	beq	x15,x0,4570 <_vfprintf_r+0x175c>
    4508:	010d9d93          	slli	x27,x27,0x10
    450c:	010ddd93          	srli	x27,x27,0x10
    4510:	00000793          	addi	x15,x0,0
    4514:	e45ff06f          	jal	x0,4358 <_vfprintf_r+0x1544>
    4518:	00812583          	lw	x11,8(x2)
    451c:	00c12503          	lw	x10,12(x2)
    4520:	0d410613          	addi	x12,x2,212
    4524:	01c12e23          	sw	x28,28(x2)
    4528:	2a5010ef          	jal	x1,5fcc <__sprint_r>
    452c:	88051ce3          	bne	x10,x0,3dc4 <_vfprintf_r+0xfb0>
    4530:	0dc12603          	lw	x12,220(x2)
    4534:	0d812a03          	lw	x20,216(x2)
    4538:	01c12e03          	lw	x28,28(x2)
    453c:	00098b13          	addi	x22,x19,0
    4540:	ea5fe06f          	jal	x0,33e4 <_vfprintf_r+0x5d0>
    4544:	00812583          	lw	x11,8(x2)
    4548:	00c12503          	lw	x10,12(x2)
    454c:	0d410613          	addi	x12,x2,212
    4550:	01c12e23          	sw	x28,28(x2)
    4554:	279010ef          	jal	x1,5fcc <__sprint_r>
    4558:	860516e3          	bne	x10,x0,3dc4 <_vfprintf_r+0xfb0>
    455c:	0dc12603          	lw	x12,220(x2)
    4560:	0d812a03          	lw	x20,216(x2)
    4564:	01c12e03          	lw	x28,28(x2)
    4568:	00098b13          	addi	x22,x19,0
    456c:	ea9fe06f          	jal	x0,3414 <_vfprintf_r+0x600>
    4570:	200c7793          	andi	x15,x24,512
    4574:	1c079ae3          	bne	x15,x0,4f48 <_vfprintf_r+0x2134>
    4578:	00000793          	addi	x15,x0,0
    457c:	dddff06f          	jal	x0,4358 <_vfprintf_r+0x1544>
    4580:	ccccd837          	lui	x16,0xccccd
    4584:	00080e93          	addi	x29,x16,0 # ccccd000 <__heap_end+0xcc8cd000>
    4588:	04412a83          	lw	x21,68(x2)
    458c:	ccd80813          	addi	x16,x16,-819
    4590:	ccce8e93          	addi	x29,x29,-820
    4594:	40077f13          	andi	x30,x14,1024
    4598:	00000613          	addi	x12,x0,0
    459c:	1a010513          	addi	x10,x2,416
    45a0:	00500313          	addi	x6,x0,5
    45a4:	0ff00c13          	addi	x24,x0,255
    45a8:	0540006f          	jal	x0,45fc <_vfprintf_r+0x17e8>
    45ac:	01bbb6b3          	sltu	x13,x23,x27
    45b0:	00db86b3          	add	x13,x23,x13
    45b4:	0266f6b3          	remu	x13,x13,x6
    45b8:	40dd86b3          	sub	x13,x27,x13
    45bc:	00ddb5b3          	sltu	x11,x27,x13
    45c0:	40b785b3          	sub	x11,x15,x11
    45c4:	03d68fb3          	mul	x31,x13,x29
    45c8:	030585b3          	mul	x11,x11,x16
    45cc:	0306b533          	mulhu	x10,x13,x16
    45d0:	01f585b3          	add	x11,x11,x31
    45d4:	030686b3          	mul	x13,x13,x16
    45d8:	00a585b3          	add	x11,x11,x10
    45dc:	01f59513          	slli	x10,x11,0x1f
    45e0:	0015d593          	srli	x11,x11,0x1
    45e4:	0016d693          	srli	x13,x13,0x1
    45e8:	00d566b3          	or	x13,x10,x13
    45ec:	6a078663          	beq	x15,x0,4c98 <_vfprintf_r+0x1e84>
    45f0:	00068d93          	addi	x27,x13,0
    45f4:	00058793          	addi	x15,x11,0
    45f8:	00088513          	addi	x10,x17,0
    45fc:	00fd8bb3          	add	x23,x27,x15
    4600:	01bbb6b3          	sltu	x13,x23,x27
    4604:	00db86b3          	add	x13,x23,x13
    4608:	0266f6b3          	remu	x13,x13,x6
    460c:	00160613          	addi	x12,x12,1
    4610:	fff50893          	addi	x17,x10,-1
    4614:	40dd86b3          	sub	x13,x27,x13
    4618:	00ddb5b3          	sltu	x11,x27,x13
    461c:	40b785b3          	sub	x11,x15,x11
    4620:	0306bfb3          	mulhu	x31,x13,x16
    4624:	030585b3          	mul	x11,x11,x16
    4628:	030686b3          	mul	x13,x13,x16
    462c:	01f585b3          	add	x11,x11,x31
    4630:	01f59593          	slli	x11,x11,0x1f
    4634:	0016d693          	srli	x13,x13,0x1
    4638:	00d5e6b3          	or	x13,x11,x13
    463c:	00269593          	slli	x11,x13,0x2
    4640:	00d586b3          	add	x13,x11,x13
    4644:	00169693          	slli	x13,x13,0x1
    4648:	40dd86b3          	sub	x13,x27,x13
    464c:	03068693          	addi	x13,x13,48
    4650:	fed50fa3          	sb	x13,-1(x10)
    4654:	f40f0ce3          	beq	x30,x0,45ac <_vfprintf_r+0x1798>
    4658:	000ac683          	lbu	x13,0(x21)
    465c:	f4d618e3          	bne	x12,x13,45ac <_vfprintf_r+0x1798>
    4660:	f58606e3          	beq	x12,x24,45ac <_vfprintf_r+0x1798>
    4664:	58079063          	bne	x15,x0,4be4 <_vfprintf_r+0x1dd0>
    4668:	00900693          	addi	x13,x0,9
    466c:	57b6ec63          	bltu	x13,x27,4be4 <_vfprintf_r+0x1dd0>
    4670:	05512223          	sw	x21,68(x2)
    4674:	1a010793          	addi	x15,x2,416
    4678:	00088a93          	addi	x21,x17,0
    467c:	00070c13          	addi	x24,x14,0
    4680:	02c12023          	sw	x12,32(x2)
    4684:	41578733          	sub	x14,x15,x21
    4688:	f75fe06f          	jal	x0,35fc <_vfprintf_r+0x7e8>
    468c:	0d812783          	lw	x15,216(x2)
    4690:	00100713          	addi	x14,x0,1
    4694:	00160613          	addi	x12,x12,1
    4698:	0000d517          	auipc	x10,0xd
    469c:	40850513          	addi	x10,x10,1032 # 11aa0 <__clzsi2+0x108>
    46a0:	00178793          	addi	x15,x15,1
    46a4:	00e92223          	sw	x14,4(x18)
    46a8:	00a92023          	sw	x10,0(x18)
    46ac:	0cc12e23          	sw	x12,220(x2)
    46b0:	0cf12c23          	sw	x15,216(x2)
    46b4:	00700713          	addi	x14,x0,7
    46b8:	00890913          	addi	x18,x18,8
    46bc:	5ef74463          	blt	x14,x15,4ca4 <_vfprintf_r+0x1e90>
    46c0:	14059263          	bne	x11,x0,4804 <_vfprintf_r+0x19f0>
    46c4:	02012703          	lw	x14,32(x2)
    46c8:	001c7793          	andi	x15,x24,1
    46cc:	00e7e7b3          	or	x15,x15,x14
    46d0:	00079463          	bne	x15,x0,46d8 <_vfprintf_r+0x18c4>
    46d4:	a25fe06f          	jal	x0,30f8 <_vfprintf_r+0x2e4>
    46d8:	02c12783          	lw	x15,44(x2)
    46dc:	0d812703          	lw	x14,216(x2)
    46e0:	03012683          	lw	x13,48(x2)
    46e4:	00c78633          	add	x12,x15,x12
    46e8:	00170713          	addi	x14,x14,1
    46ec:	00f92223          	sw	x15,4(x18)
    46f0:	0cc12e23          	sw	x12,220(x2)
    46f4:	00d92023          	sw	x13,0(x18)
    46f8:	0ce12c23          	sw	x14,216(x2)
    46fc:	00700793          	addi	x15,x0,7
    4700:	08e7c4e3          	blt	x15,x14,4f88 <_vfprintf_r+0x2174>
    4704:	00890913          	addi	x18,x18,8
    4708:	1300006f          	jal	x0,4838 <_vfprintf_r+0x1a24>
    470c:	00c12503          	lw	x10,12(x2)
    4710:	b44fc0ef          	jal	x1,a54 <__sinit>
    4714:	01012783          	lw	x15,16(x2)
    4718:	f58fe06f          	jal	x0,2e70 <_vfprintf_r+0x5c>
    471c:	00812583          	lw	x11,8(x2)
    4720:	00c12503          	lw	x10,12(x2)
    4724:	0d410613          	addi	x12,x2,212
    4728:	01c12e23          	sw	x28,28(x2)
    472c:	0a1010ef          	jal	x1,5fcc <__sprint_r>
    4730:	e8051a63          	bne	x10,x0,3dc4 <_vfprintf_r+0xfb0>
    4734:	0dc12603          	lw	x12,220(x2)
    4738:	01c12e03          	lw	x28,28(x2)
    473c:	00098913          	addi	x18,x19,0
    4740:	bb8ff06f          	jal	x0,3af8 <_vfprintf_r+0xce4>
    4744:	000a0e13          	addi	x28,x20,0
    4748:	000b8793          	addi	x15,x23,0
    474c:	00090a13          	addi	x20,x18,0
    4750:	00068913          	addi	x18,x13,0
    4754:	01460633          	add	x12,x12,x20
    4758:	00170713          	addi	x14,x14,1
    475c:	0cc12e23          	sw	x12,220(x2)
    4760:	0ce12c23          	sw	x14,216(x2)
    4764:	00f92023          	sw	x15,0(x18)
    4768:	01492223          	sw	x20,4(x18)
    476c:	00700793          	addi	x15,x0,7
    4770:	00e7c463          	blt	x15,x14,4778 <_vfprintf_r+0x1964>
    4774:	981fe06f          	jal	x0,30f4 <_vfprintf_r+0x2e0>
    4778:	d49fe06f          	jal	x0,34c0 <_vfprintf_r+0x6ac>
    477c:	0e012603          	lw	x12,224(x2)
    4780:	0e412683          	lw	x13,228(x2)
    4784:	0e812703          	lw	x14,232(x2)
    4788:	0ec12783          	lw	x15,236(x2)
    478c:	09010593          	addi	x11,x2,144
    4790:	0a010513          	addi	x10,x2,160
    4794:	08012823          	sw	x0,144(x2)
    4798:	08012a23          	sw	x0,148(x2)
    479c:	08012c23          	sw	x0,152(x2)
    47a0:	08012e23          	sw	x0,156(x2)
    47a4:	0ac12023          	sw	x12,160(x2)
    47a8:	0ad12223          	sw	x13,164(x2)
    47ac:	0ae12423          	sw	x14,168(x2)
    47b0:	0af12623          	sw	x15,172(x2)
    47b4:	2ac0a0ef          	jal	x1,ea60 <__letf2>
    47b8:	01412e03          	lw	x28,20(x2)
    47bc:	5a0540e3          	blt	x10,x0,555c <_vfprintf_r+0x2748>
    47c0:	0b714783          	lbu	x15,183(x2)
    47c4:	04700713          	addi	x14,x0,71
    47c8:	0000da97          	auipc	x21,0xd
    47cc:	29ca8a93          	addi	x21,x21,668 # 11a64 <__clzsi2+0xcc>
    47d0:	01674663          	blt	x14,x22,47dc <_vfprintf_r+0x19c8>
    47d4:	0000da97          	auipc	x21,0xd
    47d8:	28ca8a93          	addi	x21,x21,652 # 11a60 <__clzsi2+0xc8>
    47dc:	00300d93          	addi	x27,x0,3
    47e0:	f7fc7c13          	andi	x24,x24,-129
    47e4:	000d8713          	addi	x14,x27,0
    47e8:	d89fe06f          	jal	x0,3570 <_vfprintf_r+0x75c>
    47ec:	01812783          	lw	x15,24(x2)
    47f0:	01012683          	lw	x13,16(x2)
    47f4:	0007a783          	lw	x15,0(x15)
    47f8:	00d7a023          	sw	x13,0(x15)
    47fc:	00e12c23          	sw	x14,24(x2)
    4800:	96cff06f          	jal	x0,396c <_vfprintf_r+0xb58>
    4804:	02c12783          	lw	x15,44(x2)
    4808:	0d812703          	lw	x14,216(x2)
    480c:	03012683          	lw	x13,48(x2)
    4810:	00c78633          	add	x12,x15,x12
    4814:	00170713          	addi	x14,x14,1
    4818:	00f92223          	sw	x15,4(x18)
    481c:	00d92023          	sw	x13,0(x18)
    4820:	0cc12e23          	sw	x12,220(x2)
    4824:	0ce12c23          	sw	x14,216(x2)
    4828:	00700793          	addi	x15,x0,7
    482c:	00890913          	addi	x18,x18,8
    4830:	74e7cc63          	blt	x15,x14,4f88 <_vfprintf_r+0x2174>
    4834:	5c05cae3          	blt	x11,x0,5608 <_vfprintf_r+0x27f4>
    4838:	02012783          	lw	x15,32(x2)
    483c:	00170713          	addi	x14,x14,1
    4840:	0ce12c23          	sw	x14,216(x2)
    4844:	00c78633          	add	x12,x15,x12
    4848:	00f92223          	sw	x15,4(x18)
    484c:	0cc12e23          	sw	x12,220(x2)
    4850:	01592023          	sw	x21,0(x18)
    4854:	00700793          	addi	x15,x0,7
    4858:	00e7c463          	blt	x15,x14,4860 <_vfprintf_r+0x1a4c>
    485c:	899fe06f          	jal	x0,30f4 <_vfprintf_r+0x2e0>
    4860:	c61fe06f          	jal	x0,34c0 <_vfprintf_r+0x6ac>
    4864:	000a8513          	addi	x10,x21,0
    4868:	03c12c23          	sw	x28,56(x2)
    486c:	bc4fe0ef          	jal	x1,2c30 <strlen>
    4870:	0b714783          	lbu	x15,183(x2)
    4874:	fff54693          	xori	x13,x10,-1
    4878:	41f6d693          	srai	x13,x13,0x1f
    487c:	01712c23          	sw	x23,24(x2)
    4880:	00012a23          	sw	x0,20(x2)
    4884:	02012223          	sw	x0,36(x2)
    4888:	02012423          	sw	x0,40(x2)
    488c:	00012e23          	sw	x0,28(x2)
    4890:	03812e03          	lw	x28,56(x2)
    4894:	00050713          	addi	x14,x10,0
    4898:	00d57db3          	and	x27,x10,x13
    489c:	00000a13          	addi	x20,x0,0
    48a0:	00078463          	beq	x15,x0,48a8 <_vfprintf_r+0x1a94>
    48a4:	ce5fe06f          	jal	x0,3588 <_vfprintf_r+0x774>
    48a8:	f90fe06f          	jal	x0,3038 <_vfprintf_r+0x224>
    48ac:	000b0e13          	addi	x28,x22,0
    48b0:	000b8793          	addi	x15,x23,0
    48b4:	00068b13          	addi	x22,x13,0
    48b8:	01260633          	add	x12,x12,x18
    48bc:	001a0a13          	addi	x20,x20,1
    48c0:	0cc12e23          	sw	x12,220(x2)
    48c4:	0d412c23          	sw	x20,216(x2)
    48c8:	00fb2023          	sw	x15,0(x22)
    48cc:	012b2223          	sw	x18,4(x22)
    48d0:	00700793          	addi	x15,x0,7
    48d4:	0147c463          	blt	x15,x20,48dc <_vfprintf_r+0x1ac8>
    48d8:	bb9fe06f          	jal	x0,3490 <_vfprintf_r+0x67c>
    48dc:	8b5ff06f          	jal	x0,4190 <_vfprintf_r+0x137c>
    48e0:	200c7793          	andi	x15,x24,512
    48e4:	66078863          	beq	x15,x0,4f54 <_vfprintf_r+0x2140>
    48e8:	018d9d93          	slli	x27,x27,0x18
    48ec:	418ddd93          	srai	x27,x27,0x18
    48f0:	41fdd793          	srai	x15,x27,0x1f
    48f4:	00d12c23          	sw	x13,24(x2)
    48f8:	000c0713          	addi	x14,x24,0
    48fc:	00078693          	addi	x13,x15,0
    4900:	cd9fe06f          	jal	x0,35d8 <_vfprintf_r+0x7c4>
    4904:	200c7793          	andi	x15,x24,512
    4908:	62078663          	beq	x15,x0,4f34 <_vfprintf_r+0x2120>
    490c:	00d12c23          	sw	x13,24(x2)
    4910:	0ffdfd93          	andi	x27,x27,255
    4914:	000c0713          	addi	x14,x24,0
    4918:	00000793          	addi	x15,x0,0
    491c:	00100693          	addi	x13,x0,1
    4920:	e39fe06f          	jal	x0,3758 <_vfprintf_r+0x944>
    4924:	200c7793          	andi	x15,x24,512
    4928:	5e078e63          	beq	x15,x0,4f24 <_vfprintf_r+0x2110>
    492c:	0ffdfd93          	andi	x27,x27,255
    4930:	00d12c23          	sw	x13,24(x2)
    4934:	000c0713          	addi	x14,x24,0
    4938:	00000793          	addi	x15,x0,0
    493c:	fcdfe06f          	jal	x0,3908 <_vfprintf_r+0xaf4>
    4940:	0ec12783          	lw	x15,236(x2)
    4944:	6207cc63          	blt	x15,x0,4f7c <_vfprintf_r+0x2168>
    4948:	0b714783          	lbu	x15,183(x2)
    494c:	04700713          	addi	x14,x0,71
    4950:	0000da97          	auipc	x21,0xd
    4954:	11ca8a93          	addi	x21,x21,284 # 11a6c <__clzsi2+0xd4>
    4958:	e96742e3          	blt	x14,x22,47dc <_vfprintf_r+0x19c8>
    495c:	0000da97          	auipc	x21,0xd
    4960:	10ca8a93          	addi	x21,x21,268 # 11a68 <__clzsi2+0xd0>
    4964:	e79ff06f          	jal	x0,47dc <_vfprintf_r+0x19c8>
    4968:	000a0e13          	addi	x28,x20,0
    496c:	000b8793          	addi	x15,x23,0
    4970:	00090a13          	addi	x20,x18,0
    4974:	00068913          	addi	x18,x13,0
    4978:	01460633          	add	x12,x12,x20
    497c:	00158593          	addi	x11,x11,1
    4980:	00f92023          	sw	x15,0(x18)
    4984:	01492223          	sw	x20,4(x18)
    4988:	0cc12e23          	sw	x12,220(x2)
    498c:	0cb12c23          	sw	x11,216(x2)
    4990:	00700793          	addi	x15,x0,7
    4994:	00890913          	addi	x18,x18,8
    4998:	ecb7da63          	bge	x15,x11,406c <_vfprintf_r+0x1258>
    499c:	00812583          	lw	x11,8(x2)
    49a0:	00c12503          	lw	x10,12(x2)
    49a4:	0d410613          	addi	x12,x2,212
    49a8:	03c12c23          	sw	x28,56(x2)
    49ac:	620010ef          	jal	x1,5fcc <__sprint_r>
    49b0:	c0051a63          	bne	x10,x0,3dc4 <_vfprintf_r+0xfb0>
    49b4:	0dc12603          	lw	x12,220(x2)
    49b8:	03812e03          	lw	x28,56(x2)
    49bc:	00098913          	addi	x18,x19,0
    49c0:	eacff06f          	jal	x0,406c <_vfprintf_r+0x1258>
    49c4:	02012783          	lw	x15,32(x2)
    49c8:	05a12823          	sw	x26,80(x2)
    49cc:	02812d03          	lw	x26,40(x2)
    49d0:	05512a23          	sw	x21,84(x2)
    49d4:	03b12423          	sw	x27,40(x2)
    49d8:	03812c23          	sw	x24,56(x2)
    49dc:	05c12623          	sw	x28,76(x2)
    49e0:	00fa8bb3          	add	x23,x21,x15
    49e4:	00090513          	addi	x10,x18,0
    49e8:	04412b03          	lw	x22,68(x2)
    49ec:	04812d83          	lw	x27,72(x2)
    49f0:	02412a83          	lw	x21,36(x2)
    49f4:	00700713          	addi	x14,x0,7
    49f8:	01000793          	addi	x15,x0,16
    49fc:	0000da17          	auipc	x20,0xd
    4a00:	520a0a13          	addi	x20,x20,1312 # 11f1c <zeroes.0>
    4a04:	000e8913          	addi	x18,x29,0
    4a08:	09a05663          	bge	x0,x26,4a94 <_vfprintf_r+0x1c80>
    4a0c:	17505c63          	bge	x0,x21,4b84 <_vfprintf_r+0x1d70>
    4a10:	fffa8a93          	addi	x21,x21,-1
    4a14:	0d812683          	lw	x13,216(x2)
    4a18:	04012583          	lw	x11,64(x2)
    4a1c:	01b60633          	add	x12,x12,x27
    4a20:	00168693          	addi	x13,x13,1
    4a24:	00b52023          	sw	x11,0(x10)
    4a28:	01b52223          	sw	x27,4(x10)
    4a2c:	0cc12e23          	sw	x12,220(x2)
    4a30:	0cd12c23          	sw	x13,216(x2)
    4a34:	00850513          	addi	x10,x10,8
    4a38:	14d74c63          	blt	x14,x13,4b90 <_vfprintf_r+0x1d7c>
    4a3c:	000b4583          	lbu	x11,0(x22)
    4a40:	412b8c33          	sub	x24,x23,x18
    4a44:	0185d463          	bge	x11,x24,4a4c <_vfprintf_r+0x1c38>
    4a48:	00058c13          	addi	x24,x11,0
    4a4c:	03805663          	bge	x0,x24,4a78 <_vfprintf_r+0x1c64>
    4a50:	0d812583          	lw	x11,216(x2)
    4a54:	01860633          	add	x12,x12,x24
    4a58:	0cc12e23          	sw	x12,220(x2)
    4a5c:	00158593          	addi	x11,x11,1
    4a60:	01252023          	sw	x18,0(x10)
    4a64:	01852223          	sw	x24,4(x10)
    4a68:	0cb12c23          	sw	x11,216(x2)
    4a6c:	14b74663          	blt	x14,x11,4bb8 <_vfprintf_r+0x1da4>
    4a70:	000b4583          	lbu	x11,0(x22)
    4a74:	00850513          	addi	x10,x10,8
    4a78:	fffc4e13          	xori	x28,x24,-1
    4a7c:	41fe5e13          	srai	x28,x28,0x1f
    4a80:	01cc76b3          	and	x13,x24,x28
    4a84:	40d58c33          	sub	x24,x11,x13
    4a88:	05804263          	blt	x0,x24,4acc <_vfprintf_r+0x1cb8>
    4a8c:	00b90933          	add	x18,x18,x11
    4a90:	f7a04ee3          	blt	x0,x26,4a0c <_vfprintf_r+0x1bf8>
    4a94:	f7504ee3          	blt	x0,x21,4a10 <_vfprintf_r+0x1bfc>
    4a98:	05412a83          	lw	x21,84(x2)
    4a9c:	02012783          	lw	x15,32(x2)
    4aa0:	00090e93          	addi	x29,x18,0
    4aa4:	05612223          	sw	x22,68(x2)
    4aa8:	00fa87b3          	add	x15,x21,x15
    4aac:	03812c03          	lw	x24,56(x2)
    4ab0:	04c12e03          	lw	x28,76(x2)
    4ab4:	05012d03          	lw	x26,80(x2)
    4ab8:	02812d83          	lw	x27,40(x2)
    4abc:	00050913          	addi	x18,x10,0
    4ac0:	dbd7fe63          	bgeu	x15,x29,407c <_vfprintf_r+0x1268>
    4ac4:	00078e93          	addi	x29,x15,0
    4ac8:	db4ff06f          	jal	x0,407c <_vfprintf_r+0x1268>
    4acc:	0d812583          	lw	x11,216(x2)
    4ad0:	0000de17          	auipc	x28,0xd
    4ad4:	44ce0e13          	addi	x28,x28,1100 # 11f1c <zeroes.0>
    4ad8:	0987d063          	bge	x15,x24,4b58 <_vfprintf_r+0x1d44>
    4adc:	01212e23          	sw	x18,28(x2)
    4ae0:	000c0913          	addi	x18,x24,0
    4ae4:	000b8c13          	addi	x24,x23,0
    4ae8:	000a0b93          	addi	x23,x20,0
    4aec:	00c0006f          	jal	x0,4af8 <_vfprintf_r+0x1ce4>
    4af0:	ff090913          	addi	x18,x18,-16
    4af4:	0527da63          	bge	x15,x18,4b48 <_vfprintf_r+0x1d34>
    4af8:	01060613          	addi	x12,x12,16
    4afc:	00158593          	addi	x11,x11,1
    4b00:	01452023          	sw	x20,0(x10)
    4b04:	00f52223          	sw	x15,4(x10)
    4b08:	0cc12e23          	sw	x12,220(x2)
    4b0c:	0cb12c23          	sw	x11,216(x2)
    4b10:	00850513          	addi	x10,x10,8
    4b14:	fcb75ee3          	bge	x14,x11,4af0 <_vfprintf_r+0x1cdc>
    4b18:	00812583          	lw	x11,8(x2)
    4b1c:	00c12503          	lw	x10,12(x2)
    4b20:	0d410613          	addi	x12,x2,212
    4b24:	4a8010ef          	jal	x1,5fcc <__sprint_r>
    4b28:	a8051e63          	bne	x10,x0,3dc4 <_vfprintf_r+0xfb0>
    4b2c:	01000793          	addi	x15,x0,16
    4b30:	ff090913          	addi	x18,x18,-16
    4b34:	0dc12603          	lw	x12,220(x2)
    4b38:	0d812583          	lw	x11,216(x2)
    4b3c:	00098513          	addi	x10,x19,0
    4b40:	00700713          	addi	x14,x0,7
    4b44:	fb27cae3          	blt	x15,x18,4af8 <_vfprintf_r+0x1ce4>
    4b48:	000b8e13          	addi	x28,x23,0
    4b4c:	000c0b93          	addi	x23,x24,0
    4b50:	00090c13          	addi	x24,x18,0
    4b54:	01c12903          	lw	x18,28(x2)
    4b58:	01860633          	add	x12,x12,x24
    4b5c:	00158593          	addi	x11,x11,1
    4b60:	0cc12e23          	sw	x12,220(x2)
    4b64:	0cb12c23          	sw	x11,216(x2)
    4b68:	01c52023          	sw	x28,0(x10)
    4b6c:	01852223          	sw	x24,4(x10)
    4b70:	1ab748e3          	blt	x14,x11,5520 <_vfprintf_r+0x270c>
    4b74:	000b4583          	lbu	x11,0(x22)
    4b78:	00850513          	addi	x10,x10,8
    4b7c:	00b90933          	add	x18,x18,x11
    4b80:	f11ff06f          	jal	x0,4a90 <_vfprintf_r+0x1c7c>
    4b84:	fffb0b13          	addi	x22,x22,-1
    4b88:	fffd0d13          	addi	x26,x26,-1
    4b8c:	e89ff06f          	jal	x0,4a14 <_vfprintf_r+0x1c00>
    4b90:	00812583          	lw	x11,8(x2)
    4b94:	00c12503          	lw	x10,12(x2)
    4b98:	0d410613          	addi	x12,x2,212
    4b9c:	430010ef          	jal	x1,5fcc <__sprint_r>
    4ba0:	a2051263          	bne	x10,x0,3dc4 <_vfprintf_r+0xfb0>
    4ba4:	0dc12603          	lw	x12,220(x2)
    4ba8:	00098513          	addi	x10,x19,0
    4bac:	01000793          	addi	x15,x0,16
    4bb0:	00700713          	addi	x14,x0,7
    4bb4:	e89ff06f          	jal	x0,4a3c <_vfprintf_r+0x1c28>
    4bb8:	00812583          	lw	x11,8(x2)
    4bbc:	00c12503          	lw	x10,12(x2)
    4bc0:	0d410613          	addi	x12,x2,212
    4bc4:	408010ef          	jal	x1,5fcc <__sprint_r>
    4bc8:	9e051e63          	bne	x10,x0,3dc4 <_vfprintf_r+0xfb0>
    4bcc:	000b4583          	lbu	x11,0(x22)
    4bd0:	0dc12603          	lw	x12,220(x2)
    4bd4:	00098513          	addi	x10,x19,0
    4bd8:	01000793          	addi	x15,x0,16
    4bdc:	00700713          	addi	x14,x0,7
    4be0:	e99ff06f          	jal	x0,4a78 <_vfprintf_r+0x1c64>
    4be4:	04812603          	lw	x12,72(x2)
    4be8:	04012583          	lw	x11,64(x2)
    4bec:	02f12423          	sw	x15,40(x2)
    4bf0:	40c888b3          	sub	x17,x17,x12
    4bf4:	00088513          	addi	x10,x17,0
    4bf8:	03e12223          	sw	x30,36(x2)
    4bfc:	02e12023          	sw	x14,32(x2)
    4c00:	01c12e23          	sw	x28,28(x2)
    4c04:	01112a23          	sw	x17,20(x2)
    4c08:	369040ef          	jal	x1,9770 <strncpy>
    4c0c:	01bbb6b3          	sltu	x13,x23,x27
    4c10:	00500613          	addi	x12,x0,5
    4c14:	00db86b3          	add	x13,x23,x13
    4c18:	02c6f6b3          	remu	x13,x13,x12
    4c1c:	001ac583          	lbu	x11,1(x21)
    4c20:	02812783          	lw	x15,40(x2)
    4c24:	ccccd537          	lui	x10,0xccccd
    4c28:	00b035b3          	sltu	x11,x0,x11
    4c2c:	00050f93          	addi	x31,x10,0 # ccccd000 <__heap_end+0xcc8cd000>
    4c30:	00ba8ab3          	add	x21,x21,x11
    4c34:	ccd50513          	addi	x10,x10,-819
    4c38:	cccf8f93          	addi	x31,x31,-820
    4c3c:	01412883          	lw	x17,20(x2)
    4c40:	01c12e03          	lw	x28,28(x2)
    4c44:	02012703          	lw	x14,32(x2)
    4c48:	02412f03          	lw	x30,36(x2)
    4c4c:	00000613          	addi	x12,x0,0
    4c50:	00500313          	addi	x6,x0,5
    4c54:	00050813          	addi	x16,x10,0
    4c58:	40dd86b3          	sub	x13,x27,x13
    4c5c:	00ddb5b3          	sltu	x11,x27,x13
    4c60:	40b785b3          	sub	x11,x15,x11
    4c64:	02a585b3          	mul	x11,x11,x10
    4c68:	03f687b3          	mul	x15,x13,x31
    4c6c:	02a6bfb3          	mulhu	x31,x13,x10
    4c70:	00f585b3          	add	x11,x11,x15
    4c74:	02a687b3          	mul	x15,x13,x10
    4c78:	01f585b3          	add	x11,x11,x31
    4c7c:	01f59693          	slli	x13,x11,0x1f
    4c80:	0015d593          	srli	x11,x11,0x1
    4c84:	0017d793          	srli	x15,x15,0x1
    4c88:	00f6e6b3          	or	x13,x13,x15
    4c8c:	ccccd7b7          	lui	x15,0xccccd
    4c90:	ccc78e93          	addi	x29,x15,-820 # cccccccc <__heap_end+0xcc8ccccc>
    4c94:	95dff06f          	jal	x0,45f0 <_vfprintf_r+0x17dc>
    4c98:	00900793          	addi	x15,x0,9
    4c9c:	95b7eae3          	bltu	x15,x27,45f0 <_vfprintf_r+0x17dc>
    4ca0:	9d1ff06f          	jal	x0,4670 <_vfprintf_r+0x185c>
    4ca4:	00812583          	lw	x11,8(x2)
    4ca8:	00c12503          	lw	x10,12(x2)
    4cac:	0d410613          	addi	x12,x2,212
    4cb0:	01c12e23          	sw	x28,28(x2)
    4cb4:	318010ef          	jal	x1,5fcc <__sprint_r>
    4cb8:	90051663          	bne	x10,x0,3dc4 <_vfprintf_r+0xfb0>
    4cbc:	0bc12583          	lw	x11,188(x2)
    4cc0:	0dc12603          	lw	x12,220(x2)
    4cc4:	01c12e03          	lw	x28,28(x2)
    4cc8:	00098913          	addi	x18,x19,0
    4ccc:	9f5ff06f          	jal	x0,46c0 <_vfprintf_r+0x18ac>
    4cd0:	00c12503          	lw	x10,12(x2)
    4cd4:	0a010793          	addi	x15,x2,160
    4cd8:	00f12e23          	sw	x15,28(x2)
    4cdc:	00078593          	addi	x11,x15,0
    4ce0:	0cc10813          	addi	x16,x2,204
    4ce4:	0c010793          	addi	x15,x2,192
    4ce8:	0bc10713          	addi	x14,x2,188
    4cec:	000a0693          	addi	x13,x20,0
    4cf0:	00200613          	addi	x12,x0,2
    4cf4:	05c12823          	sw	x28,80(x2)
    4cf8:	0a512023          	sw	x5,160(x2)
    4cfc:	04512623          	sw	x5,76(x2)
    4d00:	0bf12223          	sw	x31,164(x2)
    4d04:	03f12423          	sw	x31,40(x2)
    4d08:	0be12423          	sw	x30,168(x2)
    4d0c:	03e12223          	sw	x30,36(x2)
    4d10:	0bd12623          	sw	x29,172(x2)
    4d14:	03d12023          	sw	x29,32(x2)
    4d18:	599000ef          	jal	x1,5ab0 <_ldtoa_r>
    4d1c:	001c7793          	andi	x15,x24,1
    4d20:	02012e83          	lw	x29,32(x2)
    4d24:	02412f03          	lw	x30,36(x2)
    4d28:	02812f83          	lw	x31,40(x2)
    4d2c:	04c12283          	lw	x5,76(x2)
    4d30:	05012e03          	lw	x28,80(x2)
    4d34:	00050a93          	addi	x21,x10,0
    4d38:	74078663          	beq	x15,x0,5484 <_vfprintf_r+0x2670>
    4d3c:	014507b3          	add	x15,x10,x20
    4d40:	04700713          	addi	x14,x0,71
    4d44:	09010593          	addi	x11,x2,144
    4d48:	01c12503          	lw	x10,28(x2)
    4d4c:	02e12423          	sw	x14,40(x2)
    4d50:	02f12223          	sw	x15,36(x2)
    4d54:	03c12023          	sw	x28,32(x2)
    4d58:	0a512023          	sw	x5,160(x2)
    4d5c:	0bf12223          	sw	x31,164(x2)
    4d60:	0be12423          	sw	x30,168(x2)
    4d64:	0bd12623          	sw	x29,172(x2)
    4d68:	08012823          	sw	x0,144(x2)
    4d6c:	08012a23          	sw	x0,148(x2)
    4d70:	08012c23          	sw	x0,152(x2)
    4d74:	08012e23          	sw	x0,156(x2)
    4d78:	2b5090ef          	jal	x1,e82c <__eqtf2>
    4d7c:	02012e03          	lw	x28,32(x2)
    4d80:	02412783          	lw	x15,36(x2)
    4d84:	02812703          	lw	x14,40(x2)
    4d88:	020502e3          	beq	x10,x0,55ac <_vfprintf_r+0x2798>
    4d8c:	0cc12683          	lw	x13,204(x2)
    4d90:	00f6fe63          	bgeu	x13,x15,4dac <_vfprintf_r+0x1f98>
    4d94:	03000593          	addi	x11,x0,48
    4d98:	00168613          	addi	x12,x13,1
    4d9c:	0cc12623          	sw	x12,204(x2)
    4da0:	00b68023          	sb	x11,0(x13)
    4da4:	0cc12683          	lw	x13,204(x2)
    4da8:	fef6e8e3          	bltu	x13,x15,4d98 <_vfprintf_r+0x1f84>
    4dac:	0bc12783          	lw	x15,188(x2)
    4db0:	00f12e23          	sw	x15,28(x2)
    4db4:	415686b3          	sub	x13,x13,x21
    4db8:	04700793          	addi	x15,x0,71
    4dbc:	02d12023          	sw	x13,32(x2)
    4dc0:	6cf70c63          	beq	x14,x15,5498 <_vfprintf_r+0x2684>
    4dc4:	04600793          	addi	x15,x0,70
    4dc8:	16f70ee3          	beq	x14,x15,5744 <_vfprintf_r+0x2930>
    4dcc:	01c12783          	lw	x15,28(x2)
    4dd0:	fff78793          	addi	x15,x15,-1
    4dd4:	0af12e23          	sw	x15,188(x2)
    4dd8:	0ffb7713          	andi	x14,x22,255
    4ddc:	00000693          	addi	x13,x0,0
    4de0:	0ce10223          	sb	x14,196(x2)
    4de4:	02b00713          	addi	x14,x0,43
    4de8:	0007da63          	bge	x15,x0,4dfc <_vfprintf_r+0x1fe8>
    4dec:	01c12703          	lw	x14,28(x2)
    4df0:	00100793          	addi	x15,x0,1
    4df4:	40e787b3          	sub	x15,x15,x14
    4df8:	02d00713          	addi	x14,x0,45
    4dfc:	0ce102a3          	sb	x14,197(x2)
    4e00:	00900713          	addi	x14,x0,9
    4e04:	16f758e3          	bge	x14,x15,5774 <_vfprintf_r+0x2960>
    4e08:	0d310513          	addi	x10,x2,211
    4e0c:	00050613          	addi	x12,x10,0
    4e10:	00a00593          	addi	x11,x0,10
    4e14:	06300e93          	addi	x29,x0,99
    4e18:	02b7e733          	rem	x14,x15,x11
    4e1c:	00060693          	addi	x13,x12,0
    4e20:	00078813          	addi	x16,x15,0
    4e24:	fff60613          	addi	x12,x12,-1
    4e28:	03070713          	addi	x14,x14,48
    4e2c:	fee68fa3          	sb	x14,-1(x13)
    4e30:	02b7c7b3          	div	x15,x15,x11
    4e34:	ff0ec2e3          	blt	x29,x16,4e18 <_vfprintf_r+0x2004>
    4e38:	03078793          	addi	x15,x15,48
    4e3c:	fef60fa3          	sb	x15,-1(x12)
    4e40:	ffe68793          	addi	x15,x13,-2
    4e44:	34a7f8e3          	bgeu	x15,x10,5994 <_vfprintf_r+0x2b80>
    4e48:	0c610713          	addi	x14,x2,198
    4e4c:	0007c603          	lbu	x12,0(x15)
    4e50:	00178793          	addi	x15,x15,1
    4e54:	00170713          	addi	x14,x14,1
    4e58:	fec70fa3          	sb	x12,-1(x14)
    4e5c:	fea798e3          	bne	x15,x10,4e4c <_vfprintf_r+0x2038>
    4e60:	1a010793          	addi	x15,x2,416
    4e64:	40d786b3          	sub	x13,x15,x13
    4e68:	f3768793          	addi	x15,x13,-201
    4e6c:	02f12e23          	sw	x15,60(x2)
    4e70:	02012683          	lw	x13,32(x2)
    4e74:	03c12703          	lw	x14,60(x2)
    4e78:	00100793          	addi	x15,x0,1
    4e7c:	00e68733          	add	x14,x13,x14
    4e80:	12d7dce3          	bge	x15,x13,57b8 <_vfprintf_r+0x29a4>
    4e84:	02c12783          	lw	x15,44(x2)
    4e88:	00f70733          	add	x14,x14,x15
    4e8c:	fff74693          	xori	x13,x14,-1
    4e90:	bffc7313          	andi	x6,x24,-1025
    4e94:	41f6d693          	srai	x13,x13,0x1f
    4e98:	10036793          	ori	x15,x6,256
    4e9c:	00078b93          	addi	x23,x15,0
    4ea0:	00d77db3          	and	x27,x14,x13
    4ea4:	02012223          	sw	x0,36(x2)
    4ea8:	02012423          	sw	x0,40(x2)
    4eac:	00012e23          	sw	x0,28(x2)
    4eb0:	03812783          	lw	x15,56(x2)
    4eb4:	60078263          	beq	x15,x0,54b8 <_vfprintf_r+0x26a4>
    4eb8:	02d00793          	addi	x15,x0,45
    4ebc:	000b8c13          	addi	x24,x23,0
    4ec0:	0af10ba3          	sb	x15,183(x2)
    4ec4:	00000a13          	addi	x20,x0,0
    4ec8:	001d8d93          	addi	x27,x27,1
    4ecc:	96cfe06f          	jal	x0,3038 <_vfprintf_r+0x224>
    4ed0:	00812583          	lw	x11,8(x2)
    4ed4:	00c12503          	lw	x10,12(x2)
    4ed8:	0d410613          	addi	x12,x2,212
    4edc:	03c12c23          	sw	x28,56(x2)
    4ee0:	0ec010ef          	jal	x1,5fcc <__sprint_r>
    4ee4:	00050463          	beq	x10,x0,4eec <_vfprintf_r+0x20d8>
    4ee8:	eddfe06f          	jal	x0,3dc4 <_vfprintf_r+0xfb0>
    4eec:	0dc12603          	lw	x12,220(x2)
    4ef0:	03812e03          	lw	x28,56(x2)
    4ef4:	00098913          	addi	x18,x19,0
    4ef8:	95cff06f          	jal	x0,4054 <_vfprintf_r+0x1240>
    4efc:	00078713          	addi	x14,x15,0
    4f00:	cecff06f          	jal	x0,43ec <_vfprintf_r+0x15d8>
    4f04:	000c0713          	addi	x14,x24,0
    4f08:	92dfe06f          	jal	x0,3834 <_vfprintf_r+0xa20>
    4f0c:	01812783          	lw	x15,24(x2)
    4f10:	01012683          	lw	x13,16(x2)
    4f14:	00e12c23          	sw	x14,24(x2)
    4f18:	0007a783          	lw	x15,0(x15)
    4f1c:	00d79023          	sh	x13,0(x15)
    4f20:	a4dfe06f          	jal	x0,396c <_vfprintf_r+0xb58>
    4f24:	00d12c23          	sw	x13,24(x2)
    4f28:	000c0713          	addi	x14,x24,0
    4f2c:	00000793          	addi	x15,x0,0
    4f30:	9d9fe06f          	jal	x0,3908 <_vfprintf_r+0xaf4>
    4f34:	00d12c23          	sw	x13,24(x2)
    4f38:	000c0713          	addi	x14,x24,0
    4f3c:	00000793          	addi	x15,x0,0
    4f40:	00100693          	addi	x13,x0,1
    4f44:	815fe06f          	jal	x0,3758 <_vfprintf_r+0x944>
    4f48:	0ffdfd93          	andi	x27,x27,255
    4f4c:	00000793          	addi	x15,x0,0
    4f50:	c08ff06f          	jal	x0,4358 <_vfprintf_r+0x1544>
    4f54:	41fdd793          	srai	x15,x27,0x1f
    4f58:	00d12c23          	sw	x13,24(x2)
    4f5c:	000c0713          	addi	x14,x24,0
    4f60:	00078693          	addi	x13,x15,0
    4f64:	e74fe06f          	jal	x0,35d8 <_vfprintf_r+0x7c4>
    4f68:	00c12503          	lw	x10,12(x2)
    4f6c:	00812583          	lw	x11,8(x2)
    4f70:	0d410613          	addi	x12,x2,212
    4f74:	058010ef          	jal	x1,5fcc <__sprint_r>
    4f78:	9e8fe06f          	jal	x0,3160 <_vfprintf_r+0x34c>
    4f7c:	02d00793          	addi	x15,x0,45
    4f80:	0af10ba3          	sb	x15,183(x2)
    4f84:	9c9ff06f          	jal	x0,494c <_vfprintf_r+0x1b38>
    4f88:	00812583          	lw	x11,8(x2)
    4f8c:	00c12503          	lw	x10,12(x2)
    4f90:	0d410613          	addi	x12,x2,212
    4f94:	01c12e23          	sw	x28,28(x2)
    4f98:	034010ef          	jal	x1,5fcc <__sprint_r>
    4f9c:	00050463          	beq	x10,x0,4fa4 <_vfprintf_r+0x2190>
    4fa0:	e25fe06f          	jal	x0,3dc4 <_vfprintf_r+0xfb0>
    4fa4:	0bc12583          	lw	x11,188(x2)
    4fa8:	0dc12603          	lw	x12,220(x2)
    4fac:	0d812703          	lw	x14,216(x2)
    4fb0:	01c12e03          	lw	x28,28(x2)
    4fb4:	00098913          	addi	x18,x19,0
    4fb8:	87dff06f          	jal	x0,4834 <_vfprintf_r+0x1a20>
    4fbc:	05800793          	addi	x15,x0,88
    4fc0:	03000713          	addi	x14,x0,48
    4fc4:	0af10ca3          	sb	x15,185(x2)
    4fc8:	0ae10c23          	sb	x14,184(x2)
    4fcc:	06300793          	addi	x15,x0,99
    4fd0:	00012a23          	sw	x0,20(x2)
    4fd4:	002c6c13          	ori	x24,x24,2
    4fd8:	13c10a93          	addi	x21,x2,316
    4fdc:	0147c463          	blt	x15,x20,4fe4 <_vfprintf_r+0x21d0>
    4fe0:	b2cfe06f          	jal	x0,330c <_vfprintf_r+0x4f8>
    4fe4:	00c12503          	lw	x10,12(x2)
    4fe8:	001a0593          	addi	x11,x20,1
    4fec:	01c12a23          	sw	x28,20(x2)
    4ff0:	8d0fc0ef          	jal	x1,10c0 <_malloc_r>
    4ff4:	01412e03          	lw	x28,20(x2)
    4ff8:	00050a93          	addi	x21,x10,0
    4ffc:	1a050ee3          	beq	x10,x0,59b8 <_vfprintf_r+0x2ba4>
    5000:	00a12a23          	sw	x10,20(x2)
    5004:	b08fe06f          	jal	x0,330c <_vfprintf_r+0x4f8>
    5008:	001a0693          	addi	x13,x20,1
    500c:	00200613          	addi	x12,x0,2
    5010:	00c12503          	lw	x10,12(x2)
    5014:	0a010793          	addi	x15,x2,160
    5018:	00f12e23          	sw	x15,28(x2)
    501c:	00078593          	addi	x11,x15,0
    5020:	0bc10713          	addi	x14,x2,188
    5024:	0c010793          	addi	x15,x2,192
    5028:	0cc10813          	addi	x16,x2,204
    502c:	05c12a23          	sw	x28,84(x2)
    5030:	04d12823          	sw	x13,80(x2)
    5034:	0a512023          	sw	x5,160(x2)
    5038:	04512623          	sw	x5,76(x2)
    503c:	0bf12223          	sw	x31,164(x2)
    5040:	03f12423          	sw	x31,40(x2)
    5044:	0be12423          	sw	x30,168(x2)
    5048:	03e12223          	sw	x30,36(x2)
    504c:	0bd12623          	sw	x29,172(x2)
    5050:	03d12023          	sw	x29,32(x2)
    5054:	25d000ef          	jal	x1,5ab0 <_ldtoa_r>
    5058:	05012683          	lw	x13,80(x2)
    505c:	fdfb7713          	andi	x14,x22,-33
    5060:	04600613          	addi	x12,x0,70
    5064:	02012e83          	lw	x29,32(x2)
    5068:	02412f03          	lw	x30,36(x2)
    506c:	02812f83          	lw	x31,40(x2)
    5070:	04c12283          	lw	x5,76(x2)
    5074:	05412e03          	lw	x28,84(x2)
    5078:	00050a93          	addi	x21,x10,0
    507c:	00d507b3          	add	x15,x10,x13
    5080:	4ec70463          	beq	x14,x12,5568 <_vfprintf_r+0x2754>
    5084:	04500713          	addi	x14,x0,69
    5088:	09010593          	addi	x11,x2,144
    508c:	cbdff06f          	jal	x0,4d48 <_vfprintf_r+0x1f34>
    5090:	0a010793          	addi	x15,x2,160
    5094:	09010593          	addi	x11,x2,144
    5098:	00078513          	addi	x10,x15,0
    509c:	0bc10613          	addi	x12,x2,188
    50a0:	05c12823          	sw	x28,80(x2)
    50a4:	00078b93          	addi	x23,x15,0
    50a8:	08512823          	sw	x5,144(x2)
    50ac:	09f12a23          	sw	x31,148(x2)
    50b0:	00f12e23          	sw	x15,28(x2)
    50b4:	02b12023          	sw	x11,32(x2)
    50b8:	09e12c23          	sw	x30,152(x2)
    50bc:	09d12e23          	sw	x29,156(x2)
    50c0:	73d040ef          	jal	x1,9ffc <frexpl>
    50c4:	0000d797          	auipc	x15,0xd
    50c8:	e6c78793          	addi	x15,x15,-404 # 11f30 <zeroes.0+0x14>
    50cc:	0007a603          	lw	x12,0(x15)
    50d0:	0ac12503          	lw	x10,172(x2)
    50d4:	0047a683          	lw	x13,4(x15)
    50d8:	0087a703          	lw	x14,8(x15)
    50dc:	0a012f03          	lw	x30,160(x2)
    50e0:	0a412e83          	lw	x29,164(x2)
    50e4:	0a812803          	lw	x16,168(x2)
    50e8:	00c7a783          	lw	x15,12(x15)
    50ec:	02012583          	lw	x11,32(x2)
    50f0:	08a12e23          	sw	x10,156(x2)
    50f4:	08c12023          	sw	x12,128(x2)
    50f8:	000b8513          	addi	x10,x23,0
    50fc:	08010613          	addi	x12,x2,128
    5100:	09e12823          	sw	x30,144(x2)
    5104:	09d12a23          	sw	x29,148(x2)
    5108:	09012c23          	sw	x16,152(x2)
    510c:	08d12223          	sw	x13,132(x2)
    5110:	08e12423          	sw	x14,136(x2)
    5114:	08f12623          	sw	x15,140(x2)
    5118:	2ad090ef          	jal	x1,ebc4 <__multf3>
    511c:	02012583          	lw	x11,32(x2)
    5120:	0a012e83          	lw	x29,160(x2)
    5124:	0a412803          	lw	x16,164(x2)
    5128:	0a812603          	lw	x12,168(x2)
    512c:	0ac12683          	lw	x13,172(x2)
    5130:	000b8513          	addi	x10,x23,0
    5134:	04b12623          	sw	x11,76(x2)
    5138:	03d12e23          	sw	x29,60(x2)
    513c:	03012423          	sw	x16,40(x2)
    5140:	02c12223          	sw	x12,36(x2)
    5144:	02d12023          	sw	x13,32(x2)
    5148:	08012823          	sw	x0,144(x2)
    514c:	08012a23          	sw	x0,148(x2)
    5150:	08012c23          	sw	x0,152(x2)
    5154:	08012e23          	sw	x0,156(x2)
    5158:	6d4090ef          	jal	x1,e82c <__eqtf2>
    515c:	02012683          	lw	x13,32(x2)
    5160:	02412603          	lw	x12,36(x2)
    5164:	02812803          	lw	x16,40(x2)
    5168:	03c12e83          	lw	x29,60(x2)
    516c:	04c12583          	lw	x11,76(x2)
    5170:	05012e03          	lw	x28,80(x2)
    5174:	00051663          	bne	x10,x0,5180 <_vfprintf_r+0x236c>
    5178:	00100793          	addi	x15,x0,1
    517c:	0af12e23          	sw	x15,188(x2)
    5180:	0000d717          	auipc	x14,0xd
    5184:	90470713          	addi	x14,x14,-1788 # 11a84 <__clzsi2+0xec>
    5188:	06100793          	addi	x15,x0,97
    518c:	02e12023          	sw	x14,32(x2)
    5190:	00fb1863          	bne	x22,x15,51a0 <_vfprintf_r+0x238c>
    5194:	0000d797          	auipc	x15,0xd
    5198:	8dc78793          	addi	x15,x15,-1828 # 11a70 <__clzsi2+0xd8>
    519c:	02f12023          	sw	x15,32(x2)
    51a0:	0000d797          	auipc	x15,0xd
    51a4:	da078793          	addi	x15,x15,-608 # 11f40 <zeroes.0+0x24>
    51a8:	0007a703          	lw	x14,0(x15)
    51ac:	05812823          	sw	x24,80(x2)
    51b0:	05612a23          	sw	x22,84(x2)
    51b4:	02e12223          	sw	x14,36(x2)
    51b8:	0047a703          	lw	x14,4(x15)
    51bc:	05a12e23          	sw	x26,92(x2)
    51c0:	07212023          	sw	x18,96(x2)
    51c4:	02e12423          	sw	x14,40(x2)
    51c8:	0087a703          	lw	x14,8(x15)
    51cc:	00c7a783          	lw	x15,12(x15)
    51d0:	fffa0a13          	addi	x20,x20,-1
    51d4:	02e12e23          	sw	x14,60(x2)
    51d8:	04f12623          	sw	x15,76(x2)
    51dc:	05c12c23          	sw	x28,88(x2)
    51e0:	07512223          	sw	x21,100(x2)
    51e4:	000e8b13          	addi	x22,x29,0
    51e8:	00080c13          	addi	x24,x16,0
    51ec:	00060d13          	addi	x26,x12,0
    51f0:	00068d93          	addi	x27,x13,0
    51f4:	00058913          	addi	x18,x11,0
    51f8:	03c0006f          	jal	x0,5234 <_vfprintf_r+0x2420>
    51fc:	01c12503          	lw	x10,28(x2)
    5200:	00090593          	addi	x11,x18,0
    5204:	0b612023          	sw	x22,160(x2)
    5208:	0b812223          	sw	x24,164(x2)
    520c:	0ba12423          	sw	x26,168(x2)
    5210:	0bb12623          	sw	x27,172(x2)
    5214:	08012823          	sw	x0,144(x2)
    5218:	08012a23          	sw	x0,148(x2)
    521c:	08012c23          	sw	x0,152(x2)
    5220:	08012e23          	sw	x0,156(x2)
    5224:	00fa0bb3          	add	x23,x20,x15
    5228:	604090ef          	jal	x1,e82c <__eqtf2>
    522c:	68050463          	beq	x10,x0,58b4 <_vfprintf_r+0x2aa0>
    5230:	000b8a13          	addi	x20,x23,0
    5234:	02412783          	lw	x15,36(x2)
    5238:	09612823          	sw	x22,144(x2)
    523c:	01c12b03          	lw	x22,28(x2)
    5240:	08f12023          	sw	x15,128(x2)
    5244:	02812783          	lw	x15,40(x2)
    5248:	08010613          	addi	x12,x2,128
    524c:	00090593          	addi	x11,x18,0
    5250:	08f12223          	sw	x15,132(x2)
    5254:	03c12783          	lw	x15,60(x2)
    5258:	000b0513          	addi	x10,x22,0
    525c:	09812a23          	sw	x24,148(x2)
    5260:	08f12423          	sw	x15,136(x2)
    5264:	04c12783          	lw	x15,76(x2)
    5268:	09a12c23          	sw	x26,152(x2)
    526c:	09b12e23          	sw	x27,156(x2)
    5270:	08f12623          	sw	x15,140(x2)
    5274:	151090ef          	jal	x1,ebc4 <__multf3>
    5278:	000b0513          	addi	x10,x22,0
    527c:	01612e23          	sw	x22,28(x2)
    5280:	26c0c0ef          	jal	x1,114ec <__fixtfsi>
    5284:	00050b93          	addi	x23,x10,0
    5288:	01c12503          	lw	x10,28(x2)
    528c:	000b8593          	addi	x11,x23,0
    5290:	0a012d83          	lw	x27,160(x2)
    5294:	0a412d03          	lw	x26,164(x2)
    5298:	0a812c03          	lw	x24,168(x2)
    529c:	0ac12b03          	lw	x22,172(x2)
    52a0:	3500c0ef          	jal	x1,115f0 <__floatsitf>
    52a4:	0a012503          	lw	x10,160(x2)
    52a8:	0a412583          	lw	x11,164(x2)
    52ac:	0a812603          	lw	x12,168(x2)
    52b0:	0ac12683          	lw	x13,172(x2)
    52b4:	06a12823          	sw	x10,112(x2)
    52b8:	06b12a23          	sw	x11,116(x2)
    52bc:	06c12c23          	sw	x12,120(x2)
    52c0:	08010593          	addi	x11,x2,128
    52c4:	07010613          	addi	x12,x2,112
    52c8:	00090513          	addi	x10,x18,0
    52cc:	09b12023          	sw	x27,128(x2)
    52d0:	09a12223          	sw	x26,132(x2)
    52d4:	09812423          	sw	x24,136(x2)
    52d8:	09612623          	sw	x22,140(x2)
    52dc:	06d12e23          	sw	x13,124(x2)
    52e0:	2290a0ef          	jal	x1,fd08 <__subtf3>
    52e4:	02012783          	lw	x15,32(x2)
    52e8:	000a8f13          	addi	x30,x21,0
    52ec:	001a8a93          	addi	x21,x21,1
    52f0:	017786b3          	add	x13,x15,x23
    52f4:	0006c583          	lbu	x11,0(x13)
    52f8:	09012b03          	lw	x22,144(x2)
    52fc:	09412c03          	lw	x24,148(x2)
    5300:	09812d03          	lw	x26,152(x2)
    5304:	09c12d83          	lw	x27,156(x2)
    5308:	fff00793          	addi	x15,x0,-1
    530c:	feba8fa3          	sb	x11,-1(x21)
    5310:	eefa16e3          	bne	x20,x15,51fc <_vfprintf_r+0x23e8>
    5314:	0000d517          	auipc	x10,0xd
    5318:	c3c50513          	addi	x10,x10,-964 # 11f50 <zeroes.0+0x34>
    531c:	07712423          	sw	x23,104(x2)
    5320:	01c12b83          	lw	x23,28(x2)
    5324:	05812e03          	lw	x28,88(x2)
    5328:	00452f83          	lw	x31,4(x10)
    532c:	00852283          	lw	x5,8(x10)
    5330:	00c52383          	lw	x7,12(x10)
    5334:	00052a03          	lw	x20,0(x10)
    5338:	000b0e93          	addi	x29,x22,0
    533c:	000c0813          	addi	x16,x24,0
    5340:	000d0613          	addi	x12,x26,0
    5344:	000d8693          	addi	x13,x27,0
    5348:	00090593          	addi	x11,x18,0
    534c:	000b8513          	addi	x10,x23,0
    5350:	05412b03          	lw	x22,84(x2)
    5354:	05012c03          	lw	x24,80(x2)
    5358:	05c12d03          	lw	x26,92(x2)
    535c:	06012903          	lw	x18,96(x2)
    5360:	07c12623          	sw	x28,108(x2)
    5364:	03e12223          	sw	x30,36(x2)
    5368:	000a8d93          	addi	x27,x21,0
    536c:	0bd12023          	sw	x29,160(x2)
    5370:	06412a83          	lw	x21,100(x2)
    5374:	07d12023          	sw	x29,96(x2)
    5378:	0b012223          	sw	x16,164(x2)
    537c:	05012e23          	sw	x16,92(x2)
    5380:	0ac12423          	sw	x12,168(x2)
    5384:	04c12c23          	sw	x12,88(x2)
    5388:	0ad12623          	sw	x13,172(x2)
    538c:	04d12a23          	sw	x13,84(x2)
    5390:	09412823          	sw	x20,144(x2)
    5394:	09f12a23          	sw	x31,148(x2)
    5398:	05f12823          	sw	x31,80(x2)
    539c:	08512c23          	sw	x5,152(x2)
    53a0:	04512623          	sw	x5,76(x2)
    53a4:	08712e23          	sw	x7,156(x2)
    53a8:	02712e23          	sw	x7,60(x2)
    53ac:	02b12423          	sw	x11,40(x2)
    53b0:	54c090ef          	jal	x1,e8fc <__getf2>
    53b4:	02412f03          	lw	x30,36(x2)
    53b8:	06c12e03          	lw	x28,108(x2)
    53bc:	02a04663          	blt	x0,x10,53e8 <_vfprintf_r+0x25d4>
    53c0:	02812583          	lw	x11,40(x2)
    53c4:	000b8513          	addi	x10,x23,0
    53c8:	01c12e23          	sw	x28,28(x2)
    53cc:	460090ef          	jal	x1,e82c <__eqtf2>
    53d0:	01c12e03          	lw	x28,28(x2)
    53d4:	04051e63          	bne	x10,x0,5430 <_vfprintf_r+0x261c>
    53d8:	06812783          	lw	x15,104(x2)
    53dc:	02412f03          	lw	x30,36(x2)
    53e0:	0017f713          	andi	x14,x15,1
    53e4:	04070663          	beq	x14,x0,5430 <_vfprintf_r+0x261c>
    53e8:	02012783          	lw	x15,32(x2)
    53ec:	0de12623          	sw	x30,204(x2)
    53f0:	fffdc683          	lbu	x13,-1(x27)
    53f4:	00f7c603          	lbu	x12,15(x15)
    53f8:	000d8713          	addi	x14,x27,0
    53fc:	02d61063          	bne	x12,x13,541c <_vfprintf_r+0x2608>
    5400:	03000593          	addi	x11,x0,48
    5404:	feb70fa3          	sb	x11,-1(x14)
    5408:	0cc12703          	lw	x14,204(x2)
    540c:	fff70793          	addi	x15,x14,-1
    5410:	0cf12623          	sw	x15,204(x2)
    5414:	fff74683          	lbu	x13,-1(x14)
    5418:	fed606e3          	beq	x12,x13,5404 <_vfprintf_r+0x25f0>
    541c:	00168613          	addi	x12,x13,1
    5420:	03900593          	addi	x11,x0,57
    5424:	0ff67613          	andi	x12,x12,255
    5428:	04b68663          	beq	x13,x11,5474 <_vfprintf_r+0x2660>
    542c:	fec70fa3          	sb	x12,-1(x14)
    5430:	000d8713          	addi	x14,x27,0
    5434:	0bc12783          	lw	x15,188(x2)
    5438:	41570733          	sub	x14,x14,x21
    543c:	02e12023          	sw	x14,32(x2)
    5440:	00f12e23          	sw	x15,28(x2)
    5444:	fff78793          	addi	x15,x15,-1
    5448:	06100693          	addi	x13,x0,97
    544c:	0af12e23          	sw	x15,188(x2)
    5450:	07000713          	addi	x14,x0,112
    5454:	00db0663          	beq	x22,x13,5460 <_vfprintf_r+0x264c>
    5458:	05000713          	addi	x14,x0,80
    545c:	04100b13          	addi	x22,x0,65
    5460:	00100693          	addi	x13,x0,1
    5464:	97dff06f          	jal	x0,4de0 <_vfprintf_r+0x1fcc>
    5468:	000a0693          	addi	x13,x20,0
    546c:	00300613          	addi	x12,x0,3
    5470:	ba1ff06f          	jal	x0,5010 <_vfprintf_r+0x21fc>
    5474:	02012783          	lw	x15,32(x2)
    5478:	00a7c603          	lbu	x12,10(x15)
    547c:	fec70fa3          	sb	x12,-1(x14)
    5480:	fb1ff06f          	jal	x0,5430 <_vfprintf_r+0x261c>
    5484:	0cc12783          	lw	x15,204(x2)
    5488:	0bc12703          	lw	x14,188(x2)
    548c:	40a787b3          	sub	x15,x15,x10
    5490:	00e12e23          	sw	x14,28(x2)
    5494:	02f12023          	sw	x15,32(x2)
    5498:	01c12703          	lw	x14,28(x2)
    549c:	ffd00793          	addi	x15,x0,-3
    54a0:	00f74463          	blt	x14,x15,54a8 <_vfprintf_r+0x2694>
    54a4:	02ea5663          	bge	x20,x14,54d0 <_vfprintf_r+0x26bc>
    54a8:	01c12783          	lw	x15,28(x2)
    54ac:	ffeb0b13          	addi	x22,x22,-2
    54b0:	fff78793          	addi	x15,x15,-1
    54b4:	921ff06f          	jal	x0,4dd4 <_vfprintf_r+0x1fc0>
    54b8:	0b714783          	lbu	x15,183(x2)
    54bc:	000b8c13          	addi	x24,x23,0
    54c0:	00000a13          	addi	x20,x0,0
    54c4:	00078463          	beq	x15,x0,54cc <_vfprintf_r+0x26b8>
    54c8:	8c0fe06f          	jal	x0,3588 <_vfprintf_r+0x774>
    54cc:	b6dfd06f          	jal	x0,3038 <_vfprintf_r+0x224>
    54d0:	02012783          	lw	x15,32(x2)
    54d4:	01c12703          	lw	x14,28(x2)
    54d8:	1af74863          	blt	x14,x15,5688 <_vfprintf_r+0x2874>
    54dc:	01c12683          	lw	x13,28(x2)
    54e0:	001c7793          	andi	x15,x24,1
    54e4:	00068713          	addi	x14,x13,0
    54e8:	00078663          	beq	x15,x0,54f4 <_vfprintf_r+0x26e0>
    54ec:	02c12703          	lw	x14,44(x2)
    54f0:	00e68733          	add	x14,x13,x14
    54f4:	400c7313          	andi	x6,x24,1024
    54f8:	00030663          	beq	x6,x0,5504 <_vfprintf_r+0x26f0>
    54fc:	01c12783          	lw	x15,28(x2)
    5500:	32f04a63          	blt	x0,x15,5834 <_vfprintf_r+0x2a20>
    5504:	fff74693          	xori	x13,x14,-1
    5508:	41f6d693          	srai	x13,x13,0x1f
    550c:	00d77db3          	and	x27,x14,x13
    5510:	06700b13          	addi	x22,x0,103
    5514:	02012223          	sw	x0,36(x2)
    5518:	02012423          	sw	x0,40(x2)
    551c:	995ff06f          	jal	x0,4eb0 <_vfprintf_r+0x209c>
    5520:	00812583          	lw	x11,8(x2)
    5524:	00c12503          	lw	x10,12(x2)
    5528:	0d410613          	addi	x12,x2,212
    552c:	2a1000ef          	jal	x1,5fcc <__sprint_r>
    5530:	00050463          	beq	x10,x0,5538 <_vfprintf_r+0x2724>
    5534:	891fe06f          	jal	x0,3dc4 <_vfprintf_r+0xfb0>
    5538:	000b4583          	lbu	x11,0(x22)
    553c:	0dc12603          	lw	x12,220(x2)
    5540:	00098513          	addi	x10,x19,0
    5544:	01000793          	addi	x15,x0,16
    5548:	00700713          	addi	x14,x0,7
    554c:	00b90933          	add	x18,x18,x11
    5550:	d40ff06f          	jal	x0,4a90 <_vfprintf_r+0x1c7c>
    5554:	07800793          	addi	x15,x0,120
    5558:	a69ff06f          	jal	x0,4fc0 <_vfprintf_r+0x21ac>
    555c:	02d00793          	addi	x15,x0,45
    5560:	0af10ba3          	sb	x15,183(x2)
    5564:	a60ff06f          	jal	x0,47c4 <_vfprintf_r+0x19b0>
    5568:	000ac583          	lbu	x11,0(x21)
    556c:	03000613          	addi	x12,x0,48
    5570:	14c58463          	beq	x11,x12,56b8 <_vfprintf_r+0x28a4>
    5574:	0bc12683          	lw	x13,188(x2)
    5578:	09010593          	addi	x11,x2,144
    557c:	00d787b3          	add	x15,x15,x13
    5580:	fc8ff06f          	jal	x0,4d48 <_vfprintf_r+0x1f34>
    5584:	01712c23          	sw	x23,24(x2)
    5588:	02012223          	sw	x0,36(x2)
    558c:	02012423          	sw	x0,40(x2)
    5590:	00012e23          	sw	x0,28(x2)
    5594:	000a0d93          	addi	x27,x20,0
    5598:	000a0713          	addi	x14,x20,0
    559c:	00000a13          	addi	x20,x0,0
    55a0:	00078463          	beq	x15,x0,55a8 <_vfprintf_r+0x2794>
    55a4:	fe5fd06f          	jal	x0,3588 <_vfprintf_r+0x774>
    55a8:	a91fd06f          	jal	x0,3038 <_vfprintf_r+0x224>
    55ac:	00078693          	addi	x13,x15,0
    55b0:	0bc12783          	lw	x15,188(x2)
    55b4:	00f12e23          	sw	x15,28(x2)
    55b8:	ffcff06f          	jal	x0,4db4 <_vfprintf_r+0x1fa0>
    55bc:	00812583          	lw	x11,8(x2)
    55c0:	00c12503          	lw	x10,12(x2)
    55c4:	0d410613          	addi	x12,x2,212
    55c8:	01c12e23          	sw	x28,28(x2)
    55cc:	201000ef          	jal	x1,5fcc <__sprint_r>
    55d0:	00050463          	beq	x10,x0,55d8 <_vfprintf_r+0x27c4>
    55d4:	ff0fe06f          	jal	x0,3dc4 <_vfprintf_r+0xfb0>
    55d8:	0bc12a03          	lw	x20,188(x2)
    55dc:	02012783          	lw	x15,32(x2)
    55e0:	0dc12603          	lw	x12,220(x2)
    55e4:	01c12e03          	lw	x28,28(x2)
    55e8:	00098913          	addi	x18,x19,0
    55ec:	41478a33          	sub	x20,x15,x20
    55f0:	ae9fe06f          	jal	x0,40d8 <_vfprintf_r+0x12c4>
    55f4:	000c0713          	addi	x14,x24,0
    55f8:	cbdfe06f          	jal	x0,42b4 <_vfprintf_r+0x14a0>
    55fc:	fff00793          	addi	x15,x0,-1
    5600:	00f12823          	sw	x15,16(x2)
    5604:	b9dfd06f          	jal	x0,31a0 <_vfprintf_r+0x38c>
    5608:	ff000793          	addi	x15,x0,-16
    560c:	40b00a33          	sub	x20,x0,x11
    5610:	38f5de63          	bge	x11,x15,59ac <_vfprintf_r+0x2b98>
    5614:	0000d797          	auipc	x15,0xd
    5618:	90878793          	addi	x15,x15,-1784 # 11f1c <zeroes.0>
    561c:	01512e23          	sw	x21,28(x2)
    5620:	01000b13          	addi	x22,x0,16
    5624:	00700813          	addi	x16,x0,7
    5628:	000e0b93          	addi	x23,x28,0
    562c:	00078a93          	addi	x21,x15,0
    5630:	00c0006f          	jal	x0,563c <_vfprintf_r+0x2828>
    5634:	ff0a0a13          	addi	x20,x20,-16
    5638:	194b5e63          	bge	x22,x20,57d4 <_vfprintf_r+0x29c0>
    563c:	01060613          	addi	x12,x12,16
    5640:	00170713          	addi	x14,x14,1
    5644:	01592023          	sw	x21,0(x18)
    5648:	01692223          	sw	x22,4(x18)
    564c:	0cc12e23          	sw	x12,220(x2)
    5650:	0ce12c23          	sw	x14,216(x2)
    5654:	00890913          	addi	x18,x18,8
    5658:	fce85ee3          	bge	x16,x14,5634 <_vfprintf_r+0x2820>
    565c:	00812583          	lw	x11,8(x2)
    5660:	00c12503          	lw	x10,12(x2)
    5664:	0d410613          	addi	x12,x2,212
    5668:	165000ef          	jal	x1,5fcc <__sprint_r>
    566c:	00050463          	beq	x10,x0,5674 <_vfprintf_r+0x2860>
    5670:	f54fe06f          	jal	x0,3dc4 <_vfprintf_r+0xfb0>
    5674:	0dc12603          	lw	x12,220(x2)
    5678:	0d812703          	lw	x14,216(x2)
    567c:	00098913          	addi	x18,x19,0
    5680:	00700813          	addi	x16,x0,7
    5684:	fb1ff06f          	jal	x0,5634 <_vfprintf_r+0x2820>
    5688:	02012783          	lw	x15,32(x2)
    568c:	02c12703          	lw	x14,44(x2)
    5690:	06700b13          	addi	x22,x0,103
    5694:	00e78733          	add	x14,x15,x14
    5698:	01c12783          	lw	x15,28(x2)
    569c:	26f05463          	bge	x0,x15,5904 <_vfprintf_r+0x2af0>
    56a0:	400c7313          	andi	x6,x24,1024
    56a4:	18031a63          	bne	x6,x0,5838 <_vfprintf_r+0x2a24>
    56a8:	fff74693          	xori	x13,x14,-1
    56ac:	41f6d693          	srai	x13,x13,0x1f
    56b0:	00d77db3          	and	x27,x14,x13
    56b4:	e61ff06f          	jal	x0,5514 <_vfprintf_r+0x2700>
    56b8:	01c12503          	lw	x10,28(x2)
    56bc:	09010593          	addi	x11,x2,144
    56c0:	06e12023          	sw	x14,96(x2)
    56c4:	04f12e23          	sw	x15,92(x2)
    56c8:	04d12c23          	sw	x13,88(x2)
    56cc:	05c12a23          	sw	x28,84(x2)
    56d0:	0a512023          	sw	x5,160(x2)
    56d4:	04512823          	sw	x5,80(x2)
    56d8:	0bf12223          	sw	x31,164(x2)
    56dc:	05f12623          	sw	x31,76(x2)
    56e0:	0be12423          	sw	x30,168(x2)
    56e4:	03e12423          	sw	x30,40(x2)
    56e8:	0bd12623          	sw	x29,172(x2)
    56ec:	03d12223          	sw	x29,36(x2)
    56f0:	02b12023          	sw	x11,32(x2)
    56f4:	08012823          	sw	x0,144(x2)
    56f8:	08012a23          	sw	x0,148(x2)
    56fc:	08012c23          	sw	x0,152(x2)
    5700:	08012e23          	sw	x0,156(x2)
    5704:	128090ef          	jal	x1,e82c <__eqtf2>
    5708:	02012583          	lw	x11,32(x2)
    570c:	02412e83          	lw	x29,36(x2)
    5710:	02812f03          	lw	x30,40(x2)
    5714:	04c12f83          	lw	x31,76(x2)
    5718:	05012283          	lw	x5,80(x2)
    571c:	05412e03          	lw	x28,84(x2)
    5720:	05812683          	lw	x13,88(x2)
    5724:	05c12783          	lw	x15,92(x2)
    5728:	06012703          	lw	x14,96(x2)
    572c:	1e051863          	bne	x10,x0,591c <_vfprintf_r+0x2b08>
    5730:	0bc12703          	lw	x14,188(x2)
    5734:	00e787b3          	add	x15,x15,x14
    5738:	415787b3          	sub	x15,x15,x21
    573c:	00e12e23          	sw	x14,28(x2)
    5740:	02f12023          	sw	x15,32(x2)
    5744:	01c12683          	lw	x13,28(x2)
    5748:	001c7793          	andi	x15,x24,1
    574c:	0147e7b3          	or	x15,x15,x20
    5750:	1ed05663          	bge	x0,x13,593c <_vfprintf_r+0x2b28>
    5754:	18079e63          	bne	x15,x0,58f0 <_vfprintf_r+0x2adc>
    5758:	01c12703          	lw	x14,28(x2)
    575c:	06600b13          	addi	x22,x0,102
    5760:	f41ff06f          	jal	x0,56a0 <_vfprintf_r+0x288c>
    5764:	000c0713          	addi	x14,x24,0
    5768:	fddfd06f          	jal	x0,3744 <_vfprintf_r+0x930>
    576c:	000c0713          	addi	x14,x24,0
    5770:	87cfe06f          	jal	x0,37ec <_vfprintf_r+0x9d8>
    5774:	0c610713          	addi	x14,x2,198
    5778:	00069863          	bne	x13,x0,5788 <_vfprintf_r+0x2974>
    577c:	03000713          	addi	x14,x0,48
    5780:	0ce10323          	sb	x14,198(x2)
    5784:	0c710713          	addi	x14,x2,199
    5788:	1a010693          	addi	x13,x2,416
    578c:	03078793          	addi	x15,x15,48
    5790:	40d706b3          	sub	x13,x14,x13
    5794:	00f70023          	sb	x15,0(x14)
    5798:	0dd68793          	addi	x15,x13,221
    579c:	02f12e23          	sw	x15,60(x2)
    57a0:	ed0ff06f          	jal	x0,4e70 <_vfprintf_r+0x205c>
    57a4:	000c0713          	addi	x14,x24,0
    57a8:	91cfe06f          	jal	x0,38c4 <_vfprintf_r+0xab0>
    57ac:	00012a23          	sw	x0,20(x2)
    57b0:	00600a13          	addi	x20,x0,6
    57b4:	b59fd06f          	jal	x0,330c <_vfprintf_r+0x4f8>
    57b8:	00fc77b3          	and	x15,x24,x15
    57bc:	ec078863          	beq	x15,x0,4e8c <_vfprintf_r+0x2078>
    57c0:	ec4ff06f          	jal	x0,4e84 <_vfprintf_r+0x2070>
    57c4:	000a0463          	beq	x20,x0,57cc <_vfprintf_r+0x29b8>
    57c8:	b45fd06f          	jal	x0,330c <_vfprintf_r+0x4f8>
    57cc:	00078a13          	addi	x20,x15,0
    57d0:	b3dfd06f          	jal	x0,330c <_vfprintf_r+0x4f8>
    57d4:	000a8793          	addi	x15,x21,0
    57d8:	01c12a83          	lw	x21,28(x2)
    57dc:	000b8e13          	addi	x28,x23,0
    57e0:	01460633          	add	x12,x12,x20
    57e4:	00170713          	addi	x14,x14,1
    57e8:	00f92023          	sw	x15,0(x18)
    57ec:	0cc12e23          	sw	x12,220(x2)
    57f0:	0ce12c23          	sw	x14,216(x2)
    57f4:	01492223          	sw	x20,4(x18)
    57f8:	00700793          	addi	x15,x0,7
    57fc:	00e7c463          	blt	x15,x14,5804 <_vfprintf_r+0x29f0>
    5800:	f05fe06f          	jal	x0,4704 <_vfprintf_r+0x18f0>
    5804:	00812583          	lw	x11,8(x2)
    5808:	00c12503          	lw	x10,12(x2)
    580c:	0d410613          	addi	x12,x2,212
    5810:	01c12e23          	sw	x28,28(x2)
    5814:	7b8000ef          	jal	x1,5fcc <__sprint_r>
    5818:	00050463          	beq	x10,x0,5820 <_vfprintf_r+0x2a0c>
    581c:	da8fe06f          	jal	x0,3dc4 <_vfprintf_r+0xfb0>
    5820:	0dc12603          	lw	x12,220(x2)
    5824:	0d812703          	lw	x14,216(x2)
    5828:	01c12e03          	lw	x28,28(x2)
    582c:	00098913          	addi	x18,x19,0
    5830:	808ff06f          	jal	x0,4838 <_vfprintf_r+0x1a24>
    5834:	06700b13          	addi	x22,x0,103
    5838:	04412583          	lw	x11,68(x2)
    583c:	0ff00693          	addi	x13,x0,255
    5840:	0005c783          	lbu	x15,0(x11)
    5844:	14d78e63          	beq	x15,x13,59a0 <_vfprintf_r+0x2b8c>
    5848:	01c12603          	lw	x12,28(x2)
    584c:	00000513          	addi	x10,x0,0
    5850:	00000813          	addi	x16,x0,0
    5854:	00c7de63          	bge	x15,x12,5870 <_vfprintf_r+0x2a5c>
    5858:	40f60633          	sub	x12,x12,x15
    585c:	0015c783          	lbu	x15,1(x11)
    5860:	04078463          	beq	x15,x0,58a8 <_vfprintf_r+0x2a94>
    5864:	00180813          	addi	x16,x16,1
    5868:	00158593          	addi	x11,x11,1
    586c:	fed794e3          	bne	x15,x13,5854 <_vfprintf_r+0x2a40>
    5870:	02a12223          	sw	x10,36(x2)
    5874:	03012423          	sw	x16,40(x2)
    5878:	04b12223          	sw	x11,68(x2)
    587c:	00c12e23          	sw	x12,28(x2)
    5880:	02812683          	lw	x13,40(x2)
    5884:	02412783          	lw	x15,36(x2)
    5888:	00d787b3          	add	x15,x15,x13
    588c:	04812683          	lw	x13,72(x2)
    5890:	02d787b3          	mul	x15,x15,x13
    5894:	00e78733          	add	x14,x15,x14
    5898:	fff74693          	xori	x13,x14,-1
    589c:	41f6d693          	srai	x13,x13,0x1f
    58a0:	00d77db3          	and	x27,x14,x13
    58a4:	e0cff06f          	jal	x0,4eb0 <_vfprintf_r+0x209c>
    58a8:	0005c783          	lbu	x15,0(x11)
    58ac:	00150513          	addi	x10,x10,1
    58b0:	fbdff06f          	jal	x0,586c <_vfprintf_r+0x2a58>
    58b4:	000a8d93          	addi	x27,x21,0
    58b8:	001a0713          	addi	x14,x20,1
    58bc:	05012c03          	lw	x24,80(x2)
    58c0:	05412b03          	lw	x22,84(x2)
    58c4:	05812e03          	lw	x28,88(x2)
    58c8:	05c12d03          	lw	x26,92(x2)
    58cc:	06012903          	lw	x18,96(x2)
    58d0:	06412a83          	lw	x21,100(x2)
    58d4:	00ed8733          	add	x14,x27,x14
    58d8:	03000693          	addi	x13,x0,48
    58dc:	b40a4ae3          	blt	x20,x0,5430 <_vfprintf_r+0x261c>
    58e0:	001d8d93          	addi	x27,x27,1
    58e4:	fedd8fa3          	sb	x13,-1(x27)
    58e8:	ffb71ce3          	bne	x14,x27,58e0 <_vfprintf_r+0x2acc>
    58ec:	b49ff06f          	jal	x0,5434 <_vfprintf_r+0x2620>
    58f0:	02c12783          	lw	x15,44(x2)
    58f4:	06600b13          	addi	x22,x0,102
    58f8:	00fa0733          	add	x14,x20,x15
    58fc:	00d70733          	add	x14,x14,x13
    5900:	da1ff06f          	jal	x0,56a0 <_vfprintf_r+0x288c>
    5904:	40f70733          	sub	x14,x14,x15
    5908:	00170713          	addi	x14,x14,1
    590c:	fff74693          	xori	x13,x14,-1
    5910:	41f6d693          	srai	x13,x13,0x1f
    5914:	00d77db3          	and	x27,x14,x13
    5918:	bfdff06f          	jal	x0,5514 <_vfprintf_r+0x2700>
    591c:	00100613          	addi	x12,x0,1
    5920:	40d606b3          	sub	x13,x12,x13
    5924:	0ad12e23          	sw	x13,188(x2)
    5928:	00d787b3          	add	x15,x15,x13
    592c:	c1cff06f          	jal	x0,4d48 <_vfprintf_r+0x1f34>
    5930:	0000c797          	auipc	x15,0xc
    5934:	5ec78793          	addi	x15,x15,1516 # 11f1c <zeroes.0>
    5938:	f81fe06f          	jal	x0,48b8 <_vfprintf_r+0x1aa4>
    593c:	00079a63          	bne	x15,x0,5950 <_vfprintf_r+0x2b3c>
    5940:	00100d93          	addi	x27,x0,1
    5944:	000d8713          	addi	x14,x27,0
    5948:	06600b13          	addi	x22,x0,102
    594c:	bc9ff06f          	jal	x0,5514 <_vfprintf_r+0x2700>
    5950:	02c12783          	lw	x15,44(x2)
    5954:	06600b13          	addi	x22,x0,102
    5958:	00178713          	addi	x14,x15,1
    595c:	01470733          	add	x14,x14,x20
    5960:	fff74693          	xori	x13,x14,-1
    5964:	41f6d693          	srai	x13,x13,0x1f
    5968:	00d77db3          	and	x27,x14,x13
    596c:	ba9ff06f          	jal	x0,5514 <_vfprintf_r+0x2700>
    5970:	01812783          	lw	x15,24(x2)
    5974:	0007aa03          	lw	x20,0(x15)
    5978:	00478793          	addi	x15,x15,4
    597c:	000a5463          	bge	x20,x0,5984 <_vfprintf_r+0x2b70>
    5980:	fff00a13          	addi	x20,x0,-1
    5984:	001bcb03          	lbu	x22,1(x23)
    5988:	00f12c23          	sw	x15,24(x2)
    598c:	00068b93          	addi	x23,x13,0
    5990:	e1cfd06f          	jal	x0,2fac <_vfprintf_r+0x198>
    5994:	00200793          	addi	x15,x0,2
    5998:	02f12e23          	sw	x15,60(x2)
    599c:	cd4ff06f          	jal	x0,4e70 <_vfprintf_r+0x205c>
    59a0:	02012223          	sw	x0,36(x2)
    59a4:	02012423          	sw	x0,40(x2)
    59a8:	ed9ff06f          	jal	x0,5880 <_vfprintf_r+0x2a6c>
    59ac:	0000c797          	auipc	x15,0xc
    59b0:	57078793          	addi	x15,x15,1392 # 11f1c <zeroes.0>
    59b4:	e2dff06f          	jal	x0,57e0 <_vfprintf_r+0x29cc>
    59b8:	00812703          	lw	x14,8(x2)
    59bc:	00c75783          	lhu	x15,12(x14)
    59c0:	0407e793          	ori	x15,x15,64
    59c4:	00f71623          	sh	x15,12(x14)
    59c8:	f98fd06f          	jal	x0,3160 <_vfprintf_r+0x34c>

000059cc <vfprintf>:
    59cc:	00058793          	addi	x15,x11,0
    59d0:	00060693          	addi	x13,x12,0
    59d4:	00050593          	addi	x11,x10,0
    59d8:	00078613          	addi	x12,x15,0
    59dc:	f141a503          	lw	x10,-236(x3) # 12bb4 <_impure_ptr>
    59e0:	c34fd06f          	jal	x0,2e14 <_vfprintf_r>

000059e4 <__sbprintf>:
    59e4:	b8010113          	addi	x2,x2,-1152
    59e8:	00c59783          	lh	x15,12(x11)
    59ec:	00e5d703          	lhu	x14,14(x11)
    59f0:	46812c23          	sw	x8,1144(x2)
    59f4:	00058413          	addi	x8,x11,0
    59f8:	000105b7          	lui	x11,0x10
    59fc:	ffd58593          	addi	x11,x11,-3 # fffd <__subtf3+0x2f5>
    5a00:	06442303          	lw	x6,100(x8)
    5a04:	01c42883          	lw	x17,28(x8)
    5a08:	02442803          	lw	x16,36(x8)
    5a0c:	00b7f7b3          	and	x15,x15,x11
    5a10:	01071713          	slli	x14,x14,0x10
    5a14:	00e7e7b3          	or	x15,x15,x14
    5a18:	00f12a23          	sw	x15,20(x2)
    5a1c:	40000713          	addi	x14,x0,1024
    5a20:	07010793          	addi	x15,x2,112
    5a24:	00810593          	addi	x11,x2,8
    5a28:	46912a23          	sw	x9,1140(x2)
    5a2c:	47212823          	sw	x18,1136(x2)
    5a30:	46112e23          	sw	x1,1148(x2)
    5a34:	02012023          	sw	x0,32(x2)
    5a38:	06612623          	sw	x6,108(x2)
    5a3c:	03112223          	sw	x17,36(x2)
    5a40:	03012623          	sw	x16,44(x2)
    5a44:	00050913          	addi	x18,x10,0
    5a48:	00f12423          	sw	x15,8(x2)
    5a4c:	00f12c23          	sw	x15,24(x2)
    5a50:	00e12823          	sw	x14,16(x2)
    5a54:	00e12e23          	sw	x14,28(x2)
    5a58:	bbcfd0ef          	jal	x1,2e14 <_vfprintf_r>
    5a5c:	00050493          	addi	x9,x10,0
    5a60:	02055c63          	bge	x10,x0,5a98 <__sbprintf+0xb4>
    5a64:	01415783          	lhu	x15,20(x2)
    5a68:	0407f793          	andi	x15,x15,64
    5a6c:	00078863          	beq	x15,x0,5a7c <__sbprintf+0x98>
    5a70:	00c45783          	lhu	x15,12(x8)
    5a74:	0407e793          	ori	x15,x15,64
    5a78:	00f41623          	sh	x15,12(x8)
    5a7c:	47c12083          	lw	x1,1148(x2)
    5a80:	47812403          	lw	x8,1144(x2)
    5a84:	47012903          	lw	x18,1136(x2)
    5a88:	00048513          	addi	x10,x9,0
    5a8c:	47412483          	lw	x9,1140(x2)
    5a90:	48010113          	addi	x2,x2,1152
    5a94:	00008067          	jalr	x0,0(x1)
    5a98:	00810593          	addi	x11,x2,8
    5a9c:	00090513          	addi	x10,x18,0
    5aa0:	e91fc0ef          	jal	x1,2930 <_fflush_r>
    5aa4:	fc0500e3          	beq	x10,x0,5a64 <__sbprintf+0x80>
    5aa8:	fff00493          	addi	x9,x0,-1
    5aac:	fb9ff06f          	jal	x0,5a64 <__sbprintf+0x80>

00005ab0 <_ldtoa_r>:
    5ab0:	0000c897          	auipc	x17,0xc
    5ab4:	4e088893          	addi	x17,x17,1248 # 11f90 <zeroes.0+0x74>
    5ab8:	0008af83          	lw	x31,0(x17)
    5abc:	0048af03          	lw	x30,4(x17)
    5ac0:	0088ae83          	lw	x29,8(x17)
    5ac4:	00c8ae03          	lw	x28,12(x17)
    5ac8:	0108a883          	lw	x17,16(x17)
    5acc:	03852303          	lw	x6,56(x10)
    5ad0:	f4010113          	addi	x2,x2,-192
    5ad4:	0b212823          	sw	x18,176(x2)
    5ad8:	0b312623          	sw	x19,172(x2)
    5adc:	0b412423          	sw	x20,168(x2)
    5ae0:	0b612023          	sw	x22,160(x2)
    5ae4:	09712e23          	sw	x23,156(x2)
    5ae8:	09812c23          	sw	x24,152(x2)
    5aec:	09a12823          	sw	x26,144(x2)
    5af0:	09b12623          	sw	x27,140(x2)
    5af4:	0a112e23          	sw	x1,188(x2)
    5af8:	0a812c23          	sw	x8,184(x2)
    5afc:	0a912a23          	sw	x9,180(x2)
    5b00:	0b512223          	sw	x21,164(x2)
    5b04:	07f12623          	sw	x31,108(x2)
    5b08:	07e12823          	sw	x30,112(x2)
    5b0c:	07d12a23          	sw	x29,116(x2)
    5b10:	07c12c23          	sw	x28,120(x2)
    5b14:	07112e23          	sw	x17,124(x2)
    5b18:	02c12023          	sw	x12,32(x2)
    5b1c:	02d12223          	sw	x13,36(x2)
    5b20:	0005aa03          	lw	x20,0(x11)
    5b24:	0045a983          	lw	x19,4(x11)
    5b28:	0085a903          	lw	x18,8(x11)
    5b2c:	00c5ac03          	lw	x24,12(x11)
    5b30:	00050b13          	addi	x22,x10,0
    5b34:	00070b93          	addi	x23,x14,0
    5b38:	00078d93          	addi	x27,x15,0
    5b3c:	00080d13          	addi	x26,x16,0
    5b40:	00030863          	beq	x6,x0,5b50 <_ldtoa_r+0xa0>
    5b44:	00030593          	addi	x11,x6,0
    5b48:	0dc040ef          	jal	x1,9c24 <__freedtoa>
    5b4c:	020b2c23          	sw	x0,56(x22)
    5b50:	07812783          	lw	x15,120(x2)
    5b54:	01fc5693          	srli	x13,x24,0x1f
    5b58:	001c1a93          	slli	x21,x24,0x1
    5b5c:	4017d713          	srai	x14,x15,0x1
    5b60:	ffffc4b7          	lui	x9,0xffffc
    5b64:	05412023          	sw	x20,64(x2)
    5b68:	05312223          	sw	x19,68(x2)
    5b6c:	05212423          	sw	x18,72(x2)
    5b70:	03412823          	sw	x20,48(x2)
    5b74:	03312a23          	sw	x19,52(x2)
    5b78:	03212c23          	sw	x18,56(x2)
    5b7c:	00dda023          	sw	x13,0(x27)
    5b80:	001c1413          	slli	x8,x24,0x1
    5b84:	00d77733          	and	x14,x14,x13
    5b88:	011ada93          	srli	x21,x21,0x11
    5b8c:	f9148493          	addi	x9,x9,-111 # ffffbf91 <__heap_end+0xffbfbf91>
    5b90:	010c1d93          	slli	x27,x24,0x10
    5b94:	00145413          	srli	x8,x8,0x1
    5b98:	00f74733          	xor	x14,x14,x15
    5b9c:	010ddd93          	srli	x27,x27,0x10
    5ba0:	009a87b3          	add	x15,x21,x9
    5ba4:	04010513          	addi	x10,x2,64
    5ba8:	03010593          	addi	x11,x2,48
    5bac:	04812623          	sw	x8,76(x2)
    5bb0:	02812e23          	sw	x8,60(x2)
    5bb4:	05412e23          	sw	x20,92(x2)
    5bb8:	07312023          	sw	x19,96(x2)
    5bbc:	07212223          	sw	x18,100(x2)
    5bc0:	06e12c23          	sw	x14,120(x2)
    5bc4:	00f12e23          	sw	x15,28(x2)
    5bc8:	07b12423          	sw	x27,104(x2)
    5bcc:	08d0b0ef          	jal	x1,11458 <__unordtf2>
    5bd0:	1a051663          	bne	x10,x0,5d7c <_ldtoa_r+0x2cc>
    5bd4:	0000c797          	auipc	x15,0xc
    5bd8:	38c78793          	addi	x15,x15,908 # 11f60 <zeroes.0+0x44>
    5bdc:	0007a603          	lw	x12,0(x15)
    5be0:	0047a683          	lw	x13,4(x15)
    5be4:	09912a23          	sw	x25,148(x2)
    5be8:	0087a483          	lw	x9,8(x15)
    5bec:	00c7ac83          	lw	x25,12(x15)
    5bf0:	03010593          	addi	x11,x2,48
    5bf4:	04010513          	addi	x10,x2,64
    5bf8:	05412023          	sw	x20,64(x2)
    5bfc:	05312223          	sw	x19,68(x2)
    5c00:	05212423          	sw	x18,72(x2)
    5c04:	04812623          	sw	x8,76(x2)
    5c08:	02c12823          	sw	x12,48(x2)
    5c0c:	02c12623          	sw	x12,44(x2)
    5c10:	02d12a23          	sw	x13,52(x2)
    5c14:	02d12423          	sw	x13,40(x2)
    5c18:	02912c23          	sw	x9,56(x2)
    5c1c:	03912e23          	sw	x25,60(x2)
    5c20:	0390b0ef          	jal	x1,11458 <__unordtf2>
    5c24:	08051c63          	bne	x10,x0,5cbc <_ldtoa_r+0x20c>
    5c28:	03010593          	addi	x11,x2,48
    5c2c:	04010513          	addi	x10,x2,64
    5c30:	631080ef          	jal	x1,ea60 <__letf2>
    5c34:	08a05463          	bge	x0,x10,5cbc <_ldtoa_r+0x20c>
    5c38:	09412c83          	lw	x25,148(x2)
    5c3c:	00300793          	addi	x15,x0,3
    5c40:	04f12c23          	sw	x15,88(x2)
    5c44:	02012783          	lw	x15,32(x2)
    5c48:	02412803          	lw	x16,36(x2)
    5c4c:	01c12603          	lw	x12,28(x2)
    5c50:	05810713          	addi	x14,x2,88
    5c54:	01a12023          	sw	x26,0(x2)
    5c58:	000b0513          	addi	x10,x22,0
    5c5c:	000b8893          	addi	x17,x23,0
    5c60:	05c10693          	addi	x13,x2,92
    5c64:	06c10593          	addi	x11,x2,108
    5c68:	12d010ef          	jal	x1,7594 <__gdtoa>
    5c6c:	000ba703          	lw	x14,0(x23)
    5c70:	ffff87b7          	lui	x15,0xffff8
    5c74:	00f71863          	bne	x14,x15,5c84 <_ldtoa_r+0x1d4>
    5c78:	800007b7          	lui	x15,0x80000
    5c7c:	fff78793          	addi	x15,x15,-1 # 7fffffff <__heap_end+0x7fbfffff>
    5c80:	00fba023          	sw	x15,0(x23)
    5c84:	0bc12083          	lw	x1,188(x2)
    5c88:	0b812403          	lw	x8,184(x2)
    5c8c:	0b412483          	lw	x9,180(x2)
    5c90:	0b012903          	lw	x18,176(x2)
    5c94:	0ac12983          	lw	x19,172(x2)
    5c98:	0a812a03          	lw	x20,168(x2)
    5c9c:	0a412a83          	lw	x21,164(x2)
    5ca0:	0a012b03          	lw	x22,160(x2)
    5ca4:	09c12b83          	lw	x23,156(x2)
    5ca8:	09812c03          	lw	x24,152(x2)
    5cac:	09012d03          	lw	x26,144(x2)
    5cb0:	08c12d83          	lw	x27,140(x2)
    5cb4:	0c010113          	addi	x2,x2,192
    5cb8:	00008067          	jalr	x0,0(x1)
    5cbc:	0000c797          	auipc	x15,0xc
    5cc0:	2b478793          	addi	x15,x15,692 # 11f70 <zeroes.0+0x54>
    5cc4:	0007a603          	lw	x12,0(x15)
    5cc8:	0047a683          	lw	x13,4(x15)
    5ccc:	0087a703          	lw	x14,8(x15)
    5cd0:	00c7a783          	lw	x15,12(x15)
    5cd4:	03010593          	addi	x11,x2,48
    5cd8:	04010513          	addi	x10,x2,64
    5cdc:	05412023          	sw	x20,64(x2)
    5ce0:	05312223          	sw	x19,68(x2)
    5ce4:	05212423          	sw	x18,72(x2)
    5ce8:	04812623          	sw	x8,76(x2)
    5cec:	02c12823          	sw	x12,48(x2)
    5cf0:	02d12a23          	sw	x13,52(x2)
    5cf4:	02e12c23          	sw	x14,56(x2)
    5cf8:	02f12e23          	sw	x15,60(x2)
    5cfc:	401080ef          	jal	x1,e8fc <__getf2>
    5d00:	02054063          	blt	x10,x0,5d20 <_ldtoa_r+0x270>
    5d04:	000107b7          	lui	x15,0x10
    5d08:	00fdedb3          	or	x27,x27,x15
    5d0c:	00100793          	addi	x15,x0,1
    5d10:	09412c83          	lw	x25,148(x2)
    5d14:	07b12423          	sw	x27,104(x2)
    5d18:	04f12c23          	sw	x15,88(x2)
    5d1c:	f29ff06f          	jal	x0,5c44 <_ldtoa_r+0x194>
    5d20:	03010593          	addi	x11,x2,48
    5d24:	04010513          	addi	x10,x2,64
    5d28:	05412023          	sw	x20,64(x2)
    5d2c:	05312223          	sw	x19,68(x2)
    5d30:	05212423          	sw	x18,72(x2)
    5d34:	05812623          	sw	x24,76(x2)
    5d38:	02012823          	sw	x0,48(x2)
    5d3c:	02012a23          	sw	x0,52(x2)
    5d40:	02012c23          	sw	x0,56(x2)
    5d44:	02012e23          	sw	x0,60(x2)
    5d48:	2e5080ef          	jal	x1,e82c <__eqtf2>
    5d4c:	00051863          	bne	x10,x0,5d5c <_ldtoa_r+0x2ac>
    5d50:	09412c83          	lw	x25,148(x2)
    5d54:	04012c23          	sw	x0,88(x2)
    5d58:	eedff06f          	jal	x0,5c44 <_ldtoa_r+0x194>
    5d5c:	ffffc4b7          	lui	x9,0xffffc
    5d60:	f9248493          	addi	x9,x9,-110 # ffffbf92 <__heap_end+0xffbfbf92>
    5d64:	00200793          	addi	x15,x0,2
    5d68:	009a8733          	add	x14,x21,x9
    5d6c:	09412c83          	lw	x25,148(x2)
    5d70:	00e12e23          	sw	x14,28(x2)
    5d74:	04f12c23          	sw	x15,88(x2)
    5d78:	ecdff06f          	jal	x0,5c44 <_ldtoa_r+0x194>
    5d7c:	00400793          	addi	x15,x0,4
    5d80:	04f12c23          	sw	x15,88(x2)
    5d84:	ec1ff06f          	jal	x0,5c44 <_ldtoa_r+0x194>

00005d88 <_ldcheck>:
    5d88:	fb010113          	addi	x2,x2,-80
    5d8c:	04912223          	sw	x9,68(x2)
    5d90:	00c52483          	lw	x9,12(x10)
    5d94:	05212023          	sw	x18,64(x2)
    5d98:	03312e23          	sw	x19,60(x2)
    5d9c:	00852903          	lw	x18,8(x10)
    5da0:	00452983          	lw	x19,4(x10)
    5da4:	03412c23          	sw	x20,56(x2)
    5da8:	00052a03          	lw	x20,0(x10)
    5dac:	00149493          	slli	x9,x9,0x1
    5db0:	0014d493          	srli	x9,x9,0x1
    5db4:	01010513          	addi	x10,x2,16
    5db8:	00010593          	addi	x11,x2,0
    5dbc:	04112623          	sw	x1,76(x2)
    5dc0:	00912e23          	sw	x9,28(x2)
    5dc4:	00912623          	sw	x9,12(x2)
    5dc8:	01412823          	sw	x20,16(x2)
    5dcc:	01412023          	sw	x20,0(x2)
    5dd0:	01312a23          	sw	x19,20(x2)
    5dd4:	01312223          	sw	x19,4(x2)
    5dd8:	01212c23          	sw	x18,24(x2)
    5ddc:	01212423          	sw	x18,8(x2)
    5de0:	6780b0ef          	jal	x1,11458 <__unordtf2>
    5de4:	0a051263          	bne	x10,x0,5e88 <_ldcheck+0x100>
    5de8:	0000c797          	auipc	x15,0xc
    5dec:	17878793          	addi	x15,x15,376 # 11f60 <zeroes.0+0x44>
    5df0:	03512a23          	sw	x21,52(x2)
    5df4:	03612823          	sw	x22,48(x2)
    5df8:	03712623          	sw	x23,44(x2)
    5dfc:	03812423          	sw	x24,40(x2)
    5e00:	0047ab83          	lw	x23,4(x15)
    5e04:	0007ac03          	lw	x24,0(x15)
    5e08:	0087ab03          	lw	x22,8(x15)
    5e0c:	00c7aa83          	lw	x21,12(x15)
    5e10:	00010593          	addi	x11,x2,0
    5e14:	01010513          	addi	x10,x2,16
    5e18:	04812423          	sw	x8,72(x2)
    5e1c:	01812023          	sw	x24,0(x2)
    5e20:	01712223          	sw	x23,4(x2)
    5e24:	01612423          	sw	x22,8(x2)
    5e28:	01512623          	sw	x21,12(x2)
    5e2c:	00100413          	addi	x8,x0,1
    5e30:	6280b0ef          	jal	x1,11458 <__unordtf2>
    5e34:	04050063          	beq	x10,x0,5e74 <_ldcheck+0xec>
    5e38:	04c12083          	lw	x1,76(x2)
    5e3c:	00144513          	xori	x10,x8,1
    5e40:	04812403          	lw	x8,72(x2)
    5e44:	0ff57513          	andi	x10,x10,255
    5e48:	03412a83          	lw	x21,52(x2)
    5e4c:	03012b03          	lw	x22,48(x2)
    5e50:	02c12b83          	lw	x23,44(x2)
    5e54:	02812c03          	lw	x24,40(x2)
    5e58:	04412483          	lw	x9,68(x2)
    5e5c:	04012903          	lw	x18,64(x2)
    5e60:	03c12983          	lw	x19,60(x2)
    5e64:	03812a03          	lw	x20,56(x2)
    5e68:	00151513          	slli	x10,x10,0x1
    5e6c:	05010113          	addi	x2,x2,80
    5e70:	00008067          	jalr	x0,0(x1)
    5e74:	00010593          	addi	x11,x2,0
    5e78:	01010513          	addi	x10,x2,16
    5e7c:	3e5080ef          	jal	x1,ea60 <__letf2>
    5e80:	00152413          	slti	x8,x10,1
    5e84:	fb5ff06f          	jal	x0,5e38 <_ldcheck+0xb0>
    5e88:	04c12083          	lw	x1,76(x2)
    5e8c:	04412483          	lw	x9,68(x2)
    5e90:	04012903          	lw	x18,64(x2)
    5e94:	03c12983          	lw	x19,60(x2)
    5e98:	03812a03          	lw	x20,56(x2)
    5e9c:	00100513          	addi	x10,x0,1
    5ea0:	05010113          	addi	x2,x2,80
    5ea4:	00008067          	jalr	x0,0(x1)

00005ea8 <__sprint_r.part.0>:
    5ea8:	0645a783          	lw	x15,100(x11)
    5eac:	fd010113          	addi	x2,x2,-48
    5eb0:	01612823          	sw	x22,16(x2)
    5eb4:	02112623          	sw	x1,44(x2)
    5eb8:	01279713          	slli	x14,x15,0x12
    5ebc:	00060b13          	addi	x22,x12,0
    5ec0:	0e075863          	bge	x14,x0,5fb0 <__sprint_r.part.0+0x108>
    5ec4:	00862783          	lw	x15,8(x12)
    5ec8:	03212023          	sw	x18,32(x2)
    5ecc:	01312e23          	sw	x19,28(x2)
    5ed0:	01412c23          	sw	x20,24(x2)
    5ed4:	01712623          	sw	x23,12(x2)
    5ed8:	00058913          	addi	x18,x11,0
    5edc:	00062b83          	lw	x23,0(x12)
    5ee0:	00050a13          	addi	x20,x10,0
    5ee4:	fff00993          	addi	x19,x0,-1
    5ee8:	0a078863          	beq	x15,x0,5f98 <__sprint_r.part.0+0xf0>
    5eec:	02812423          	sw	x8,40(x2)
    5ef0:	02912223          	sw	x9,36(x2)
    5ef4:	01512a23          	sw	x21,20(x2)
    5ef8:	01812423          	sw	x24,8(x2)
    5efc:	004bac03          	lw	x24,4(x23)
    5f00:	000ba403          	lw	x8,0(x23)
    5f04:	002c5a93          	srli	x21,x24,0x2
    5f08:	060a8663          	beq	x21,x0,5f74 <__sprint_r.part.0+0xcc>
    5f0c:	00000493          	addi	x9,x0,0
    5f10:	00c0006f          	jal	x0,5f1c <__sprint_r.part.0+0x74>
    5f14:	00440413          	addi	x8,x8,4
    5f18:	049a8c63          	beq	x21,x9,5f70 <__sprint_r.part.0+0xc8>
    5f1c:	00042583          	lw	x11,0(x8)
    5f20:	00090613          	addi	x12,x18,0
    5f24:	000a0513          	addi	x10,x20,0
    5f28:	034040ef          	jal	x1,9f5c <_fputwc_r>
    5f2c:	00148493          	addi	x9,x9,1
    5f30:	ff3512e3          	bne	x10,x19,5f14 <__sprint_r.part.0+0x6c>
    5f34:	00098513          	addi	x10,x19,0
    5f38:	02812403          	lw	x8,40(x2)
    5f3c:	02412483          	lw	x9,36(x2)
    5f40:	02012903          	lw	x18,32(x2)
    5f44:	01c12983          	lw	x19,28(x2)
    5f48:	01812a03          	lw	x20,24(x2)
    5f4c:	01412a83          	lw	x21,20(x2)
    5f50:	00c12b83          	lw	x23,12(x2)
    5f54:	00812c03          	lw	x24,8(x2)
    5f58:	02c12083          	lw	x1,44(x2)
    5f5c:	000b2423          	sw	x0,8(x22)
    5f60:	000b2223          	sw	x0,4(x22)
    5f64:	01012b03          	lw	x22,16(x2)
    5f68:	03010113          	addi	x2,x2,48
    5f6c:	00008067          	jalr	x0,0(x1)
    5f70:	008b2783          	lw	x15,8(x22)
    5f74:	ffcc7c13          	andi	x24,x24,-4
    5f78:	418787b3          	sub	x15,x15,x24
    5f7c:	00fb2423          	sw	x15,8(x22)
    5f80:	008b8b93          	addi	x23,x23,8
    5f84:	f6079ce3          	bne	x15,x0,5efc <__sprint_r.part.0+0x54>
    5f88:	02812403          	lw	x8,40(x2)
    5f8c:	02412483          	lw	x9,36(x2)
    5f90:	01412a83          	lw	x21,20(x2)
    5f94:	00812c03          	lw	x24,8(x2)
    5f98:	02012903          	lw	x18,32(x2)
    5f9c:	01c12983          	lw	x19,28(x2)
    5fa0:	01812a03          	lw	x20,24(x2)
    5fa4:	00c12b83          	lw	x23,12(x2)
    5fa8:	00000513          	addi	x10,x0,0
    5fac:	fadff06f          	jal	x0,5f58 <__sprint_r.part.0+0xb0>
    5fb0:	b01fa0ef          	jal	x1,ab0 <__sfvwrite_r>
    5fb4:	02c12083          	lw	x1,44(x2)
    5fb8:	000b2423          	sw	x0,8(x22)
    5fbc:	000b2223          	sw	x0,4(x22)
    5fc0:	01012b03          	lw	x22,16(x2)
    5fc4:	03010113          	addi	x2,x2,48
    5fc8:	00008067          	jalr	x0,0(x1)

00005fcc <__sprint_r>:
    5fcc:	00862703          	lw	x14,8(x12)
    5fd0:	00070463          	beq	x14,x0,5fd8 <__sprint_r+0xc>
    5fd4:	ed5ff06f          	jal	x0,5ea8 <__sprint_r.part.0>
    5fd8:	00062223          	sw	x0,4(x12)
    5fdc:	00000513          	addi	x10,x0,0
    5fe0:	00008067          	jalr	x0,0(x1)

00005fe4 <_vfiprintf_r>:
    5fe4:	ed010113          	addi	x2,x2,-304
    5fe8:	11312e23          	sw	x19,284(x2)
    5fec:	11712623          	sw	x23,268(x2)
    5ff0:	11812423          	sw	x24,264(x2)
    5ff4:	12112623          	sw	x1,300(x2)
    5ff8:	00d12423          	sw	x13,8(x2)
    5ffc:	00050c13          	addi	x24,x10,0
    6000:	00058b93          	addi	x23,x11,0
    6004:	00060993          	addi	x19,x12,0
    6008:	00050863          	beq	x10,x0,6018 <_vfiprintf_r+0x34>
    600c:	03452783          	lw	x15,52(x10)
    6010:	00079463          	bne	x15,x0,6018 <_vfiprintf_r+0x34>
    6014:	2580106f          	jal	x0,726c <_vfiprintf_r+0x1288>
    6018:	00cb9783          	lh	x15,12(x23)
    601c:	00002637          	lui	x12,0x2
    6020:	01279713          	slli	x14,x15,0x12
    6024:	02074063          	blt	x14,x0,6044 <_vfiprintf_r+0x60>
    6028:	064ba703          	lw	x14,100(x23)
    602c:	ffffe6b7          	lui	x13,0xffffe
    6030:	fff68693          	addi	x13,x13,-1 # ffffdfff <__heap_end+0xffbfdfff>
    6034:	00c7e7b3          	or	x15,x15,x12
    6038:	00d77733          	and	x14,x14,x13
    603c:	00fb9623          	sh	x15,12(x23)
    6040:	06eba223          	sw	x14,100(x23)
    6044:	0087f713          	andi	x14,x15,8
    6048:	34070463          	beq	x14,x0,6390 <_vfiprintf_r+0x3ac>
    604c:	010ba703          	lw	x14,16(x23)
    6050:	34070063          	beq	x14,x0,6390 <_vfiprintf_r+0x3ac>
    6054:	01a7f793          	andi	x15,x15,26
    6058:	00a00713          	addi	x14,x0,10
    605c:	34e78c63          	beq	x15,x14,63b4 <_vfiprintf_r+0x3d0>
    6060:	11512a23          	sw	x21,276(x2)
    6064:	04c10a93          	addi	x21,x2,76
    6068:	12812423          	sw	x8,296(x2)
    606c:	11412c23          	sw	x20,280(x2)
    6070:	11612823          	sw	x22,272(x2)
    6074:	11912223          	sw	x25,260(x2)
    6078:	12912223          	sw	x9,292(x2)
    607c:	13212023          	sw	x18,288(x2)
    6080:	11a12023          	sw	x26,256(x2)
    6084:	0fb12e23          	sw	x27,252(x2)
    6088:	04012423          	sw	x0,72(x2)
    608c:	04012223          	sw	x0,68(x2)
    6090:	05512023          	sw	x21,64(x2)
    6094:	000a8413          	addi	x8,x21,0
    6098:	00012623          	sw	x0,12(x2)
    609c:	00012c23          	sw	x0,24(x2)
    60a0:	00012e23          	sw	x0,28(x2)
    60a4:	02012023          	sw	x0,32(x2)
    60a8:	00012223          	sw	x0,4(x2)
    60ac:	02500c93          	addi	x25,x0,37
    60b0:	00700b13          	addi	x22,x0,7
    60b4:	01000a13          	addi	x20,x0,16
    60b8:	0009c783          	lbu	x15,0(x19)
    60bc:	26078263          	beq	x15,x0,6320 <_vfiprintf_r+0x33c>
    60c0:	00098493          	addi	x9,x19,0
    60c4:	33978063          	beq	x15,x25,63e4 <_vfiprintf_r+0x400>
    60c8:	0014c783          	lbu	x15,1(x9)
    60cc:	00148493          	addi	x9,x9,1
    60d0:	fe079ae3          	bne	x15,x0,60c4 <_vfiprintf_r+0xe0>
    60d4:	41348933          	sub	x18,x9,x19
    60d8:	25348463          	beq	x9,x19,6320 <_vfiprintf_r+0x33c>
    60dc:	04812703          	lw	x14,72(x2)
    60e0:	04412783          	lw	x15,68(x2)
    60e4:	01342023          	sw	x19,0(x8)
    60e8:	00e90733          	add	x14,x18,x14
    60ec:	00178793          	addi	x15,x15,1
    60f0:	01242223          	sw	x18,4(x8)
    60f4:	04e12423          	sw	x14,72(x2)
    60f8:	04f12223          	sw	x15,68(x2)
    60fc:	00840413          	addi	x8,x8,8
    6100:	02fb5063          	bge	x22,x15,6120 <_vfiprintf_r+0x13c>
    6104:	580704e3          	beq	x14,x0,6e8c <_vfiprintf_r+0xea8>
    6108:	04010613          	addi	x12,x2,64
    610c:	000b8593          	addi	x11,x23,0
    6110:	000c0513          	addi	x10,x24,0
    6114:	d95ff0ef          	jal	x1,5ea8 <__sprint_r.part.0>
    6118:	20051a63          	bne	x10,x0,632c <_vfiprintf_r+0x348>
    611c:	000a8413          	addi	x8,x21,0
    6120:	00412703          	lw	x14,4(x2)
    6124:	0004c783          	lbu	x15,0(x9)
    6128:	01270733          	add	x14,x14,x18
    612c:	00e12223          	sw	x14,4(x2)
    6130:	1e078863          	beq	x15,x0,6320 <_vfiprintf_r+0x33c>
    6134:	00000713          	addi	x14,x0,0
    6138:	0014c603          	lbu	x12,1(x9)
    613c:	00148993          	addi	x19,x9,1
    6140:	02010da3          	sb	x0,59(x2)
    6144:	fff00493          	addi	x9,x0,-1
    6148:	00000d13          	addi	x26,x0,0
    614c:	00070913          	addi	x18,x14,0
    6150:	00198993          	addi	x19,x19,1
    6154:	fe060793          	addi	x15,x12,-32 # 1fe0 <memmove+0x94>
    6158:	05a00713          	addi	x14,x0,90
    615c:	04f76c63          	bltu	x14,x15,61b4 <_vfiprintf_r+0x1d0>
    6160:	0000c717          	auipc	x14,0xc
    6164:	e4470713          	addi	x14,x14,-444 # 11fa4 <zeroes.0+0x88>
    6168:	00279793          	slli	x15,x15,0x2
    616c:	00e787b3          	add	x15,x15,x14
    6170:	0007a783          	lw	x15,0(x15)
    6174:	00e787b3          	add	x15,x15,x14
    6178:	00078067          	jalr	x0,0(x15)
    617c:	fd060793          	addi	x15,x12,-48
    6180:	00000913          	addi	x18,x0,0
    6184:	00900593          	addi	x11,x0,9
    6188:	00291693          	slli	x13,x18,0x2
    618c:	0009c603          	lbu	x12,0(x19)
    6190:	01268733          	add	x14,x13,x18
    6194:	00171713          	slli	x14,x14,0x1
    6198:	00e78933          	add	x18,x15,x14
    619c:	fd060793          	addi	x15,x12,-48
    61a0:	00198993          	addi	x19,x19,1
    61a4:	fef5f2e3          	bgeu	x11,x15,6188 <_vfiprintf_r+0x1a4>
    61a8:	fe060793          	addi	x15,x12,-32
    61ac:	05a00713          	addi	x14,x0,90
    61b0:	faf778e3          	bgeu	x14,x15,6160 <_vfiprintf_r+0x17c>
    61b4:	00090713          	addi	x14,x18,0
    61b8:	16060463          	beq	x12,x0,6320 <_vfiprintf_r+0x33c>
    61bc:	00100893          	addi	x17,x0,1
    61c0:	08c10623          	sb	x12,140(x2)
    61c4:	02010da3          	sb	x0,59(x2)
    61c8:	00088d93          	addi	x27,x17,0
    61cc:	08c10913          	addi	x18,x2,140
    61d0:	00000493          	addi	x9,x0,0
    61d4:	00000e93          	addi	x29,x0,0
    61d8:	04412603          	lw	x12,68(x2)
    61dc:	084d7f13          	andi	x30,x26,132
    61e0:	04812783          	lw	x15,72(x2)
    61e4:	00160593          	addi	x11,x12,1
    61e8:	00058e13          	addi	x28,x11,0
    61ec:	000f1663          	bne	x30,x0,61f8 <_vfiprintf_r+0x214>
    61f0:	41170833          	sub	x16,x14,x17
    61f4:	330048e3          	blt	x0,x16,6d24 <_vfiprintf_r+0xd40>
    61f8:	03b14583          	lbu	x11,59(x2)
    61fc:	02058863          	beq	x11,x0,622c <_vfiprintf_r+0x248>
    6200:	00178793          	addi	x15,x15,1
    6204:	03b10593          	addi	x11,x2,59
    6208:	00100613          	addi	x12,x0,1
    620c:	04f12423          	sw	x15,72(x2)
    6210:	05c12223          	sw	x28,68(x2)
    6214:	00b42023          	sw	x11,0(x8)
    6218:	00c42223          	sw	x12,4(x8)
    621c:	23cb4ce3          	blt	x22,x28,6c54 <_vfiprintf_r+0xc70>
    6220:	000e0613          	addi	x12,x28,0
    6224:	00840413          	addi	x8,x8,8
    6228:	001e0e13          	addi	x28,x28,1
    622c:	060e8263          	beq	x29,x0,6290 <_vfiprintf_r+0x2ac>
    6230:	00278793          	addi	x15,x15,2
    6234:	03c10593          	addi	x11,x2,60
    6238:	00200613          	addi	x12,x0,2
    623c:	04f12423          	sw	x15,72(x2)
    6240:	05c12223          	sw	x28,68(x2)
    6244:	00b42023          	sw	x11,0(x8)
    6248:	00c42223          	sw	x12,4(x8)
    624c:	27cb58e3          	bge	x22,x28,6cbc <_vfiprintf_r+0xcd8>
    6250:	420786e3          	beq	x15,x0,6e7c <_vfiprintf_r+0xe98>
    6254:	04010613          	addi	x12,x2,64
    6258:	000b8593          	addi	x11,x23,0
    625c:	000c0513          	addi	x10,x24,0
    6260:	02e12223          	sw	x14,36(x2)
    6264:	01112a23          	sw	x17,20(x2)
    6268:	01e12823          	sw	x30,16(x2)
    626c:	c3dff0ef          	jal	x1,5ea8 <__sprint_r.part.0>
    6270:	0a051e63          	bne	x10,x0,632c <_vfiprintf_r+0x348>
    6274:	04412603          	lw	x12,68(x2)
    6278:	04812783          	lw	x15,72(x2)
    627c:	02412703          	lw	x14,36(x2)
    6280:	01412883          	lw	x17,20(x2)
    6284:	01012f03          	lw	x30,16(x2)
    6288:	000a8413          	addi	x8,x21,0
    628c:	00160e13          	addi	x28,x12,1
    6290:	08000593          	addi	x11,x0,128
    6294:	7abf0863          	beq	x30,x11,6a44 <_vfiprintf_r+0xa60>
    6298:	41b484b3          	sub	x9,x9,x27
    629c:	0c9042e3          	blt	x0,x9,6b60 <_vfiprintf_r+0xb7c>
    62a0:	00fd87b3          	add	x15,x27,x15
    62a4:	04f12423          	sw	x15,72(x2)
    62a8:	01242023          	sw	x18,0(x8)
    62ac:	01b42223          	sw	x27,4(x8)
    62b0:	05c12223          	sw	x28,68(x2)
    62b4:	15cb5e63          	bge	x22,x28,6410 <_vfiprintf_r+0x42c>
    62b8:	16078063          	beq	x15,x0,6418 <_vfiprintf_r+0x434>
    62bc:	04010613          	addi	x12,x2,64
    62c0:	000b8593          	addi	x11,x23,0
    62c4:	000c0513          	addi	x10,x24,0
    62c8:	00e12a23          	sw	x14,20(x2)
    62cc:	01112823          	sw	x17,16(x2)
    62d0:	bd9ff0ef          	jal	x1,5ea8 <__sprint_r.part.0>
    62d4:	04051c63          	bne	x10,x0,632c <_vfiprintf_r+0x348>
    62d8:	04812783          	lw	x15,72(x2)
    62dc:	01412703          	lw	x14,20(x2)
    62e0:	01012883          	lw	x17,16(x2)
    62e4:	000a8413          	addi	x8,x21,0
    62e8:	004d7693          	andi	x13,x26,4
    62ec:	00068663          	beq	x13,x0,62f8 <_vfiprintf_r+0x314>
    62f0:	41170933          	sub	x18,x14,x17
    62f4:	13204e63          	blt	x0,x18,6430 <_vfiprintf_r+0x44c>
    62f8:	01175463          	bge	x14,x17,6300 <_vfiprintf_r+0x31c>
    62fc:	00088713          	addi	x14,x17,0
    6300:	00412683          	lw	x13,4(x2)
    6304:	00e68733          	add	x14,x13,x14
    6308:	00e12223          	sw	x14,4(x2)
    630c:	120790e3          	bne	x15,x0,6c2c <_vfiprintf_r+0xc48>
    6310:	0009c783          	lbu	x15,0(x19)
    6314:	04012223          	sw	x0,68(x2)
    6318:	000a8413          	addi	x8,x21,0
    631c:	da0792e3          	bne	x15,x0,60c0 <_vfiprintf_r+0xdc>
    6320:	04812783          	lw	x15,72(x2)
    6324:	00078463          	beq	x15,x0,632c <_vfiprintf_r+0x348>
    6328:	0840106f          	jal	x0,73ac <_vfiprintf_r+0x13c8>
    632c:	00cbd783          	lhu	x15,12(x23)
    6330:	12812403          	lw	x8,296(x2)
    6334:	12412483          	lw	x9,292(x2)
    6338:	0407f793          	andi	x15,x15,64
    633c:	12012903          	lw	x18,288(x2)
    6340:	11812a03          	lw	x20,280(x2)
    6344:	11412a83          	lw	x21,276(x2)
    6348:	11012b03          	lw	x22,272(x2)
    634c:	10412c83          	lw	x25,260(x2)
    6350:	10012d03          	lw	x26,256(x2)
    6354:	0fc12d83          	lw	x27,252(x2)
    6358:	00078463          	beq	x15,x0,6360 <_vfiprintf_r+0x37c>
    635c:	09c0106f          	jal	x0,73f8 <_vfiprintf_r+0x1414>
    6360:	12c12083          	lw	x1,300(x2)
    6364:	00412503          	lw	x10,4(x2)
    6368:	11c12983          	lw	x19,284(x2)
    636c:	10c12b83          	lw	x23,268(x2)
    6370:	10812c03          	lw	x24,264(x2)
    6374:	13010113          	addi	x2,x2,304
    6378:	00008067          	jalr	x0,0(x1)
    637c:	0009c603          	lbu	x12,0(x19)
    6380:	dd1ff06f          	jal	x0,6150 <_vfiprintf_r+0x16c>
    6384:	0009c603          	lbu	x12,0(x19)
    6388:	020d6d13          	ori	x26,x26,32
    638c:	dc5ff06f          	jal	x0,6150 <_vfiprintf_r+0x16c>
    6390:	000b8593          	addi	x11,x23,0
    6394:	000c0513          	addi	x10,x24,0
    6398:	f54fc0ef          	jal	x1,2aec <__swsetup_r>
    639c:	00050463          	beq	x10,x0,63a4 <_vfiprintf_r+0x3c0>
    63a0:	0580106f          	jal	x0,73f8 <_vfiprintf_r+0x1414>
    63a4:	00cb9783          	lh	x15,12(x23)
    63a8:	00a00713          	addi	x14,x0,10
    63ac:	01a7f793          	andi	x15,x15,26
    63b0:	cae798e3          	bne	x15,x14,6060 <_vfiprintf_r+0x7c>
    63b4:	00eb9783          	lh	x15,14(x23)
    63b8:	ca07c4e3          	blt	x15,x0,6060 <_vfiprintf_r+0x7c>
    63bc:	00812683          	lw	x13,8(x2)
    63c0:	12c12083          	lw	x1,300(x2)
    63c4:	00098613          	addi	x12,x19,0
    63c8:	000b8593          	addi	x11,x23,0
    63cc:	11c12983          	lw	x19,284(x2)
    63d0:	10c12b83          	lw	x23,268(x2)
    63d4:	000c0513          	addi	x10,x24,0
    63d8:	10812c03          	lw	x24,264(x2)
    63dc:	13010113          	addi	x2,x2,304
    63e0:	0780106f          	jal	x0,7458 <__sbprintf>
    63e4:	41348933          	sub	x18,x9,x19
    63e8:	cf349ae3          	bne	x9,x19,60dc <_vfiprintf_r+0xf8>
    63ec:	0004c783          	lbu	x15,0(x9)
    63f0:	d41ff06f          	jal	x0,6130 <_vfiprintf_r+0x14c>
    63f4:	00100613          	addi	x12,x0,1
    63f8:	000d8793          	addi	x15,x27,0
    63fc:	05b12823          	sw	x27,80(x2)
    6400:	05b12423          	sw	x27,72(x2)
    6404:	05212623          	sw	x18,76(x2)
    6408:	04c12223          	sw	x12,68(x2)
    640c:	000a8413          	addi	x8,x21,0
    6410:	00840413          	addi	x8,x8,8
    6414:	ed5ff06f          	jal	x0,62e8 <_vfiprintf_r+0x304>
    6418:	04012223          	sw	x0,68(x2)
    641c:	004d7693          	andi	x13,x26,4
    6420:	200684e3          	beq	x13,x0,6e28 <_vfiprintf_r+0xe44>
    6424:	41170933          	sub	x18,x14,x17
    6428:	212050e3          	bge	x0,x18,6e28 <_vfiprintf_r+0xe44>
    642c:	000a8413          	addi	x8,x21,0
    6430:	01000d93          	addi	x27,x0,16
    6434:	04412603          	lw	x12,68(x2)
    6438:	7b2dd0e3          	bge	x27,x18,73d8 <_vfiprintf_r+0x13f4>
    643c:	0000ce17          	auipc	x28,0xc
    6440:	cd4e0e13          	addi	x28,x28,-812 # 12110 <blanks.1>
    6444:	00040693          	addi	x13,x8,0
    6448:	000d8493          	addi	x9,x27,0
    644c:	00090413          	addi	x8,x18,0
    6450:	00700d13          	addi	x26,x0,7
    6454:	01112823          	sw	x17,16(x2)
    6458:	00e12a23          	sw	x14,20(x2)
    645c:	000e0913          	addi	x18,x28,0
    6460:	0180006f          	jal	x0,6478 <_vfiprintf_r+0x494>
    6464:	00260593          	addi	x11,x12,2
    6468:	00868693          	addi	x13,x13,8
    646c:	00070613          	addi	x12,x14,0
    6470:	ff040413          	addi	x8,x8,-16
    6474:	0484d863          	bge	x9,x8,64c4 <_vfiprintf_r+0x4e0>
    6478:	01078793          	addi	x15,x15,16
    647c:	00160713          	addi	x14,x12,1
    6480:	04f12423          	sw	x15,72(x2)
    6484:	0126a023          	sw	x18,0(x13)
    6488:	01b6a223          	sw	x27,4(x13)
    648c:	04e12223          	sw	x14,68(x2)
    6490:	fced5ae3          	bge	x26,x14,6464 <_vfiprintf_r+0x480>
    6494:	5a078063          	beq	x15,x0,6a34 <_vfiprintf_r+0xa50>
    6498:	04010613          	addi	x12,x2,64
    649c:	000b8593          	addi	x11,x23,0
    64a0:	000c0513          	addi	x10,x24,0
    64a4:	a05ff0ef          	jal	x1,5ea8 <__sprint_r.part.0>
    64a8:	e80512e3          	bne	x10,x0,632c <_vfiprintf_r+0x348>
    64ac:	04412603          	lw	x12,68(x2)
    64b0:	ff040413          	addi	x8,x8,-16
    64b4:	04812783          	lw	x15,72(x2)
    64b8:	000a8693          	addi	x13,x21,0
    64bc:	00160593          	addi	x11,x12,1
    64c0:	fa84cce3          	blt	x9,x8,6478 <_vfiprintf_r+0x494>
    64c4:	01012883          	lw	x17,16(x2)
    64c8:	01412703          	lw	x14,20(x2)
    64cc:	00090e13          	addi	x28,x18,0
    64d0:	00040913          	addi	x18,x8,0
    64d4:	00068413          	addi	x8,x13,0
    64d8:	012787b3          	add	x15,x15,x18
    64dc:	04f12423          	sw	x15,72(x2)
    64e0:	01c42023          	sw	x28,0(x8)
    64e4:	01242223          	sw	x18,4(x8)
    64e8:	04b12223          	sw	x11,68(x2)
    64ec:	00700693          	addi	x13,x0,7
    64f0:	e0b6d4e3          	bge	x13,x11,62f8 <_vfiprintf_r+0x314>
    64f4:	12078ae3          	beq	x15,x0,6e28 <_vfiprintf_r+0xe44>
    64f8:	04010613          	addi	x12,x2,64
    64fc:	000b8593          	addi	x11,x23,0
    6500:	000c0513          	addi	x10,x24,0
    6504:	00e12a23          	sw	x14,20(x2)
    6508:	01112823          	sw	x17,16(x2)
    650c:	99dff0ef          	jal	x1,5ea8 <__sprint_r.part.0>
    6510:	e0051ee3          	bne	x10,x0,632c <_vfiprintf_r+0x348>
    6514:	04812783          	lw	x15,72(x2)
    6518:	01412703          	lw	x14,20(x2)
    651c:	01012883          	lw	x17,16(x2)
    6520:	dd9ff06f          	jal	x0,62f8 <_vfiprintf_r+0x314>
    6524:	020d7793          	andi	x15,x26,32
    6528:	00090713          	addi	x14,x18,0
    652c:	12079263          	bne	x15,x0,6650 <_vfiprintf_r+0x66c>
    6530:	00812683          	lw	x13,8(x2)
    6534:	010d7793          	andi	x15,x26,16
    6538:	0006ad83          	lw	x27,0(x13)
    653c:	00468513          	addi	x10,x13,4
    6540:	6e0798e3          	bne	x15,x0,7430 <_vfiprintf_r+0x144c>
    6544:	040d7793          	andi	x15,x26,64
    6548:	5a078ce3          	beq	x15,x0,7300 <_vfiprintf_r+0x131c>
    654c:	010d9d93          	slli	x27,x27,0x10
    6550:	410ddd93          	srai	x27,x27,0x10
    6554:	41fdd893          	srai	x17,x27,0x1f
    6558:	00a12423          	sw	x10,8(x2)
    655c:	00088613          	addi	x12,x17,0
    6560:	10064a63          	blt	x12,x0,6674 <_vfiprintf_r+0x690>
    6564:	1204c863          	blt	x9,x0,6694 <_vfiprintf_r+0x6b0>
    6568:	011de7b3          	or	x15,x27,x17
    656c:	f7fd7d13          	andi	x26,x26,-129
    6570:	12079263          	bne	x15,x0,6694 <_vfiprintf_r+0x6b0>
    6574:	640496e3          	bne	x9,x0,73c0 <_vfiprintf_r+0x13dc>
    6578:	03b14783          	lbu	x15,59(x2)
    657c:	00000893          	addi	x17,x0,0
    6580:	00000d93          	addi	x27,x0,0
    6584:	0f010913          	addi	x18,x2,240
    6588:	00078463          	beq	x15,x0,6590 <_vfiprintf_r+0x5ac>
    658c:	00188893          	addi	x17,x17,1
    6590:	002d7e93          	andi	x29,x26,2
    6594:	c40e82e3          	beq	x29,x0,61d8 <_vfiprintf_r+0x1f4>
    6598:	00288893          	addi	x17,x17,2
    659c:	00200e93          	addi	x29,x0,2
    65a0:	c39ff06f          	jal	x0,61d8 <_vfiprintf_r+0x1f4>
    65a4:	00812783          	lw	x15,8(x2)
    65a8:	00090713          	addi	x14,x18,0
    65ac:	02010da3          	sb	x0,59(x2)
    65b0:	0007a903          	lw	x18,0(x15)
    65b4:	00478693          	addi	x13,x15,4
    65b8:	4e0908e3          	beq	x18,x0,72a8 <_vfiprintf_r+0x12c4>
    65bc:	00d12823          	sw	x13,16(x2)
    65c0:	00e12423          	sw	x14,8(x2)
    65c4:	3a04c2e3          	blt	x9,x0,7168 <_vfiprintf_r+0x1184>
    65c8:	00048613          	addi	x12,x9,0
    65cc:	00000593          	addi	x11,x0,0
    65d0:	00090513          	addi	x10,x18,0
    65d4:	8adfb0ef          	jal	x1,1e80 <memchr>
    65d8:	00812703          	lw	x14,8(x2)
    65dc:	01012683          	lw	x13,16(x2)
    65e0:	00048d93          	addi	x27,x9,0
    65e4:	00050463          	beq	x10,x0,65ec <_vfiprintf_r+0x608>
    65e8:	41250db3          	sub	x27,x10,x18
    65ec:	03b14783          	lbu	x15,59(x2)
    65f0:	fffdc893          	xori	x17,x27,-1
    65f4:	41f8d893          	srai	x17,x17,0x1f
    65f8:	00d12423          	sw	x13,8(x2)
    65fc:	011df8b3          	and	x17,x27,x17
    6600:	00000493          	addi	x9,x0,0
    6604:	00000e93          	addi	x29,x0,0
    6608:	f80792e3          	bne	x15,x0,658c <_vfiprintf_r+0x5a8>
    660c:	bcdff06f          	jal	x0,61d8 <_vfiprintf_r+0x1f4>
    6610:	00812683          	lw	x13,8(x2)
    6614:	00100893          	addi	x17,x0,1
    6618:	00090713          	addi	x14,x18,0
    661c:	0006a783          	lw	x15,0(x13)
    6620:	02010da3          	sb	x0,59(x2)
    6624:	00088d93          	addi	x27,x17,0
    6628:	08f10623          	sb	x15,140(x2)
    662c:	00468793          	addi	x15,x13,4
    6630:	00f12423          	sw	x15,8(x2)
    6634:	08c10913          	addi	x18,x2,140
    6638:	b99ff06f          	jal	x0,61d0 <_vfiprintf_r+0x1ec>
    663c:	020d7793          	andi	x15,x26,32
    6640:	00090713          	addi	x14,x18,0
    6644:	010d6693          	ori	x13,x26,16
    6648:	220788e3          	beq	x15,x0,7078 <_vfiprintf_r+0x1094>
    664c:	00068d13          	addi	x26,x13,0
    6650:	00812783          	lw	x15,8(x2)
    6654:	00778793          	addi	x15,x15,7
    6658:	ff87f793          	andi	x15,x15,-8
    665c:	0047a603          	lw	x12,4(x15)
    6660:	00878693          	addi	x13,x15,8
    6664:	00d12423          	sw	x13,8(x2)
    6668:	0007ad83          	lw	x27,0(x15)
    666c:	00060893          	addi	x17,x12,0
    6670:	ee065ae3          	bge	x12,x0,6564 <_vfiprintf_r+0x580>
    6674:	02d00613          	addi	x12,x0,45
    6678:	01b037b3          	sltu	x15,x0,x27
    667c:	411008b3          	sub	x17,x0,x17
    6680:	02c10da3          	sb	x12,59(x2)
    6684:	40f888b3          	sub	x17,x17,x15
    6688:	41b00db3          	sub	x27,x0,x27
    668c:	0004c463          	blt	x9,x0,6694 <_vfiprintf_r+0x6b0>
    6690:	f7fd7d13          	andi	x26,x26,-129
    6694:	040896e3          	bne	x17,x0,6ee0 <_vfiprintf_r+0xefc>
    6698:	00900793          	addi	x15,x0,9
    669c:	05b7e2e3          	bltu	x15,x27,6ee0 <_vfiprintf_r+0xefc>
    66a0:	030d8793          	addi	x15,x27,48
    66a4:	0ff7f793          	andi	x15,x15,255
    66a8:	0ef107a3          	sb	x15,239(x2)
    66ac:	00048893          	addi	x17,x9,0
    66b0:	00904463          	blt	x0,x9,66b8 <_vfiprintf_r+0x6d4>
    66b4:	00100893          	addi	x17,x0,1
    66b8:	00100d93          	addi	x27,x0,1
    66bc:	0ef10913          	addi	x18,x2,239
    66c0:	03b14783          	lbu	x15,59(x2)
    66c4:	ec0794e3          	bne	x15,x0,658c <_vfiprintf_r+0x5a8>
    66c8:	ec9ff06f          	jal	x0,6590 <_vfiprintf_r+0x5ac>
    66cc:	00812783          	lw	x15,8(x2)
    66d0:	0007a903          	lw	x18,0(x15)
    66d4:	00478793          	addi	x15,x15,4
    66d8:	100952e3          	bge	x18,x0,6fdc <_vfiprintf_r+0xff8>
    66dc:	41200933          	sub	x18,x0,x18
    66e0:	00f12423          	sw	x15,8(x2)
    66e4:	0009c603          	lbu	x12,0(x19)
    66e8:	004d6d13          	ori	x26,x26,4
    66ec:	a65ff06f          	jal	x0,6150 <_vfiprintf_r+0x16c>
    66f0:	02b00793          	addi	x15,x0,43
    66f4:	0009c603          	lbu	x12,0(x19)
    66f8:	02f10da3          	sb	x15,59(x2)
    66fc:	a55ff06f          	jal	x0,6150 <_vfiprintf_r+0x16c>
    6700:	0009c603          	lbu	x12,0(x19)
    6704:	080d6d13          	ori	x26,x26,128
    6708:	a49ff06f          	jal	x0,6150 <_vfiprintf_r+0x16c>
    670c:	0009c603          	lbu	x12,0(x19)
    6710:	02a00793          	addi	x15,x0,42
    6714:	00198593          	addi	x11,x19,1
    6718:	4ef606e3          	beq	x12,x15,7404 <_vfiprintf_r+0x1420>
    671c:	00900513          	addi	x10,x0,9
    6720:	fd060793          	addi	x15,x12,-48
    6724:	00000493          	addi	x9,x0,0
    6728:	02f56463          	bltu	x10,x15,6750 <_vfiprintf_r+0x76c>
    672c:	00249693          	slli	x13,x9,0x2
    6730:	0005c603          	lbu	x12,0(x11)
    6734:	009684b3          	add	x9,x13,x9
    6738:	00149493          	slli	x9,x9,0x1
    673c:	00f484b3          	add	x9,x9,x15
    6740:	fd060793          	addi	x15,x12,-48
    6744:	00158593          	addi	x11,x11,1
    6748:	fef572e3          	bgeu	x10,x15,672c <_vfiprintf_r+0x748>
    674c:	1604c6e3          	blt	x9,x0,70b8 <_vfiprintf_r+0x10d4>
    6750:	00058993          	addi	x19,x11,0
    6754:	a01ff06f          	jal	x0,6154 <_vfiprintf_r+0x170>
    6758:	020d7793          	andi	x15,x26,32
    675c:	00090713          	addi	x14,x18,0
    6760:	010d6613          	ori	x12,x26,16
    6764:	0e078ce3          	beq	x15,x0,705c <_vfiprintf_r+0x1078>
    6768:	00812783          	lw	x15,8(x2)
    676c:	00778693          	addi	x13,x15,7
    6770:	ff86f693          	andi	x13,x13,-8
    6774:	00868793          	addi	x15,x13,8
    6778:	00f12423          	sw	x15,8(x2)
    677c:	0046a583          	lw	x11,4(x13)
    6780:	0006a783          	lw	x15,0(x13)
    6784:	02010da3          	sb	x0,59(x2)
    6788:	bff67d13          	andi	x26,x12,-1025
    678c:	1004cc63          	blt	x9,x0,68a4 <_vfiprintf_r+0x8c0>
    6790:	00b7e533          	or	x10,x15,x11
    6794:	b7f67613          	andi	x12,x12,-1153
    6798:	100512e3          	bne	x10,x0,709c <_vfiprintf_r+0x10b8>
    679c:	000d0313          	addi	x6,x26,0
    67a0:	00000793          	addi	x15,x0,0
    67a4:	00060d13          	addi	x26,x12,0
    67a8:	0e049263          	bne	x9,x0,688c <_vfiprintf_r+0x8a8>
    67ac:	dc0796e3          	bne	x15,x0,6578 <_vfiprintf_r+0x594>
    67b0:	00137d93          	andi	x27,x6,1
    67b4:	020d8ae3          	beq	x27,x0,6fe8 <_vfiprintf_r+0x1004>
    67b8:	03000793          	addi	x15,x0,48
    67bc:	0ef107a3          	sb	x15,239(x2)
    67c0:	000d8893          	addi	x17,x27,0
    67c4:	0ef10913          	addi	x18,x2,239
    67c8:	ef9ff06f          	jal	x0,66c0 <_vfiprintf_r+0x6dc>
    67cc:	0009c603          	lbu	x12,0(x19)
    67d0:	001d6d13          	ori	x26,x26,1
    67d4:	97dff06f          	jal	x0,6150 <_vfiprintf_r+0x16c>
    67d8:	03b14783          	lbu	x15,59(x2)
    67dc:	0009c603          	lbu	x12,0(x19)
    67e0:	960798e3          	bne	x15,x0,6150 <_vfiprintf_r+0x16c>
    67e4:	02000793          	addi	x15,x0,32
    67e8:	02f10da3          	sb	x15,59(x2)
    67ec:	965ff06f          	jal	x0,6150 <_vfiprintf_r+0x16c>
    67f0:	000c0513          	addi	x10,x24,0
    67f4:	209030ef          	jal	x1,a1fc <_localeconv_r>
    67f8:	00452783          	lw	x15,4(x10)
    67fc:	00078513          	addi	x10,x15,0
    6800:	02f12023          	sw	x15,32(x2)
    6804:	c2cfc0ef          	jal	x1,2c30 <strlen>
    6808:	00050793          	addi	x15,x10,0
    680c:	000c0513          	addi	x10,x24,0
    6810:	00078d93          	addi	x27,x15,0
    6814:	00f12e23          	sw	x15,28(x2)
    6818:	1e5030ef          	jal	x1,a1fc <_localeconv_r>
    681c:	00852703          	lw	x14,8(x10)
    6820:	0009c603          	lbu	x12,0(x19)
    6824:	00e12c23          	sw	x14,24(x2)
    6828:	920d84e3          	beq	x27,x0,6150 <_vfiprintf_r+0x16c>
    682c:	920702e3          	beq	x14,x0,6150 <_vfiprintf_r+0x16c>
    6830:	00074783          	lbu	x15,0(x14)
    6834:	90078ee3          	beq	x15,x0,6150 <_vfiprintf_r+0x16c>
    6838:	400d6d13          	ori	x26,x26,1024
    683c:	915ff06f          	jal	x0,6150 <_vfiprintf_r+0x16c>
    6840:	020d7793          	andi	x15,x26,32
    6844:	00090713          	addi	x14,x18,0
    6848:	010d6313          	ori	x6,x26,16
    684c:	7e078a63          	beq	x15,x0,7040 <_vfiprintf_r+0x105c>
    6850:	00812783          	lw	x15,8(x2)
    6854:	00778793          	addi	x15,x15,7
    6858:	ff87f793          	andi	x15,x15,-8
    685c:	0007ad83          	lw	x27,0(x15)
    6860:	0047a883          	lw	x17,4(x15)
    6864:	00878693          	addi	x13,x15,8
    6868:	00d12423          	sw	x13,8(x2)
    686c:	02010da3          	sb	x0,59(x2)
    6870:	00030d13          	addi	x26,x6,0
    6874:	e204c0e3          	blt	x9,x0,6694 <_vfiprintf_r+0x6b0>
    6878:	011de7b3          	or	x15,x27,x17
    687c:	f7f37d13          	andi	x26,x6,-129
    6880:	e0079ae3          	bne	x15,x0,6694 <_vfiprintf_r+0x6b0>
    6884:	00100793          	addi	x15,x0,1
    6888:	f20482e3          	beq	x9,x0,67ac <_vfiprintf_r+0x7c8>
    688c:	00100613          	addi	x12,x0,1
    6890:	32c788e3          	beq	x15,x12,73c0 <_vfiprintf_r+0x13dc>
    6894:	00200613          	addi	x12,x0,2
    6898:	2ac782e3          	beq	x15,x12,733c <_vfiprintf_r+0x1358>
    689c:	00000793          	addi	x15,x0,0
    68a0:	00000593          	addi	x11,x0,0
    68a4:	0f010913          	addi	x18,x2,240
    68a8:	01d59693          	slli	x13,x11,0x1d
    68ac:	0077f613          	andi	x12,x15,7
    68b0:	0037d793          	srli	x15,x15,0x3
    68b4:	00090813          	addi	x16,x18,0
    68b8:	03060613          	addi	x12,x12,48
    68bc:	00f6e7b3          	or	x15,x13,x15
    68c0:	0035d593          	srli	x11,x11,0x3
    68c4:	00b7e6b3          	or	x13,x15,x11
    68c8:	fec90fa3          	sb	x12,-1(x18)
    68cc:	fff90913          	addi	x18,x18,-1
    68d0:	fc069ce3          	bne	x13,x0,68a8 <_vfiprintf_r+0x8c4>
    68d4:	001d7793          	andi	x15,x26,1
    68d8:	42078a63          	beq	x15,x0,6d0c <_vfiprintf_r+0xd28>
    68dc:	03000793          	addi	x15,x0,48
    68e0:	42f60663          	beq	x12,x15,6d0c <_vfiprintf_r+0xd28>
    68e4:	ffe80813          	addi	x16,x16,-2
    68e8:	fef90fa3          	sb	x15,-1(x18)
    68ec:	0f010793          	addi	x15,x2,240
    68f0:	41078db3          	sub	x27,x15,x16
    68f4:	000d8893          	addi	x17,x27,0
    68f8:	7a9dca63          	blt	x27,x9,70ac <_vfiprintf_r+0x10c8>
    68fc:	00080913          	addi	x18,x16,0
    6900:	dc1ff06f          	jal	x0,66c0 <_vfiprintf_r+0x6dc>
    6904:	0009c603          	lbu	x12,0(x19)
    6908:	06800793          	addi	x15,x0,104
    690c:	16f604e3          	beq	x12,x15,7274 <_vfiprintf_r+0x1290>
    6910:	040d6d13          	ori	x26,x26,64
    6914:	83dff06f          	jal	x0,6150 <_vfiprintf_r+0x16c>
    6918:	020d7793          	andi	x15,x26,32
    691c:	00090713          	addi	x14,x18,0
    6920:	70079863          	bne	x15,x0,7030 <_vfiprintf_r+0x104c>
    6924:	00812683          	lw	x13,8(x2)
    6928:	010d7793          	andi	x15,x26,16
    692c:	0006ad83          	lw	x27,0(x13)
    6930:	00468513          	addi	x10,x13,4
    6934:	300792e3          	bne	x15,x0,7438 <_vfiprintf_r+0x1454>
    6938:	040d7793          	andi	x15,x26,64
    693c:	180786e3          	beq	x15,x0,72c8 <_vfiprintf_r+0x12e4>
    6940:	010d9d93          	slli	x27,x27,0x10
    6944:	010ddd93          	srli	x27,x27,0x10
    6948:	00a12423          	sw	x10,8(x2)
    694c:	000d0313          	addi	x6,x26,0
    6950:	00000893          	addi	x17,x0,0
    6954:	f19ff06f          	jal	x0,686c <_vfiprintf_r+0x888>
    6958:	00812683          	lw	x13,8(x2)
    695c:	000087b7          	lui	x15,0x8
    6960:	83078793          	addi	x15,x15,-2000 # 7830 <__gdtoa+0x29c>
    6964:	00468693          	addi	x13,x13,4
    6968:	02f11e23          	sh	x15,60(x2)
    696c:	ffc6a783          	lw	x15,-4(x13)
    6970:	00d12423          	sw	x13,8(x2)
    6974:	0000b697          	auipc	x13,0xb
    6978:	0fc68693          	addi	x13,x13,252 # 11a70 <__clzsi2+0xd8>
    697c:	00090713          	addi	x14,x18,0
    6980:	002d6d13          	ori	x26,x26,2
    6984:	00000593          	addi	x11,x0,0
    6988:	00d12623          	sw	x13,12(x2)
    698c:	02010da3          	sb	x0,59(x2)
    6990:	3404c463          	blt	x9,x0,6cd8 <_vfiprintf_r+0xcf4>
    6994:	00b7e633          	or	x12,x15,x11
    6998:	f7fd7513          	andi	x10,x26,-129
    699c:	32061863          	bne	x12,x0,6ccc <_vfiprintf_r+0xce8>
    69a0:	000d0313          	addi	x6,x26,0
    69a4:	00200793          	addi	x15,x0,2
    69a8:	00050d13          	addi	x26,x10,0
    69ac:	dfdff06f          	jal	x0,67a8 <_vfiprintf_r+0x7c4>
    69b0:	020d7793          	andi	x15,x26,32
    69b4:	00090713          	addi	x14,x18,0
    69b8:	68079063          	bne	x15,x0,7038 <_vfiprintf_r+0x1054>
    69bc:	00812683          	lw	x13,8(x2)
    69c0:	010d7613          	andi	x12,x26,16
    69c4:	0006a783          	lw	x15,0(x13)
    69c8:	00468513          	addi	x10,x13,4
    69cc:	24061ee3          	bne	x12,x0,7428 <_vfiprintf_r+0x1444>
    69d0:	040d7613          	andi	x12,x26,64
    69d4:	100608e3          	beq	x12,x0,72e4 <_vfiprintf_r+0x1300>
    69d8:	01079793          	slli	x15,x15,0x10
    69dc:	0107d793          	srli	x15,x15,0x10
    69e0:	00a12423          	sw	x10,8(x2)
    69e4:	000d0613          	addi	x12,x26,0
    69e8:	00000593          	addi	x11,x0,0
    69ec:	d99ff06f          	jal	x0,6784 <_vfiprintf_r+0x7a0>
    69f0:	020d7793          	andi	x15,x26,32
    69f4:	60078863          	beq	x15,x0,7004 <_vfiprintf_r+0x1020>
    69f8:	00812783          	lw	x15,8(x2)
    69fc:	00412683          	lw	x13,4(x2)
    6a00:	0007a783          	lw	x15,0(x15)
    6a04:	41f6d713          	srai	x14,x13,0x1f
    6a08:	00d7a023          	sw	x13,0(x15)
    6a0c:	00e7a223          	sw	x14,4(x15)
    6a10:	00812783          	lw	x15,8(x2)
    6a14:	00478793          	addi	x15,x15,4
    6a18:	00f12423          	sw	x15,8(x2)
    6a1c:	e9cff06f          	jal	x0,60b8 <_vfiprintf_r+0xd4>
    6a20:	0009c603          	lbu	x12,0(x19)
    6a24:	06c00793          	addi	x15,x0,108
    6a28:	04f60ee3          	beq	x12,x15,7284 <_vfiprintf_r+0x12a0>
    6a2c:	010d6d13          	ori	x26,x26,16
    6a30:	f20ff06f          	jal	x0,6150 <_vfiprintf_r+0x16c>
    6a34:	00100593          	addi	x11,x0,1
    6a38:	00000613          	addi	x12,x0,0
    6a3c:	000a8693          	addi	x13,x21,0
    6a40:	a31ff06f          	jal	x0,6470 <_vfiprintf_r+0x48c>
    6a44:	41170eb3          	sub	x29,x14,x17
    6a48:	85d058e3          	bge	x0,x29,6298 <_vfiprintf_r+0x2b4>
    6a4c:	01000f13          	addi	x30,x0,16
    6a50:	19df5ce3          	bge	x30,x29,73e8 <_vfiprintf_r+0x1404>
    6a54:	0000b817          	auipc	x16,0xb
    6a58:	6cc80813          	addi	x16,x16,1740 # 12120 <zeroes.0>
    6a5c:	02912223          	sw	x9,36(x2)
    6a60:	00040693          	addi	x13,x8,0
    6a64:	000f0f93          	addi	x31,x30,0
    6a68:	00700e13          	addi	x28,x0,7
    6a6c:	01112823          	sw	x17,16(x2)
    6a70:	00e12a23          	sw	x14,20(x2)
    6a74:	000e8413          	addi	x8,x29,0
    6a78:	00080493          	addi	x9,x16,0
    6a7c:	0180006f          	jal	x0,6a94 <_vfiprintf_r+0xab0>
    6a80:	00260593          	addi	x11,x12,2
    6a84:	00868693          	addi	x13,x13,8
    6a88:	00070613          	addi	x12,x14,0
    6a8c:	ff040413          	addi	x8,x8,-16
    6a90:	048fde63          	bge	x31,x8,6aec <_vfiprintf_r+0xb08>
    6a94:	01078793          	addi	x15,x15,16
    6a98:	00160713          	addi	x14,x12,1
    6a9c:	04f12423          	sw	x15,72(x2)
    6aa0:	0096a023          	sw	x9,0(x13)
    6aa4:	01e6a223          	sw	x30,4(x13)
    6aa8:	04e12223          	sw	x14,68(x2)
    6aac:	fcee5ae3          	bge	x28,x14,6a80 <_vfiprintf_r+0xa9c>
    6ab0:	18078a63          	beq	x15,x0,6c44 <_vfiprintf_r+0xc60>
    6ab4:	04010613          	addi	x12,x2,64
    6ab8:	000b8593          	addi	x11,x23,0
    6abc:	000c0513          	addi	x10,x24,0
    6ac0:	be8ff0ef          	jal	x1,5ea8 <__sprint_r.part.0>
    6ac4:	860514e3          	bne	x10,x0,632c <_vfiprintf_r+0x348>
    6ac8:	04412603          	lw	x12,68(x2)
    6acc:	01000f93          	addi	x31,x0,16
    6ad0:	ff040413          	addi	x8,x8,-16
    6ad4:	04812783          	lw	x15,72(x2)
    6ad8:	000a8693          	addi	x13,x21,0
    6adc:	00160593          	addi	x11,x12,1
    6ae0:	00700e13          	addi	x28,x0,7
    6ae4:	000f8f13          	addi	x30,x31,0
    6ae8:	fa8fc6e3          	blt	x31,x8,6a94 <_vfiprintf_r+0xab0>
    6aec:	00048813          	addi	x16,x9,0
    6af0:	01012883          	lw	x17,16(x2)
    6af4:	01412703          	lw	x14,20(x2)
    6af8:	02412483          	lw	x9,36(x2)
    6afc:	00040e93          	addi	x29,x8,0
    6b00:	00068413          	addi	x8,x13,0
    6b04:	01d787b3          	add	x15,x15,x29
    6b08:	04f12423          	sw	x15,72(x2)
    6b0c:	01042023          	sw	x16,0(x8)
    6b10:	01d42223          	sw	x29,4(x8)
    6b14:	04b12223          	sw	x11,68(x2)
    6b18:	00700613          	addi	x12,x0,7
    6b1c:	4cb65c63          	bge	x12,x11,6ff4 <_vfiprintf_r+0x1010>
    6b20:	000786e3          	beq	x15,x0,732c <_vfiprintf_r+0x1348>
    6b24:	04010613          	addi	x12,x2,64
    6b28:	000b8593          	addi	x11,x23,0
    6b2c:	000c0513          	addi	x10,x24,0
    6b30:	00e12a23          	sw	x14,20(x2)
    6b34:	01112823          	sw	x17,16(x2)
    6b38:	b70ff0ef          	jal	x1,5ea8 <__sprint_r.part.0>
    6b3c:	fe051863          	bne	x10,x0,632c <_vfiprintf_r+0x348>
    6b40:	04412603          	lw	x12,68(x2)
    6b44:	41b484b3          	sub	x9,x9,x27
    6b48:	04812783          	lw	x15,72(x2)
    6b4c:	01412703          	lw	x14,20(x2)
    6b50:	01012883          	lw	x17,16(x2)
    6b54:	000a8413          	addi	x8,x21,0
    6b58:	00160e13          	addi	x28,x12,1
    6b5c:	f4905263          	bge	x0,x9,62a0 <_vfiprintf_r+0x2bc>
    6b60:	0000b817          	auipc	x16,0xb
    6b64:	5c080813          	addi	x16,x16,1472 # 12120 <zeroes.0>
    6b68:	089a5863          	bge	x20,x9,6bf8 <_vfiprintf_r+0xc14>
    6b6c:	00040693          	addi	x13,x8,0
    6b70:	01112823          	sw	x17,16(x2)
    6b74:	00048413          	addi	x8,x9,0
    6b78:	00e12a23          	sw	x14,20(x2)
    6b7c:	00080493          	addi	x9,x16,0
    6b80:	0180006f          	jal	x0,6b98 <_vfiprintf_r+0xbb4>
    6b84:	00260e13          	addi	x28,x12,2
    6b88:	00868693          	addi	x13,x13,8
    6b8c:	00070613          	addi	x12,x14,0
    6b90:	ff040413          	addi	x8,x8,-16
    6b94:	048a5863          	bge	x20,x8,6be4 <_vfiprintf_r+0xc00>
    6b98:	01078793          	addi	x15,x15,16
    6b9c:	00160713          	addi	x14,x12,1
    6ba0:	04f12423          	sw	x15,72(x2)
    6ba4:	0096a023          	sw	x9,0(x13)
    6ba8:	0146a223          	sw	x20,4(x13)
    6bac:	04e12223          	sw	x14,68(x2)
    6bb0:	fceb5ae3          	bge	x22,x14,6b84 <_vfiprintf_r+0xba0>
    6bb4:	06078463          	beq	x15,x0,6c1c <_vfiprintf_r+0xc38>
    6bb8:	04010613          	addi	x12,x2,64
    6bbc:	000b8593          	addi	x11,x23,0
    6bc0:	000c0513          	addi	x10,x24,0
    6bc4:	ae4ff0ef          	jal	x1,5ea8 <__sprint_r.part.0>
    6bc8:	f6051263          	bne	x10,x0,632c <_vfiprintf_r+0x348>
    6bcc:	04412603          	lw	x12,68(x2)
    6bd0:	ff040413          	addi	x8,x8,-16
    6bd4:	04812783          	lw	x15,72(x2)
    6bd8:	000a8693          	addi	x13,x21,0
    6bdc:	00160e13          	addi	x28,x12,1
    6be0:	fa8a4ce3          	blt	x20,x8,6b98 <_vfiprintf_r+0xbb4>
    6be4:	01012883          	lw	x17,16(x2)
    6be8:	01412703          	lw	x14,20(x2)
    6bec:	00048813          	addi	x16,x9,0
    6bf0:	00040493          	addi	x9,x8,0
    6bf4:	00068413          	addi	x8,x13,0
    6bf8:	009787b3          	add	x15,x15,x9
    6bfc:	04f12423          	sw	x15,72(x2)
    6c00:	01042023          	sw	x16,0(x8)
    6c04:	00942223          	sw	x9,4(x8)
    6c08:	05c12223          	sw	x28,68(x2)
    6c0c:	23cb4a63          	blt	x22,x28,6e40 <_vfiprintf_r+0xe5c>
    6c10:	00840413          	addi	x8,x8,8
    6c14:	001e0e13          	addi	x28,x28,1
    6c18:	e88ff06f          	jal	x0,62a0 <_vfiprintf_r+0x2bc>
    6c1c:	00100e13          	addi	x28,x0,1
    6c20:	00000613          	addi	x12,x0,0
    6c24:	000a8693          	addi	x13,x21,0
    6c28:	f69ff06f          	jal	x0,6b90 <_vfiprintf_r+0xbac>
    6c2c:	04010613          	addi	x12,x2,64
    6c30:	000b8593          	addi	x11,x23,0
    6c34:	000c0513          	addi	x10,x24,0
    6c38:	a70ff0ef          	jal	x1,5ea8 <__sprint_r.part.0>
    6c3c:	ec050a63          	beq	x10,x0,6310 <_vfiprintf_r+0x32c>
    6c40:	eecff06f          	jal	x0,632c <_vfiprintf_r+0x348>
    6c44:	00100593          	addi	x11,x0,1
    6c48:	00000613          	addi	x12,x0,0
    6c4c:	000a8693          	addi	x13,x21,0
    6c50:	e3dff06f          	jal	x0,6a8c <_vfiprintf_r+0xaa8>
    6c54:	04078663          	beq	x15,x0,6ca0 <_vfiprintf_r+0xcbc>
    6c58:	04010613          	addi	x12,x2,64
    6c5c:	000b8593          	addi	x11,x23,0
    6c60:	000c0513          	addi	x10,x24,0
    6c64:	02e12423          	sw	x14,40(x2)
    6c68:	03112223          	sw	x17,36(x2)
    6c6c:	01e12a23          	sw	x30,20(x2)
    6c70:	01d12823          	sw	x29,16(x2)
    6c74:	a34ff0ef          	jal	x1,5ea8 <__sprint_r.part.0>
    6c78:	ea051a63          	bne	x10,x0,632c <_vfiprintf_r+0x348>
    6c7c:	04412603          	lw	x12,68(x2)
    6c80:	04812783          	lw	x15,72(x2)
    6c84:	02812703          	lw	x14,40(x2)
    6c88:	02412883          	lw	x17,36(x2)
    6c8c:	01412f03          	lw	x30,20(x2)
    6c90:	01012e83          	lw	x29,16(x2)
    6c94:	000a8413          	addi	x8,x21,0
    6c98:	00160e13          	addi	x28,x12,1
    6c9c:	d90ff06f          	jal	x0,622c <_vfiprintf_r+0x248>
    6ca0:	1c0e8e63          	beq	x29,x0,6e7c <_vfiprintf_r+0xe98>
    6ca4:	03c10593          	addi	x11,x2,60
    6ca8:	00200793          	addi	x15,x0,2
    6cac:	00060e13          	addi	x28,x12,0
    6cb0:	04b12623          	sw	x11,76(x2)
    6cb4:	04f12823          	sw	x15,80(x2)
    6cb8:	000a8413          	addi	x8,x21,0
    6cbc:	000e0613          	addi	x12,x28,0
    6cc0:	00840413          	addi	x8,x8,8
    6cc4:	001e0e13          	addi	x28,x28,1
    6cc8:	dc8ff06f          	jal	x0,6290 <_vfiprintf_r+0x2ac>
    6ccc:	00200613          	addi	x12,x0,2
    6cd0:	00050d13          	addi	x26,x10,0
    6cd4:	bc0608e3          	beq	x12,x0,68a4 <_vfiprintf_r+0x8c0>
    6cd8:	00c12503          	lw	x10,12(x2)
    6cdc:	0f010913          	addi	x18,x2,240
    6ce0:	00f7f693          	andi	x13,x15,15
    6ce4:	00d506b3          	add	x13,x10,x13
    6ce8:	0006c683          	lbu	x13,0(x13)
    6cec:	01c59613          	slli	x12,x11,0x1c
    6cf0:	0047d793          	srli	x15,x15,0x4
    6cf4:	00f667b3          	or	x15,x12,x15
    6cf8:	0045d593          	srli	x11,x11,0x4
    6cfc:	fed90fa3          	sb	x13,-1(x18)
    6d00:	00b7e6b3          	or	x13,x15,x11
    6d04:	fff90913          	addi	x18,x18,-1
    6d08:	fc069ce3          	bne	x13,x0,6ce0 <_vfiprintf_r+0xcfc>
    6d0c:	0f010793          	addi	x15,x2,240
    6d10:	41278db3          	sub	x27,x15,x18
    6d14:	000d8893          	addi	x17,x27,0
    6d18:	9a9dd4e3          	bge	x27,x9,66c0 <_vfiprintf_r+0x6dc>
    6d1c:	00048893          	addi	x17,x9,0
    6d20:	9a1ff06f          	jal	x0,66c0 <_vfiprintf_r+0x6dc>
    6d24:	01000f93          	addi	x31,x0,16
    6d28:	6b0fd063          	bge	x31,x16,73c8 <_vfiprintf_r+0x13e4>
    6d2c:	0000be17          	auipc	x28,0xb
    6d30:	3e4e0e13          	addi	x28,x28,996 # 12110 <blanks.1>
    6d34:	02e12423          	sw	x14,40(x2)
    6d38:	02912623          	sw	x9,44(x2)
    6d3c:	00040713          	addi	x14,x8,0
    6d40:	000f8393          	addi	x7,x31,0
    6d44:	00700293          	addi	x5,x0,7
    6d48:	01d12823          	sw	x29,16(x2)
    6d4c:	01e12a23          	sw	x30,20(x2)
    6d50:	03112223          	sw	x17,36(x2)
    6d54:	00080413          	addi	x8,x16,0
    6d58:	000e0493          	addi	x9,x28,0
    6d5c:	01c0006f          	jal	x0,6d78 <_vfiprintf_r+0xd94>
    6d60:	00260513          	addi	x10,x12,2
    6d64:	00870713          	addi	x14,x14,8
    6d68:	00058613          	addi	x12,x11,0
    6d6c:	ff040413          	addi	x8,x8,-16
    6d70:	0483de63          	bge	x7,x8,6dcc <_vfiprintf_r+0xde8>
    6d74:	00160593          	addi	x11,x12,1
    6d78:	01078793          	addi	x15,x15,16
    6d7c:	04f12423          	sw	x15,72(x2)
    6d80:	00972023          	sw	x9,0(x14)
    6d84:	01f72223          	sw	x31,4(x14)
    6d88:	04b12223          	sw	x11,68(x2)
    6d8c:	fcb2dae3          	bge	x5,x11,6d60 <_vfiprintf_r+0xd7c>
    6d90:	08078463          	beq	x15,x0,6e18 <_vfiprintf_r+0xe34>
    6d94:	04010613          	addi	x12,x2,64
    6d98:	000b8593          	addi	x11,x23,0
    6d9c:	000c0513          	addi	x10,x24,0
    6da0:	908ff0ef          	jal	x1,5ea8 <__sprint_r.part.0>
    6da4:	d8051463          	bne	x10,x0,632c <_vfiprintf_r+0x348>
    6da8:	04412603          	lw	x12,68(x2)
    6dac:	01000393          	addi	x7,x0,16
    6db0:	ff040413          	addi	x8,x8,-16
    6db4:	04812783          	lw	x15,72(x2)
    6db8:	000a8713          	addi	x14,x21,0
    6dbc:	00160513          	addi	x10,x12,1
    6dc0:	00700293          	addi	x5,x0,7
    6dc4:	00038f93          	addi	x31,x7,0
    6dc8:	fa83c6e3          	blt	x7,x8,6d74 <_vfiprintf_r+0xd90>
    6dcc:	00040813          	addi	x16,x8,0
    6dd0:	00048e13          	addi	x28,x9,0
    6dd4:	00070413          	addi	x8,x14,0
    6dd8:	01012e83          	lw	x29,16(x2)
    6ddc:	01412f03          	lw	x30,20(x2)
    6de0:	02412883          	lw	x17,36(x2)
    6de4:	02812703          	lw	x14,40(x2)
    6de8:	02c12483          	lw	x9,44(x2)
    6dec:	010787b3          	add	x15,x15,x16
    6df0:	04f12423          	sw	x15,72(x2)
    6df4:	01c42023          	sw	x28,0(x8)
    6df8:	01042223          	sw	x16,4(x8)
    6dfc:	04a12223          	sw	x10,68(x2)
    6e00:	00700613          	addi	x12,x0,7
    6e04:	08a64863          	blt	x12,x10,6e94 <_vfiprintf_r+0xeb0>
    6e08:	00840413          	addi	x8,x8,8
    6e0c:	00150e13          	addi	x28,x10,1
    6e10:	00050613          	addi	x12,x10,0
    6e14:	be4ff06f          	jal	x0,61f8 <_vfiprintf_r+0x214>
    6e18:	00000613          	addi	x12,x0,0
    6e1c:	00100513          	addi	x10,x0,1
    6e20:	000a8713          	addi	x14,x21,0
    6e24:	f49ff06f          	jal	x0,6d6c <_vfiprintf_r+0xd88>
    6e28:	01175463          	bge	x14,x17,6e30 <_vfiprintf_r+0xe4c>
    6e2c:	00088713          	addi	x14,x17,0
    6e30:	00412783          	lw	x15,4(x2)
    6e34:	00e787b3          	add	x15,x15,x14
    6e38:	00f12223          	sw	x15,4(x2)
    6e3c:	cd4ff06f          	jal	x0,6310 <_vfiprintf_r+0x32c>
    6e40:	da078a63          	beq	x15,x0,63f4 <_vfiprintf_r+0x410>
    6e44:	04010613          	addi	x12,x2,64
    6e48:	000b8593          	addi	x11,x23,0
    6e4c:	000c0513          	addi	x10,x24,0
    6e50:	00e12a23          	sw	x14,20(x2)
    6e54:	01112823          	sw	x17,16(x2)
    6e58:	850ff0ef          	jal	x1,5ea8 <__sprint_r.part.0>
    6e5c:	cc051863          	bne	x10,x0,632c <_vfiprintf_r+0x348>
    6e60:	04412e03          	lw	x28,68(x2)
    6e64:	04812783          	lw	x15,72(x2)
    6e68:	01412703          	lw	x14,20(x2)
    6e6c:	01012883          	lw	x17,16(x2)
    6e70:	000a8413          	addi	x8,x21,0
    6e74:	001e0e13          	addi	x28,x28,1
    6e78:	c28ff06f          	jal	x0,62a0 <_vfiprintf_r+0x2bc>
    6e7c:	00100e13          	addi	x28,x0,1
    6e80:	00000613          	addi	x12,x0,0
    6e84:	000a8413          	addi	x8,x21,0
    6e88:	c08ff06f          	jal	x0,6290 <_vfiprintf_r+0x2ac>
    6e8c:	04012223          	sw	x0,68(x2)
    6e90:	a8cff06f          	jal	x0,611c <_vfiprintf_r+0x138>
    6e94:	2e078663          	beq	x15,x0,7180 <_vfiprintf_r+0x119c>
    6e98:	04010613          	addi	x12,x2,64
    6e9c:	000b8593          	addi	x11,x23,0
    6ea0:	000c0513          	addi	x10,x24,0
    6ea4:	02e12423          	sw	x14,40(x2)
    6ea8:	03112223          	sw	x17,36(x2)
    6eac:	01e12a23          	sw	x30,20(x2)
    6eb0:	01d12823          	sw	x29,16(x2)
    6eb4:	ff5fe0ef          	jal	x1,5ea8 <__sprint_r.part.0>
    6eb8:	c6051a63          	bne	x10,x0,632c <_vfiprintf_r+0x348>
    6ebc:	04412603          	lw	x12,68(x2)
    6ec0:	04812783          	lw	x15,72(x2)
    6ec4:	02812703          	lw	x14,40(x2)
    6ec8:	02412883          	lw	x17,36(x2)
    6ecc:	01412f03          	lw	x30,20(x2)
    6ed0:	01012e83          	lw	x29,16(x2)
    6ed4:	000a8413          	addi	x8,x21,0
    6ed8:	00160e13          	addi	x28,x12,1
    6edc:	b1cff06f          	jal	x0,61f8 <_vfiprintf_r+0x214>
    6ee0:	ccccd337          	lui	x6,0xccccd
    6ee4:	00030e93          	addi	x29,x6,0 # ccccd000 <__heap_end+0xcc8cd000>
    6ee8:	01812803          	lw	x16,24(x2)
    6eec:	ccd30313          	addi	x6,x6,-819
    6ef0:	ccce8e93          	addi	x29,x29,-820
    6ef4:	400d7f13          	andi	x30,x26,1024
    6ef8:	00000513          	addi	x10,x0,0
    6efc:	0f010593          	addi	x11,x2,240
    6f00:	00500e13          	addi	x28,x0,5
    6f04:	0ff00f93          	addi	x31,x0,255
    6f08:	0540006f          	jal	x0,6f5c <_vfiprintf_r+0xf78>
    6f0c:	01b937b3          	sltu	x15,x18,x27
    6f10:	00f907b3          	add	x15,x18,x15
    6f14:	03c7f7b3          	remu	x15,x15,x28
    6f18:	40fd87b3          	sub	x15,x27,x15
    6f1c:	00fdb633          	sltu	x12,x27,x15
    6f20:	40c88633          	sub	x12,x17,x12
    6f24:	03d782b3          	mul	x5,x15,x29
    6f28:	02660633          	mul	x12,x12,x6
    6f2c:	0267b5b3          	mulhu	x11,x15,x6
    6f30:	00560633          	add	x12,x12,x5
    6f34:	026787b3          	mul	x15,x15,x6
    6f38:	00b60633          	add	x12,x12,x11
    6f3c:	01f61593          	slli	x11,x12,0x1f
    6f40:	00165613          	srli	x12,x12,0x1
    6f44:	0017d793          	srli	x15,x15,0x1
    6f48:	00f5e7b3          	or	x15,x11,x15
    6f4c:	3c088a63          	beq	x17,x0,7320 <_vfiprintf_r+0x133c>
    6f50:	00078d93          	addi	x27,x15,0
    6f54:	00060893          	addi	x17,x12,0
    6f58:	00068593          	addi	x11,x13,0
    6f5c:	011d8933          	add	x18,x27,x17
    6f60:	01b93633          	sltu	x12,x18,x27
    6f64:	00c90633          	add	x12,x18,x12
    6f68:	03c67633          	remu	x12,x12,x28
    6f6c:	00150513          	addi	x10,x10,1
    6f70:	fff58693          	addi	x13,x11,-1
    6f74:	40cd8633          	sub	x12,x27,x12
    6f78:	00cdb7b3          	sltu	x15,x27,x12
    6f7c:	40f887b3          	sub	x15,x17,x15
    6f80:	026632b3          	mulhu	x5,x12,x6
    6f84:	026787b3          	mul	x15,x15,x6
    6f88:	02660633          	mul	x12,x12,x6
    6f8c:	005787b3          	add	x15,x15,x5
    6f90:	01f79793          	slli	x15,x15,0x1f
    6f94:	00165613          	srli	x12,x12,0x1
    6f98:	00c7e633          	or	x12,x15,x12
    6f9c:	00261793          	slli	x15,x12,0x2
    6fa0:	00c787b3          	add	x15,x15,x12
    6fa4:	00179793          	slli	x15,x15,0x1
    6fa8:	40fd87b3          	sub	x15,x27,x15
    6fac:	03078793          	addi	x15,x15,48
    6fb0:	fef58fa3          	sb	x15,-1(x11)
    6fb4:	f40f0ce3          	beq	x30,x0,6f0c <_vfiprintf_r+0xf28>
    6fb8:	00084783          	lbu	x15,0(x16)
    6fbc:	f4a798e3          	bne	x15,x10,6f0c <_vfiprintf_r+0xf28>
    6fc0:	f5f506e3          	beq	x10,x31,6f0c <_vfiprintf_r+0xf28>
    6fc4:	1e089063          	bne	x17,x0,71a4 <_vfiprintf_r+0x11c0>
    6fc8:	00900793          	addi	x15,x0,9
    6fcc:	1db7ec63          	bltu	x15,x27,71a4 <_vfiprintf_r+0x11c0>
    6fd0:	01012c23          	sw	x16,24(x2)
    6fd4:	00068913          	addi	x18,x13,0
    6fd8:	d35ff06f          	jal	x0,6d0c <_vfiprintf_r+0xd28>
    6fdc:	0009c603          	lbu	x12,0(x19)
    6fe0:	00f12423          	sw	x15,8(x2)
    6fe4:	96cff06f          	jal	x0,6150 <_vfiprintf_r+0x16c>
    6fe8:	00000893          	addi	x17,x0,0
    6fec:	0f010913          	addi	x18,x2,240
    6ff0:	ed0ff06f          	jal	x0,66c0 <_vfiprintf_r+0x6dc>
    6ff4:	00840413          	addi	x8,x8,8
    6ff8:	00158e13          	addi	x28,x11,1
    6ffc:	00058613          	addi	x12,x11,0
    7000:	a98ff06f          	jal	x0,6298 <_vfiprintf_r+0x2b4>
    7004:	010d7793          	andi	x15,x26,16
    7008:	28079663          	bne	x15,x0,7294 <_vfiprintf_r+0x12b0>
    700c:	040d7793          	andi	x15,x26,64
    7010:	34079663          	bne	x15,x0,735c <_vfiprintf_r+0x1378>
    7014:	200d7693          	andi	x13,x26,512
    7018:	26068e63          	beq	x13,x0,7294 <_vfiprintf_r+0x12b0>
    701c:	00812783          	lw	x15,8(x2)
    7020:	00412703          	lw	x14,4(x2)
    7024:	0007a783          	lw	x15,0(x15)
    7028:	00e78023          	sb	x14,0(x15)
    702c:	9e5ff06f          	jal	x0,6a10 <_vfiprintf_r+0xa2c>
    7030:	000d0313          	addi	x6,x26,0
    7034:	81dff06f          	jal	x0,6850 <_vfiprintf_r+0x86c>
    7038:	000d0613          	addi	x12,x26,0
    703c:	f2cff06f          	jal	x0,6768 <_vfiprintf_r+0x784>
    7040:	00812783          	lw	x15,8(x2)
    7044:	00478513          	addi	x10,x15,4
    7048:	00812783          	lw	x15,8(x2)
    704c:	00000893          	addi	x17,x0,0
    7050:	00a12423          	sw	x10,8(x2)
    7054:	0007ad83          	lw	x27,0(x15)
    7058:	815ff06f          	jal	x0,686c <_vfiprintf_r+0x888>
    705c:	00812783          	lw	x15,8(x2)
    7060:	00478513          	addi	x10,x15,4
    7064:	00812783          	lw	x15,8(x2)
    7068:	00000593          	addi	x11,x0,0
    706c:	00a12423          	sw	x10,8(x2)
    7070:	0007a783          	lw	x15,0(x15)
    7074:	f10ff06f          	jal	x0,6784 <_vfiprintf_r+0x7a0>
    7078:	00812783          	lw	x15,8(x2)
    707c:	00478513          	addi	x10,x15,4
    7080:	00812783          	lw	x15,8(x2)
    7084:	00068d13          	addi	x26,x13,0
    7088:	00a12423          	sw	x10,8(x2)
    708c:	0007ad83          	lw	x27,0(x15)
    7090:	41fdd893          	srai	x17,x27,0x1f
    7094:	00088613          	addi	x12,x17,0
    7098:	cc8ff06f          	jal	x0,6560 <_vfiprintf_r+0x57c>
    709c:	00060d13          	addi	x26,x12,0
    70a0:	00000613          	addi	x12,x0,0
    70a4:	800600e3          	beq	x12,x0,68a4 <_vfiprintf_r+0x8c0>
    70a8:	c31ff06f          	jal	x0,6cd8 <_vfiprintf_r+0xcf4>
    70ac:	00048893          	addi	x17,x9,0
    70b0:	00080913          	addi	x18,x16,0
    70b4:	e0cff06f          	jal	x0,66c0 <_vfiprintf_r+0x6dc>
    70b8:	fff00493          	addi	x9,x0,-1
    70bc:	00058993          	addi	x19,x11,0
    70c0:	894ff06f          	jal	x0,6154 <_vfiprintf_r+0x170>
    70c4:	0000b797          	auipc	x15,0xb
    70c8:	9c078793          	addi	x15,x15,-1600 # 11a84 <__clzsi2+0xec>
    70cc:	00f12623          	sw	x15,12(x2)
    70d0:	020d7793          	andi	x15,x26,32
    70d4:	00090713          	addi	x14,x18,0
    70d8:	06078063          	beq	x15,x0,7138 <_vfiprintf_r+0x1154>
    70dc:	00812783          	lw	x15,8(x2)
    70e0:	00778593          	addi	x11,x15,7
    70e4:	ff85f593          	andi	x11,x11,-8
    70e8:	00858793          	addi	x15,x11,8
    70ec:	00f12423          	sw	x15,8(x2)
    70f0:	0005a783          	lw	x15,0(x11)
    70f4:	0045a583          	lw	x11,4(x11)
    70f8:	001d7513          	andi	x10,x26,1
    70fc:	00050e63          	beq	x10,x0,7118 <_vfiprintf_r+0x1134>
    7100:	00b7e533          	or	x10,x15,x11
    7104:	00050a63          	beq	x10,x0,7118 <_vfiprintf_r+0x1134>
    7108:	03000513          	addi	x10,x0,48
    710c:	02c10ea3          	sb	x12,61(x2)
    7110:	002d6d13          	ori	x26,x26,2
    7114:	02a10e23          	sb	x10,60(x2)
    7118:	bffd7d13          	andi	x26,x26,-1025
    711c:	871ff06f          	jal	x0,698c <_vfiprintf_r+0x9a8>
    7120:	0000b797          	auipc	x15,0xb
    7124:	95078793          	addi	x15,x15,-1712 # 11a70 <__clzsi2+0xd8>
    7128:	00f12623          	sw	x15,12(x2)
    712c:	020d7793          	andi	x15,x26,32
    7130:	00090713          	addi	x14,x18,0
    7134:	fa0794e3          	bne	x15,x0,70dc <_vfiprintf_r+0x10f8>
    7138:	00812683          	lw	x13,8(x2)
    713c:	010d7593          	andi	x11,x26,16
    7140:	0006a783          	lw	x15,0(x13)
    7144:	00468693          	addi	x13,x13,4
    7148:	00d12423          	sw	x13,8(x2)
    714c:	10059c63          	bne	x11,x0,7264 <_vfiprintf_r+0x1280>
    7150:	040d7593          	andi	x11,x26,64
    7154:	10058463          	beq	x11,x0,725c <_vfiprintf_r+0x1278>
    7158:	01079793          	slli	x15,x15,0x10
    715c:	0107d793          	srli	x15,x15,0x10
    7160:	00000593          	addi	x11,x0,0
    7164:	f95ff06f          	jal	x0,70f8 <_vfiprintf_r+0x1114>
    7168:	00090513          	addi	x10,x18,0
    716c:	ac5fb0ef          	jal	x1,2c30 <strlen>
    7170:	00812703          	lw	x14,8(x2)
    7174:	01012683          	lw	x13,16(x2)
    7178:	00050d93          	addi	x27,x10,0
    717c:	c70ff06f          	jal	x0,65ec <_vfiprintf_r+0x608>
    7180:	03b14603          	lbu	x12,59(x2)
    7184:	1c060663          	beq	x12,x0,7350 <_vfiprintf_r+0x136c>
    7188:	00100793          	addi	x15,x0,1
    718c:	03b10613          	addi	x12,x2,59
    7190:	00078e13          	addi	x28,x15,0
    7194:	04f12823          	sw	x15,80(x2)
    7198:	04c12623          	sw	x12,76(x2)
    719c:	000a8413          	addi	x8,x21,0
    71a0:	880ff06f          	jal	x0,6220 <_vfiprintf_r+0x23c>
    71a4:	01c12603          	lw	x12,28(x2)
    71a8:	02012583          	lw	x11,32(x2)
    71ac:	03112423          	sw	x17,40(x2)
    71b0:	40c686b3          	sub	x13,x13,x12
    71b4:	00068513          	addi	x10,x13,0
    71b8:	02e12223          	sw	x14,36(x2)
    71bc:	01e12c23          	sw	x30,24(x2)
    71c0:	01012a23          	sw	x16,20(x2)
    71c4:	00d12823          	sw	x13,16(x2)
    71c8:	5a8020ef          	jal	x1,9770 <strncpy>
    71cc:	01b937b3          	sltu	x15,x18,x27
    71d0:	00500613          	addi	x12,x0,5
    71d4:	00f907b3          	add	x15,x18,x15
    71d8:	02c7f7b3          	remu	x15,x15,x12
    71dc:	01412803          	lw	x16,20(x2)
    71e0:	02812883          	lw	x17,40(x2)
    71e4:	ccccd5b7          	lui	x11,0xccccd
    71e8:	00184603          	lbu	x12,1(x16)
    71ec:	00058293          	addi	x5,x11,0 # ccccd000 <__heap_end+0xcc8cd000>
    71f0:	ccc28293          	addi	x5,x5,-820
    71f4:	00c03633          	sltu	x12,x0,x12
    71f8:	00c80833          	add	x16,x16,x12
    71fc:	ccd58593          	addi	x11,x11,-819
    7200:	ccccd737          	lui	x14,0xccccd
    7204:	ccd70313          	addi	x6,x14,-819 # cccccccd <__heap_end+0xcc8ccccd>
    7208:	ccc70e93          	addi	x29,x14,-820
    720c:	01012683          	lw	x13,16(x2)
    7210:	01812f03          	lw	x30,24(x2)
    7214:	02412703          	lw	x14,36(x2)
    7218:	00000513          	addi	x10,x0,0
    721c:	00500e13          	addi	x28,x0,5
    7220:	0ff00f93          	addi	x31,x0,255
    7224:	40fd87b3          	sub	x15,x27,x15
    7228:	00fdb633          	sltu	x12,x27,x15
    722c:	40c88633          	sub	x12,x17,x12
    7230:	02b60633          	mul	x12,x12,x11
    7234:	025782b3          	mul	x5,x15,x5
    7238:	02b7b8b3          	mulhu	x17,x15,x11
    723c:	00560633          	add	x12,x12,x5
    7240:	02b785b3          	mul	x11,x15,x11
    7244:	01160633          	add	x12,x12,x17
    7248:	01f61793          	slli	x15,x12,0x1f
    724c:	00165613          	srli	x12,x12,0x1
    7250:	0015d593          	srli	x11,x11,0x1
    7254:	00b7e7b3          	or	x15,x15,x11
    7258:	cf9ff06f          	jal	x0,6f50 <_vfiprintf_r+0xf6c>
    725c:	200d7593          	andi	x11,x26,512
    7260:	10059863          	bne	x11,x0,7370 <_vfiprintf_r+0x138c>
    7264:	00000593          	addi	x11,x0,0
    7268:	e91ff06f          	jal	x0,70f8 <_vfiprintf_r+0x1114>
    726c:	fe8f90ef          	jal	x1,a54 <__sinit>
    7270:	da9fe06f          	jal	x0,6018 <_vfiprintf_r+0x34>
    7274:	0019c603          	lbu	x12,1(x19)
    7278:	200d6d13          	ori	x26,x26,512
    727c:	00198993          	addi	x19,x19,1
    7280:	ed1fe06f          	jal	x0,6150 <_vfiprintf_r+0x16c>
    7284:	0019c603          	lbu	x12,1(x19)
    7288:	020d6d13          	ori	x26,x26,32
    728c:	00198993          	addi	x19,x19,1
    7290:	ec1fe06f          	jal	x0,6150 <_vfiprintf_r+0x16c>
    7294:	00812783          	lw	x15,8(x2)
    7298:	00412703          	lw	x14,4(x2)
    729c:	0007a783          	lw	x15,0(x15)
    72a0:	00e7a023          	sw	x14,0(x15)
    72a4:	f6cff06f          	jal	x0,6a10 <_vfiprintf_r+0xa2c>
    72a8:	00600793          	addi	x15,x0,6
    72ac:	00048d93          	addi	x27,x9,0
    72b0:	0897ec63          	bltu	x15,x9,7348 <_vfiprintf_r+0x1364>
    72b4:	00d12423          	sw	x13,8(x2)
    72b8:	000d8893          	addi	x17,x27,0
    72bc:	0000a917          	auipc	x18,0xa
    72c0:	7dc90913          	addi	x18,x18,2012 # 11a98 <__clzsi2+0x100>
    72c4:	f0dfe06f          	jal	x0,61d0 <_vfiprintf_r+0x1ec>
    72c8:	200d7793          	andi	x15,x26,512
    72cc:	0c078863          	beq	x15,x0,739c <_vfiprintf_r+0x13b8>
    72d0:	0ffdfd93          	andi	x27,x27,255
    72d4:	00a12423          	sw	x10,8(x2)
    72d8:	000d0313          	addi	x6,x26,0
    72dc:	00000893          	addi	x17,x0,0
    72e0:	d8cff06f          	jal	x0,686c <_vfiprintf_r+0x888>
    72e4:	200d7613          	andi	x12,x26,512
    72e8:	0a060263          	beq	x12,x0,738c <_vfiprintf_r+0x13a8>
    72ec:	0ff7f793          	andi	x15,x15,255
    72f0:	00a12423          	sw	x10,8(x2)
    72f4:	000d0613          	addi	x12,x26,0
    72f8:	00000593          	addi	x11,x0,0
    72fc:	c88ff06f          	jal	x0,6784 <_vfiprintf_r+0x7a0>
    7300:	200d7793          	andi	x15,x26,512
    7304:	06078c63          	beq	x15,x0,737c <_vfiprintf_r+0x1398>
    7308:	018d9d93          	slli	x27,x27,0x18
    730c:	418ddd93          	srai	x27,x27,0x18
    7310:	41fdd893          	srai	x17,x27,0x1f
    7314:	00a12423          	sw	x10,8(x2)
    7318:	00088613          	addi	x12,x17,0
    731c:	a44ff06f          	jal	x0,6560 <_vfiprintf_r+0x57c>
    7320:	00900593          	addi	x11,x0,9
    7324:	c3b5e6e3          	bltu	x11,x27,6f50 <_vfiprintf_r+0xf6c>
    7328:	ca9ff06f          	jal	x0,6fd0 <_vfiprintf_r+0xfec>
    732c:	00100e13          	addi	x28,x0,1
    7330:	00000613          	addi	x12,x0,0
    7334:	000a8413          	addi	x8,x21,0
    7338:	f61fe06f          	jal	x0,6298 <_vfiprintf_r+0x2b4>
    733c:	00000793          	addi	x15,x0,0
    7340:	00000593          	addi	x11,x0,0
    7344:	995ff06f          	jal	x0,6cd8 <_vfiprintf_r+0xcf4>
    7348:	00078d93          	addi	x27,x15,0
    734c:	f69ff06f          	jal	x0,72b4 <_vfiprintf_r+0x12d0>
    7350:	00100e13          	addi	x28,x0,1
    7354:	000a8413          	addi	x8,x21,0
    7358:	ed5fe06f          	jal	x0,622c <_vfiprintf_r+0x248>
    735c:	00812783          	lw	x15,8(x2)
    7360:	00412703          	lw	x14,4(x2)
    7364:	0007a783          	lw	x15,0(x15)
    7368:	00e79023          	sh	x14,0(x15)
    736c:	ea4ff06f          	jal	x0,6a10 <_vfiprintf_r+0xa2c>
    7370:	0ff7f793          	andi	x15,x15,255
    7374:	00000593          	addi	x11,x0,0
    7378:	d81ff06f          	jal	x0,70f8 <_vfiprintf_r+0x1114>
    737c:	41fdd893          	srai	x17,x27,0x1f
    7380:	00a12423          	sw	x10,8(x2)
    7384:	00088613          	addi	x12,x17,0
    7388:	9d8ff06f          	jal	x0,6560 <_vfiprintf_r+0x57c>
    738c:	00a12423          	sw	x10,8(x2)
    7390:	000d0613          	addi	x12,x26,0
    7394:	00000593          	addi	x11,x0,0
    7398:	becff06f          	jal	x0,6784 <_vfiprintf_r+0x7a0>
    739c:	00a12423          	sw	x10,8(x2)
    73a0:	000d0313          	addi	x6,x26,0
    73a4:	00000893          	addi	x17,x0,0
    73a8:	cc4ff06f          	jal	x0,686c <_vfiprintf_r+0x888>
    73ac:	000c0513          	addi	x10,x24,0
    73b0:	04010613          	addi	x12,x2,64
    73b4:	000b8593          	addi	x11,x23,0
    73b8:	af1fe0ef          	jal	x1,5ea8 <__sprint_r.part.0>
    73bc:	f71fe06f          	jal	x0,632c <_vfiprintf_r+0x348>
    73c0:	03000793          	addi	x15,x0,48
    73c4:	ae4ff06f          	jal	x0,66a8 <_vfiprintf_r+0x6c4>
    73c8:	00058513          	addi	x10,x11,0
    73cc:	0000be17          	auipc	x28,0xb
    73d0:	d44e0e13          	addi	x28,x28,-700 # 12110 <blanks.1>
    73d4:	a19ff06f          	jal	x0,6dec <_vfiprintf_r+0xe08>
    73d8:	00160593          	addi	x11,x12,1
    73dc:	0000be17          	auipc	x28,0xb
    73e0:	d34e0e13          	addi	x28,x28,-716 # 12110 <blanks.1>
    73e4:	8f4ff06f          	jal	x0,64d8 <_vfiprintf_r+0x4f4>
    73e8:	000e0593          	addi	x11,x28,0
    73ec:	0000b817          	auipc	x16,0xb
    73f0:	d3480813          	addi	x16,x16,-716 # 12120 <zeroes.0>
    73f4:	f10ff06f          	jal	x0,6b04 <_vfiprintf_r+0xb20>
    73f8:	fff00793          	addi	x15,x0,-1
    73fc:	00f12223          	sw	x15,4(x2)
    7400:	f61fe06f          	jal	x0,6360 <_vfiprintf_r+0x37c>
    7404:	00812783          	lw	x15,8(x2)
    7408:	0007a483          	lw	x9,0(x15)
    740c:	00478793          	addi	x15,x15,4
    7410:	0004d463          	bge	x9,x0,7418 <_vfiprintf_r+0x1434>
    7414:	fff00493          	addi	x9,x0,-1
    7418:	0019c603          	lbu	x12,1(x19)
    741c:	00f12423          	sw	x15,8(x2)
    7420:	00058993          	addi	x19,x11,0
    7424:	d2dfe06f          	jal	x0,6150 <_vfiprintf_r+0x16c>
    7428:	000d0613          	addi	x12,x26,0
    742c:	c39ff06f          	jal	x0,7064 <_vfiprintf_r+0x1080>
    7430:	000d0693          	addi	x13,x26,0
    7434:	c4dff06f          	jal	x0,7080 <_vfiprintf_r+0x109c>
    7438:	000d0313          	addi	x6,x26,0
    743c:	c0dff06f          	jal	x0,7048 <_vfiprintf_r+0x1064>

00007440 <vfiprintf>:
    7440:	00058793          	addi	x15,x11,0
    7444:	00060693          	addi	x13,x12,0
    7448:	00050593          	addi	x11,x10,0
    744c:	00078613          	addi	x12,x15,0
    7450:	f141a503          	lw	x10,-236(x3) # 12bb4 <_impure_ptr>
    7454:	b91fe06f          	jal	x0,5fe4 <_vfiprintf_r>

00007458 <__sbprintf>:
    7458:	b8010113          	addi	x2,x2,-1152
    745c:	00c59783          	lh	x15,12(x11)
    7460:	00e5d703          	lhu	x14,14(x11)
    7464:	46812c23          	sw	x8,1144(x2)
    7468:	00058413          	addi	x8,x11,0
    746c:	000105b7          	lui	x11,0x10
    7470:	ffd58593          	addi	x11,x11,-3 # fffd <__subtf3+0x2f5>
    7474:	06442303          	lw	x6,100(x8)
    7478:	01c42883          	lw	x17,28(x8)
    747c:	02442803          	lw	x16,36(x8)
    7480:	00b7f7b3          	and	x15,x15,x11
    7484:	01071713          	slli	x14,x14,0x10
    7488:	00e7e7b3          	or	x15,x15,x14
    748c:	00f12a23          	sw	x15,20(x2)
    7490:	40000713          	addi	x14,x0,1024
    7494:	07010793          	addi	x15,x2,112
    7498:	00810593          	addi	x11,x2,8
    749c:	46912a23          	sw	x9,1140(x2)
    74a0:	47212823          	sw	x18,1136(x2)
    74a4:	46112e23          	sw	x1,1148(x2)
    74a8:	02012023          	sw	x0,32(x2)
    74ac:	06612623          	sw	x6,108(x2)
    74b0:	03112223          	sw	x17,36(x2)
    74b4:	03012623          	sw	x16,44(x2)
    74b8:	00050913          	addi	x18,x10,0
    74bc:	00f12423          	sw	x15,8(x2)
    74c0:	00f12c23          	sw	x15,24(x2)
    74c4:	00e12823          	sw	x14,16(x2)
    74c8:	00e12e23          	sw	x14,28(x2)
    74cc:	b19fe0ef          	jal	x1,5fe4 <_vfiprintf_r>
    74d0:	00050493          	addi	x9,x10,0
    74d4:	02055c63          	bge	x10,x0,750c <__sbprintf+0xb4>
    74d8:	01415783          	lhu	x15,20(x2)
    74dc:	0407f793          	andi	x15,x15,64
    74e0:	00078863          	beq	x15,x0,74f0 <__sbprintf+0x98>
    74e4:	00c45783          	lhu	x15,12(x8)
    74e8:	0407e793          	ori	x15,x15,64
    74ec:	00f41623          	sh	x15,12(x8)
    74f0:	47c12083          	lw	x1,1148(x2)
    74f4:	47812403          	lw	x8,1144(x2)
    74f8:	47012903          	lw	x18,1136(x2)
    74fc:	00048513          	addi	x10,x9,0
    7500:	47412483          	lw	x9,1140(x2)
    7504:	48010113          	addi	x2,x2,1152
    7508:	00008067          	jalr	x0,0(x1)
    750c:	00810593          	addi	x11,x2,8
    7510:	00090513          	addi	x10,x18,0
    7514:	c1cfb0ef          	jal	x1,2930 <_fflush_r>
    7518:	fc0500e3          	beq	x10,x0,74d8 <__sbprintf+0x80>
    751c:	fff00493          	addi	x9,x0,-1
    7520:	fb9ff06f          	jal	x0,74d8 <__sbprintf+0x80>

00007524 <_sbrk_r>:
    7524:	ff010113          	addi	x2,x2,-16
    7528:	00812423          	sw	x8,8(x2)
    752c:	00050413          	addi	x8,x10,0
    7530:	00058513          	addi	x10,x11,0
    7534:	f001ac23          	sw	x0,-232(x3) # 12bb8 <errno>
    7538:	00112623          	sw	x1,12(x2)
    753c:	e09f80ef          	jal	x1,344 <_sbrk>
    7540:	fff00793          	addi	x15,x0,-1
    7544:	00f50a63          	beq	x10,x15,7558 <_sbrk_r+0x34>
    7548:	00c12083          	lw	x1,12(x2)
    754c:	00812403          	lw	x8,8(x2)
    7550:	01010113          	addi	x2,x2,16
    7554:	00008067          	jalr	x0,0(x1)
    7558:	00912223          	sw	x9,4(x2)
    755c:	f1818493          	addi	x9,x3,-232 # 12bb8 <errno>
    7560:	0004a783          	lw	x15,0(x9)
    7564:	00078e63          	beq	x15,x0,7580 <_sbrk_r+0x5c>
    7568:	00c12083          	lw	x1,12(x2)
    756c:	00f42023          	sw	x15,0(x8)
    7570:	00812403          	lw	x8,8(x2)
    7574:	00412483          	lw	x9,4(x2)
    7578:	01010113          	addi	x2,x2,16
    757c:	00008067          	jalr	x0,0(x1)
    7580:	00c12083          	lw	x1,12(x2)
    7584:	00812403          	lw	x8,8(x2)
    7588:	00412483          	lw	x9,4(x2)
    758c:	01010113          	addi	x2,x2,16
    7590:	00008067          	jalr	x0,0(x1)

00007594 <__gdtoa>:
    7594:	df010113          	addi	x2,x2,-528
    7598:	1fa12023          	sw	x26,480(x2)
    759c:	00072d03          	lw	x26,0(x14)
    75a0:	00f12c23          	sw	x15,24(x2)
    75a4:	21012783          	lw	x15,528(x2)
    75a8:	fcfd7e13          	andi	x28,x26,-49
    75ac:	20112623          	sw	x1,524(x2)
    75b0:	01c72023          	sw	x28,0(x14)
    75b4:	00300e93          	addi	x29,x0,3
    75b8:	00fd7e13          	andi	x28,x26,15
    75bc:	02c12023          	sw	x12,32(x2)
    75c0:	03012223          	sw	x16,36(x2)
    75c4:	01112623          	sw	x17,12(x2)
    75c8:	00f12823          	sw	x15,16(x2)
    75cc:	0dde0ce3          	beq	x28,x29,7ea4 <__gdtoa+0x910>
    75d0:	1f412c23          	sw	x20,504(x2)
    75d4:	00cd7a13          	andi	x20,x26,12
    75d8:	7c0a1863          	bne	x20,x0,7da8 <__gdtoa+0x814>
    75dc:	20812423          	sw	x8,520(x2)
    75e0:	00050413          	addi	x8,x10,0
    75e4:	080e00e3          	beq	x28,x0,7e64 <__gdtoa+0x8d0>
    75e8:	1f912223          	sw	x25,484(x2)
    75ec:	0005ac83          	lw	x25,0(x11)
    75f0:	1f312e23          	sw	x19,508(x2)
    75f4:	1f712623          	sw	x23,492(x2)
    75f8:	1db12e23          	sw	x27,476(x2)
    75fc:	02000793          	addi	x15,x0,32
    7600:	00058b93          	addi	x23,x11,0
    7604:	00070d93          	addi	x27,x14,0
    7608:	00068993          	addi	x19,x13,0
    760c:	00000593          	addi	x11,x0,0
    7610:	0197d863          	bge	x15,x25,7620 <__gdtoa+0x8c>
    7614:	00179793          	slli	x15,x15,0x1
    7618:	00158593          	addi	x11,x11,1
    761c:	ff97cce3          	blt	x15,x25,7614 <__gdtoa+0x80>
    7620:	00040513          	addi	x10,x8,0
    7624:	3e9020ef          	jal	x1,a20c <_Balloc>
    7628:	00a12a23          	sw	x10,20(x2)
    762c:	4c0502e3          	beq	x10,x0,82f0 <__gdtoa+0xd5c>
    7630:	01412783          	lw	x15,20(x2)
    7634:	fffc8513          	addi	x10,x25,-1
    7638:	40555513          	srai	x10,x10,0x5
    763c:	00251593          	slli	x11,x10,0x2
    7640:	01478693          	addi	x13,x15,20
    7644:	1f512a23          	sw	x21,500(x2)
    7648:	1f612823          	sw	x22,496(x2)
    764c:	00b985b3          	add	x11,x19,x11
    7650:	00098793          	addi	x15,x19,0
    7654:	0007a703          	lw	x14,0(x15)
    7658:	00478793          	addi	x15,x15,4
    765c:	00468693          	addi	x13,x13,4
    7660:	fee6ae23          	sw	x14,-4(x13)
    7664:	fef5f8e3          	bgeu	x11,x15,7654 <__gdtoa+0xc0>
    7668:	00158593          	addi	x11,x11,1
    766c:	00198793          	addi	x15,x19,1
    7670:	00400693          	addi	x13,x0,4
    7674:	00f5e663          	bltu	x11,x15,7680 <__gdtoa+0xec>
    7678:	00251513          	slli	x10,x10,0x2
    767c:	00d506b3          	add	x13,x10,x13
    7680:	01412783          	lw	x15,20(x2)
    7684:	4026da93          	srai	x21,x13,0x2
    7688:	00d786b3          	add	x13,x15,x13
    768c:	00c0006f          	jal	x0,7698 <__gdtoa+0x104>
    7690:	ffc68693          	addi	x13,x13,-4
    7694:	020a8ee3          	beq	x21,x0,7ed0 <__gdtoa+0x93c>
    7698:	0106a783          	lw	x15,16(x13)
    769c:	000a8b13          	addi	x22,x21,0
    76a0:	fffa8a93          	addi	x21,x21,-1
    76a4:	fe0786e3          	beq	x15,x0,7690 <__gdtoa+0xfc>
    76a8:	01412703          	lw	x14,20(x2)
    76ac:	004a8793          	addi	x15,x21,4
    76b0:	00279793          	slli	x15,x15,0x2
    76b4:	00f707b3          	add	x15,x14,x15
    76b8:	0047a503          	lw	x10,4(x15)
    76bc:	01672823          	sw	x22,16(x14)
    76c0:	005b1b13          	slli	x22,x22,0x5
    76c4:	6b5020ef          	jal	x1,a578 <__hi0bits>
    76c8:	40ab0ab3          	sub	x21,x22,x10
    76cc:	01412503          	lw	x10,20(x2)
    76d0:	679030ef          	jal	x1,b548 <__trailz_D2A>
    76d4:	02012783          	lw	x15,32(x2)
    76d8:	1ca12623          	sw	x10,460(x2)
    76dc:	04f12423          	sw	x15,72(x2)
    76e0:	02051ee3          	bne	x10,x0,7f1c <__gdtoa+0x988>
    76e4:	01412783          	lw	x15,20(x2)
    76e8:	0107a683          	lw	x13,16(x15)
    76ec:	74068a63          	beq	x13,x0,7e40 <__gdtoa+0x8ac>
    76f0:	01412503          	lw	x10,20(x2)
    76f4:	1cc10593          	addi	x11,x2,460
    76f8:	20912223          	sw	x9,516(x2)
    76fc:	21212023          	sw	x18,512(x2)
    7700:	1f812423          	sw	x24,488(x2)
    7704:	099030ef          	jal	x1,af9c <__b2d>
    7708:	00c59b13          	slli	x22,x11,0xc
    770c:	00cb5b13          	srli	x22,x22,0xc
    7710:	3ff006b7          	lui	x13,0x3ff00
    7714:	00050793          	addi	x15,x10,0
    7718:	00db65b3          	or	x11,x22,x13
    771c:	04812703          	lw	x14,72(x2)
    7720:	02f12423          	sw	x15,40(x2)
    7724:	0000b697          	auipc	x13,0xb
    7728:	42468693          	addi	x13,x13,1060 # 12b48 <__SDATA_BEGIN__>
    772c:	02b12623          	sw	x11,44(x2)
    7730:	0006a603          	lw	x12,0(x13)
    7734:	04a12e23          	sw	x10,92(x2)
    7738:	0046a683          	lw	x13,4(x13)
    773c:	04b12623          	sw	x11,76(x2)
    7740:	02812503          	lw	x10,40(x2)
    7744:	02c12583          	lw	x11,44(x2)
    7748:	01570b33          	add	x22,x14,x21
    774c:	06f12423          	sw	x15,104(x2)
    7750:	05612c23          	sw	x22,88(x2)
    7754:	664060ef          	jal	x1,ddb8 <__subdf3>
    7758:	0000b697          	auipc	x13,0xb
    775c:	3f868693          	addi	x13,x13,1016 # 12b50 <__SDATA_BEGIN__+0x8>
    7760:	0006a603          	lw	x12,0(x13)
    7764:	0046a683          	lw	x13,4(x13)
    7768:	fffb0c13          	addi	x24,x22,-1
    776c:	76d050ef          	jal	x1,d6d8 <__muldf3>
    7770:	0000b697          	auipc	x13,0xb
    7774:	3e868693          	addi	x13,x13,1000 # 12b58 <__SDATA_BEGIN__+0x10>
    7778:	0006a603          	lw	x12,0(x13)
    777c:	0046a683          	lw	x13,4(x13)
    7780:	439040ef          	jal	x1,c3b8 <__adddf3>
    7784:	00050793          	addi	x15,x10,0
    7788:	000c0513          	addi	x10,x24,0
    778c:	00078913          	addi	x18,x15,0
    7790:	00058493          	addi	x9,x11,0
    7794:	7d1060ef          	jal	x1,e764 <__floatsidf>
    7798:	0000b697          	auipc	x13,0xb
    779c:	3c868693          	addi	x13,x13,968 # 12b60 <__SDATA_BEGIN__+0x18>
    77a0:	0006a603          	lw	x12,0(x13)
    77a4:	0046a683          	lw	x13,4(x13)
    77a8:	731050ef          	jal	x1,d6d8 <__muldf3>
    77ac:	03212823          	sw	x18,48(x2)
    77b0:	02912a23          	sw	x9,52(x2)
    77b4:	00050613          	addi	x12,x10,0
    77b8:	00058693          	addi	x13,x11,0
    77bc:	03012503          	lw	x10,48(x2)
    77c0:	03412583          	lw	x11,52(x2)
    77c4:	3f5040ef          	jal	x1,c3b8 <__adddf3>
    77c8:	00050913          	addi	x18,x10,0
    77cc:	00058493          	addi	x9,x11,0
    77d0:	000c0513          	addi	x10,x24,0
    77d4:	000c5663          	bge	x24,x0,77e0 <__gdtoa+0x24c>
    77d8:	00100513          	addi	x10,x0,1
    77dc:	41650533          	sub	x10,x10,x22
    77e0:	bcb50513          	addi	x10,x10,-1077
    77e4:	04a05063          	bge	x0,x10,7824 <__gdtoa+0x290>
    77e8:	77d060ef          	jal	x1,e764 <__floatsidf>
    77ec:	0000b697          	auipc	x13,0xb
    77f0:	37c68693          	addi	x13,x13,892 # 12b68 <__SDATA_BEGIN__+0x20>
    77f4:	0006a603          	lw	x12,0(x13)
    77f8:	0046a683          	lw	x13,4(x13)
    77fc:	6dd050ef          	jal	x1,d6d8 <__muldf3>
    7800:	05212823          	sw	x18,80(x2)
    7804:	04912a23          	sw	x9,84(x2)
    7808:	00050613          	addi	x12,x10,0
    780c:	00058693          	addi	x13,x11,0
    7810:	05012503          	lw	x10,80(x2)
    7814:	05412583          	lw	x11,84(x2)
    7818:	3a1040ef          	jal	x1,c3b8 <__adddf3>
    781c:	00050913          	addi	x18,x10,0
    7820:	00058493          	addi	x9,x11,0
    7824:	03212c23          	sw	x18,56(x2)
    7828:	02912e23          	sw	x9,60(x2)
    782c:	03c12583          	lw	x11,60(x2)
    7830:	03812503          	lw	x10,56(x2)
    7834:	6ad060ef          	jal	x1,e6e0 <__fixdfsi>
    7838:	05212023          	sw	x18,64(x2)
    783c:	04912223          	sw	x9,68(x2)
    7840:	00050893          	addi	x17,x10,0
    7844:	04412583          	lw	x11,68(x2)
    7848:	04012503          	lw	x10,64(x2)
    784c:	00000613          	addi	x12,x0,0
    7850:	00000693          	addi	x13,x0,0
    7854:	00088b13          	addi	x22,x17,0
    7858:	03112423          	sw	x17,40(x2)
    785c:	575050ef          	jal	x1,d5d0 <__ledf2>
    7860:	02055663          	bge	x10,x0,788c <__gdtoa+0x2f8>
    7864:	000b0513          	addi	x10,x22,0
    7868:	6fd060ef          	jal	x1,e764 <__floatsidf>
    786c:	07212823          	sw	x18,112(x2)
    7870:	06912a23          	sw	x9,116(x2)
    7874:	07012603          	lw	x12,112(x2)
    7878:	07412683          	lw	x13,116(x2)
    787c:	3c9050ef          	jal	x1,d444 <__eqdf2>
    7880:	00a03533          	sltu	x10,x0,x10
    7884:	40ab07b3          	sub	x15,x22,x10
    7888:	02f12423          	sw	x15,40(x2)
    788c:	04c12783          	lw	x15,76(x2)
    7890:	014c1613          	slli	x12,x24,0x14
    7894:	418a8c33          	sub	x24,x21,x24
    7898:	00f60b33          	add	x22,x12,x15
    789c:	fffc0793          	addi	x15,x24,-1
    78a0:	02f12823          	sw	x15,48(x2)
    78a4:	02812783          	lw	x15,40(x2)
    78a8:	01600693          	addi	x13,x0,22
    78ac:	62f6e863          	bltu	x13,x15,7edc <__gdtoa+0x948>
    78b0:	05c12683          	lw	x13,92(x2)
    78b4:	0000be17          	auipc	x28,0xb
    78b8:	88ce0e13          	addi	x28,x28,-1908 # 12140 <__mprec_tens>
    78bc:	00379613          	slli	x12,x15,0x3
    78c0:	00ce0633          	add	x12,x28,x12
    78c4:	06d12023          	sw	x13,96(x2)
    78c8:	07612223          	sw	x22,100(x2)
    78cc:	00062503          	lw	x10,0(x12)
    78d0:	00462583          	lw	x11,4(x12)
    78d4:	06412683          	lw	x13,100(x2)
    78d8:	06012603          	lw	x12,96(x2)
    78dc:	3f5050ef          	jal	x1,d4d0 <__gedf2>
    78e0:	24a04ae3          	blt	x0,x10,8334 <__gdtoa+0xda0>
    78e4:	06012023          	sw	x0,96(x2)
    78e8:	04012023          	sw	x0,64(x2)
    78ec:	01804a63          	blt	x0,x24,7900 <__gdtoa+0x36c>
    78f0:	00100693          	addi	x13,x0,1
    78f4:	418687b3          	sub	x15,x13,x24
    78f8:	04f12023          	sw	x15,64(x2)
    78fc:	02012823          	sw	x0,48(x2)
    7900:	03012703          	lw	x14,48(x2)
    7904:	02812783          	lw	x15,40(x2)
    7908:	04012623          	sw	x0,76(x2)
    790c:	00f70733          	add	x14,x14,x15
    7910:	02e12823          	sw	x14,48(x2)
    7914:	04f12823          	sw	x15,80(x2)
    7918:	01812783          	lw	x15,24(x2)
    791c:	00900693          	addi	x13,x0,9
    7920:	62f6e063          	bltu	x13,x15,7f40 <__gdtoa+0x9ac>
    7924:	00500693          	addi	x13,x0,5
    7928:	22f6c0e3          	blt	x13,x15,8348 <__gdtoa+0xdb4>
    792c:	05812783          	lw	x15,88(x2)
    7930:	00400613          	addi	x12,x0,4
    7934:	3fd78793          	addi	x15,x15,1021
    7938:	7f87b493          	sltiu	x9,x15,2040
    793c:	01812783          	lw	x15,24(x2)
    7940:	00c79463          	bne	x15,x12,7948 <__gdtoa+0x3b4>
    7944:	1840106f          	jal	x0,8ac8 <__gdtoa+0x1534>
    7948:	00d79463          	bne	x15,x13,7950 <__gdtoa+0x3bc>
    794c:	1700106f          	jal	x0,8abc <__gdtoa+0x1528>
    7950:	00200693          	addi	x13,x0,2
    7954:	00d79463          	bne	x15,x13,795c <__gdtoa+0x3c8>
    7958:	17c0106f          	jal	x0,8ad4 <__gdtoa+0x1540>
    795c:	00300693          	addi	x13,x0,3
    7960:	04012c23          	sw	x0,88(x2)
    7964:	5ed79663          	bne	x15,x13,7f50 <__gdtoa+0x9bc>
    7968:	05012783          	lw	x15,80(x2)
    796c:	02412703          	lw	x14,36(x2)
    7970:	00e787b3          	add	x15,x15,x14
    7974:	06f12823          	sw	x15,112(x2)
    7978:	00178793          	addi	x15,x15,1
    797c:	02f12c23          	sw	x15,56(x2)
    7980:	6ef052e3          	bge	x0,x15,8864 <__gdtoa+0x12d0>
    7984:	00078693          	addi	x13,x15,0
    7988:	00078593          	addi	x11,x15,0
    798c:	00040513          	addi	x10,x8,0
    7990:	1cd12623          	sw	x13,460(x2)
    7994:	16c020ef          	jal	x1,9b00 <__rv_alloc_D2A>
    7998:	00050713          	addi	x14,x10,0
    799c:	46050063          	beq	x10,x0,7dfc <__gdtoa+0x868>
    79a0:	00cbac03          	lw	x24,12(x23)
    79a4:	fffc0c13          	addi	x24,x24,-1
    79a8:	5e0c0a63          	beq	x24,x0,7f9c <__gdtoa+0xa08>
    79ac:	180c40e3          	blt	x24,x0,832c <__gdtoa+0xd98>
    79b0:	100d7313          	andi	x6,x26,256
    79b4:	5e031063          	bne	x6,x0,7f94 <__gdtoa+0xa00>
    79b8:	04812783          	lw	x15,72(x2)
    79bc:	0007c863          	blt	x15,x0,79cc <__gdtoa+0x438>
    79c0:	05012603          	lw	x12,80(x2)
    79c4:	00e00693          	addi	x13,x0,14
    79c8:	1ac6d8e3          	bge	x13,x12,8378 <__gdtoa+0xde4>
    79cc:	05812783          	lw	x15,88(x2)
    79d0:	140786e3          	beq	x15,x0,831c <__gdtoa+0xd88>
    79d4:	04812783          	lw	x15,72(x2)
    79d8:	415c8833          	sub	x16,x25,x21
    79dc:	004ba683          	lw	x13,4(x23)
    79e0:	00180613          	addi	x12,x16,1
    79e4:	1cc12623          	sw	x12,460(x2)
    79e8:	41078833          	sub	x16,x15,x16
    79ec:	6cd85ce3          	bge	x16,x13,88c4 <__gdtoa+0x1330>
    79f0:	01812583          	lw	x11,24(x2)
    79f4:	ffd58613          	addi	x12,x11,-3
    79f8:	ffd67613          	andi	x12,x12,-3
    79fc:	5a060ce3          	beq	x12,x0,87b4 <__gdtoa+0x1220>
    7a00:	40d786b3          	sub	x13,x15,x13
    7a04:	00168693          	addi	x13,x13,1
    7a08:	1cd12623          	sw	x13,460(x2)
    7a0c:	00100613          	addi	x12,x0,1
    7a10:	00b65c63          	bge	x12,x11,7a28 <__gdtoa+0x494>
    7a14:	03812783          	lw	x15,56(x2)
    7a18:	00f05863          	bge	x0,x15,7a28 <__gdtoa+0x494>
    7a1c:	03812783          	lw	x15,56(x2)
    7a20:	00d7d463          	bge	x15,x13,7a28 <__gdtoa+0x494>
    7a24:	7ec0106f          	jal	x0,9210 <__gdtoa+0x1c7c>
    7a28:	03012783          	lw	x15,48(x2)
    7a2c:	04c12903          	lw	x18,76(x2)
    7a30:	00d787b3          	add	x15,x15,x13
    7a34:	02f12823          	sw	x15,48(x2)
    7a38:	04012783          	lw	x15,64(x2)
    7a3c:	00078d13          	addi	x26,x15,0
    7a40:	00f687b3          	add	x15,x13,x15
    7a44:	04f12023          	sw	x15,64(x2)
    7a48:	00100593          	addi	x11,x0,1
    7a4c:	00040513          	addi	x10,x8,0
    7a50:	04e12423          	sw	x14,72(x2)
    7a54:	44d020ef          	jal	x1,a6a0 <__i2b>
    7a58:	04812703          	lw	x14,72(x2)
    7a5c:	00050b13          	addi	x22,x10,0
    7a60:	38050e63          	beq	x10,x0,7dfc <__gdtoa+0x868>
    7a64:	020d0c63          	beq	x26,x0,7a9c <__gdtoa+0x508>
    7a68:	03012783          	lw	x15,48(x2)
    7a6c:	02f05863          	bge	x0,x15,7a9c <__gdtoa+0x508>
    7a70:	000d0693          	addi	x13,x26,0
    7a74:	01a7d463          	bge	x15,x26,7a7c <__gdtoa+0x4e8>
    7a78:	00078693          	addi	x13,x15,0
    7a7c:	04012783          	lw	x15,64(x2)
    7a80:	1cd12623          	sw	x13,460(x2)
    7a84:	40dd0d33          	sub	x26,x26,x13
    7a88:	40d787b3          	sub	x15,x15,x13
    7a8c:	04f12023          	sw	x15,64(x2)
    7a90:	03012783          	lw	x15,48(x2)
    7a94:	40d787b3          	sub	x15,x15,x13
    7a98:	02f12823          	sw	x15,48(x2)
    7a9c:	04c12783          	lw	x15,76(x2)
    7aa0:	02078a63          	beq	x15,x0,7ad4 <__gdtoa+0x540>
    7aa4:	05812783          	lw	x15,88(x2)
    7aa8:	00078663          	beq	x15,x0,7ab4 <__gdtoa+0x520>
    7aac:	00090463          	beq	x18,x0,7ab4 <__gdtoa+0x520>
    7ab0:	72d0006f          	jal	x0,89dc <__gdtoa+0x1448>
    7ab4:	04c12603          	lw	x12,76(x2)
    7ab8:	01412583          	lw	x11,20(x2)
    7abc:	00040513          	addi	x10,x8,0
    7ac0:	04e12423          	sw	x14,72(x2)
    7ac4:	6d5020ef          	jal	x1,a998 <__pow5mult>
    7ac8:	00a12a23          	sw	x10,20(x2)
    7acc:	04812703          	lw	x14,72(x2)
    7ad0:	32050663          	beq	x10,x0,7dfc <__gdtoa+0x868>
    7ad4:	00100593          	addi	x11,x0,1
    7ad8:	00040513          	addi	x10,x8,0
    7adc:	04e12423          	sw	x14,72(x2)
    7ae0:	3c1020ef          	jal	x1,a6a0 <__i2b>
    7ae4:	00050c93          	addi	x25,x10,0
    7ae8:	30050a63          	beq	x10,x0,7dfc <__gdtoa+0x868>
    7aec:	02812783          	lw	x15,40(x2)
    7af0:	04812703          	lw	x14,72(x2)
    7af4:	56079ee3          	bne	x15,x0,8870 <__gdtoa+0x12dc>
    7af8:	01812783          	lw	x15,24(x2)
    7afc:	00100693          	addi	x13,x0,1
    7b00:	26f6dae3          	bge	x13,x15,8574 <__gdtoa+0xfe0>
    7b04:	01f00a13          	addi	x20,x0,31
    7b08:	03012783          	lw	x15,48(x2)
    7b0c:	40fa0a33          	sub	x20,x20,x15
    7b10:	04012783          	lw	x15,64(x2)
    7b14:	ffca0a13          	addi	x20,x20,-4
    7b18:	01fa7a13          	andi	x20,x20,31
    7b1c:	01478633          	add	x12,x15,x20
    7b20:	1d412623          	sw	x20,460(x2)
    7b24:	000a0793          	addi	x15,x20,0
    7b28:	34c04ee3          	blt	x0,x12,8684 <__gdtoa+0x10f0>
    7b2c:	03012683          	lw	x13,48(x2)
    7b30:	00f68633          	add	x12,x13,x15
    7b34:	2ac04663          	blt	x0,x12,7de0 <__gdtoa+0x84c>
    7b38:	06012783          	lw	x15,96(x2)
    7b3c:	360796e3          	bne	x15,x0,86a8 <__gdtoa+0x1114>
    7b40:	03812783          	lw	x15,56(x2)
    7b44:	48f05ee3          	bge	x0,x15,87e0 <__gdtoa+0x124c>
    7b48:	05812783          	lw	x15,88(x2)
    7b4c:	3a078ae3          	beq	x15,x0,8700 <__gdtoa+0x116c>
    7b50:	01aa0633          	add	x12,x20,x26
    7b54:	00c05463          	bge	x0,x12,7b5c <__gdtoa+0x5c8>
    7b58:	7310006f          	jal	x0,8a88 <__gdtoa+0x14f4>
    7b5c:	02812783          	lw	x15,40(x2)
    7b60:	000b0e93          	addi	x29,x22,0
    7b64:	00078463          	beq	x15,x0,7b6c <__gdtoa+0x5d8>
    7b68:	7a90006f          	jal	x0,8b10 <__gdtoa+0x157c>
    7b6c:	03812023          	sw	x24,32(x2)
    7b70:	03b12423          	sw	x27,40(x2)
    7b74:	01412c03          	lw	x24,20(x2)
    7b78:	00070a93          	addi	x21,x14,0
    7b7c:	00100693          	addi	x13,x0,1
    7b80:	00200493          	addi	x9,x0,2
    7b84:	00a00913          	addi	x18,x0,10
    7b88:	02e12223          	sw	x14,36(x2)
    7b8c:	000e8d93          	addi	x27,x29,0
    7b90:	0b40006f          	jal	x0,7c44 <__gdtoa+0x6b0>
    7b94:	00040513          	addi	x10,x8,0
    7b98:	724020ef          	jal	x1,a2bc <_Bfree>
    7b9c:	000bd463          	bge	x23,x0,7ba4 <__gdtoa+0x610>
    7ba0:	2040106f          	jal	x0,8da4 <__gdtoa+0x1810>
    7ba4:	01812783          	lw	x15,24(x2)
    7ba8:	0177ebb3          	or	x23,x15,x23
    7bac:	000b9a63          	bne	x23,x0,7bc0 <__gdtoa+0x62c>
    7bb0:	0009a783          	lw	x15,0(x19)
    7bb4:	0017f793          	andi	x15,x15,1
    7bb8:	00079463          	bne	x15,x0,7bc0 <__gdtoa+0x62c>
    7bbc:	1e80106f          	jal	x0,8da4 <__gdtoa+0x1810>
    7bc0:	02012783          	lw	x15,32(x2)
    7bc4:	00978463          	beq	x15,x9,7bcc <__gdtoa+0x638>
    7bc8:	5440106f          	jal	x0,910c <__gdtoa+0x1b78>
    7bcc:	014a8023          	sb	x20,0(x21)
    7bd0:	1cc12783          	lw	x15,460(x2)
    7bd4:	03812703          	lw	x14,56(x2)
    7bd8:	001a8a93          	addi	x21,x21,1
    7bdc:	00f71463          	bne	x14,x15,7be4 <__gdtoa+0x650>
    7be0:	45c0106f          	jal	x0,903c <__gdtoa+0x1aa8>
    7be4:	000c0593          	addi	x11,x24,0
    7be8:	00000693          	addi	x13,x0,0
    7bec:	00090613          	addi	x12,x18,0
    7bf0:	00040513          	addi	x10,x8,0
    7bf4:	6ec020ef          	jal	x1,a2e0 <__multadd>
    7bf8:	00050c13          	addi	x24,x10,0
    7bfc:	20050063          	beq	x10,x0,7dfc <__gdtoa+0x868>
    7c00:	000b0593          	addi	x11,x22,0
    7c04:	00000693          	addi	x13,x0,0
    7c08:	00090613          	addi	x12,x18,0
    7c0c:	00040513          	addi	x10,x8,0
    7c10:	1dbb02e3          	beq	x22,x27,85d4 <__gdtoa+0x1040>
    7c14:	6cc020ef          	jal	x1,a2e0 <__multadd>
    7c18:	00050b13          	addi	x22,x10,0
    7c1c:	1e050063          	beq	x10,x0,7dfc <__gdtoa+0x868>
    7c20:	000d8593          	addi	x11,x27,0
    7c24:	00000693          	addi	x13,x0,0
    7c28:	00090613          	addi	x12,x18,0
    7c2c:	00040513          	addi	x10,x8,0
    7c30:	6b0020ef          	jal	x1,a2e0 <__multadd>
    7c34:	00050d93          	addi	x27,x10,0
    7c38:	1c050263          	beq	x10,x0,7dfc <__gdtoa+0x868>
    7c3c:	1cc12683          	lw	x13,460(x2)
    7c40:	00168693          	addi	x13,x13,1
    7c44:	000c8593          	addi	x11,x25,0
    7c48:	000c0513          	addi	x10,x24,0
    7c4c:	1cd12623          	sw	x13,460(x2)
    7c50:	7ed010ef          	jal	x1,9c3c <__quorem_D2A>
    7c54:	00050d13          	addi	x26,x10,0
    7c58:	000b0593          	addi	x11,x22,0
    7c5c:	000c0513          	addi	x10,x24,0
    7c60:	018030ef          	jal	x1,ac78 <__mcmp>
    7c64:	000c8593          	addi	x11,x25,0
    7c68:	00050b93          	addi	x23,x10,0
    7c6c:	000d8613          	addi	x12,x27,0
    7c70:	00040513          	addi	x10,x8,0
    7c74:	05c030ef          	jal	x1,acd0 <__mdiff>
    7c78:	030d0a13          	addi	x20,x26,48
    7c7c:	00050593          	addi	x11,x10,0
    7c80:	16050e63          	beq	x10,x0,7dfc <__gdtoa+0x868>
    7c84:	00c52783          	lw	x15,12(x10)
    7c88:	f00796e3          	bne	x15,x0,7b94 <__gdtoa+0x600>
    7c8c:	00a12a23          	sw	x10,20(x2)
    7c90:	000c0513          	addi	x10,x24,0
    7c94:	7e5020ef          	jal	x1,ac78 <__mcmp>
    7c98:	01412583          	lw	x11,20(x2)
    7c9c:	00050693          	addi	x13,x10,0
    7ca0:	00040513          	addi	x10,x8,0
    7ca4:	00d12a23          	sw	x13,20(x2)
    7ca8:	614020ef          	jal	x1,a2bc <_Bfree>
    7cac:	01812783          	lw	x15,24(x2)
    7cb0:	01412683          	lw	x13,20(x2)
    7cb4:	00d7e733          	or	x14,x15,x13
    7cb8:	00070463          	beq	x14,x0,7cc0 <__gdtoa+0x72c>
    7cbc:	7000106f          	jal	x0,93bc <__gdtoa+0x1e28>
    7cc0:	0009a783          	lw	x15,0(x19)
    7cc4:	0017f793          	andi	x15,x15,1
    7cc8:	120790e3          	bne	x15,x0,85e8 <__gdtoa+0x1054>
    7ccc:	02012783          	lw	x15,32(x2)
    7cd0:	00079463          	bne	x15,x0,7cd8 <__gdtoa+0x744>
    7cd4:	5f40106f          	jal	x0,92c8 <__gdtoa+0x1d34>
    7cd8:	ef704ae3          	blt	x0,x23,7bcc <__gdtoa+0x638>
    7cdc:	01812a23          	sw	x24,20(x2)
    7ce0:	01412783          	lw	x15,20(x2)
    7ce4:	00100693          	addi	x13,x0,1
    7ce8:	000a0813          	addi	x16,x20,0
    7cec:	0107a603          	lw	x12,16(x15)
    7cf0:	000d8e93          	addi	x29,x27,0
    7cf4:	00070a13          	addi	x20,x14,0
    7cf8:	02012c03          	lw	x24,32(x2)
    7cfc:	02412703          	lw	x14,36(x2)
    7d00:	02812d83          	lw	x27,40(x2)
    7d04:	00c6c463          	blt	x13,x12,7d0c <__gdtoa+0x778>
    7d08:	67c0106f          	jal	x0,9384 <__gdtoa+0x1df0>
    7d0c:	00200693          	addi	x13,x0,2
    7d10:	00dc1463          	bne	x24,x13,7d18 <__gdtoa+0x784>
    7d14:	6400106f          	jal	x0,9354 <__gdtoa+0x1dc0>
    7d18:	01412903          	lw	x18,20(x2)
    7d1c:	00a00a13          	addi	x20,x0,10
    7d20:	00080493          	addi	x9,x16,0
    7d24:	000e8b93          	addi	x23,x29,0
    7d28:	00070c13          	addi	x24,x14,0
    7d2c:	0240006f          	jal	x0,7d50 <__gdtoa+0x7bc>
    7d30:	5b0020ef          	jal	x1,a2e0 <__multadd>
    7d34:	000c8593          	addi	x11,x25,0
    7d38:	00050913          	addi	x18,x10,0
    7d3c:	0c050063          	beq	x10,x0,7dfc <__gdtoa+0x868>
    7d40:	6fd010ef          	jal	x1,9c3c <__quorem_D2A>
    7d44:	00048b93          	addi	x23,x9,0
    7d48:	00098a93          	addi	x21,x19,0
    7d4c:	03050493          	addi	x9,x10,48
    7d50:	000b8593          	addi	x11,x23,0
    7d54:	000c8513          	addi	x10,x25,0
    7d58:	721020ef          	jal	x1,ac78 <__mcmp>
    7d5c:	00050793          	addi	x15,x10,0
    7d60:	00000693          	addi	x13,x0,0
    7d64:	000a0613          	addi	x12,x20,0
    7d68:	000b8593          	addi	x11,x23,0
    7d6c:	00040513          	addi	x10,x8,0
    7d70:	001a8993          	addi	x19,x21,1
    7d74:	00f04463          	blt	x0,x15,7d7c <__gdtoa+0x7e8>
    7d78:	5bc0106f          	jal	x0,9334 <__gdtoa+0x1da0>
    7d7c:	fe998fa3          	sb	x9,-1(x19)
    7d80:	560020ef          	jal	x1,a2e0 <__multadd>
    7d84:	00050493          	addi	x9,x10,0
    7d88:	00000693          	addi	x13,x0,0
    7d8c:	000a0613          	addi	x12,x20,0
    7d90:	00090593          	addi	x11,x18,0
    7d94:	00040513          	addi	x10,x8,0
    7d98:	06048263          	beq	x9,x0,7dfc <__gdtoa+0x868>
    7d9c:	f97b1ae3          	bne	x22,x23,7d30 <__gdtoa+0x79c>
    7da0:	00048b13          	addi	x22,x9,0
    7da4:	f8dff06f          	jal	x0,7d30 <__gdtoa+0x79c>
    7da8:	00400793          	addi	x15,x0,4
    7dac:	06fe1c63          	bne	x28,x15,7e24 <__gdtoa+0x890>
    7db0:	00c12703          	lw	x14,12(x2)
    7db4:	01012603          	lw	x12,16(x2)
    7db8:	1f812a03          	lw	x20,504(x2)
    7dbc:	20c12083          	lw	x1,524(x2)
    7dc0:	1e012d03          	lw	x26,480(x2)
    7dc4:	ffff87b7          	lui	x15,0xffff8
    7dc8:	00f72023          	sw	x15,0(x14)
    7dcc:	000e8693          	addi	x13,x29,0
    7dd0:	0000a597          	auipc	x11,0xa
    7dd4:	ce058593          	addi	x11,x11,-800 # 11ab0 <__clzsi2+0x118>
    7dd8:	21010113          	addi	x2,x2,528
    7ddc:	5910106f          	jal	x0,9b6c <__nrv_alloc_D2A>
    7de0:	000c8593          	addi	x11,x25,0
    7de4:	00040513          	addi	x10,x8,0
    7de8:	02e12023          	sw	x14,32(x2)
    7dec:	4fd020ef          	jal	x1,aae8 <__lshift>
    7df0:	02012703          	lw	x14,32(x2)
    7df4:	00050c93          	addi	x25,x10,0
    7df8:	d40510e3          	bne	x10,x0,7b38 <__gdtoa+0x5a4>
    7dfc:	20812403          	lw	x8,520(x2)
    7e00:	20412483          	lw	x9,516(x2)
    7e04:	20012903          	lw	x18,512(x2)
    7e08:	1fc12983          	lw	x19,508(x2)
    7e0c:	1f412a83          	lw	x21,500(x2)
    7e10:	1f012b03          	lw	x22,496(x2)
    7e14:	1ec12b83          	lw	x23,492(x2)
    7e18:	1e812c03          	lw	x24,488(x2)
    7e1c:	1e412c83          	lw	x25,484(x2)
    7e20:	1dc12d83          	lw	x27,476(x2)
    7e24:	00000713          	addi	x14,x0,0
    7e28:	20c12083          	lw	x1,524(x2)
    7e2c:	1f812a03          	lw	x20,504(x2)
    7e30:	1e012d03          	lw	x26,480(x2)
    7e34:	00070513          	addi	x10,x14,0
    7e38:	21010113          	addi	x2,x2,528
    7e3c:	00008067          	jalr	x0,0(x1)
    7e40:	00078593          	addi	x11,x15,0 # ffff8000 <__heap_end+0xffbf8000>
    7e44:	00040513          	addi	x10,x8,0
    7e48:	474020ef          	jal	x1,a2bc <_Bfree>
    7e4c:	1fc12983          	lw	x19,508(x2)
    7e50:	1f412a83          	lw	x21,500(x2)
    7e54:	1f012b03          	lw	x22,496(x2)
    7e58:	1ec12b83          	lw	x23,492(x2)
    7e5c:	1e412c83          	lw	x25,484(x2)
    7e60:	1dc12d83          	lw	x27,476(x2)
    7e64:	00c12783          	lw	x15,12(x2)
    7e68:	01012603          	lw	x12,16(x2)
    7e6c:	00100693          	addi	x13,x0,1
    7e70:	00040513          	addi	x10,x8,0
    7e74:	00d7a023          	sw	x13,0(x15)
    7e78:	0000a597          	auipc	x11,0xa
    7e7c:	c2858593          	addi	x11,x11,-984 # 11aa0 <__clzsi2+0x108>
    7e80:	4ed010ef          	jal	x1,9b6c <__nrv_alloc_D2A>
    7e84:	20c12083          	lw	x1,524(x2)
    7e88:	20812403          	lw	x8,520(x2)
    7e8c:	00050713          	addi	x14,x10,0
    7e90:	1f812a03          	lw	x20,504(x2)
    7e94:	1e012d03          	lw	x26,480(x2)
    7e98:	00070513          	addi	x10,x14,0
    7e9c:	21010113          	addi	x2,x2,528
    7ea0:	00008067          	jalr	x0,0(x1)
    7ea4:	00c12703          	lw	x14,12(x2)
    7ea8:	01012603          	lw	x12,16(x2)
    7eac:	20c12083          	lw	x1,524(x2)
    7eb0:	1e012d03          	lw	x26,480(x2)
    7eb4:	ffff87b7          	lui	x15,0xffff8
    7eb8:	00f72023          	sw	x15,0(x14)
    7ebc:	00800693          	addi	x13,x0,8
    7ec0:	0000a597          	auipc	x11,0xa
    7ec4:	be458593          	addi	x11,x11,-1052 # 11aa4 <__clzsi2+0x10c>
    7ec8:	21010113          	addi	x2,x2,528
    7ecc:	4a10106f          	jal	x0,9b6c <__nrv_alloc_D2A>
    7ed0:	01412783          	lw	x15,20(x2)
    7ed4:	0007a823          	sw	x0,16(x15) # ffff8010 <__heap_end+0xffbf8010>
    7ed8:	ff4ff06f          	jal	x0,76cc <__gdtoa+0x138>
    7edc:	00100793          	addi	x15,x0,1
    7ee0:	06f12023          	sw	x15,96(x2)
    7ee4:	04012023          	sw	x0,64(x2)
    7ee8:	fffc0793          	addi	x15,x24,-1
    7eec:	4007ce63          	blt	x15,x0,8308 <__gdtoa+0xd74>
    7ef0:	02812783          	lw	x15,40(x2)
    7ef4:	a007d6e3          	bge	x15,x0,7900 <__gdtoa+0x36c>
    7ef8:	02812783          	lw	x15,40(x2)
    7efc:	04012703          	lw	x14,64(x2)
    7f00:	02012423          	sw	x0,40(x2)
    7f04:	04f12823          	sw	x15,80(x2)
    7f08:	40f70733          	sub	x14,x14,x15
    7f0c:	04e12023          	sw	x14,64(x2)
    7f10:	40f00733          	sub	x14,x0,x15
    7f14:	04e12623          	sw	x14,76(x2)
    7f18:	a01ff06f          	jal	x0,7918 <__gdtoa+0x384>
    7f1c:	00050593          	addi	x11,x10,0
    7f20:	01412503          	lw	x10,20(x2)
    7f24:	540030ef          	jal	x1,b464 <__rshift_D2A>
    7f28:	1cc12683          	lw	x13,460(x2)
    7f2c:	02012783          	lw	x15,32(x2)
    7f30:	40da8ab3          	sub	x21,x21,x13
    7f34:	00f687b3          	add	x15,x13,x15
    7f38:	04f12423          	sw	x15,72(x2)
    7f3c:	fa8ff06f          	jal	x0,76e4 <__gdtoa+0x150>
    7f40:	05812783          	lw	x15,88(x2)
    7f44:	00012c23          	sw	x0,24(x2)
    7f48:	3fd78693          	addi	x13,x15,1021
    7f4c:	7f86b493          	sltiu	x9,x13,2040
    7f50:	000c8513          	addi	x10,x25,0
    7f54:	011060ef          	jal	x1,e764 <__floatsidf>
    7f58:	0000b697          	auipc	x13,0xb
    7f5c:	c1868693          	addi	x13,x13,-1000 # 12b70 <__SDATA_BEGIN__+0x28>
    7f60:	0006a603          	lw	x12,0(x13)
    7f64:	0046a683          	lw	x13,4(x13)
    7f68:	770050ef          	jal	x1,d6d8 <__muldf3>
    7f6c:	774060ef          	jal	x1,e6e0 <__fixdfsi>
    7f70:	fff00793          	addi	x15,x0,-1
    7f74:	00350593          	addi	x11,x10,3
    7f78:	06f12823          	sw	x15,112(x2)
    7f7c:	02f12c23          	sw	x15,56(x2)
    7f80:	00100793          	addi	x15,x0,1
    7f84:	00058693          	addi	x13,x11,0
    7f88:	02012223          	sw	x0,36(x2)
    7f8c:	04f12c23          	sw	x15,88(x2)
    7f90:	9fdff06f          	jal	x0,798c <__gdtoa+0x3f8>
    7f94:	00300693          	addi	x13,x0,3
    7f98:	41868c33          	sub	x24,x13,x24
    7f9c:	03812903          	lw	x18,56(x2)
    7fa0:	00e00693          	addi	x13,x0,14
    7fa4:	a126eae3          	bltu	x13,x18,79b8 <__gdtoa+0x424>
    7fa8:	a00488e3          	beq	x9,x0,79b8 <__gdtoa+0x424>
    7fac:	05012783          	lw	x15,80(x2)
    7fb0:	0187e6b3          	or	x13,x15,x24
    7fb4:	a00692e3          	bne	x13,x0,79b8 <__gdtoa+0x424>
    7fb8:	05c12483          	lw	x9,92(x2)
    7fbc:	06012783          	lw	x15,96(x2)
    7fc0:	1c012623          	sw	x0,460(x2)
    7fc4:	0a912023          	sw	x9,160(x2)
    7fc8:	0b612223          	sw	x22,164(x2)
    7fcc:	02078c63          	beq	x15,x0,8004 <__gdtoa+0xa70>
    7fd0:	0000b697          	auipc	x13,0xb
    7fd4:	ba868693          	addi	x13,x13,-1112 # 12b78 <__SDATA_BEGIN__+0x30>
    7fd8:	0c912423          	sw	x9,200(x2)
    7fdc:	0d612623          	sw	x22,204(x2)
    7fe0:	0006a603          	lw	x12,0(x13)
    7fe4:	0c812503          	lw	x10,200(x2)
    7fe8:	0046a683          	lw	x13,4(x13)
    7fec:	0cc12583          	lw	x11,204(x2)
    7ff0:	04e12e23          	sw	x14,92(x2)
    7ff4:	5dc050ef          	jal	x1,d5d0 <__ledf2>
    7ff8:	05c12703          	lw	x14,92(x2)
    7ffc:	00055463          	bge	x10,x0,8004 <__gdtoa+0xa70>
    8000:	0680106f          	jal	x0,9068 <__gdtoa+0x1ad4>
    8004:	0a012783          	lw	x15,160(x2)
    8008:	04e12e23          	sw	x14,92(x2)
    800c:	0af12423          	sw	x15,168(x2)
    8010:	0af12823          	sw	x15,176(x2)
    8014:	0a412783          	lw	x15,164(x2)
    8018:	0a812603          	lw	x12,168(x2)
    801c:	0b012503          	lw	x10,176(x2)
    8020:	0af12623          	sw	x15,172(x2)
    8024:	0af12a23          	sw	x15,180(x2)
    8028:	0ac12683          	lw	x13,172(x2)
    802c:	0b412583          	lw	x11,180(x2)
    8030:	388040ef          	jal	x1,c3b8 <__adddf3>
    8034:	0000b697          	auipc	x13,0xb
    8038:	b5c68693          	addi	x13,x13,-1188 # 12b90 <__SDATA_BEGIN__+0x48>
    803c:	0006a603          	lw	x12,0(x13)
    8040:	0046a683          	lw	x13,4(x13)
    8044:	374040ef          	jal	x1,c3b8 <__adddf3>
    8048:	03812783          	lw	x15,56(x2)
    804c:	fcc006b7          	lui	x13,0xfcc00
    8050:	05c12703          	lw	x14,92(x2)
    8054:	00050913          	addi	x18,x10,0
    8058:	00b68c33          	add	x24,x13,x11
    805c:	34078ae3          	beq	x15,x0,8bb0 <__gdtoa+0x161c>
    8060:	03812783          	lw	x15,56(x2)
    8064:	0a012e83          	lw	x29,160(x2)
    8068:	0a412f03          	lw	x30,164(x2)
    806c:	0a012423          	sw	x0,168(x2)
    8070:	04f12e23          	sw	x15,92(x2)
    8074:	05c12783          	lw	x15,92(x2)
    8078:	0000ae17          	auipc	x28,0xa
    807c:	0c8e0e13          	addi	x28,x28,200 # 12140 <__mprec_tens>
    8080:	0de12423          	sw	x30,200(x2)
    8084:	fff78693          	addi	x13,x15,-1
    8088:	05812783          	lw	x15,88(x2)
    808c:	00369693          	slli	x13,x13,0x3
    8090:	00de06b3          	add	x13,x28,x13
    8094:	0bd12823          	sw	x29,176(x2)
    8098:	0006a603          	lw	x12,0(x13) # fcc00000 <__heap_end+0xfc800000>
    809c:	0046a683          	lw	x13,4(x13)
    80a0:	5a0780e3          	beq	x15,x0,8e40 <__gdtoa+0x18ac>
    80a4:	0000b597          	auipc	x11,0xb
    80a8:	afc58593          	addi	x11,x11,-1284 # 12ba0 <__SDATA_BEGIN__+0x58>
    80ac:	0005a503          	lw	x10,0(x11)
    80b0:	0045a583          	lw	x11,4(x11)
    80b4:	15c12023          	sw	x28,320(x2)
    80b8:	00170d13          	addi	x26,x14,1
    80bc:	0ce12823          	sw	x14,208(x2)
    80c0:	3cd040ef          	jal	x1,cc8c <__divdf3>
    80c4:	11212823          	sw	x18,272(x2)
    80c8:	11812a23          	sw	x24,276(x2)
    80cc:	11012603          	lw	x12,272(x2)
    80d0:	11412683          	lw	x13,276(x2)
    80d4:	4e5050ef          	jal	x1,ddb8 <__subdf3>
    80d8:	0b012e83          	lw	x29,176(x2)
    80dc:	0c812f03          	lw	x30,200(x2)
    80e0:	00050c13          	addi	x24,x10,0
    80e4:	11d12c23          	sw	x29,280(x2)
    80e8:	11e12e23          	sw	x30,284(x2)
    80ec:	00058b13          	addi	x22,x11,0
    80f0:	11812503          	lw	x10,280(x2)
    80f4:	11c12583          	lw	x11,284(x2)
    80f8:	07e12423          	sw	x30,104(x2)
    80fc:	5e4060ef          	jal	x1,e6e0 <__fixdfsi>
    8100:	00050493          	addi	x9,x10,0
    8104:	660060ef          	jal	x1,e764 <__floatsidf>
    8108:	0b012e83          	lw	x29,176(x2)
    810c:	06812f03          	lw	x30,104(x2)
    8110:	00050613          	addi	x12,x10,0
    8114:	13d12023          	sw	x29,288(x2)
    8118:	13e12223          	sw	x30,292(x2)
    811c:	00058693          	addi	x13,x11,0
    8120:	12012503          	lw	x10,288(x2)
    8124:	12412583          	lw	x11,292(x2)
    8128:	491050ef          	jal	x1,ddb8 <__subdf3>
    812c:	0d012703          	lw	x14,208(x2)
    8130:	12a12423          	sw	x10,296(x2)
    8134:	12b12623          	sw	x11,300(x2)
    8138:	13812823          	sw	x24,304(x2)
    813c:	13612a23          	sw	x22,308(x2)
    8140:	03048793          	addi	x15,x9,48
    8144:	06b12423          	sw	x11,104(x2)
    8148:	12812603          	lw	x12,296(x2)
    814c:	12c12683          	lw	x13,300(x2)
    8150:	00050913          	addi	x18,x10,0
    8154:	00058493          	addi	x9,x11,0
    8158:	13012503          	lw	x10,304(x2)
    815c:	13412583          	lw	x11,308(x2)
    8160:	00f70023          	sb	x15,0(x14)
    8164:	0ae12823          	sw	x14,176(x2)
    8168:	368050ef          	jal	x1,d4d0 <__gedf2>
    816c:	0b012703          	lw	x14,176(x2)
    8170:	00a05463          	bge	x0,x10,8178 <__gdtoa+0xbe4>
    8174:	0600106f          	jal	x0,91d4 <__gdtoa+0x1c40>
    8178:	0000b697          	auipc	x13,0xb
    817c:	a0068693          	addi	x13,x13,-1536 # 12b78 <__SDATA_BEGIN__+0x30>
    8180:	0006a783          	lw	x15,0(x13)
    8184:	0046a803          	lw	x16,4(x13)
    8188:	0000ae17          	auipc	x28,0xa
    818c:	fb8e0e13          	addi	x28,x28,-72 # 12140 <__mprec_tens>
    8190:	0d912c23          	sw	x25,216(x2)
    8194:	11712423          	sw	x23,264(x2)
    8198:	06f12423          	sw	x15,104(x2)
    819c:	07012623          	sw	x16,108(x2)
    81a0:	0f512023          	sw	x21,224(x2)
    81a4:	0f412423          	sw	x20,232(x2)
    81a8:	0c812423          	sw	x8,200(x2)
    81ac:	11312823          	sw	x19,272(x2)
    81b0:	0db12823          	sw	x27,208(x2)
    81b4:	11c12c23          	sw	x28,280(x2)
    81b8:	00090b93          	addi	x23,x18,0
    81bc:	00048c93          	addi	x25,x9,0
    81c0:	0b40006f          	jal	x0,8274 <__gdtoa+0xce0>
    81c4:	1cc12783          	lw	x15,460(x2)
    81c8:	05c12703          	lw	x14,92(x2)
    81cc:	00178793          	addi	x15,x15,1
    81d0:	1cf12623          	sw	x15,460(x2)
    81d4:	00e7c463          	blt	x15,x14,81dc <__gdtoa+0xc48>
    81d8:	0700106f          	jal	x0,9248 <__gdtoa+0x1cb4>
    81dc:	0000bd97          	auipc	x27,0xb
    81e0:	9a4d8d93          	addi	x27,x27,-1628 # 12b80 <__SDATA_BEGIN__+0x38>
    81e4:	000da603          	lw	x12,0(x27)
    81e8:	004da683          	lw	x13,4(x27)
    81ec:	001d0d13          	addi	x26,x26,1
    81f0:	4e8050ef          	jal	x1,d6d8 <__muldf3>
    81f4:	07712c23          	sw	x23,120(x2)
    81f8:	07912e23          	sw	x25,124(x2)
    81fc:	000da603          	lw	x12,0(x27)
    8200:	004da683          	lw	x13,4(x27)
    8204:	00050c13          	addi	x24,x10,0
    8208:	00058b13          	addi	x22,x11,0
    820c:	07812503          	lw	x10,120(x2)
    8210:	07c12583          	lw	x11,124(x2)
    8214:	4c4050ef          	jal	x1,d6d8 <__muldf3>
    8218:	00058c93          	addi	x25,x11,0
    821c:	00050d93          	addi	x27,x10,0
    8220:	4c0060ef          	jal	x1,e6e0 <__fixdfsi>
    8224:	00050b93          	addi	x23,x10,0
    8228:	53c060ef          	jal	x1,e764 <__floatsidf>
    822c:	09912223          	sw	x25,132(x2)
    8230:	09b12023          	sw	x27,128(x2)
    8234:	00050613          	addi	x12,x10,0
    8238:	00058693          	addi	x13,x11,0
    823c:	08012503          	lw	x10,128(x2)
    8240:	08412583          	lw	x11,132(x2)
    8244:	375050ef          	jal	x1,ddb8 <__subdf3>
    8248:	09812423          	sw	x24,136(x2)
    824c:	09612623          	sw	x22,140(x2)
    8250:	08812603          	lw	x12,136(x2)
    8254:	08c12683          	lw	x13,140(x2)
    8258:	030b8793          	addi	x15,x23,48
    825c:	fefd0fa3          	sb	x15,-1(x26)
    8260:	00050b93          	addi	x23,x10,0
    8264:	00058c93          	addi	x25,x11,0
    8268:	368050ef          	jal	x1,d5d0 <__ledf2>
    826c:	00055463          	bge	x10,x0,8274 <__gdtoa+0xce0>
    8270:	7510006f          	jal	x0,91c0 <__gdtoa+0x1c2c>
    8274:	06812503          	lw	x10,104(x2)
    8278:	06c12583          	lw	x11,108(x2)
    827c:	000b8613          	addi	x12,x23,0
    8280:	000c8693          	addi	x13,x25,0
    8284:	335050ef          	jal	x1,ddb8 <__subdf3>
    8288:	000c0613          	addi	x12,x24,0
    828c:	000b0693          	addi	x13,x22,0
    8290:	340050ef          	jal	x1,d5d0 <__ledf2>
    8294:	00050793          	addi	x15,x10,0
    8298:	000b0593          	addi	x11,x22,0
    829c:	000c0513          	addi	x10,x24,0
    82a0:	f207d2e3          	bge	x15,x0,81c4 <__gdtoa+0xc30>
    82a4:	0a812783          	lw	x15,168(x2)
    82a8:	0b012703          	lw	x14,176(x2)
    82ac:	0c812403          	lw	x8,200(x2)
    82b0:	0d012d83          	lw	x27,208(x2)
    82b4:	fffd4c03          	lbu	x24,-1(x26)
    82b8:	00178493          	addi	x9,x15,1
    82bc:	03900693          	addi	x13,x0,57
    82c0:	0100006f          	jal	x0,82d0 <__gdtoa+0xd3c>
    82c4:	36f708e3          	beq	x14,x15,8e34 <__gdtoa+0x18a0>
    82c8:	fff7cc03          	lbu	x24,-1(x15)
    82cc:	00078d13          	addi	x26,x15,0
    82d0:	fffd0793          	addi	x15,x26,-1
    82d4:	fedc08e3          	beq	x24,x13,82c4 <__gdtoa+0xd30>
    82d8:	001c0693          	addi	x13,x24,1
    82dc:	0ff6f693          	andi	x13,x13,255
    82e0:	00d78023          	sb	x13,0(x15)
    82e4:	00048c93          	addi	x25,x9,0
    82e8:	02000a13          	addi	x20,x0,32
    82ec:	2240006f          	jal	x0,8510 <__gdtoa+0xf7c>
    82f0:	20812403          	lw	x8,520(x2)
    82f4:	1fc12983          	lw	x19,508(x2)
    82f8:	1ec12b83          	lw	x23,492(x2)
    82fc:	1e412c83          	lw	x25,484(x2)
    8300:	1dc12d83          	lw	x27,476(x2)
    8304:	b21ff06f          	jal	x0,7e24 <__gdtoa+0x890>
    8308:	00100693          	addi	x13,x0,1
    830c:	418687b3          	sub	x15,x13,x24
    8310:	04f12023          	sw	x15,64(x2)
    8314:	02012823          	sw	x0,48(x2)
    8318:	bd9ff06f          	jal	x0,7ef0 <__gdtoa+0x95c>
    831c:	04c12903          	lw	x18,76(x2)
    8320:	04012d03          	lw	x26,64(x2)
    8324:	00000b13          	addi	x22,x0,0
    8328:	f3cff06f          	jal	x0,7a64 <__gdtoa+0x4d0>
    832c:	00200c13          	addi	x24,x0,2
    8330:	e80ff06f          	jal	x0,79b0 <__gdtoa+0x41c>
    8334:	02812783          	lw	x15,40(x2)
    8338:	06012023          	sw	x0,96(x2)
    833c:	fff78793          	addi	x15,x15,-1
    8340:	02f12423          	sw	x15,40(x2)
    8344:	ba1ff06f          	jal	x0,7ee4 <__gdtoa+0x950>
    8348:	ffc78793          	addi	x15,x15,-4
    834c:	00f12c23          	sw	x15,24(x2)
    8350:	00400613          	addi	x12,x0,4
    8354:	24c78a63          	beq	x15,x12,85a8 <__gdtoa+0x1014>
    8358:	74d78a63          	beq	x15,x13,8aac <__gdtoa+0x1518>
    835c:	00200693          	addi	x13,x0,2
    8360:	04012c23          	sw	x0,88(x2)
    8364:	00000493          	addi	x9,x0,0
    8368:	24d78663          	beq	x15,x13,85b4 <__gdtoa+0x1020>
    836c:	00300793          	addi	x15,x0,3
    8370:	00f12c23          	sw	x15,24(x2)
    8374:	df4ff06f          	jal	x0,7968 <__gdtoa+0x3d4>
    8378:	0000a797          	auipc	x15,0xa
    837c:	dc878793          	addi	x15,x15,-568 # 12140 <__mprec_tens>
    8380:	00361693          	slli	x13,x12,0x3
    8384:	00d787b3          	add	x15,x15,x13
    8388:	0047a803          	lw	x16,4(x15)
    838c:	0007a783          	lw	x15,0(x15)
    8390:	01012e23          	sw	x16,28(x2)
    8394:	00f12c23          	sw	x15,24(x2)
    8398:	02412783          	lw	x15,36(x2)
    839c:	5807c063          	blt	x15,x0,891c <__gdtoa+0x1388>
    83a0:	06812b83          	lw	x23,104(x2)
    83a4:	01812c83          	lw	x25,24(x2)
    83a8:	01c12d03          	lw	x26,28(x2)
    83ac:	09712823          	sw	x23,144(x2)
    83b0:	09612a23          	sw	x22,148(x2)
    83b4:	09012503          	lw	x10,144(x2)
    83b8:	09412583          	lw	x11,148(x2)
    83bc:	00100793          	addi	x15,x0,1
    83c0:	000c8613          	addi	x12,x25,0
    83c4:	000d0693          	addi	x13,x26,0
    83c8:	02e12023          	sw	x14,32(x2)
    83cc:	1cf12623          	sw	x15,460(x2)
    83d0:	0bd040ef          	jal	x1,cc8c <__divdf3>
    83d4:	30c060ef          	jal	x1,e6e0 <__fixdfsi>
    83d8:	00050993          	addi	x19,x10,0
    83dc:	388060ef          	jal	x1,e764 <__floatsidf>
    83e0:	000c8613          	addi	x12,x25,0
    83e4:	000d0693          	addi	x13,x26,0
    83e8:	2f0050ef          	jal	x1,d6d8 <__muldf3>
    83ec:	09712c23          	sw	x23,152(x2)
    83f0:	09612e23          	sw	x22,156(x2)
    83f4:	00050613          	addi	x12,x10,0
    83f8:	00058693          	addi	x13,x11,0
    83fc:	09812503          	lw	x10,152(x2)
    8400:	09c12583          	lw	x11,156(x2)
    8404:	1b5050ef          	jal	x1,ddb8 <__subdf3>
    8408:	05012703          	lw	x14,80(x2)
    840c:	03098793          	addi	x15,x19,48
    8410:	00000613          	addi	x12,x0,0
    8414:	00170493          	addi	x9,x14,1
    8418:	02012703          	lw	x14,32(x2)
    841c:	00000693          	addi	x13,x0,0
    8420:	00050b93          	addi	x23,x10,0
    8424:	00f70023          	sb	x15,0(x14)
    8428:	00170d13          	addi	x26,x14,1
    842c:	00058b13          	addi	x22,x11,0
    8430:	014050ef          	jal	x1,d444 <__eqdf2>
    8434:	02012703          	lw	x14,32(x2)
    8438:	00048c93          	addi	x25,x9,0
    843c:	0c050a63          	beq	x10,x0,8510 <__gdtoa+0xf7c>
    8440:	03812423          	sw	x24,40(x2)
    8444:	02812223          	sw	x8,36(x2)
    8448:	02912823          	sw	x9,48(x2)
    844c:	0000a917          	auipc	x18,0xa
    8450:	73490913          	addi	x18,x18,1844 # 12b80 <__SDATA_BEGIN__+0x38>
    8454:	03812483          	lw	x9,56(x2)
    8458:	05412423          	sw	x20,72(x2)
    845c:	000b8413          	addi	x8,x23,0
    8460:	000b0c13          	addi	x24,x22,0
    8464:	0780006f          	jal	x0,84dc <__gdtoa+0xf48>
    8468:	00092603          	lw	x12,0(x18)
    846c:	00492683          	lw	x13,4(x18)
    8470:	1c612623          	sw	x6,460(x2)
    8474:	001d0d13          	addi	x26,x26,1
    8478:	260050ef          	jal	x1,d6d8 <__muldf3>
    847c:	01812603          	lw	x12,24(x2)
    8480:	01c12683          	lw	x13,28(x2)
    8484:	00050c13          	addi	x24,x10,0
    8488:	00058413          	addi	x8,x11,0
    848c:	001040ef          	jal	x1,cc8c <__divdf3>
    8490:	250060ef          	jal	x1,e6e0 <__fixdfsi>
    8494:	00050993          	addi	x19,x10,0
    8498:	2cc060ef          	jal	x1,e764 <__floatsidf>
    849c:	01812603          	lw	x12,24(x2)
    84a0:	01c12683          	lw	x13,28(x2)
    84a4:	234050ef          	jal	x1,d6d8 <__muldf3>
    84a8:	00050613          	addi	x12,x10,0
    84ac:	00058693          	addi	x13,x11,0
    84b0:	000c0513          	addi	x10,x24,0
    84b4:	00040593          	addi	x11,x8,0
    84b8:	101050ef          	jal	x1,ddb8 <__subdf3>
    84bc:	03098693          	addi	x13,x19,48
    84c0:	fedd0fa3          	sb	x13,-1(x26)
    84c4:	00000613          	addi	x12,x0,0
    84c8:	00000693          	addi	x13,x0,0
    84cc:	00050413          	addi	x8,x10,0
    84d0:	00058c13          	addi	x24,x11,0
    84d4:	771040ef          	jal	x1,d444 <__eqdf2>
    84d8:	42050a63          	beq	x10,x0,890c <__gdtoa+0x1378>
    84dc:	1cc12683          	lw	x13,460(x2)
    84e0:	00040513          	addi	x10,x8,0
    84e4:	000c0593          	addi	x11,x24,0
    84e8:	00168313          	addi	x6,x13,1
    84ec:	f6969ee3          	bne	x13,x9,8468 <__gdtoa+0xed4>
    84f0:	02812c03          	lw	x24,40(x2)
    84f4:	02012703          	lw	x14,32(x2)
    84f8:	03012483          	lw	x9,48(x2)
    84fc:	02412403          	lw	x8,36(x2)
    8500:	7e0c0e63          	beq	x24,x0,8cfc <__gdtoa+0x1768>
    8504:	00100793          	addi	x15,x0,1
    8508:	01000a13          	addi	x20,x0,16
    850c:	34fc0ae3          	beq	x24,x15,9060 <__gdtoa+0x1acc>
    8510:	01412583          	lw	x11,20(x2)
    8514:	00040513          	addi	x10,x8,0
    8518:	00e12c23          	sw	x14,24(x2)
    851c:	5a1010ef          	jal	x1,a2bc <_Bfree>
    8520:	00c12783          	lw	x15,12(x2)
    8524:	000d0023          	sb	x0,0(x26)
    8528:	01812703          	lw	x14,24(x2)
    852c:	0197a023          	sw	x25,0(x15)
    8530:	01012783          	lw	x15,16(x2)
    8534:	00078463          	beq	x15,x0,853c <__gdtoa+0xfa8>
    8538:	01a7a023          	sw	x26,0(x15)
    853c:	000da783          	lw	x15,0(x27)
    8540:	20812403          	lw	x8,520(x2)
    8544:	20412483          	lw	x9,516(x2)
    8548:	0147e7b3          	or	x15,x15,x20
    854c:	00fda023          	sw	x15,0(x27)
    8550:	20012903          	lw	x18,512(x2)
    8554:	1fc12983          	lw	x19,508(x2)
    8558:	1f412a83          	lw	x21,500(x2)
    855c:	1f012b03          	lw	x22,496(x2)
    8560:	1ec12b83          	lw	x23,492(x2)
    8564:	1e812c03          	lw	x24,488(x2)
    8568:	1e412c83          	lw	x25,484(x2)
    856c:	1dc12d83          	lw	x27,476(x2)
    8570:	8b9ff06f          	jal	x0,7e28 <__gdtoa+0x894>
    8574:	d8da9863          	bne	x21,x13,7b04 <__gdtoa+0x570>
    8578:	004ba683          	lw	x13,4(x23)
    857c:	02012783          	lw	x15,32(x2)
    8580:	00168693          	addi	x13,x13,1
    8584:	d8f6d063          	bge	x13,x15,7b04 <__gdtoa+0x570>
    8588:	04012783          	lw	x15,64(x2)
    858c:	03512423          	sw	x21,40(x2)
    8590:	00178793          	addi	x15,x15,1
    8594:	04f12023          	sw	x15,64(x2)
    8598:	03012783          	lw	x15,48(x2)
    859c:	00178793          	addi	x15,x15,1
    85a0:	02f12823          	sw	x15,48(x2)
    85a4:	d60ff06f          	jal	x0,7b04 <__gdtoa+0x570>
    85a8:	00100793          	addi	x15,x0,1
    85ac:	00000493          	addi	x9,x0,0
    85b0:	04f12c23          	sw	x15,88(x2)
    85b4:	02412583          	lw	x11,36(x2)
    85b8:	00b04463          	blt	x0,x11,85c0 <__gdtoa+0x102c>
    85bc:	00100593          	addi	x11,x0,1
    85c0:	00058693          	addi	x13,x11,0
    85c4:	06b12823          	sw	x11,112(x2)
    85c8:	02b12c23          	sw	x11,56(x2)
    85cc:	02b12223          	sw	x11,36(x2)
    85d0:	bbcff06f          	jal	x0,798c <__gdtoa+0x3f8>
    85d4:	50d010ef          	jal	x1,a2e0 <__multadd>
    85d8:	00050b13          	addi	x22,x10,0
    85dc:	820500e3          	beq	x10,x0,7dfc <__gdtoa+0x868>
    85e0:	00050d93          	addi	x27,x10,0
    85e4:	e58ff06f          	jal	x0,7c3c <__gdtoa+0x6a8>
    85e8:	de0bd263          	bge	x23,x0,7bcc <__gdtoa+0x638>
    85ec:	01812a23          	sw	x24,20(x2)
    85f0:	02012c03          	lw	x24,32(x2)
    85f4:	000a0813          	addi	x16,x20,0
    85f8:	000d8e93          	addi	x29,x27,0
    85fc:	00070a13          	addi	x20,x14,0
    8600:	02812d83          	lw	x27,40(x2)
    8604:	02412703          	lw	x14,36(x2)
    8608:	560c14e3          	bne	x24,x0,9370 <__gdtoa+0x1ddc>
    860c:	01412783          	lw	x15,20(x2)
    8610:	00100693          	addi	x13,x0,1
    8614:	01000a13          	addi	x20,x0,16
    8618:	0107a603          	lw	x12,16(x15)
    861c:	00da89b3          	add	x19,x21,x13
    8620:	50c6d2e3          	bge	x13,x12,9324 <__gdtoa+0x1d90>
    8624:	000b0b93          	addi	x23,x22,0
    8628:	00098d13          	addi	x26,x19,0
    862c:	010a8023          	sb	x16,0(x21)
    8630:	000e8b13          	addi	x22,x29,0
    8634:	000c8593          	addi	x11,x25,0
    8638:	00040513          	addi	x10,x8,0
    863c:	00e12c23          	sw	x14,24(x2)
    8640:	47d010ef          	jal	x1,a2bc <_Bfree>
    8644:	05012783          	lw	x15,80(x2)
    8648:	01812703          	lw	x14,24(x2)
    864c:	00178c93          	addi	x25,x15,1
    8650:	ec0b00e3          	beq	x22,x0,8510 <__gdtoa+0xf7c>
    8654:	000b8c63          	beq	x23,x0,866c <__gdtoa+0x10d8>
    8658:	016b8a63          	beq	x23,x22,866c <__gdtoa+0x10d8>
    865c:	000b8593          	addi	x11,x23,0
    8660:	00040513          	addi	x10,x8,0
    8664:	459010ef          	jal	x1,a2bc <_Bfree>
    8668:	01812703          	lw	x14,24(x2)
    866c:	000b0593          	addi	x11,x22,0
    8670:	00040513          	addi	x10,x8,0
    8674:	00e12c23          	sw	x14,24(x2)
    8678:	445010ef          	jal	x1,a2bc <_Bfree>
    867c:	01812703          	lw	x14,24(x2)
    8680:	e91ff06f          	jal	x0,8510 <__gdtoa+0xf7c>
    8684:	01412583          	lw	x11,20(x2)
    8688:	00040513          	addi	x10,x8,0
    868c:	02e12023          	sw	x14,32(x2)
    8690:	458020ef          	jal	x1,aae8 <__lshift>
    8694:	00a12a23          	sw	x10,20(x2)
    8698:	f6050263          	beq	x10,x0,7dfc <__gdtoa+0x868>
    869c:	1cc12783          	lw	x15,460(x2)
    86a0:	02012703          	lw	x14,32(x2)
    86a4:	c88ff06f          	jal	x0,7b2c <__gdtoa+0x598>
    86a8:	01412503          	lw	x10,20(x2)
    86ac:	000c8593          	addi	x11,x25,0
    86b0:	02e12023          	sw	x14,32(x2)
    86b4:	5c4020ef          	jal	x1,ac78 <__mcmp>
    86b8:	02012703          	lw	x14,32(x2)
    86bc:	c8055263          	bge	x10,x0,7b40 <__gdtoa+0x5ac>
    86c0:	05012783          	lw	x15,80(x2)
    86c4:	01412583          	lw	x11,20(x2)
    86c8:	00000693          	addi	x13,x0,0
    86cc:	fff78793          	addi	x15,x15,-1
    86d0:	00a00613          	addi	x12,x0,10
    86d4:	00040513          	addi	x10,x8,0
    86d8:	04f12823          	sw	x15,80(x2)
    86dc:	405010ef          	jal	x1,a2e0 <__multadd>
    86e0:	00a12a23          	sw	x10,20(x2)
    86e4:	f0050c63          	beq	x10,x0,7dfc <__gdtoa+0x868>
    86e8:	05812783          	lw	x15,88(x2)
    86ec:	02012703          	lw	x14,32(x2)
    86f0:	26079ce3          	bne	x15,x0,9168 <__gdtoa+0x1bd4>
    86f4:	07012783          	lw	x15,112(x2)
    86f8:	1ef05e63          	bge	x0,x15,88f4 <__gdtoa+0x1360>
    86fc:	02f12c23          	sw	x15,56(x2)
    8700:	03812903          	lw	x18,56(x2)
    8704:	01412483          	lw	x9,20(x2)
    8708:	00070a93          	addi	x21,x14,0
    870c:	00100693          	addi	x13,x0,1
    8710:	00a00993          	addi	x19,x0,10
    8714:	00070a13          	addi	x20,x14,0
    8718:	0180006f          	jal	x0,8730 <__gdtoa+0x119c>
    871c:	3c5010ef          	jal	x1,a2e0 <__multadd>
    8720:	00050493          	addi	x9,x10,0
    8724:	ec050c63          	beq	x10,x0,7dfc <__gdtoa+0x868>
    8728:	1cc12683          	lw	x13,460(x2)
    872c:	00168693          	addi	x13,x13,1
    8730:	000c8593          	addi	x11,x25,0
    8734:	00048513          	addi	x10,x9,0
    8738:	1cd12623          	sw	x13,460(x2)
    873c:	500010ef          	jal	x1,9c3c <__quorem_D2A>
    8740:	03050813          	addi	x16,x10,48
    8744:	010a8023          	sb	x16,0(x21)
    8748:	1cc12783          	lw	x15,460(x2)
    874c:	001a8a93          	addi	x21,x21,1
    8750:	00000693          	addi	x13,x0,0
    8754:	00098613          	addi	x12,x19,0
    8758:	00048593          	addi	x11,x9,0
    875c:	00040513          	addi	x10,x8,0
    8760:	fb27cee3          	blt	x15,x18,871c <__gdtoa+0x1188>
    8764:	00912a23          	sw	x9,20(x2)
    8768:	000a0713          	addi	x14,x20,0
    876c:	00000b93          	addi	x23,x0,0
    8770:	500c0a63          	beq	x24,x0,8c84 <__gdtoa+0x16f0>
    8774:	00200693          	addi	x13,x0,2
    8778:	54dc0663          	beq	x24,x13,8cc4 <__gdtoa+0x1730>
    877c:	01412783          	lw	x15,20(x2)
    8780:	00100693          	addi	x13,x0,1
    8784:	0107a603          	lw	x12,16(x15)
    8788:	2cc6ca63          	blt	x13,x12,8a5c <__gdtoa+0x14c8>
    878c:	0147a683          	lw	x13,20(x15)
    8790:	2c069663          	bne	x13,x0,8a5c <__gdtoa+0x14c8>
    8794:	00d036b3          	sltu	x13,x0,x13
    8798:	00469a13          	slli	x20,x13,0x4
    879c:	03000613          	addi	x12,x0,48
    87a0:	000a8d13          	addi	x26,x21,0
    87a4:	fffac783          	lbu	x15,-1(x21)
    87a8:	fffa8a93          	addi	x21,x21,-1
    87ac:	fec78ae3          	beq	x15,x12,87a0 <__gdtoa+0x120c>
    87b0:	e85ff06f          	jal	x0,8634 <__gdtoa+0x10a0>
    87b4:	03812683          	lw	x13,56(x2)
    87b8:	04c12603          	lw	x12,76(x2)
    87bc:	fff68793          	addi	x15,x13,-1
    87c0:	1af64e63          	blt	x12,x15,897c <__gdtoa+0x13e8>
    87c4:	40f60933          	sub	x18,x12,x15
    87c8:	1606dce3          	bge	x13,x0,9140 <__gdtoa+0x1bac>
    87cc:	04012783          	lw	x15,64(x2)
    87d0:	03812683          	lw	x13,56(x2)
    87d4:	1c012623          	sw	x0,460(x2)
    87d8:	40d78d33          	sub	x26,x15,x13
    87dc:	a6cff06f          	jal	x0,7a48 <__gdtoa+0x4b4>
    87e0:	01812683          	lw	x13,24(x2)
    87e4:	00200793          	addi	x15,x0,2
    87e8:	b6d7d063          	bge	x15,x13,7b48 <__gdtoa+0x5b4>
    87ec:	000c8593          	addi	x11,x25,0
    87f0:	00000693          	addi	x13,x0,0
    87f4:	00500613          	addi	x12,x0,5
    87f8:	00040513          	addi	x10,x8,0
    87fc:	00e12c23          	sw	x14,24(x2)
    8800:	2e1010ef          	jal	x1,a2e0 <__multadd>
    8804:	00050593          	addi	x11,x10,0
    8808:	de050a63          	beq	x10,x0,7dfc <__gdtoa+0x868>
    880c:	03812783          	lw	x15,56(x2)
    8810:	01812703          	lw	x14,24(x2)
    8814:	1a079a63          	bne	x15,x0,89c8 <__gdtoa+0x1434>
    8818:	00a12c23          	sw	x10,24(x2)
    881c:	01412503          	lw	x10,20(x2)
    8820:	02e12023          	sw	x14,32(x2)
    8824:	454020ef          	jal	x1,ac78 <__mcmp>
    8828:	01812583          	lw	x11,24(x2)
    882c:	02012703          	lw	x14,32(x2)
    8830:	18a05c63          	bge	x0,x10,89c8 <__gdtoa+0x1434>
    8834:	05012783          	lw	x15,80(x2)
    8838:	00278c93          	addi	x25,x15,2
    883c:	03100793          	addi	x15,x0,49
    8840:	00f70023          	sb	x15,0(x14)
    8844:	00170d13          	addi	x26,x14,1
    8848:	02000a13          	addi	x20,x0,32
    884c:	00040513          	addi	x10,x8,0
    8850:	00e12c23          	sw	x14,24(x2)
    8854:	269010ef          	jal	x1,a2bc <_Bfree>
    8858:	01812703          	lw	x14,24(x2)
    885c:	ca0b0ae3          	beq	x22,x0,8510 <__gdtoa+0xf7c>
    8860:	e0dff06f          	jal	x0,866c <__gdtoa+0x10d8>
    8864:	00100693          	addi	x13,x0,1
    8868:	00068593          	addi	x11,x13,0
    886c:	920ff06f          	jal	x0,798c <__gdtoa+0x3f8>
    8870:	00050593          	addi	x11,x10,0
    8874:	00078613          	addi	x12,x15,0
    8878:	00040513          	addi	x10,x8,0
    887c:	11c020ef          	jal	x1,a998 <__pow5mult>
    8880:	00050c93          	addi	x25,x10,0
    8884:	d6050c63          	beq	x10,x0,7dfc <__gdtoa+0x868>
    8888:	01812783          	lw	x15,24(x2)
    888c:	00100693          	addi	x13,x0,1
    8890:	04812703          	lw	x14,72(x2)
    8894:	24f6d463          	bge	x13,x15,8adc <__gdtoa+0x1548>
    8898:	010ca783          	lw	x15,16(x25)
    889c:	02e12023          	sw	x14,32(x2)
    88a0:	00378793          	addi	x15,x15,3
    88a4:	00279793          	slli	x15,x15,0x2
    88a8:	00fc87b3          	add	x15,x25,x15
    88ac:	0047a503          	lw	x10,4(x15)
    88b0:	4c9010ef          	jal	x1,a578 <__hi0bits>
    88b4:	02012703          	lw	x14,32(x2)
    88b8:	03412423          	sw	x20,40(x2)
    88bc:	00050a13          	addi	x20,x10,0
    88c0:	a48ff06f          	jal	x0,7b08 <__gdtoa+0x574>
    88c4:	01812783          	lw	x15,24(x2)
    88c8:	00100693          	addi	x13,x0,1
    88cc:	eef6c4e3          	blt	x13,x15,87b4 <__gdtoa+0x1220>
    88d0:	03012783          	lw	x15,48(x2)
    88d4:	04c12903          	lw	x18,76(x2)
    88d8:	00c787b3          	add	x15,x15,x12
    88dc:	02f12823          	sw	x15,48(x2)
    88e0:	04012783          	lw	x15,64(x2)
    88e4:	00078d13          	addi	x26,x15,0
    88e8:	00f607b3          	add	x15,x12,x15
    88ec:	04f12023          	sw	x15,64(x2)
    88f0:	958ff06f          	jal	x0,7a48 <__gdtoa+0x4b4>
    88f4:	01812683          	lw	x13,24(x2)
    88f8:	00200793          	addi	x15,x0,2
    88fc:	20d7cee3          	blt	x15,x13,9318 <__gdtoa+0x1d84>
    8900:	07012783          	lw	x15,112(x2)
    8904:	02f12c23          	sw	x15,56(x2)
    8908:	df9ff06f          	jal	x0,8700 <__gdtoa+0x116c>
    890c:	04812a03          	lw	x20,72(x2)
    8910:	02012703          	lw	x14,32(x2)
    8914:	02412403          	lw	x8,36(x2)
    8918:	bf9ff06f          	jal	x0,8510 <__gdtoa+0xf7c>
    891c:	03812783          	lw	x15,56(x2)
    8920:	a8f040e3          	blt	x0,x15,83a0 <__gdtoa+0xe0c>
    8924:	08079e63          	bne	x15,x0,89c0 <__gdtoa+0x142c>
    8928:	0000a797          	auipc	x15,0xa
    892c:	27078793          	addi	x15,x15,624 # 12b98 <__SDATA_BEGIN__+0x50>
    8930:	0007a603          	lw	x12,0(x15)
    8934:	0047a683          	lw	x13,4(x15)
    8938:	01812503          	lw	x10,24(x2)
    893c:	01c12583          	lw	x11,28(x2)
    8940:	02e12023          	sw	x14,32(x2)
    8944:	595040ef          	jal	x1,d6d8 <__muldf3>
    8948:	06812783          	lw	x15,104(x2)
    894c:	17612a23          	sw	x22,372(x2)
    8950:	17412683          	lw	x13,372(x2)
    8954:	16f12823          	sw	x15,368(x2)
    8958:	17012603          	lw	x12,368(x2)
    895c:	375040ef          	jal	x1,d4d0 <__gedf2>
    8960:	02012703          	lw	x14,32(x2)
    8964:	04055e63          	bge	x10,x0,89c0 <__gdtoa+0x142c>
    8968:	05012783          	lw	x15,80(x2)
    896c:	00000593          	addi	x11,x0,0
    8970:	00000b13          	addi	x22,x0,0
    8974:	00278c93          	addi	x25,x15,2
    8978:	ec5ff06f          	jal	x0,883c <__gdtoa+0x12a8>
    897c:	04c12683          	lw	x13,76(x2)
    8980:	02812603          	lw	x12,40(x2)
    8984:	04f12623          	sw	x15,76(x2)
    8988:	40d786b3          	sub	x13,x15,x13
    898c:	00d606b3          	add	x13,x12,x13
    8990:	04012783          	lw	x15,64(x2)
    8994:	03012603          	lw	x12,48(x2)
    8998:	02d12423          	sw	x13,40(x2)
    899c:	03812683          	lw	x13,56(x2)
    89a0:	00078d13          	addi	x26,x15,0
    89a4:	00000913          	addi	x18,x0,0
    89a8:	00d60633          	add	x12,x12,x13
    89ac:	00d787b3          	add	x15,x15,x13
    89b0:	1cd12623          	sw	x13,460(x2)
    89b4:	02c12823          	sw	x12,48(x2)
    89b8:	04f12023          	sw	x15,64(x2)
    89bc:	88cff06f          	jal	x0,7a48 <__gdtoa+0x4b4>
    89c0:	00000593          	addi	x11,x0,0
    89c4:	00000b13          	addi	x22,x0,0
    89c8:	02412783          	lw	x15,36(x2)
    89cc:	00070d13          	addi	x26,x14,0
    89d0:	01000a13          	addi	x20,x0,16
    89d4:	40f00cb3          	sub	x25,x0,x15
    89d8:	e75ff06f          	jal	x0,884c <__gdtoa+0x12b8>
    89dc:	000b0593          	addi	x11,x22,0
    89e0:	00090613          	addi	x12,x18,0
    89e4:	00040513          	addi	x10,x8,0
    89e8:	04e12423          	sw	x14,72(x2)
    89ec:	7ad010ef          	jal	x1,a998 <__pow5mult>
    89f0:	00050b13          	addi	x22,x10,0
    89f4:	c0050463          	beq	x10,x0,7dfc <__gdtoa+0x868>
    89f8:	01412c83          	lw	x25,20(x2)
    89fc:	00050593          	addi	x11,x10,0
    8a00:	00040513          	addi	x10,x8,0
    8a04:	000c8613          	addi	x12,x25,0
    8a08:	549010ef          	jal	x1,a750 <__multiply>
    8a0c:	00050493          	addi	x9,x10,0
    8a10:	be050663          	beq	x10,x0,7dfc <__gdtoa+0x868>
    8a14:	000c8593          	addi	x11,x25,0
    8a18:	00040513          	addi	x10,x8,0
    8a1c:	0a1010ef          	jal	x1,a2bc <_Bfree>
    8a20:	04c12783          	lw	x15,76(x2)
    8a24:	00912a23          	sw	x9,20(x2)
    8a28:	04812703          	lw	x14,72(x2)
    8a2c:	412787b3          	sub	x15,x15,x18
    8a30:	04f12623          	sw	x15,76(x2)
    8a34:	00079463          	bne	x15,x0,8a3c <__gdtoa+0x14a8>
    8a38:	89cff06f          	jal	x0,7ad4 <__gdtoa+0x540>
    8a3c:	878ff06f          	jal	x0,7ab4 <__gdtoa+0x520>
    8a40:	000b0b93          	addi	x23,x22,0
    8a44:	000a8693          	addi	x13,x21,0
    8a48:	001a8993          	addi	x19,x21,1
    8a4c:	000e8b13          	addi	x22,x29,0
    8a50:	03900613          	addi	x12,x0,57
    8a54:	00098a93          	addi	x21,x19,0
    8a58:	00c68023          	sb	x12,0(x13)
    8a5c:	03900613          	addi	x12,x0,57
    8a60:	0080006f          	jal	x0,8a68 <__gdtoa+0x14d4>
    8a64:	27570e63          	beq	x14,x21,8ce0 <__gdtoa+0x174c>
    8a68:	fffac683          	lbu	x13,-1(x21)
    8a6c:	000a8d13          	addi	x26,x21,0
    8a70:	fffa8a93          	addi	x21,x21,-1
    8a74:	fec688e3          	beq	x13,x12,8a64 <__gdtoa+0x14d0>
    8a78:	00168693          	addi	x13,x13,1
    8a7c:	00da8023          	sb	x13,0(x21)
    8a80:	02000a13          	addi	x20,x0,32
    8a84:	bb1ff06f          	jal	x0,8634 <__gdtoa+0x10a0>
    8a88:	000b0593          	addi	x11,x22,0
    8a8c:	00040513          	addi	x10,x8,0
    8a90:	02e12023          	sw	x14,32(x2)
    8a94:	054020ef          	jal	x1,aae8 <__lshift>
    8a98:	02012703          	lw	x14,32(x2)
    8a9c:	00050b13          	addi	x22,x10,0
    8aa0:	00050463          	beq	x10,x0,8aa8 <__gdtoa+0x1514>
    8aa4:	8b8ff06f          	jal	x0,7b5c <__gdtoa+0x5c8>
    8aa8:	b54ff06f          	jal	x0,7dfc <__gdtoa+0x868>
    8aac:	00100793          	addi	x15,x0,1
    8ab0:	00000493          	addi	x9,x0,0
    8ab4:	04f12c23          	sw	x15,88(x2)
    8ab8:	eb1fe06f          	jal	x0,7968 <__gdtoa+0x3d4>
    8abc:	00100793          	addi	x15,x0,1
    8ac0:	04f12c23          	sw	x15,88(x2)
    8ac4:	ea5fe06f          	jal	x0,7968 <__gdtoa+0x3d4>
    8ac8:	00100793          	addi	x15,x0,1
    8acc:	04f12c23          	sw	x15,88(x2)
    8ad0:	ae5ff06f          	jal	x0,85b4 <__gdtoa+0x1020>
    8ad4:	04012c23          	sw	x0,88(x2)
    8ad8:	addff06f          	jal	x0,85b4 <__gdtoa+0x1020>
    8adc:	dada9ee3          	bne	x21,x13,8898 <__gdtoa+0x1304>
    8ae0:	004ba683          	lw	x13,4(x23)
    8ae4:	02012783          	lw	x15,32(x2)
    8ae8:	00168693          	addi	x13,x13,1
    8aec:	daf6d6e3          	bge	x13,x15,8898 <__gdtoa+0x1304>
    8af0:	04012783          	lw	x15,64(x2)
    8af4:	000a8a13          	addi	x20,x21,0
    8af8:	00178793          	addi	x15,x15,1
    8afc:	04f12023          	sw	x15,64(x2)
    8b00:	03012783          	lw	x15,48(x2)
    8b04:	00178793          	addi	x15,x15,1
    8b08:	02f12823          	sw	x15,48(x2)
    8b0c:	d8dff06f          	jal	x0,8898 <__gdtoa+0x1304>
    8b10:	004b2583          	lw	x11,4(x22)
    8b14:	00040513          	addi	x10,x8,0
    8b18:	02e12023          	sw	x14,32(x2)
    8b1c:	6f0010ef          	jal	x1,a20c <_Balloc>
    8b20:	00050a13          	addi	x20,x10,0
    8b24:	ac050c63          	beq	x10,x0,7dfc <__gdtoa+0x868>
    8b28:	010b2603          	lw	x12,16(x22)
    8b2c:	00cb0593          	addi	x11,x22,12
    8b30:	00c50513          	addi	x10,x10,12
    8b34:	00260613          	addi	x12,x12,2
    8b38:	00261613          	slli	x12,x12,0x2
    8b3c:	a20f90ef          	jal	x1,1d5c <memcpy>
    8b40:	000a0593          	addi	x11,x20,0
    8b44:	00040513          	addi	x10,x8,0
    8b48:	00100613          	addi	x12,x0,1
    8b4c:	79d010ef          	jal	x1,aae8 <__lshift>
    8b50:	02012703          	lw	x14,32(x2)
    8b54:	00050e93          	addi	x29,x10,0
    8b58:	00050463          	beq	x10,x0,8b60 <__gdtoa+0x15cc>
    8b5c:	810ff06f          	jal	x0,7b6c <__gdtoa+0x5d8>
    8b60:	a9cff06f          	jal	x0,7dfc <__gdtoa+0x868>
    8b64:	18912023          	sw	x9,384(x2)
    8b68:	18912423          	sw	x9,392(x2)
    8b6c:	19612223          	sw	x22,388(x2)
    8b70:	19612623          	sw	x22,396(x2)
    8b74:	18012603          	lw	x12,384(x2)
    8b78:	18412683          	lw	x13,388(x2)
    8b7c:	18812503          	lw	x10,392(x2)
    8b80:	18c12583          	lw	x11,396(x2)
    8b84:	04e12e23          	sw	x14,92(x2)
    8b88:	031030ef          	jal	x1,c3b8 <__adddf3>
    8b8c:	0000a697          	auipc	x13,0xa
    8b90:	00468693          	addi	x13,x13,4 # 12b90 <__SDATA_BEGIN__+0x48>
    8b94:	0006a603          	lw	x12,0(x13)
    8b98:	0046a683          	lw	x13,4(x13)
    8b9c:	01d030ef          	jal	x1,c3b8 <__adddf3>
    8ba0:	05c12703          	lw	x14,92(x2)
    8ba4:	fcc006b7          	lui	x13,0xfcc00
    8ba8:	00050913          	addi	x18,x10,0
    8bac:	00b68c33          	add	x24,x13,x11
    8bb0:	0a012783          	lw	x15,160(x2)
    8bb4:	0000a697          	auipc	x13,0xa
    8bb8:	fe468693          	addi	x13,x13,-28 # 12b98 <__SDATA_BEGIN__+0x50>
    8bbc:	0006a603          	lw	x12,0(x13)
    8bc0:	0cf12823          	sw	x15,208(x2)
    8bc4:	0a412783          	lw	x15,164(x2)
    8bc8:	0046a683          	lw	x13,4(x13)
    8bcc:	0d012503          	lw	x10,208(x2)
    8bd0:	0cf12a23          	sw	x15,212(x2)
    8bd4:	0d412583          	lw	x11,212(x2)
    8bd8:	04e12e23          	sw	x14,92(x2)
    8bdc:	1dc050ef          	jal	x1,ddb8 <__subdf3>
    8be0:	0d212c23          	sw	x18,216(x2)
    8be4:	0d812e23          	sw	x24,220(x2)
    8be8:	0d812603          	lw	x12,216(x2)
    8bec:	0dc12683          	lw	x13,220(x2)
    8bf0:	00050b13          	addi	x22,x10,0
    8bf4:	00058493          	addi	x9,x11,0
    8bf8:	0d9040ef          	jal	x1,d4d0 <__gedf2>
    8bfc:	05c12703          	lw	x14,92(x2)
    8c00:	4ea04e63          	blt	x0,x10,90fc <__gdtoa+0x1b68>
    8c04:	800006b7          	lui	x13,0x80000
    8c08:	00dc46b3          	xor	x13,x24,x13
    8c0c:	0f212023          	sw	x18,224(x2)
    8c10:	0f612423          	sw	x22,232(x2)
    8c14:	0e912623          	sw	x9,236(x2)
    8c18:	0ed12223          	sw	x13,228(x2)
    8c1c:	0e812503          	lw	x10,232(x2)
    8c20:	0ec12583          	lw	x11,236(x2)
    8c24:	0e012603          	lw	x12,224(x2)
    8c28:	0e412683          	lw	x13,228(x2)
    8c2c:	1a5040ef          	jal	x1,d5d0 <__ledf2>
    8c30:	05c12703          	lw	x14,92(x2)
    8c34:	d80546e3          	blt	x10,x0,89c0 <__gdtoa+0x142c>
    8c38:	0a012783          	lw	x15,160(x2)
    8c3c:	0a412b03          	lw	x22,164(x2)
    8c40:	00009e17          	auipc	x28,0x9
    8c44:	500e0e13          	addi	x28,x28,1280 # 12140 <__mprec_tens>
    8c48:	06f12423          	sw	x15,104(x2)
    8c4c:	04812783          	lw	x15,72(x2)
    8c50:	00000c13          	addi	x24,x0,0
    8c54:	0007d463          	bge	x15,x0,8c5c <__gdtoa+0x16c8>
    8c58:	d75fe06f          	jal	x0,79cc <__gdtoa+0x438>
    8c5c:	000e2783          	lw	x15,0(x28)
    8c60:	004e2803          	lw	x16,4(x28)
    8c64:	00000c13          	addi	x24,x0,0
    8c68:	00f12c23          	sw	x15,24(x2)
    8c6c:	02412783          	lw	x15,36(x2)
    8c70:	01012e23          	sw	x16,28(x2)
    8c74:	f207d663          	bge	x15,x0,83a0 <__gdtoa+0xe0c>
    8c78:	03812783          	lw	x15,56(x2)
    8c7c:	f2079263          	bne	x15,x0,83a0 <__gdtoa+0xe0c>
    8c80:	ca9ff06f          	jal	x0,8928 <__gdtoa+0x1394>
    8c84:	01412583          	lw	x11,20(x2)
    8c88:	00100613          	addi	x12,x0,1
    8c8c:	00040513          	addi	x10,x8,0
    8c90:	00e12c23          	sw	x14,24(x2)
    8c94:	03012023          	sw	x16,32(x2)
    8c98:	651010ef          	jal	x1,aae8 <__lshift>
    8c9c:	00a12a23          	sw	x10,20(x2)
    8ca0:	94050e63          	beq	x10,x0,7dfc <__gdtoa+0x868>
    8ca4:	000c8593          	addi	x11,x25,0
    8ca8:	7d1010ef          	jal	x1,ac78 <__mcmp>
    8cac:	01812703          	lw	x14,24(x2)
    8cb0:	daa046e3          	blt	x0,x10,8a5c <__gdtoa+0x14c8>
    8cb4:	00051863          	bne	x10,x0,8cc4 <__gdtoa+0x1730>
    8cb8:	02012803          	lw	x16,32(x2)
    8cbc:	00187813          	andi	x16,x16,1
    8cc0:	d8081ee3          	bne	x16,x0,8a5c <__gdtoa+0x14c8>
    8cc4:	01412783          	lw	x15,20(x2)
    8cc8:	00100693          	addi	x13,x0,1
    8ccc:	01000a13          	addi	x20,x0,16
    8cd0:	0107a603          	lw	x12,16(x15)
    8cd4:	acc6c4e3          	blt	x13,x12,879c <__gdtoa+0x1208>
    8cd8:	0147a683          	lw	x13,20(x15)
    8cdc:	ab9ff06f          	jal	x0,8794 <__gdtoa+0x1200>
    8ce0:	05012683          	lw	x13,80(x2)
    8ce4:	03100793          	addi	x15,x0,49
    8ce8:	00f70023          	sb	x15,0(x14)
    8cec:	00168693          	addi	x13,x13,1 # 80000001 <__heap_end+0x7fc00001>
    8cf0:	04d12823          	sw	x13,80(x2)
    8cf4:	02000a13          	addi	x20,x0,32
    8cf8:	93dff06f          	jal	x0,8634 <__gdtoa+0x10a0>
    8cfc:	0ea12823          	sw	x10,240(x2)
    8d00:	0eb12a23          	sw	x11,244(x2)
    8d04:	0ea12c23          	sw	x10,248(x2)
    8d08:	0eb12e23          	sw	x11,252(x2)
    8d0c:	0f012603          	lw	x12,240(x2)
    8d10:	0f412683          	lw	x13,244(x2)
    8d14:	0f812503          	lw	x10,248(x2)
    8d18:	0fc12583          	lw	x11,252(x2)
    8d1c:	02e12023          	sw	x14,32(x2)
    8d20:	698030ef          	jal	x1,c3b8 <__adddf3>
    8d24:	10a12023          	sw	x10,256(x2)
    8d28:	10b12223          	sw	x11,260(x2)
    8d2c:	10012603          	lw	x12,256(x2)
    8d30:	10412683          	lw	x13,260(x2)
    8d34:	00050b13          	addi	x22,x10,0
    8d38:	00058a13          	addi	x20,x11,0
    8d3c:	01812503          	lw	x10,24(x2)
    8d40:	01c12583          	lw	x11,28(x2)
    8d44:	fffd4c03          	lbu	x24,-1(x26)
    8d48:	089040ef          	jal	x1,d5d0 <__ledf2>
    8d4c:	02012703          	lw	x14,32(x2)
    8d50:	d6054663          	blt	x10,x0,82bc <__gdtoa+0xd28>
    8d54:	17612c23          	sw	x22,376(x2)
    8d58:	17412e23          	sw	x20,380(x2)
    8d5c:	17812603          	lw	x12,376(x2)
    8d60:	17c12683          	lw	x13,380(x2)
    8d64:	01812503          	lw	x10,24(x2)
    8d68:	01c12583          	lw	x11,28(x2)
    8d6c:	6d8040ef          	jal	x1,d444 <__eqdf2>
    8d70:	02012703          	lw	x14,32(x2)
    8d74:	00051663          	bne	x10,x0,8d80 <__gdtoa+0x17ec>
    8d78:	0019f993          	andi	x19,x19,1
    8d7c:	d4099063          	bne	x19,x0,82bc <__gdtoa+0xd28>
    8d80:	000d0793          	addi	x15,x26,0
    8d84:	01000a13          	addi	x20,x0,16
    8d88:	03000613          	addi	x12,x0,48
    8d8c:	fff7c683          	lbu	x13,-1(x15)
    8d90:	00078d13          	addi	x26,x15,0
    8d94:	fff78793          	addi	x15,x15,-1
    8d98:	fec68ae3          	beq	x13,x12,8d8c <__gdtoa+0x17f8>
    8d9c:	00048c93          	addi	x25,x9,0
    8da0:	f70ff06f          	jal	x0,8510 <__gdtoa+0xf7c>
    8da4:	01812a23          	sw	x24,20(x2)
    8da8:	02012c03          	lw	x24,32(x2)
    8dac:	000d8e93          	addi	x29,x27,0
    8db0:	02412703          	lw	x14,36(x2)
    8db4:	02812d83          	lw	x27,40(x2)
    8db8:	000a0813          	addi	x16,x20,0
    8dbc:	020c0263          	beq	x24,x0,8de0 <__gdtoa+0x184c>
    8dc0:	01412783          	lw	x15,20(x2)
    8dc4:	00100693          	addi	x13,x0,1
    8dc8:	0107a603          	lw	x12,16(x15)
    8dcc:	00c6d463          	bge	x13,x12,8dd4 <__gdtoa+0x1840>
    8dd0:	f3dfe06f          	jal	x0,7d0c <__gdtoa+0x778>
    8dd4:	0147a683          	lw	x13,20(x15)
    8dd8:	00068463          	beq	x13,x0,8de0 <__gdtoa+0x184c>
    8ddc:	f31fe06f          	jal	x0,7d0c <__gdtoa+0x778>
    8de0:	01412583          	lw	x11,20(x2)
    8de4:	00100613          	addi	x12,x0,1
    8de8:	00040513          	addi	x10,x8,0
    8dec:	02e12223          	sw	x14,36(x2)
    8df0:	03d12023          	sw	x29,32(x2)
    8df4:	01012c23          	sw	x16,24(x2)
    8df8:	4f1010ef          	jal	x1,aae8 <__lshift>
    8dfc:	00a12a23          	sw	x10,20(x2)
    8e00:	00051463          	bne	x10,x0,8e08 <__gdtoa+0x1874>
    8e04:	ff9fe06f          	jal	x0,7dfc <__gdtoa+0x868>
    8e08:	000c8593          	addi	x11,x25,0
    8e0c:	66d010ef          	jal	x1,ac78 <__mcmp>
    8e10:	01812803          	lw	x16,24(x2)
    8e14:	02012e83          	lw	x29,32(x2)
    8e18:	02412703          	lw	x14,36(x2)
    8e1c:	4ea05463          	bge	x0,x10,9304 <__gdtoa+0x1d70>
    8e20:	03900693          	addi	x13,x0,57
    8e24:	c0d80ee3          	beq	x16,x13,8a40 <__gdtoa+0x14ac>
    8e28:	031d0813          	addi	x16,x26,49
    8e2c:	02000c13          	addi	x24,x0,32
    8e30:	fdcff06f          	jal	x0,860c <__gdtoa+0x1078>
    8e34:	00148493          	addi	x9,x9,1
    8e38:	03100693          	addi	x13,x0,49
    8e3c:	ca4ff06f          	jal	x0,82e0 <__gdtoa+0xd4c>
    8e40:	15212023          	sw	x18,320(x2)
    8e44:	15812223          	sw	x24,324(x2)
    8e48:	14012503          	lw	x10,320(x2)
    8e4c:	14412583          	lw	x11,324(x2)
    8e50:	0ce12423          	sw	x14,200(x2)
    8e54:	11c12c23          	sw	x28,280(x2)
    8e58:	081040ef          	jal	x1,d6d8 <__muldf3>
    8e5c:	06812603          	lw	x12,104(x2)
    8e60:	0c812703          	lw	x14,200(x2)
    8e64:	000b0693          	addi	x13,x22,0
    8e68:	00100913          	addi	x18,x0,1
    8e6c:	00060b13          	addi	x22,x12,0
    8e70:	08c12023          	sw	x12,128(x2)
    8e74:	00000613          	addi	x12,x0,0
    8e78:	0e812023          	sw	x8,224(x2)
    8e7c:	11312423          	sw	x19,264(x2)
    8e80:	11b12823          	sw	x27,272(x2)
    8e84:	08a12423          	sw	x10,136(x2)
    8e88:	0ab12823          	sw	x11,176(x2)
    8e8c:	06d12c23          	sw	x13,120(x2)
    8e90:	1d212623          	sw	x18,460(x2)
    8e94:	00070d13          	addi	x26,x14,0
    8e98:	0000a497          	auipc	x9,0xa
    8e9c:	ce848493          	addi	x9,x9,-792 # 12b80 <__SDATA_BEGIN__+0x38>
    8ea0:	0d512423          	sw	x21,200(x2)
    8ea4:	0d412823          	sw	x20,208(x2)
    8ea8:	0ce12c23          	sw	x14,216(x2)
    8eac:	00060413          	addi	x8,x12,0
    8eb0:	0f712423          	sw	x23,232(x2)
    8eb4:	000b0d93          	addi	x27,x22,0
    8eb8:	00068993          	addi	x19,x13,0
    8ebc:	0200006f          	jal	x0,8edc <__gdtoa+0x1948>
    8ec0:	0004a603          	lw	x12,0(x9)
    8ec4:	0044a683          	lw	x13,4(x9)
    8ec8:	1d112623          	sw	x17,460(x2)
    8ecc:	00090413          	addi	x8,x18,0
    8ed0:	009040ef          	jal	x1,d6d8 <__muldf3>
    8ed4:	00050d93          	addi	x27,x10,0
    8ed8:	00058993          	addi	x19,x11,0
    8edc:	000d8513          	addi	x10,x27,0
    8ee0:	00098593          	addi	x11,x19,0
    8ee4:	7fc050ef          	jal	x1,e6e0 <__fixdfsi>
    8ee8:	00050793          	addi	x15,x10,0
    8eec:	02050863          	beq	x10,x0,8f1c <__gdtoa+0x1988>
    8ef0:	06a12423          	sw	x10,104(x2)
    8ef4:	071050ef          	jal	x1,e764 <__floatsidf>
    8ef8:	00050613          	addi	x12,x10,0
    8efc:	00058693          	addi	x13,x11,0
    8f00:	000d8513          	addi	x10,x27,0
    8f04:	00098593          	addi	x11,x19,0
    8f08:	6b1040ef          	jal	x1,ddb8 <__subdf3>
    8f0c:	06812783          	lw	x15,104(x2)
    8f10:	00050d93          	addi	x27,x10,0
    8f14:	00058993          	addi	x19,x11,0
    8f18:	00090413          	addi	x8,x18,0
    8f1c:	03078793          	addi	x15,x15,48
    8f20:	0ff7f793          	andi	x15,x15,255
    8f24:	00fd0023          	sb	x15,0(x26)
    8f28:	1cc12683          	lw	x13,460(x2)
    8f2c:	05c12703          	lw	x14,92(x2)
    8f30:	001d0d13          	addi	x26,x26,1
    8f34:	000d8b13          	addi	x22,x27,0
    8f38:	000d8513          	addi	x10,x27,0
    8f3c:	00098593          	addi	x11,x19,0
    8f40:	00168893          	addi	x17,x13,1
    8f44:	f6e69ee3          	bne	x13,x14,8ec0 <__gdtoa+0x192c>
    8f48:	00040613          	addi	x12,x8,0
    8f4c:	0c812a83          	lw	x21,200(x2)
    8f50:	0d012a03          	lw	x20,208(x2)
    8f54:	0d812703          	lw	x14,216(x2)
    8f58:	0e012403          	lw	x8,224(x2)
    8f5c:	0e812b83          	lw	x23,232(x2)
    8f60:	11812e03          	lw	x28,280(x2)
    8f64:	11012d83          	lw	x27,272(x2)
    8f68:	10812983          	lw	x19,264(x2)
    8f6c:	00078c13          	addi	x24,x15,0
    8f70:	00060663          	beq	x12,x0,8f7c <__gdtoa+0x19e8>
    8f74:	09612023          	sw	x22,128(x2)
    8f78:	06b12c23          	sw	x11,120(x2)
    8f7c:	08812483          	lw	x9,136(x2)
    8f80:	0b012903          	lw	x18,176(x2)
    8f84:	0000ab17          	auipc	x22,0xa
    8f88:	c1cb0b13          	addi	x22,x22,-996 # 12ba0 <__SDATA_BEGIN__+0x58>
    8f8c:	14912423          	sw	x9,328(x2)
    8f90:	15212623          	sw	x18,332(x2)
    8f94:	000b2603          	lw	x12,0(x22)
    8f98:	004b2683          	lw	x13,4(x22)
    8f9c:	14812503          	lw	x10,328(x2)
    8fa0:	14c12583          	lw	x11,332(x2)
    8fa4:	04e12e23          	sw	x14,92(x2)
    8fa8:	07c12423          	sw	x28,104(x2)
    8fac:	40c030ef          	jal	x1,c3b8 <__adddf3>
    8fb0:	07812783          	lw	x15,120(x2)
    8fb4:	08012c83          	lw	x25,128(x2)
    8fb8:	14f12a23          	sw	x15,340(x2)
    8fbc:	15912823          	sw	x25,336(x2)
    8fc0:	15012603          	lw	x12,336(x2)
    8fc4:	15412683          	lw	x13,340(x2)
    8fc8:	608040ef          	jal	x1,d5d0 <__ledf2>
    8fcc:	05c12703          	lw	x14,92(x2)
    8fd0:	1e054263          	blt	x10,x0,91b4 <__gdtoa+0x1c20>
    8fd4:	14912c23          	sw	x9,344(x2)
    8fd8:	15212e23          	sw	x18,348(x2)
    8fdc:	15812603          	lw	x12,344(x2)
    8fe0:	15c12683          	lw	x13,348(x2)
    8fe4:	000b2503          	lw	x10,0(x22)
    8fe8:	004b2583          	lw	x11,4(x22)
    8fec:	5cd040ef          	jal	x1,ddb8 <__subdf3>
    8ff0:	07812783          	lw	x15,120(x2)
    8ff4:	17912023          	sw	x25,352(x2)
    8ff8:	16012603          	lw	x12,352(x2)
    8ffc:	16f12223          	sw	x15,356(x2)
    9000:	16412683          	lw	x13,356(x2)
    9004:	4cc040ef          	jal	x1,d4d0 <__gedf2>
    9008:	05c12703          	lw	x14,92(x2)
    900c:	06812e03          	lw	x28,104(x2)
    9010:	26a04c63          	blt	x0,x10,9288 <__gdtoa+0x1cf4>
    9014:	0a012783          	lw	x15,160(x2)
    9018:	0a412b03          	lw	x22,164(x2)
    901c:	06f12423          	sw	x15,104(x2)
    9020:	04812783          	lw	x15,72(x2)
    9024:	c207dce3          	bge	x15,x0,8c5c <__gdtoa+0x16c8>
    9028:	04c12903          	lw	x18,76(x2)
    902c:	04012d03          	lw	x26,64(x2)
    9030:	00000c13          	addi	x24,x0,0
    9034:	00000b13          	addi	x22,x0,0
    9038:	a2dfe06f          	jal	x0,7a64 <__gdtoa+0x4d0>
    903c:	000d8e93          	addi	x29,x27,0
    9040:	01812a23          	sw	x24,20(x2)
    9044:	000b0b93          	addi	x23,x22,0
    9048:	02012c03          	lw	x24,32(x2)
    904c:	02412703          	lw	x14,36(x2)
    9050:	02812d83          	lw	x27,40(x2)
    9054:	000a0813          	addi	x16,x20,0
    9058:	000e8b13          	addi	x22,x29,0
    905c:	f14ff06f          	jal	x0,8770 <__gdtoa+0x11dc>
    9060:	fffd4c03          	lbu	x24,-1(x26)
    9064:	a58ff06f          	jal	x0,82bc <__gdtoa+0xd28>
    9068:	ae090ee3          	beq	x18,x0,8b64 <__gdtoa+0x15d0>
    906c:	07012d03          	lw	x26,112(x2)
    9070:	bda054e3          	bge	x0,x26,8c38 <__gdtoa+0x16a4>
    9074:	11612623          	sw	x22,268(x2)
    9078:	0000a697          	auipc	x13,0xa
    907c:	b0868693          	addi	x13,x13,-1272 # 12b80 <__SDATA_BEGIN__+0x38>
    9080:	10912423          	sw	x9,264(x2)
    9084:	0006a603          	lw	x12,0(x13)
    9088:	10812503          	lw	x10,264(x2)
    908c:	0046a683          	lw	x13,4(x13)
    9090:	10c12583          	lw	x11,268(x2)
    9094:	0ce12823          	sw	x14,208(x2)
    9098:	640040ef          	jal	x1,d6d8 <__muldf3>
    909c:	0000a697          	auipc	x13,0xa
    90a0:	aec68693          	addi	x13,x13,-1300 # 12b88 <__SDATA_BEGIN__+0x40>
    90a4:	0006a603          	lw	x12,0(x13)
    90a8:	0046a683          	lw	x13,4(x13)
    90ac:	00058b13          	addi	x22,x11,0
    90b0:	06a12423          	sw	x10,104(x2)
    90b4:	0ca12423          	sw	x10,200(x2)
    90b8:	0ab12823          	sw	x11,176(x2)
    90bc:	61c040ef          	jal	x1,d6d8 <__muldf3>
    90c0:	0000a697          	auipc	x13,0xa
    90c4:	ad068693          	addi	x13,x13,-1328 # 12b90 <__SDATA_BEGIN__+0x48>
    90c8:	0006a603          	lw	x12,0(x13)
    90cc:	0046a683          	lw	x13,4(x13)
    90d0:	2e8030ef          	jal	x1,c3b8 <__adddf3>
    90d4:	fcc006b7          	lui	x13,0xfcc00
    90d8:	fff00793          	addi	x15,x0,-1
    90dc:	0c812e83          	lw	x29,200(x2)
    90e0:	0d012703          	lw	x14,208(x2)
    90e4:	00050913          	addi	x18,x10,0
    90e8:	00b68c33          	add	x24,x13,x11
    90ec:	05a12e23          	sw	x26,92(x2)
    90f0:	0af12423          	sw	x15,168(x2)
    90f4:	000b0f13          	addi	x30,x22,0
    90f8:	f7dfe06f          	jal	x0,8074 <__gdtoa+0xae0>
    90fc:	00200c93          	addi	x25,x0,2
    9100:	00000593          	addi	x11,x0,0
    9104:	00000b13          	addi	x22,x0,0
    9108:	f34ff06f          	jal	x0,883c <__gdtoa+0x12a8>
    910c:	01812a23          	sw	x24,20(x2)
    9110:	03900693          	addi	x13,x0,57
    9114:	000d8e93          	addi	x29,x27,0
    9118:	02412703          	lw	x14,36(x2)
    911c:	02812d83          	lw	x27,40(x2)
    9120:	92da00e3          	beq	x20,x13,8a40 <__gdtoa+0x14ac>
    9124:	001a0813          	addi	x16,x20,1
    9128:	000b0b93          	addi	x23,x22,0
    912c:	010a8023          	sb	x16,0(x21)
    9130:	001a8d13          	addi	x26,x21,1
    9134:	000e8b13          	addi	x22,x29,0
    9138:	02000a13          	addi	x20,x0,32
    913c:	cf8ff06f          	jal	x0,8634 <__gdtoa+0x10a0>
    9140:	00068793          	addi	x15,x13,0 # fcc00000 <__heap_end+0xfc800000>
    9144:	1cd12623          	sw	x13,460(x2)
    9148:	03012683          	lw	x13,48(x2)
    914c:	00f686b3          	add	x13,x13,x15
    9150:	02d12823          	sw	x13,48(x2)
    9154:	04012683          	lw	x13,64(x2)
    9158:	00f687b3          	add	x15,x13,x15
    915c:	00068d13          	addi	x26,x13,0
    9160:	04f12023          	sw	x15,64(x2)
    9164:	8e5fe06f          	jal	x0,7a48 <__gdtoa+0x4b4>
    9168:	000b0593          	addi	x11,x22,0
    916c:	00000693          	addi	x13,x0,0
    9170:	00a00613          	addi	x12,x0,10
    9174:	00040513          	addi	x10,x8,0
    9178:	168010ef          	jal	x1,a2e0 <__multadd>
    917c:	00050b13          	addi	x22,x10,0
    9180:	00051463          	bne	x10,x0,9188 <__gdtoa+0x1bf4>
    9184:	c79fe06f          	jal	x0,7dfc <__gdtoa+0x868>
    9188:	07012783          	lw	x15,112(x2)
    918c:	02012703          	lw	x14,32(x2)
    9190:	00f05663          	bge	x0,x15,919c <__gdtoa+0x1c08>
    9194:	02f12c23          	sw	x15,56(x2)
    9198:	9b9fe06f          	jal	x0,7b50 <__gdtoa+0x5bc>
    919c:	01812683          	lw	x13,24(x2)
    91a0:	00200793          	addi	x15,x0,2
    91a4:	16d7ca63          	blt	x15,x13,9318 <__gdtoa+0x1d84>
    91a8:	07012783          	lw	x15,112(x2)
    91ac:	02f12c23          	sw	x15,56(x2)
    91b0:	9a1fe06f          	jal	x0,7b50 <__gdtoa+0x5bc>
    91b4:	0a812783          	lw	x15,168(x2)
    91b8:	00178493          	addi	x9,x15,1
    91bc:	900ff06f          	jal	x0,82bc <__gdtoa+0xd28>
    91c0:	0b012703          	lw	x14,176(x2)
    91c4:	0c812403          	lw	x8,200(x2)
    91c8:	0d012d83          	lw	x27,208(x2)
    91cc:	000b8913          	addi	x18,x23,0
    91d0:	07912423          	sw	x25,104(x2)
    91d4:	06812783          	lw	x15,104(x2)
    91d8:	13212c23          	sw	x18,312(x2)
    91dc:	13812503          	lw	x10,312(x2)
    91e0:	12f12e23          	sw	x15,316(x2)
    91e4:	13c12583          	lw	x11,316(x2)
    91e8:	00000613          	addi	x12,x0,0
    91ec:	00000693          	addi	x13,x0,0
    91f0:	00e12c23          	sw	x14,24(x2)
    91f4:	250040ef          	jal	x1,d444 <__eqdf2>
    91f8:	0a812783          	lw	x15,168(x2)
    91fc:	00a03a33          	sltu	x20,x0,x10
    9200:	01812703          	lw	x14,24(x2)
    9204:	00178c93          	addi	x25,x15,1
    9208:	004a1a13          	slli	x20,x20,0x4
    920c:	b04ff06f          	jal	x0,8510 <__gdtoa+0xf7c>
    9210:	03812683          	lw	x13,56(x2)
    9214:	04c12603          	lw	x12,76(x2)
    9218:	fff68793          	addi	x15,x13,-1
    921c:	f6f64063          	blt	x12,x15,897c <__gdtoa+0x13e8>
    9220:	03012583          	lw	x11,48(x2)
    9224:	40f60933          	sub	x18,x12,x15
    9228:	04012783          	lw	x15,64(x2)
    922c:	00d585b3          	add	x11,x11,x13
    9230:	02b12823          	sw	x11,48(x2)
    9234:	00078d13          	addi	x26,x15,0
    9238:	00d787b3          	add	x15,x15,x13
    923c:	1cd12623          	sw	x13,460(x2)
    9240:	04f12023          	sw	x15,64(x2)
    9244:	805fe06f          	jal	x0,7a48 <__gdtoa+0x4b4>
    9248:	0a012783          	lw	x15,160(x2)
    924c:	0d812c83          	lw	x25,216(x2)
    9250:	0e012a83          	lw	x21,224(x2)
    9254:	06f12423          	sw	x15,104(x2)
    9258:	04812783          	lw	x15,72(x2)
    925c:	0e812a03          	lw	x20,232(x2)
    9260:	0b012703          	lw	x14,176(x2)
    9264:	0c812403          	lw	x8,200(x2)
    9268:	10812b83          	lw	x23,264(x2)
    926c:	11012983          	lw	x19,272(x2)
    9270:	0d012d83          	lw	x27,208(x2)
    9274:	11812e03          	lw	x28,280(x2)
    9278:	0a412b03          	lw	x22,164(x2)
    927c:	00000c13          	addi	x24,x0,0
    9280:	9c07dee3          	bge	x15,x0,8c5c <__gdtoa+0x16c8>
    9284:	f50fe06f          	jal	x0,79d4 <__gdtoa+0x440>
    9288:	07812783          	lw	x15,120(x2)
    928c:	17912423          	sw	x25,360(x2)
    9290:	16812503          	lw	x10,360(x2)
    9294:	16f12623          	sw	x15,364(x2)
    9298:	16c12583          	lw	x11,364(x2)
    929c:	00000613          	addi	x12,x0,0
    92a0:	00000693          	addi	x13,x0,0
    92a4:	00e12c23          	sw	x14,24(x2)
    92a8:	19c040ef          	jal	x1,d444 <__eqdf2>
    92ac:	0a812703          	lw	x14,168(x2)
    92b0:	00a03a33          	sltu	x20,x0,x10
    92b4:	000d0793          	addi	x15,x26,0
    92b8:	00170493          	addi	x9,x14,1
    92bc:	004a1a13          	slli	x20,x20,0x4
    92c0:	01812703          	lw	x14,24(x2)
    92c4:	ac5ff06f          	jal	x0,8d88 <__gdtoa+0x17f4>
    92c8:	01812a23          	sw	x24,20(x2)
    92cc:	03900693          	addi	x13,x0,57
    92d0:	000d8e93          	addi	x29,x27,0
    92d4:	02412703          	lw	x14,36(x2)
    92d8:	02812d83          	lw	x27,40(x2)
    92dc:	000a0813          	addi	x16,x20,0
    92e0:	f6da0063          	beq	x20,x13,8a40 <__gdtoa+0x14ac>
    92e4:	0b705a63          	bge	x0,x23,9398 <__gdtoa+0x1e04>
    92e8:	031d0813          	addi	x16,x26,49
    92ec:	02000a13          	addi	x20,x0,32
    92f0:	000b0b93          	addi	x23,x22,0
    92f4:	010a8023          	sb	x16,0(x21)
    92f8:	001a8d13          	addi	x26,x21,1
    92fc:	000e8b13          	addi	x22,x29,0
    9300:	b34ff06f          	jal	x0,8634 <__gdtoa+0x10a0>
    9304:	00051663          	bne	x10,x0,9310 <__gdtoa+0x1d7c>
    9308:	00187693          	andi	x13,x16,1
    930c:	b0069ae3          	bne	x13,x0,8e20 <__gdtoa+0x188c>
    9310:	02000c13          	addi	x24,x0,32
    9314:	af8ff06f          	jal	x0,860c <__gdtoa+0x1078>
    9318:	07012783          	lw	x15,112(x2)
    931c:	02f12c23          	sw	x15,56(x2)
    9320:	cccff06f          	jal	x0,87ec <__gdtoa+0x1258>
    9324:	0147a683          	lw	x13,20(x15)
    9328:	ae069e63          	bne	x13,x0,8624 <__gdtoa+0x1090>
    932c:	000c0a13          	addi	x20,x24,0
    9330:	af4ff06f          	jal	x0,8624 <__gdtoa+0x1090>
    9334:	01212a23          	sw	x18,20(x2)
    9338:	03900693          	addi	x13,x0,57
    933c:	000b8e93          	addi	x29,x23,0
    9340:	000c0713          	addi	x14,x24,0
    9344:	00d48e63          	beq	x9,x13,9360 <__gdtoa+0x1dcc>
    9348:	00148813          	addi	x16,x9,1
    934c:	02000a13          	addi	x20,x0,32
    9350:	ad4ff06f          	jal	x0,8624 <__gdtoa+0x1090>
    9354:	01000a13          	addi	x20,x0,16
    9358:	001a8993          	addi	x19,x21,1
    935c:	ac8ff06f          	jal	x0,8624 <__gdtoa+0x1090>
    9360:	000b0b93          	addi	x23,x22,0
    9364:	000a8693          	addi	x13,x21,0
    9368:	00058b13          	addi	x22,x11,0
    936c:	ee4ff06f          	jal	x0,8a50 <__gdtoa+0x14bc>
    9370:	01412783          	lw	x15,20(x2)
    9374:	00100693          	addi	x13,x0,1
    9378:	0107a603          	lw	x12,16(x15)
    937c:	00c6d463          	bge	x13,x12,9384 <__gdtoa+0x1df0>
    9380:	98dfe06f          	jal	x0,7d0c <__gdtoa+0x778>
    9384:	0147a683          	lw	x13,20(x15)
    9388:	00068463          	beq	x13,x0,9390 <__gdtoa+0x1dfc>
    938c:	981fe06f          	jal	x0,7d0c <__gdtoa+0x778>
    9390:	001a8993          	addi	x19,x21,1
    9394:	a90ff06f          	jal	x0,8624 <__gdtoa+0x1090>
    9398:	01412783          	lw	x15,20(x2)
    939c:	00100693          	addi	x13,x0,1
    93a0:	01000a13          	addi	x20,x0,16
    93a4:	0107a603          	lw	x12,16(x15)
    93a8:	f4c6c4e3          	blt	x13,x12,92f0 <__gdtoa+0x1d5c>
    93ac:	0147aa03          	lw	x20,20(x15)
    93b0:	01403a33          	sltu	x20,x0,x20
    93b4:	004a1a13          	slli	x20,x20,0x4
    93b8:	f39ff06f          	jal	x0,92f0 <__gdtoa+0x1d5c>
    93bc:	020bc463          	blt	x23,x0,93e4 <__gdtoa+0x1e50>
    93c0:	01812783          	lw	x15,24(x2)
    93c4:	0177ebb3          	or	x23,x15,x23
    93c8:	000b9863          	bne	x23,x0,93d8 <__gdtoa+0x1e44>
    93cc:	0009a783          	lw	x15,0(x19)
    93d0:	0017f793          	andi	x15,x15,1
    93d4:	00078863          	beq	x15,x0,93e4 <__gdtoa+0x1e50>
    93d8:	00d04463          	blt	x0,x13,93e0 <__gdtoa+0x1e4c>
    93dc:	ff0fe06f          	jal	x0,7bcc <__gdtoa+0x638>
    93e0:	fe0fe06f          	jal	x0,7bc0 <__gdtoa+0x62c>
    93e4:	000c0793          	addi	x15,x24,0
    93e8:	01812a23          	sw	x24,20(x2)
    93ec:	02012c03          	lw	x24,32(x2)
    93f0:	000d8e93          	addi	x29,x27,0
    93f4:	02412703          	lw	x14,36(x2)
    93f8:	02812d83          	lw	x27,40(x2)
    93fc:	000a0813          	addi	x16,x20,0
    9400:	020c0863          	beq	x24,x0,9430 <__gdtoa+0x1e9c>
    9404:	0107a583          	lw	x11,16(x15)
    9408:	00100613          	addi	x12,x0,1
    940c:	00b65463          	bge	x12,x11,9414 <__gdtoa+0x1e80>
    9410:	8fdfe06f          	jal	x0,7d0c <__gdtoa+0x778>
    9414:	0147a603          	lw	x12,20(x15)
    9418:	00060463          	beq	x12,x0,9420 <__gdtoa+0x1e8c>
    941c:	8f1fe06f          	jal	x0,7d0c <__gdtoa+0x778>
    9420:	9cd040e3          	blt	x0,x13,8de0 <__gdtoa+0x184c>
    9424:	00000a13          	addi	x20,x0,0
    9428:	001a8993          	addi	x19,x21,1
    942c:	9f8ff06f          	jal	x0,8624 <__gdtoa+0x1090>
    9430:	9cd05e63          	bge	x0,x13,860c <__gdtoa+0x1078>
    9434:	9adff06f          	jal	x0,8de0 <__gdtoa+0x184c>

00009438 <__call_exitprocs>:
    9438:	fd010113          	addi	x2,x2,-48
    943c:	01412c23          	sw	x20,24(x2)
    9440:	f2c18a13          	addi	x20,x3,-212 # 12bcc <__atexit>
    9444:	03212023          	sw	x18,32(x2)
    9448:	000a2903          	lw	x18,0(x20)
    944c:	02112623          	sw	x1,44(x2)
    9450:	06090c63          	beq	x18,x0,94c8 <__call_exitprocs+0x90>
    9454:	01312e23          	sw	x19,28(x2)
    9458:	01512a23          	sw	x21,20(x2)
    945c:	01612823          	sw	x22,16(x2)
    9460:	01712623          	sw	x23,12(x2)
    9464:	02812423          	sw	x8,40(x2)
    9468:	02912223          	sw	x9,36(x2)
    946c:	01812423          	sw	x24,8(x2)
    9470:	00050b13          	addi	x22,x10,0
    9474:	00058b93          	addi	x23,x11,0
    9478:	fff00993          	addi	x19,x0,-1
    947c:	00100a93          	addi	x21,x0,1
    9480:	00492483          	lw	x9,4(x18)
    9484:	fff48413          	addi	x8,x9,-1
    9488:	02044263          	blt	x8,x0,94ac <__call_exitprocs+0x74>
    948c:	00249493          	slli	x9,x9,0x2
    9490:	009904b3          	add	x9,x18,x9
    9494:	040b8463          	beq	x23,x0,94dc <__call_exitprocs+0xa4>
    9498:	1044a783          	lw	x15,260(x9)
    949c:	05778063          	beq	x15,x23,94dc <__call_exitprocs+0xa4>
    94a0:	fff40413          	addi	x8,x8,-1
    94a4:	ffc48493          	addi	x9,x9,-4
    94a8:	ff3418e3          	bne	x8,x19,9498 <__call_exitprocs+0x60>
    94ac:	02812403          	lw	x8,40(x2)
    94b0:	02412483          	lw	x9,36(x2)
    94b4:	01c12983          	lw	x19,28(x2)
    94b8:	01412a83          	lw	x21,20(x2)
    94bc:	01012b03          	lw	x22,16(x2)
    94c0:	00c12b83          	lw	x23,12(x2)
    94c4:	00812c03          	lw	x24,8(x2)
    94c8:	02c12083          	lw	x1,44(x2)
    94cc:	02012903          	lw	x18,32(x2)
    94d0:	01812a03          	lw	x20,24(x2)
    94d4:	03010113          	addi	x2,x2,48
    94d8:	00008067          	jalr	x0,0(x1)
    94dc:	00492783          	lw	x15,4(x18)
    94e0:	0044a683          	lw	x13,4(x9)
    94e4:	fff78793          	addi	x15,x15,-1
    94e8:	06878a63          	beq	x15,x8,955c <__call_exitprocs+0x124>
    94ec:	0004a223          	sw	x0,4(x9)
    94f0:	02068663          	beq	x13,x0,951c <__call_exitprocs+0xe4>
    94f4:	18892783          	lw	x15,392(x18)
    94f8:	008a9733          	sll	x14,x21,x8
    94fc:	00492c03          	lw	x24,4(x18)
    9500:	00f777b3          	and	x15,x14,x15
    9504:	02079463          	bne	x15,x0,952c <__call_exitprocs+0xf4>
    9508:	000680e7          	jalr	x1,0(x13)
    950c:	00492703          	lw	x14,4(x18)
    9510:	000a2783          	lw	x15,0(x20)
    9514:	03871e63          	bne	x14,x24,9550 <__call_exitprocs+0x118>
    9518:	03279c63          	bne	x15,x18,9550 <__call_exitprocs+0x118>
    951c:	fff40413          	addi	x8,x8,-1
    9520:	ffc48493          	addi	x9,x9,-4
    9524:	f73418e3          	bne	x8,x19,9494 <__call_exitprocs+0x5c>
    9528:	f85ff06f          	jal	x0,94ac <__call_exitprocs+0x74>
    952c:	18c92783          	lw	x15,396(x18)
    9530:	0844a583          	lw	x11,132(x9)
    9534:	00f77733          	and	x14,x14,x15
    9538:	02071663          	bne	x14,x0,9564 <__call_exitprocs+0x12c>
    953c:	000b0513          	addi	x10,x22,0
    9540:	000680e7          	jalr	x1,0(x13)
    9544:	00492703          	lw	x14,4(x18)
    9548:	000a2783          	lw	x15,0(x20)
    954c:	fd8706e3          	beq	x14,x24,9518 <__call_exitprocs+0xe0>
    9550:	f4078ee3          	beq	x15,x0,94ac <__call_exitprocs+0x74>
    9554:	00078913          	addi	x18,x15,0
    9558:	f29ff06f          	jal	x0,9480 <__call_exitprocs+0x48>
    955c:	00892223          	sw	x8,4(x18)
    9560:	f91ff06f          	jal	x0,94f0 <__call_exitprocs+0xb8>
    9564:	00058513          	addi	x10,x11,0
    9568:	000680e7          	jalr	x1,0(x13)
    956c:	fa1ff06f          	jal	x0,950c <__call_exitprocs+0xd4>

00009570 <_lseek_r>:
    9570:	ff010113          	addi	x2,x2,-16
    9574:	00058713          	addi	x14,x11,0
    9578:	00812423          	sw	x8,8(x2)
    957c:	00060593          	addi	x11,x12,0
    9580:	00050413          	addi	x8,x10,0
    9584:	00068613          	addi	x12,x13,0
    9588:	00070513          	addi	x10,x14,0
    958c:	f001ac23          	sw	x0,-232(x3) # 12bb8 <errno>
    9590:	00112623          	sw	x1,12(x2)
    9594:	d2bf60ef          	jal	x1,2be <_lseek>
    9598:	fff00793          	addi	x15,x0,-1
    959c:	00f50a63          	beq	x10,x15,95b0 <_lseek_r+0x40>
    95a0:	00c12083          	lw	x1,12(x2)
    95a4:	00812403          	lw	x8,8(x2)
    95a8:	01010113          	addi	x2,x2,16
    95ac:	00008067          	jalr	x0,0(x1)
    95b0:	00912223          	sw	x9,4(x2)
    95b4:	f1818493          	addi	x9,x3,-232 # 12bb8 <errno>
    95b8:	0004a783          	lw	x15,0(x9)
    95bc:	00078e63          	beq	x15,x0,95d8 <_lseek_r+0x68>
    95c0:	00c12083          	lw	x1,12(x2)
    95c4:	00f42023          	sw	x15,0(x8)
    95c8:	00812403          	lw	x8,8(x2)
    95cc:	00412483          	lw	x9,4(x2)
    95d0:	01010113          	addi	x2,x2,16
    95d4:	00008067          	jalr	x0,0(x1)
    95d8:	00c12083          	lw	x1,12(x2)
    95dc:	00812403          	lw	x8,8(x2)
    95e0:	00412483          	lw	x9,4(x2)
    95e4:	01010113          	addi	x2,x2,16
    95e8:	00008067          	jalr	x0,0(x1)

000095ec <_write_r>:
    95ec:	ff010113          	addi	x2,x2,-16
    95f0:	00058713          	addi	x14,x11,0
    95f4:	00812423          	sw	x8,8(x2)
    95f8:	00060593          	addi	x11,x12,0
    95fc:	00050413          	addi	x8,x10,0
    9600:	00068613          	addi	x12,x13,0
    9604:	00070513          	addi	x10,x14,0
    9608:	f001ac23          	sw	x0,-232(x3) # 12bb8 <errno>
    960c:	00112623          	sw	x1,12(x2)
    9610:	d03f60ef          	jal	x1,312 <_write>
    9614:	fff00793          	addi	x15,x0,-1
    9618:	00f50a63          	beq	x10,x15,962c <_write_r+0x40>
    961c:	00c12083          	lw	x1,12(x2)
    9620:	00812403          	lw	x8,8(x2)
    9624:	01010113          	addi	x2,x2,16
    9628:	00008067          	jalr	x0,0(x1)
    962c:	00912223          	sw	x9,4(x2)
    9630:	f1818493          	addi	x9,x3,-232 # 12bb8 <errno>
    9634:	0004a783          	lw	x15,0(x9)
    9638:	00078e63          	beq	x15,x0,9654 <_write_r+0x68>
    963c:	00c12083          	lw	x1,12(x2)
    9640:	00f42023          	sw	x15,0(x8)
    9644:	00812403          	lw	x8,8(x2)
    9648:	00412483          	lw	x9,4(x2)
    964c:	01010113          	addi	x2,x2,16
    9650:	00008067          	jalr	x0,0(x1)
    9654:	00c12083          	lw	x1,12(x2)
    9658:	00812403          	lw	x8,8(x2)
    965c:	00412483          	lw	x9,4(x2)
    9660:	01010113          	addi	x2,x2,16
    9664:	00008067          	jalr	x0,0(x1)

00009668 <__register_exitproc>:
    9668:	f2c18713          	addi	x14,x3,-212 # 12bcc <__atexit>
    966c:	00072783          	lw	x15,0(x14)
    9670:	04078c63          	beq	x15,x0,96c8 <__register_exitproc+0x60>
    9674:	0047a703          	lw	x14,4(x15)
    9678:	01f00813          	addi	x16,x0,31
    967c:	06e84e63          	blt	x16,x14,96f8 <__register_exitproc+0x90>
    9680:	00271813          	slli	x16,x14,0x2
    9684:	02050663          	beq	x10,x0,96b0 <__register_exitproc+0x48>
    9688:	01078333          	add	x6,x15,x16
    968c:	08c32423          	sw	x12,136(x6)
    9690:	1887a883          	lw	x17,392(x15)
    9694:	00100613          	addi	x12,x0,1
    9698:	00e61633          	sll	x12,x12,x14
    969c:	00c8e8b3          	or	x17,x17,x12
    96a0:	1917a423          	sw	x17,392(x15)
    96a4:	10d32423          	sw	x13,264(x6)
    96a8:	00200693          	addi	x13,x0,2
    96ac:	02d50463          	beq	x10,x13,96d4 <__register_exitproc+0x6c>
    96b0:	00170713          	addi	x14,x14,1
    96b4:	00e7a223          	sw	x14,4(x15)
    96b8:	010787b3          	add	x15,x15,x16
    96bc:	00b7a423          	sw	x11,8(x15)
    96c0:	00000513          	addi	x10,x0,0
    96c4:	00008067          	jalr	x0,0(x1)
    96c8:	09418793          	addi	x15,x3,148 # 12d34 <__atexit0>
    96cc:	00f72023          	sw	x15,0(x14)
    96d0:	fa5ff06f          	jal	x0,9674 <__register_exitproc+0xc>
    96d4:	18c7a683          	lw	x13,396(x15)
    96d8:	00170713          	addi	x14,x14,1
    96dc:	00e7a223          	sw	x14,4(x15)
    96e0:	00c6e6b3          	or	x13,x13,x12
    96e4:	18d7a623          	sw	x13,396(x15)
    96e8:	010787b3          	add	x15,x15,x16
    96ec:	00b7a423          	sw	x11,8(x15)
    96f0:	00000513          	addi	x10,x0,0
    96f4:	00008067          	jalr	x0,0(x1)
    96f8:	fff00513          	addi	x10,x0,-1
    96fc:	00008067          	jalr	x0,0(x1)

00009700 <_close_r>:
    9700:	ff010113          	addi	x2,x2,-16
    9704:	00812423          	sw	x8,8(x2)
    9708:	00050413          	addi	x8,x10,0
    970c:	00058513          	addi	x10,x11,0
    9710:	f001ac23          	sw	x0,-232(x3) # 12bb8 <errno>
    9714:	00112623          	sw	x1,12(x2)
    9718:	b1ff60ef          	jal	x1,236 <_close>
    971c:	fff00793          	addi	x15,x0,-1
    9720:	00f50a63          	beq	x10,x15,9734 <_close_r+0x34>
    9724:	00c12083          	lw	x1,12(x2)
    9728:	00812403          	lw	x8,8(x2)
    972c:	01010113          	addi	x2,x2,16
    9730:	00008067          	jalr	x0,0(x1)
    9734:	00912223          	sw	x9,4(x2)
    9738:	f1818493          	addi	x9,x3,-232 # 12bb8 <errno>
    973c:	0004a783          	lw	x15,0(x9)
    9740:	00078e63          	beq	x15,x0,975c <_close_r+0x5c>
    9744:	00c12083          	lw	x1,12(x2)
    9748:	00f42023          	sw	x15,0(x8)
    974c:	00812403          	lw	x8,8(x2)
    9750:	00412483          	lw	x9,4(x2)
    9754:	01010113          	addi	x2,x2,16
    9758:	00008067          	jalr	x0,0(x1)
    975c:	00c12083          	lw	x1,12(x2)
    9760:	00812403          	lw	x8,8(x2)
    9764:	00412483          	lw	x9,4(x2)
    9768:	01010113          	addi	x2,x2,16
    976c:	00008067          	jalr	x0,0(x1)

00009770 <strncpy>:
    9770:	00a5e7b3          	or	x15,x11,x10
    9774:	0037f793          	andi	x15,x15,3
    9778:	00079663          	bne	x15,x0,9784 <strncpy+0x14>
    977c:	00300893          	addi	x17,x0,3
    9780:	04c8e663          	bltu	x17,x12,97cc <strncpy+0x5c>
    9784:	00050713          	addi	x14,x10,0
    9788:	01c0006f          	jal	x0,97a4 <strncpy+0x34>
    978c:	fff5c683          	lbu	x13,-1(x11)
    9790:	fff60813          	addi	x16,x12,-1
    9794:	fed78fa3          	sb	x13,-1(x15)
    9798:	00068e63          	beq	x13,x0,97b4 <strncpy+0x44>
    979c:	00078713          	addi	x14,x15,0
    97a0:	00080613          	addi	x12,x16,0
    97a4:	00158593          	addi	x11,x11,1
    97a8:	00170793          	addi	x15,x14,1
    97ac:	fe0610e3          	bne	x12,x0,978c <strncpy+0x1c>
    97b0:	00008067          	jalr	x0,0(x1)
    97b4:	00c70733          	add	x14,x14,x12
    97b8:	04080c63          	beq	x16,x0,9810 <strncpy+0xa0>
    97bc:	00178793          	addi	x15,x15,1
    97c0:	fe078fa3          	sb	x0,-1(x15)
    97c4:	fee79ce3          	bne	x15,x14,97bc <strncpy+0x4c>
    97c8:	00008067          	jalr	x0,0(x1)
    97cc:	feff0e37          	lui	x28,0xfeff0
    97d0:	80808337          	lui	x6,0x80808
    97d4:	effe0e13          	addi	x28,x28,-257 # fefefeff <__heap_end+0xfebefeff>
    97d8:	08030313          	addi	x6,x6,128 # 80808080 <__heap_end+0x80408080>
    97dc:	00050713          	addi	x14,x10,0
    97e0:	0005a683          	lw	x13,0(x11)
    97e4:	01c687b3          	add	x15,x13,x28
    97e8:	fff6c813          	xori	x16,x13,-1
    97ec:	0107f7b3          	and	x15,x15,x16
    97f0:	0067f7b3          	and	x15,x15,x6
    97f4:	fa0798e3          	bne	x15,x0,97a4 <strncpy+0x34>
    97f8:	ffc60613          	addi	x12,x12,-4
    97fc:	00d72023          	sw	x13,0(x14)
    9800:	00470713          	addi	x14,x14,4
    9804:	00458593          	addi	x11,x11,4
    9808:	fcc8ece3          	bltu	x17,x12,97e0 <strncpy+0x70>
    980c:	f99ff06f          	jal	x0,97a4 <strncpy+0x34>
    9810:	00008067          	jalr	x0,0(x1)

00009814 <_read_r>:
    9814:	ff010113          	addi	x2,x2,-16
    9818:	00058713          	addi	x14,x11,0
    981c:	00812423          	sw	x8,8(x2)
    9820:	00060593          	addi	x11,x12,0
    9824:	00050413          	addi	x8,x10,0
    9828:	00068613          	addi	x12,x13,0
    982c:	00070513          	addi	x10,x14,0
    9830:	f001ac23          	sw	x0,-232(x3) # 12bb8 <errno>
    9834:	00112623          	sw	x1,12(x2)
    9838:	aa7f60ef          	jal	x1,2de <_read>
    983c:	fff00793          	addi	x15,x0,-1
    9840:	00f50a63          	beq	x10,x15,9854 <_read_r+0x40>
    9844:	00c12083          	lw	x1,12(x2)
    9848:	00812403          	lw	x8,8(x2)
    984c:	01010113          	addi	x2,x2,16
    9850:	00008067          	jalr	x0,0(x1)
    9854:	00912223          	sw	x9,4(x2)
    9858:	f1818493          	addi	x9,x3,-232 # 12bb8 <errno>
    985c:	0004a783          	lw	x15,0(x9)
    9860:	00078e63          	beq	x15,x0,987c <_read_r+0x68>
    9864:	00c12083          	lw	x1,12(x2)
    9868:	00f42023          	sw	x15,0(x8)
    986c:	00812403          	lw	x8,8(x2)
    9870:	00412483          	lw	x9,4(x2)
    9874:	01010113          	addi	x2,x2,16
    9878:	00008067          	jalr	x0,0(x1)
    987c:	00c12083          	lw	x1,12(x2)
    9880:	00812403          	lw	x8,8(x2)
    9884:	00412483          	lw	x9,4(x2)
    9888:	01010113          	addi	x2,x2,16
    988c:	00008067          	jalr	x0,0(x1)

00009890 <__smakebuf_r>:
    9890:	00c59783          	lh	x15,12(x11)
    9894:	f9010113          	addi	x2,x2,-112
    9898:	06812423          	sw	x8,104(x2)
    989c:	06112623          	sw	x1,108(x2)
    98a0:	0027f713          	andi	x14,x15,2
    98a4:	00058413          	addi	x8,x11,0
    98a8:	02070463          	beq	x14,x0,98d0 <__smakebuf_r+0x40>
    98ac:	04358793          	addi	x15,x11,67
    98b0:	00100713          	addi	x14,x0,1
    98b4:	00f5a023          	sw	x15,0(x11)
    98b8:	00f5a823          	sw	x15,16(x11)
    98bc:	00e5aa23          	sw	x14,20(x11)
    98c0:	06c12083          	lw	x1,108(x2)
    98c4:	06812403          	lw	x8,104(x2)
    98c8:	07010113          	addi	x2,x2,112
    98cc:	00008067          	jalr	x0,0(x1)
    98d0:	00e59583          	lh	x11,14(x11)
    98d4:	07212023          	sw	x18,96(x2)
    98d8:	06912223          	sw	x9,100(x2)
    98dc:	00050913          	addi	x18,x10,0
    98e0:	0605ce63          	blt	x11,x0,995c <__smakebuf_r+0xcc>
    98e4:	00810613          	addi	x12,x2,8
    98e8:	034020ef          	jal	x1,b91c <_fstat_r>
    98ec:	06054663          	blt	x10,x0,9958 <__smakebuf_r+0xc8>
    98f0:	40000593          	addi	x11,x0,1024
    98f4:	00090513          	addi	x10,x18,0
    98f8:	00c12483          	lw	x9,12(x2)
    98fc:	fc4f70ef          	jal	x1,10c0 <_malloc_r>
    9900:	00c41783          	lh	x15,12(x8)
    9904:	0a050a63          	beq	x10,x0,99b8 <__smakebuf_r+0x128>
    9908:	0000f737          	lui	x14,0xf
    990c:	0807e793          	ori	x15,x15,128
    9910:	40000693          	addi	x13,x0,1024
    9914:	00e4f4b3          	and	x9,x9,x14
    9918:	00f41623          	sh	x15,12(x8)
    991c:	00a42023          	sw	x10,0(x8)
    9920:	00a42823          	sw	x10,16(x8)
    9924:	00d42a23          	sw	x13,20(x8)
    9928:	00002737          	lui	x14,0x2
    992c:	0ce49663          	bne	x9,x14,99f8 <__smakebuf_r+0x168>
    9930:	00e41583          	lh	x11,14(x8)
    9934:	00090513          	addi	x10,x18,0
    9938:	475010ef          	jal	x1,b5ac <_isatty_r>
    993c:	00001737          	lui	x14,0x1
    9940:	00c41783          	lh	x15,12(x8)
    9944:	80070713          	addi	x14,x14,-2048 # 800 <global_stdio_init.part.0+0x28>
    9948:	04050863          	beq	x10,x0,9998 <__smakebuf_r+0x108>
    994c:	ffc7f793          	andi	x15,x15,-4
    9950:	0017e793          	ori	x15,x15,1
    9954:	0440006f          	jal	x0,9998 <__smakebuf_r+0x108>
    9958:	00c41783          	lh	x15,12(x8)
    995c:	0807f493          	andi	x9,x15,128
    9960:	0014b493          	sltiu	x9,x9,1
    9964:	409004b3          	sub	x9,x0,x9
    9968:	3c04f493          	andi	x9,x9,960
    996c:	04048493          	addi	x9,x9,64
    9970:	00090513          	addi	x10,x18,0
    9974:	00048593          	addi	x11,x9,0
    9978:	f48f70ef          	jal	x1,10c0 <_malloc_r>
    997c:	00c41783          	lh	x15,12(x8)
    9980:	02050c63          	beq	x10,x0,99b8 <__smakebuf_r+0x128>
    9984:	0807e793          	ori	x15,x15,128
    9988:	00a42023          	sw	x10,0(x8)
    998c:	00a42823          	sw	x10,16(x8)
    9990:	00942a23          	sw	x9,20(x8)
    9994:	00000713          	addi	x14,x0,0
    9998:	00e7e7b3          	or	x15,x15,x14
    999c:	06c12083          	lw	x1,108(x2)
    99a0:	00f41623          	sh	x15,12(x8)
    99a4:	06812403          	lw	x8,104(x2)
    99a8:	06412483          	lw	x9,100(x2)
    99ac:	06012903          	lw	x18,96(x2)
    99b0:	07010113          	addi	x2,x2,112
    99b4:	00008067          	jalr	x0,0(x1)
    99b8:	2007f713          	andi	x14,x15,512
    99bc:	02071863          	bne	x14,x0,99ec <__smakebuf_r+0x15c>
    99c0:	ffc7f793          	andi	x15,x15,-4
    99c4:	04340713          	addi	x14,x8,67
    99c8:	0027e793          	ori	x15,x15,2
    99cc:	00100693          	addi	x13,x0,1
    99d0:	06412483          	lw	x9,100(x2)
    99d4:	06012903          	lw	x18,96(x2)
    99d8:	00f41623          	sh	x15,12(x8)
    99dc:	00e42023          	sw	x14,0(x8)
    99e0:	00e42823          	sw	x14,16(x8)
    99e4:	00d42a23          	sw	x13,20(x8)
    99e8:	ed9ff06f          	jal	x0,98c0 <__smakebuf_r+0x30>
    99ec:	06412483          	lw	x9,100(x2)
    99f0:	06012903          	lw	x18,96(x2)
    99f4:	ecdff06f          	jal	x0,98c0 <__smakebuf_r+0x30>
    99f8:	00001737          	lui	x14,0x1
    99fc:	80070713          	addi	x14,x14,-2048 # 800 <global_stdio_init.part.0+0x28>
    9a00:	f99ff06f          	jal	x0,9998 <__smakebuf_r+0x108>

00009a04 <__swhatbuf_r>:
    9a04:	f9010113          	addi	x2,x2,-112
    9a08:	06812423          	sw	x8,104(x2)
    9a0c:	00058413          	addi	x8,x11,0
    9a10:	00e59583          	lh	x11,14(x11)
    9a14:	06912223          	sw	x9,100(x2)
    9a18:	07212023          	sw	x18,96(x2)
    9a1c:	06112623          	sw	x1,108(x2)
    9a20:	00060493          	addi	x9,x12,0
    9a24:	00068913          	addi	x18,x13,0
    9a28:	0405ca63          	blt	x11,x0,9a7c <__swhatbuf_r+0x78>
    9a2c:	00810613          	addi	x12,x2,8
    9a30:	6ed010ef          	jal	x1,b91c <_fstat_r>
    9a34:	04054463          	blt	x10,x0,9a7c <__swhatbuf_r+0x78>
    9a38:	00c12783          	lw	x15,12(x2)
    9a3c:	0000f6b7          	lui	x13,0xf
    9a40:	ffffe737          	lui	x14,0xffffe
    9a44:	00d7f7b3          	and	x15,x15,x13
    9a48:	00e787b3          	add	x15,x15,x14
    9a4c:	06c12083          	lw	x1,108(x2)
    9a50:	06812403          	lw	x8,104(x2)
    9a54:	0017b793          	sltiu	x15,x15,1
    9a58:	00f92023          	sw	x15,0(x18)
    9a5c:	40000713          	addi	x14,x0,1024
    9a60:	00e4a023          	sw	x14,0(x9)
    9a64:	00001537          	lui	x10,0x1
    9a68:	06412483          	lw	x9,100(x2)
    9a6c:	06012903          	lw	x18,96(x2)
    9a70:	80050513          	addi	x10,x10,-2048 # 800 <global_stdio_init.part.0+0x28>
    9a74:	07010113          	addi	x2,x2,112
    9a78:	00008067          	jalr	x0,0(x1)
    9a7c:	00c45783          	lhu	x15,12(x8)
    9a80:	0807f793          	andi	x15,x15,128
    9a84:	02078863          	beq	x15,x0,9ab4 <__swhatbuf_r+0xb0>
    9a88:	06c12083          	lw	x1,108(x2)
    9a8c:	06812403          	lw	x8,104(x2)
    9a90:	00000793          	addi	x15,x0,0
    9a94:	00f92023          	sw	x15,0(x18)
    9a98:	04000713          	addi	x14,x0,64
    9a9c:	00e4a023          	sw	x14,0(x9)
    9aa0:	06012903          	lw	x18,96(x2)
    9aa4:	06412483          	lw	x9,100(x2)
    9aa8:	00000513          	addi	x10,x0,0
    9aac:	07010113          	addi	x2,x2,112
    9ab0:	00008067          	jalr	x0,0(x1)
    9ab4:	06c12083          	lw	x1,108(x2)
    9ab8:	06812403          	lw	x8,104(x2)
    9abc:	00f92023          	sw	x15,0(x18)
    9ac0:	40000713          	addi	x14,x0,1024
    9ac4:	00e4a023          	sw	x14,0(x9)
    9ac8:	06012903          	lw	x18,96(x2)
    9acc:	06412483          	lw	x9,100(x2)
    9ad0:	00000513          	addi	x10,x0,0
    9ad4:	07010113          	addi	x2,x2,112
    9ad8:	00008067          	jalr	x0,0(x1)

00009adc <__rv_alloc_D2A.part.0>:
    9adc:	ff010113          	addi	x2,x2,-16
    9ae0:	00008697          	auipc	x13,0x8
    9ae4:	fd468693          	addi	x13,x13,-44 # 11ab4 <__clzsi2+0x11c>
    9ae8:	00000613          	addi	x12,x0,0
    9aec:	03900593          	addi	x11,x0,57
    9af0:	00008517          	auipc	x10,0x8
    9af4:	fd850513          	addi	x10,x10,-40 # 11ac8 <__clzsi2+0x130>
    9af8:	00112623          	sw	x1,12(x2)
    9afc:	698000ef          	jal	x1,a194 <__assert_func>

00009b00 <__rv_alloc_D2A>:
    9b00:	ff010113          	addi	x2,x2,-16
    9b04:	00812423          	sw	x8,8(x2)
    9b08:	00112623          	sw	x1,12(x2)
    9b0c:	01700693          	addi	x13,x0,23
    9b10:	00050413          	addi	x8,x10,0
    9b14:	00100713          	addi	x14,x0,1
    9b18:	00400793          	addi	x15,x0,4
    9b1c:	04b6f063          	bgeu	x13,x11,9b5c <__rv_alloc_D2A+0x5c>
    9b20:	00179793          	slli	x15,x15,0x1
    9b24:	01478693          	addi	x13,x15,20
    9b28:	00070613          	addi	x12,x14,0 # ffffe000 <__heap_end+0xffbfe000>
    9b2c:	00170713          	addi	x14,x14,1
    9b30:	fed5f8e3          	bgeu	x11,x13,9b20 <__rv_alloc_D2A+0x20>
    9b34:	00060593          	addi	x11,x12,0
    9b38:	02c42e23          	sw	x12,60(x8)
    9b3c:	00040513          	addi	x10,x8,0
    9b40:	6cc000ef          	jal	x1,a20c <_Balloc>
    9b44:	02050263          	beq	x10,x0,9b68 <__rv_alloc_D2A+0x68>
    9b48:	00c12083          	lw	x1,12(x2)
    9b4c:	02a42c23          	sw	x10,56(x8)
    9b50:	00812403          	lw	x8,8(x2)
    9b54:	01010113          	addi	x2,x2,16
    9b58:	00008067          	jalr	x0,0(x1)
    9b5c:	02052e23          	sw	x0,60(x10)
    9b60:	00000593          	addi	x11,x0,0
    9b64:	fd9ff06f          	jal	x0,9b3c <__rv_alloc_D2A+0x3c>
    9b68:	f75ff0ef          	jal	x1,9adc <__rv_alloc_D2A.part.0>

00009b6c <__nrv_alloc_D2A>:
    9b6c:	ff010113          	addi	x2,x2,-16
    9b70:	00812423          	sw	x8,8(x2)
    9b74:	00912223          	sw	x9,4(x2)
    9b78:	01212023          	sw	x18,0(x2)
    9b7c:	00112623          	sw	x1,12(x2)
    9b80:	01700813          	addi	x16,x0,23
    9b84:	00050493          	addi	x9,x10,0
    9b88:	00058413          	addi	x8,x11,0
    9b8c:	00060913          	addi	x18,x12,0
    9b90:	00100713          	addi	x14,x0,1
    9b94:	00400793          	addi	x15,x0,4
    9b98:	06d87a63          	bgeu	x16,x13,9c0c <__nrv_alloc_D2A+0xa0>
    9b9c:	00179793          	slli	x15,x15,0x1
    9ba0:	01478813          	addi	x16,x15,20
    9ba4:	00070593          	addi	x11,x14,0
    9ba8:	00170713          	addi	x14,x14,1
    9bac:	ff06f8e3          	bgeu	x13,x16,9b9c <__nrv_alloc_D2A+0x30>
    9bb0:	02b4ae23          	sw	x11,60(x9)
    9bb4:	00048513          	addi	x10,x9,0
    9bb8:	654000ef          	jal	x1,a20c <_Balloc>
    9bbc:	06050263          	beq	x10,x0,9c20 <__nrv_alloc_D2A+0xb4>
    9bc0:	02a4ac23          	sw	x10,56(x9)
    9bc4:	00044783          	lbu	x15,0(x8)
    9bc8:	00140593          	addi	x11,x8,1
    9bcc:	00f50023          	sb	x15,0(x10)
    9bd0:	04078463          	beq	x15,x0,9c18 <__nrv_alloc_D2A+0xac>
    9bd4:	00050793          	addi	x15,x10,0
    9bd8:	0005c703          	lbu	x14,0(x11)
    9bdc:	00158593          	addi	x11,x11,1
    9be0:	00178793          	addi	x15,x15,1
    9be4:	00e78023          	sb	x14,0(x15)
    9be8:	fe0718e3          	bne	x14,x0,9bd8 <__nrv_alloc_D2A+0x6c>
    9bec:	00090463          	beq	x18,x0,9bf4 <__nrv_alloc_D2A+0x88>
    9bf0:	00f92023          	sw	x15,0(x18)
    9bf4:	00c12083          	lw	x1,12(x2)
    9bf8:	00812403          	lw	x8,8(x2)
    9bfc:	00412483          	lw	x9,4(x2)
    9c00:	00012903          	lw	x18,0(x2)
    9c04:	01010113          	addi	x2,x2,16
    9c08:	00008067          	jalr	x0,0(x1)
    9c0c:	02052e23          	sw	x0,60(x10)
    9c10:	00000593          	addi	x11,x0,0
    9c14:	fa1ff06f          	jal	x0,9bb4 <__nrv_alloc_D2A+0x48>
    9c18:	00050793          	addi	x15,x10,0
    9c1c:	fd1ff06f          	jal	x0,9bec <__nrv_alloc_D2A+0x80>
    9c20:	ebdff0ef          	jal	x1,9adc <__rv_alloc_D2A.part.0>

00009c24 <__freedtoa>:
    9c24:	03c52683          	lw	x13,60(x10)
    9c28:	00100713          	addi	x14,x0,1
    9c2c:	00d71733          	sll	x14,x14,x13
    9c30:	00e5a423          	sw	x14,8(x11)
    9c34:	00d5a223          	sw	x13,4(x11)
    9c38:	6840006f          	jal	x0,a2bc <_Bfree>

00009c3c <__quorem_D2A>:
    9c3c:	fe010113          	addi	x2,x2,-32
    9c40:	00912a23          	sw	x9,20(x2)
    9c44:	01052783          	lw	x15,16(x10)
    9c48:	0105a483          	lw	x9,16(x11)
    9c4c:	00112e23          	sw	x1,28(x2)
    9c50:	1e97c063          	blt	x15,x9,9e30 <__quorem_D2A+0x1f4>
    9c54:	fff48493          	addi	x9,x9,-1
    9c58:	00249893          	slli	x17,x9,0x2
    9c5c:	00812c23          	sw	x8,24(x2)
    9c60:	01458413          	addi	x8,x11,20
    9c64:	01312623          	sw	x19,12(x2)
    9c68:	01412423          	sw	x20,8(x2)
    9c6c:	011409b3          	add	x19,x8,x17
    9c70:	01450a13          	addi	x20,x10,20
    9c74:	0009a783          	lw	x15,0(x19)
    9c78:	011a08b3          	add	x17,x20,x17
    9c7c:	0008a703          	lw	x14,0(x17)
    9c80:	01212823          	sw	x18,16(x2)
    9c84:	01512223          	sw	x21,4(x2)
    9c88:	00178793          	addi	x15,x15,1
    9c8c:	02f75933          	divu	x18,x14,x15
    9c90:	00050a93          	addi	x21,x10,0
    9c94:	0cf76463          	bltu	x14,x15,9d5c <__quorem_D2A+0x120>
    9c98:	00040813          	addi	x16,x8,0
    9c9c:	000a0513          	addi	x10,x20,0
    9ca0:	00000e93          	addi	x29,x0,0
    9ca4:	00000e13          	addi	x28,x0,0
    9ca8:	00082783          	lw	x15,0(x16)
    9cac:	00052603          	lw	x12,0(x10)
    9cb0:	00450513          	addi	x10,x10,4
    9cb4:	01079693          	slli	x13,x15,0x10
    9cb8:	0106d693          	srli	x13,x13,0x10
    9cbc:	0107d793          	srli	x15,x15,0x10
    9cc0:	01061713          	slli	x14,x12,0x10
    9cc4:	01065313          	srli	x6,x12,0x10
    9cc8:	01075713          	srli	x14,x14,0x10
    9ccc:	00480813          	addi	x16,x16,4
    9cd0:	032686b3          	mul	x13,x13,x18
    9cd4:	032787b3          	mul	x15,x15,x18
    9cd8:	01d686b3          	add	x13,x13,x29
    9cdc:	01069613          	slli	x12,x13,0x10
    9ce0:	01065613          	srli	x12,x12,0x10
    9ce4:	40c70733          	sub	x14,x14,x12
    9ce8:	0106d693          	srli	x13,x13,0x10
    9cec:	41c70733          	sub	x14,x14,x28
    9cf0:	01075613          	srli	x12,x14,0x10
    9cf4:	00167613          	andi	x12,x12,1
    9cf8:	01071713          	slli	x14,x14,0x10
    9cfc:	00d787b3          	add	x15,x15,x13
    9d00:	01079693          	slli	x13,x15,0x10
    9d04:	0106d693          	srli	x13,x13,0x10
    9d08:	00d60633          	add	x12,x12,x13
    9d0c:	40c306b3          	sub	x13,x6,x12
    9d10:	01069613          	slli	x12,x13,0x10
    9d14:	01075713          	srli	x14,x14,0x10
    9d18:	00e66733          	or	x14,x12,x14
    9d1c:	0106d693          	srli	x13,x13,0x10
    9d20:	fee52e23          	sw	x14,-4(x10)
    9d24:	0107de93          	srli	x29,x15,0x10
    9d28:	0016fe13          	andi	x28,x13,1
    9d2c:	f709fee3          	bgeu	x19,x16,9ca8 <__quorem_D2A+0x6c>
    9d30:	0008a783          	lw	x15,0(x17)
    9d34:	02079463          	bne	x15,x0,9d5c <__quorem_D2A+0x120>
    9d38:	ffc88893          	addi	x17,x17,-4
    9d3c:	011a6863          	bltu	x20,x17,9d4c <__quorem_D2A+0x110>
    9d40:	0180006f          	jal	x0,9d58 <__quorem_D2A+0x11c>
    9d44:	fff48493          	addi	x9,x9,-1
    9d48:	011a7863          	bgeu	x20,x17,9d58 <__quorem_D2A+0x11c>
    9d4c:	0008a783          	lw	x15,0(x17)
    9d50:	ffc88893          	addi	x17,x17,-4
    9d54:	fe0788e3          	beq	x15,x0,9d44 <__quorem_D2A+0x108>
    9d58:	009aa823          	sw	x9,16(x21)
    9d5c:	000a8513          	addi	x10,x21,0
    9d60:	719000ef          	jal	x1,ac78 <__mcmp>
    9d64:	0a054263          	blt	x10,x0,9e08 <__quorem_D2A+0x1cc>
    9d68:	000a0593          	addi	x11,x20,0
    9d6c:	00000693          	addi	x13,x0,0
    9d70:	0005a783          	lw	x15,0(x11)
    9d74:	00042603          	lw	x12,0(x8)
    9d78:	00458593          	addi	x11,x11,4
    9d7c:	01079713          	slli	x14,x15,0x10
    9d80:	01061513          	slli	x10,x12,0x10
    9d84:	01055513          	srli	x10,x10,0x10
    9d88:	01075713          	srli	x14,x14,0x10
    9d8c:	40a70733          	sub	x14,x14,x10
    9d90:	40d70733          	sub	x14,x14,x13
    9d94:	01075693          	srli	x13,x14,0x10
    9d98:	01065613          	srli	x12,x12,0x10
    9d9c:	0016f693          	andi	x13,x13,1
    9da0:	00c686b3          	add	x13,x13,x12
    9da4:	0107d793          	srli	x15,x15,0x10
    9da8:	40d787b3          	sub	x15,x15,x13
    9dac:	01071713          	slli	x14,x14,0x10
    9db0:	01079693          	slli	x13,x15,0x10
    9db4:	01075713          	srli	x14,x14,0x10
    9db8:	00e6e733          	or	x14,x13,x14
    9dbc:	00440413          	addi	x8,x8,4
    9dc0:	0107d793          	srli	x15,x15,0x10
    9dc4:	fee5ae23          	sw	x14,-4(x11)
    9dc8:	0017f693          	andi	x13,x15,1
    9dcc:	fa89f2e3          	bgeu	x19,x8,9d70 <__quorem_D2A+0x134>
    9dd0:	00249793          	slli	x15,x9,0x2
    9dd4:	00fa07b3          	add	x15,x20,x15
    9dd8:	0007a703          	lw	x14,0(x15)
    9ddc:	02071463          	bne	x14,x0,9e04 <__quorem_D2A+0x1c8>
    9de0:	ffc78793          	addi	x15,x15,-4
    9de4:	00fa6863          	bltu	x20,x15,9df4 <__quorem_D2A+0x1b8>
    9de8:	0180006f          	jal	x0,9e00 <__quorem_D2A+0x1c4>
    9dec:	fff48493          	addi	x9,x9,-1
    9df0:	00fa7863          	bgeu	x20,x15,9e00 <__quorem_D2A+0x1c4>
    9df4:	0007a703          	lw	x14,0(x15)
    9df8:	ffc78793          	addi	x15,x15,-4
    9dfc:	fe0708e3          	beq	x14,x0,9dec <__quorem_D2A+0x1b0>
    9e00:	009aa823          	sw	x9,16(x21)
    9e04:	00190913          	addi	x18,x18,1
    9e08:	01812403          	lw	x8,24(x2)
    9e0c:	01c12083          	lw	x1,28(x2)
    9e10:	00c12983          	lw	x19,12(x2)
    9e14:	00812a03          	lw	x20,8(x2)
    9e18:	00412a83          	lw	x21,4(x2)
    9e1c:	01412483          	lw	x9,20(x2)
    9e20:	00090513          	addi	x10,x18,0
    9e24:	01012903          	lw	x18,16(x2)
    9e28:	02010113          	addi	x2,x2,32
    9e2c:	00008067          	jalr	x0,0(x1)
    9e30:	01c12083          	lw	x1,28(x2)
    9e34:	01412483          	lw	x9,20(x2)
    9e38:	00000513          	addi	x10,x0,0
    9e3c:	02010113          	addi	x2,x2,32
    9e40:	00008067          	jalr	x0,0(x1)

00009e44 <__fputwc>:
    9e44:	fe010113          	addi	x2,x2,-32
    9e48:	00812c23          	sw	x8,24(x2)
    9e4c:	00912a23          	sw	x9,20(x2)
    9e50:	01212823          	sw	x18,16(x2)
    9e54:	00112e23          	sw	x1,28(x2)
    9e58:	00050913          	addi	x18,x10,0
    9e5c:	00058493          	addi	x9,x11,0
    9e60:	00060413          	addi	x8,x12,0
    9e64:	135010ef          	jal	x1,b798 <__locale_mb_cur_max>
    9e68:	00100793          	addi	x15,x0,1
    9e6c:	06f51263          	bne	x10,x15,9ed0 <__fputwc+0x8c>
    9e70:	fff48793          	addi	x15,x9,-1
    9e74:	0fe00713          	addi	x14,x0,254
    9e78:	04f76c63          	bltu	x14,x15,9ed0 <__fputwc+0x8c>
    9e7c:	00842783          	lw	x15,8(x8)
    9e80:	00910623          	sb	x9,12(x2)
    9e84:	00c14583          	lbu	x11,12(x2)
    9e88:	fff78793          	addi	x15,x15,-1
    9e8c:	00f42423          	sw	x15,8(x8)
    9e90:	0007da63          	bge	x15,x0,9ea4 <__fputwc+0x60>
    9e94:	01842703          	lw	x14,24(x8)
    9e98:	08e7c063          	blt	x15,x14,9f18 <__fputwc+0xd4>
    9e9c:	00a00793          	addi	x15,x0,10
    9ea0:	06f58c63          	beq	x11,x15,9f18 <__fputwc+0xd4>
    9ea4:	00042783          	lw	x15,0(x8)
    9ea8:	00178713          	addi	x14,x15,1
    9eac:	00e42023          	sw	x14,0(x8)
    9eb0:	00b78023          	sb	x11,0(x15)
    9eb4:	01c12083          	lw	x1,28(x2)
    9eb8:	01812403          	lw	x8,24(x2)
    9ebc:	01012903          	lw	x18,16(x2)
    9ec0:	00048513          	addi	x10,x9,0
    9ec4:	01412483          	lw	x9,20(x2)
    9ec8:	02010113          	addi	x2,x2,32
    9ecc:	00008067          	jalr	x0,0(x1)
    9ed0:	05c40693          	addi	x13,x8,92
    9ed4:	00048613          	addi	x12,x9,0
    9ed8:	00c10593          	addi	x11,x2,12
    9edc:	00090513          	addi	x10,x18,0
    9ee0:	73c010ef          	jal	x1,b61c <_wcrtomb_r>
    9ee4:	fff00793          	addi	x15,x0,-1
    9ee8:	06f50063          	beq	x10,x15,9f48 <__fputwc+0x104>
    9eec:	fc0504e3          	beq	x10,x0,9eb4 <__fputwc+0x70>
    9ef0:	00842783          	lw	x15,8(x8)
    9ef4:	00c14583          	lbu	x11,12(x2)
    9ef8:	fff78793          	addi	x15,x15,-1
    9efc:	00f42423          	sw	x15,8(x8)
    9f00:	f807cae3          	blt	x15,x0,9e94 <__fputwc+0x50>
    9f04:	00042783          	lw	x15,0(x8)
    9f08:	00178713          	addi	x14,x15,1
    9f0c:	00e42023          	sw	x14,0(x8)
    9f10:	00b78023          	sb	x11,0(x15)
    9f14:	fa1ff06f          	jal	x0,9eb4 <__fputwc+0x70>
    9f18:	00040613          	addi	x12,x8,0
    9f1c:	00090513          	addi	x10,x18,0
    9f20:	339010ef          	jal	x1,ba58 <__swbuf_r>
    9f24:	fff00793          	addi	x15,x0,-1
    9f28:	f8f516e3          	bne	x10,x15,9eb4 <__fputwc+0x70>
    9f2c:	fff00513          	addi	x10,x0,-1
    9f30:	01c12083          	lw	x1,28(x2)
    9f34:	01812403          	lw	x8,24(x2)
    9f38:	01412483          	lw	x9,20(x2)
    9f3c:	01012903          	lw	x18,16(x2)
    9f40:	02010113          	addi	x2,x2,32
    9f44:	00008067          	jalr	x0,0(x1)
    9f48:	00c45783          	lhu	x15,12(x8)
    9f4c:	fff00513          	addi	x10,x0,-1
    9f50:	0407e793          	ori	x15,x15,64
    9f54:	00f41623          	sh	x15,12(x8)
    9f58:	fd9ff06f          	jal	x0,9f30 <__fputwc+0xec>

00009f5c <_fputwc_r>:
    9f5c:	00c61783          	lh	x15,12(x12)
    9f60:	000026b7          	lui	x13,0x2
    9f64:	01279713          	slli	x14,x15,0x12
    9f68:	00074c63          	blt	x14,x0,9f80 <_fputwc_r+0x24>
    9f6c:	06462703          	lw	x14,100(x12)
    9f70:	00d7e7b3          	or	x15,x15,x13
    9f74:	00f61623          	sh	x15,12(x12)
    9f78:	00d767b3          	or	x15,x14,x13
    9f7c:	06f62223          	sw	x15,100(x12)
    9f80:	ec5ff06f          	jal	x0,9e44 <__fputwc>

00009f84 <fputwc>:
    9f84:	fe010113          	addi	x2,x2,-32
    9f88:	00812c23          	sw	x8,24(x2)
    9f8c:	00112e23          	sw	x1,28(x2)
    9f90:	f141a403          	lw	x8,-236(x3) # 12bb4 <_impure_ptr>
    9f94:	00058613          	addi	x12,x11,0
    9f98:	00050593          	addi	x11,x10,0
    9f9c:	00040663          	beq	x8,x0,9fa8 <fputwc+0x24>
    9fa0:	03442783          	lw	x15,52(x8)
    9fa4:	02078e63          	beq	x15,x0,9fe0 <fputwc+0x5c>
    9fa8:	00c61783          	lh	x15,12(x12)
    9fac:	000026b7          	lui	x13,0x2
    9fb0:	01279713          	slli	x14,x15,0x12
    9fb4:	00074c63          	blt	x14,x0,9fcc <fputwc+0x48>
    9fb8:	06462703          	lw	x14,100(x12)
    9fbc:	00d7e7b3          	or	x15,x15,x13
    9fc0:	00f61623          	sh	x15,12(x12)
    9fc4:	00d767b3          	or	x15,x14,x13
    9fc8:	06f62223          	sw	x15,100(x12)
    9fcc:	00040513          	addi	x10,x8,0
    9fd0:	01812403          	lw	x8,24(x2)
    9fd4:	01c12083          	lw	x1,28(x2)
    9fd8:	02010113          	addi	x2,x2,32
    9fdc:	e69ff06f          	jal	x0,9e44 <__fputwc>
    9fe0:	00a12423          	sw	x10,8(x2)
    9fe4:	00040513          	addi	x10,x8,0
    9fe8:	00c12623          	sw	x12,12(x2)
    9fec:	a69f60ef          	jal	x1,a54 <__sinit>
    9ff0:	00c12603          	lw	x12,12(x2)
    9ff4:	00812583          	lw	x11,8(x2)
    9ff8:	fb1ff06f          	jal	x0,9fa8 <fputwc+0x24>

00009ffc <frexpl>:
    9ffc:	f9010113          	addi	x2,x2,-112
    a000:	07212023          	sw	x18,96(x2)
    a004:	00c5a903          	lw	x18,12(x11)
    a008:	05412c23          	sw	x20,88(x2)
    a00c:	05512a23          	sw	x21,84(x2)
    a010:	05612823          	sw	x22,80(x2)
    a014:	0045aa83          	lw	x21,4(x11)
    a018:	0005ab03          	lw	x22,0(x11)
    a01c:	0085aa03          	lw	x20,8(x11)
    a020:	05312e23          	sw	x19,92(x2)
    a024:	000089b7          	lui	x19,0x8
    a028:	06812423          	sw	x8,104(x2)
    a02c:	06912223          	sw	x9,100(x2)
    a030:	06112623          	sw	x1,108(x2)
    a034:	01095493          	srli	x9,x18,0x10
    a038:	fff98993          	addi	x19,x19,-1 # 7fff <__gdtoa+0xa6b>
    a03c:	00062023          	sw	x0,0(x12)
    a040:	03212e23          	sw	x18,60(x2)
    a044:	0134f4b3          	and	x9,x9,x19
    a048:	03612823          	sw	x22,48(x2)
    a04c:	03512a23          	sw	x21,52(x2)
    a050:	03412c23          	sw	x20,56(x2)
    a054:	00050413          	addi	x8,x10,0
    a058:	09348063          	beq	x9,x19,a0d8 <frexpl+0xdc>
    a05c:	02010513          	addi	x10,x2,32
    a060:	01010593          	addi	x11,x2,16
    a064:	05712623          	sw	x23,76(x2)
    a068:	03612023          	sw	x22,32(x2)
    a06c:	00060b93          	addi	x23,x12,0
    a070:	03512223          	sw	x21,36(x2)
    a074:	03412423          	sw	x20,40(x2)
    a078:	03212623          	sw	x18,44(x2)
    a07c:	00012823          	sw	x0,16(x2)
    a080:	00012a23          	sw	x0,20(x2)
    a084:	00012c23          	sw	x0,24(x2)
    a088:	00012e23          	sw	x0,28(x2)
    a08c:	7a0040ef          	jal	x1,e82c <__eqtf2>
    a090:	0e050e63          	beq	x10,x0,a18c <frexpl+0x190>
    a094:	00000693          	addi	x13,x0,0
    a098:	06048e63          	beq	x9,x0,a114 <frexpl+0x118>
    a09c:	ffffc737          	lui	x14,0xffffc
    a0a0:	00270713          	addi	x14,x14,2 # ffffc002 <__heap_end+0xffbfc002>
    a0a4:	03c12903          	lw	x18,60(x2)
    a0a8:	00e484b3          	add	x9,x9,x14
    a0ac:	800107b7          	lui	x15,0x80010
    a0b0:	00d484b3          	add	x9,x9,x13
    a0b4:	fff78793          	addi	x15,x15,-1 # 8000ffff <__heap_end+0x7fc0ffff>
    a0b8:	009ba023          	sw	x9,0(x23)
    a0bc:	03012b03          	lw	x22,48(x2)
    a0c0:	03412a83          	lw	x21,52(x2)
    a0c4:	03812a03          	lw	x20,56(x2)
    a0c8:	04c12b83          	lw	x23,76(x2)
    a0cc:	00f97933          	and	x18,x18,x15
    a0d0:	3ffe07b7          	lui	x15,0x3ffe0
    a0d4:	00f96933          	or	x18,x18,x15
    a0d8:	01642023          	sw	x22,0(x8)
    a0dc:	01542223          	sw	x21,4(x8)
    a0e0:	01442423          	sw	x20,8(x8)
    a0e4:	01242623          	sw	x18,12(x8)
    a0e8:	06c12083          	lw	x1,108(x2)
    a0ec:	00040513          	addi	x10,x8,0
    a0f0:	06812403          	lw	x8,104(x2)
    a0f4:	06412483          	lw	x9,100(x2)
    a0f8:	06012903          	lw	x18,96(x2)
    a0fc:	05c12983          	lw	x19,92(x2)
    a100:	05812a03          	lw	x20,88(x2)
    a104:	05412a83          	lw	x21,84(x2)
    a108:	05012b03          	lw	x22,80(x2)
    a10c:	07010113          	addi	x2,x2,112
    a110:	00008067          	jalr	x0,0(x1)
    a114:	00008797          	auipc	x15,0x8
    a118:	e6c78793          	addi	x15,x15,-404 # 11f80 <zeroes.0+0x64>
    a11c:	0007a603          	lw	x12,0(x15)
    a120:	0047a683          	lw	x13,4(x15)
    a124:	0087a703          	lw	x14,8(x15)
    a128:	00c7a783          	lw	x15,12(x15)
    a12c:	00c12023          	sw	x12,0(x2)
    a130:	01010593          	addi	x11,x2,16
    a134:	00010613          	addi	x12,x2,0
    a138:	02010513          	addi	x10,x2,32
    a13c:	00d12223          	sw	x13,4(x2)
    a140:	00e12423          	sw	x14,8(x2)
    a144:	00f12623          	sw	x15,12(x2)
    a148:	01612823          	sw	x22,16(x2)
    a14c:	01512a23          	sw	x21,20(x2)
    a150:	01412c23          	sw	x20,24(x2)
    a154:	01212e23          	sw	x18,28(x2)
    a158:	26d040ef          	jal	x1,ebc4 <__multf3>
    a15c:	02c12783          	lw	x15,44(x2)
    a160:	02412683          	lw	x13,36(x2)
    a164:	02012603          	lw	x12,32(x2)
    a168:	02812703          	lw	x14,40(x2)
    a16c:	0107d493          	srli	x9,x15,0x10
    a170:	02d12a23          	sw	x13,52(x2)
    a174:	02c12823          	sw	x12,48(x2)
    a178:	02e12c23          	sw	x14,56(x2)
    a17c:	02f12e23          	sw	x15,60(x2)
    a180:	0134f4b3          	and	x9,x9,x19
    a184:	f8e00693          	addi	x13,x0,-114
    a188:	f15ff06f          	jal	x0,a09c <frexpl+0xa0>
    a18c:	04c12b83          	lw	x23,76(x2)
    a190:	f49ff06f          	jal	x0,a0d8 <frexpl+0xdc>

0000a194 <__assert_func>:
    a194:	ff010113          	addi	x2,x2,-16
    a198:	f141a783          	lw	x15,-236(x3) # 12bb4 <_impure_ptr>
    a19c:	00060813          	addi	x16,x12,0
    a1a0:	00112623          	sw	x1,12(x2)
    a1a4:	00068613          	addi	x12,x13,0 # 2000 <memmove+0xb4>
    a1a8:	00058713          	addi	x14,x11,0
    a1ac:	00050693          	addi	x13,x10,0
    a1b0:	00c7a503          	lw	x10,12(x15)
    a1b4:	00008797          	auipc	x15,0x8
    a1b8:	95078793          	addi	x15,x15,-1712 # 11b04 <__clzsi2+0x16c>
    a1bc:	00080a63          	beq	x16,x0,a1d0 <__assert_func+0x3c>
    a1c0:	00008597          	auipc	x11,0x8
    a1c4:	95458593          	addi	x11,x11,-1708 # 11b14 <__clzsi2+0x17c>
    a1c8:	00d010ef          	jal	x1,b9d4 <fiprintf>
    a1cc:	650010ef          	jal	x1,b81c <abort>
    a1d0:	00008797          	auipc	x15,0x8
    a1d4:	94078793          	addi	x15,x15,-1728 # 11b10 <__clzsi2+0x178>
    a1d8:	00078813          	addi	x16,x15,0
    a1dc:	fe5ff06f          	jal	x0,a1c0 <__assert_func+0x2c>

0000a1e0 <__assert>:
    a1e0:	ff010113          	addi	x2,x2,-16
    a1e4:	00060693          	addi	x13,x12,0
    a1e8:	00000613          	addi	x12,x0,0
    a1ec:	00112623          	sw	x1,12(x2)
    a1f0:	fa5ff0ef          	jal	x1,a194 <__assert_func>

0000a1f4 <__localeconv_l>:
    a1f4:	0f050513          	addi	x10,x10,240
    a1f8:	00008067          	jalr	x0,0(x1)

0000a1fc <_localeconv_r>:
    a1fc:	e2818513          	addi	x10,x3,-472 # 12ac8 <__global_locale+0xf0>
    a200:	00008067          	jalr	x0,0(x1)

0000a204 <localeconv>:
    a204:	e2818513          	addi	x10,x3,-472 # 12ac8 <__global_locale+0xf0>
    a208:	00008067          	jalr	x0,0(x1)

0000a20c <_Balloc>:
    a20c:	04452783          	lw	x15,68(x10)
    a210:	ff010113          	addi	x2,x2,-16
    a214:	00812423          	sw	x8,8(x2)
    a218:	00912223          	sw	x9,4(x2)
    a21c:	00112623          	sw	x1,12(x2)
    a220:	00050413          	addi	x8,x10,0
    a224:	00058493          	addi	x9,x11,0
    a228:	02078c63          	beq	x15,x0,a260 <_Balloc+0x54>
    a22c:	00249713          	slli	x14,x9,0x2
    a230:	00e787b3          	add	x15,x15,x14
    a234:	0007a503          	lw	x10,0(x15)
    a238:	04050463          	beq	x10,x0,a280 <_Balloc+0x74>
    a23c:	00052703          	lw	x14,0(x10)
    a240:	00e7a023          	sw	x14,0(x15)
    a244:	00052823          	sw	x0,16(x10)
    a248:	00052623          	sw	x0,12(x10)
    a24c:	00c12083          	lw	x1,12(x2)
    a250:	00812403          	lw	x8,8(x2)
    a254:	00412483          	lw	x9,4(x2)
    a258:	01010113          	addi	x2,x2,16
    a25c:	00008067          	jalr	x0,0(x1)
    a260:	02100613          	addi	x12,x0,33
    a264:	00400593          	addi	x11,x0,4
    a268:	5cc010ef          	jal	x1,b834 <_calloc_r>
    a26c:	04a42223          	sw	x10,68(x8)
    a270:	00050793          	addi	x15,x10,0
    a274:	fa051ce3          	bne	x10,x0,a22c <_Balloc+0x20>
    a278:	00000513          	addi	x10,x0,0
    a27c:	fd1ff06f          	jal	x0,a24c <_Balloc+0x40>
    a280:	00100593          	addi	x11,x0,1
    a284:	01212023          	sw	x18,0(x2)
    a288:	00959933          	sll	x18,x11,x9
    a28c:	00590613          	addi	x12,x18,5
    a290:	00040513          	addi	x10,x8,0
    a294:	00261613          	slli	x12,x12,0x2
    a298:	59c010ef          	jal	x1,b834 <_calloc_r>
    a29c:	00050a63          	beq	x10,x0,a2b0 <_Balloc+0xa4>
    a2a0:	01252423          	sw	x18,8(x10)
    a2a4:	00952223          	sw	x9,4(x10)
    a2a8:	00012903          	lw	x18,0(x2)
    a2ac:	f99ff06f          	jal	x0,a244 <_Balloc+0x38>
    a2b0:	00012903          	lw	x18,0(x2)
    a2b4:	00000513          	addi	x10,x0,0
    a2b8:	f95ff06f          	jal	x0,a24c <_Balloc+0x40>

0000a2bc <_Bfree>:
    a2bc:	02058063          	beq	x11,x0,a2dc <_Bfree+0x20>
    a2c0:	0045a703          	lw	x14,4(x11)
    a2c4:	04452783          	lw	x15,68(x10)
    a2c8:	00271713          	slli	x14,x14,0x2
    a2cc:	00e787b3          	add	x15,x15,x14
    a2d0:	0007a703          	lw	x14,0(x15)
    a2d4:	00e5a023          	sw	x14,0(x11)
    a2d8:	00b7a023          	sw	x11,0(x15)
    a2dc:	00008067          	jalr	x0,0(x1)

0000a2e0 <__multadd>:
    a2e0:	fe010113          	addi	x2,x2,-32
    a2e4:	00912a23          	sw	x9,20(x2)
    a2e8:	0105a483          	lw	x9,16(x11)
    a2ec:	00812c23          	sw	x8,24(x2)
    a2f0:	01212823          	sw	x18,16(x2)
    a2f4:	01312623          	sw	x19,12(x2)
    a2f8:	00112e23          	sw	x1,28(x2)
    a2fc:	00058913          	addi	x18,x11,0
    a300:	00050993          	addi	x19,x10,0
    a304:	00068413          	addi	x8,x13,0
    a308:	01458813          	addi	x16,x11,20
    a30c:	00000893          	addi	x17,x0,0
    a310:	00082783          	lw	x15,0(x16)
    a314:	00480813          	addi	x16,x16,4
    a318:	00188893          	addi	x17,x17,1
    a31c:	01079713          	slli	x14,x15,0x10
    a320:	01075713          	srli	x14,x14,0x10
    a324:	02c70733          	mul	x14,x14,x12
    a328:	0107d693          	srli	x13,x15,0x10
    a32c:	02c686b3          	mul	x13,x13,x12
    a330:	008707b3          	add	x15,x14,x8
    a334:	0107d713          	srli	x14,x15,0x10
    a338:	01079793          	slli	x15,x15,0x10
    a33c:	0107d793          	srli	x15,x15,0x10
    a340:	00e686b3          	add	x13,x13,x14
    a344:	01069713          	slli	x14,x13,0x10
    a348:	00f707b3          	add	x15,x14,x15
    a34c:	fef82e23          	sw	x15,-4(x16)
    a350:	0106d413          	srli	x8,x13,0x10
    a354:	fa98cee3          	blt	x17,x9,a310 <__multadd+0x30>
    a358:	02040263          	beq	x8,x0,a37c <__multadd+0x9c>
    a35c:	00892783          	lw	x15,8(x18)
    a360:	02f4de63          	bge	x9,x15,a39c <__multadd+0xbc>
    a364:	00448713          	addi	x14,x9,4
    a368:	00271713          	slli	x14,x14,0x2
    a36c:	00e90733          	add	x14,x18,x14
    a370:	00872223          	sw	x8,4(x14)
    a374:	00148793          	addi	x15,x9,1
    a378:	00f92823          	sw	x15,16(x18)
    a37c:	01c12083          	lw	x1,28(x2)
    a380:	01812403          	lw	x8,24(x2)
    a384:	01412483          	lw	x9,20(x2)
    a388:	00c12983          	lw	x19,12(x2)
    a38c:	00090513          	addi	x10,x18,0
    a390:	01012903          	lw	x18,16(x2)
    a394:	02010113          	addi	x2,x2,32
    a398:	00008067          	jalr	x0,0(x1)
    a39c:	00492583          	lw	x11,4(x18)
    a3a0:	00098513          	addi	x10,x19,0
    a3a4:	01412423          	sw	x20,8(x2)
    a3a8:	00158593          	addi	x11,x11,1
    a3ac:	e61ff0ef          	jal	x1,a20c <_Balloc>
    a3b0:	00050a13          	addi	x20,x10,0
    a3b4:	04050e63          	beq	x10,x0,a410 <__multadd+0x130>
    a3b8:	01092603          	lw	x12,16(x18)
    a3bc:	00c90593          	addi	x11,x18,12
    a3c0:	00c50513          	addi	x10,x10,12
    a3c4:	00260613          	addi	x12,x12,2
    a3c8:	00261613          	slli	x12,x12,0x2
    a3cc:	991f70ef          	jal	x1,1d5c <memcpy>
    a3d0:	00492703          	lw	x14,4(x18)
    a3d4:	0449a783          	lw	x15,68(x19)
    a3d8:	00271713          	slli	x14,x14,0x2
    a3dc:	00e787b3          	add	x15,x15,x14
    a3e0:	0007a703          	lw	x14,0(x15)
    a3e4:	00e92023          	sw	x14,0(x18)
    a3e8:	00448713          	addi	x14,x9,4
    a3ec:	0127a023          	sw	x18,0(x15)
    a3f0:	00271713          	slli	x14,x14,0x2
    a3f4:	000a0913          	addi	x18,x20,0
    a3f8:	00e90733          	add	x14,x18,x14
    a3fc:	00812a03          	lw	x20,8(x2)
    a400:	00148793          	addi	x15,x9,1
    a404:	00872223          	sw	x8,4(x14)
    a408:	00f92823          	sw	x15,16(x18)
    a40c:	f71ff06f          	jal	x0,a37c <__multadd+0x9c>
    a410:	00007697          	auipc	x13,0x7
    a414:	6a468693          	addi	x13,x13,1700 # 11ab4 <__clzsi2+0x11c>
    a418:	00000613          	addi	x12,x0,0
    a41c:	0ba00593          	addi	x11,x0,186
    a420:	00007517          	auipc	x10,0x7
    a424:	72450513          	addi	x10,x10,1828 # 11b44 <__clzsi2+0x1ac>
    a428:	d6dff0ef          	jal	x1,a194 <__assert_func>

0000a42c <__s2b>:
    a42c:	fe010113          	addi	x2,x2,-32
    a430:	00812c23          	sw	x8,24(x2)
    a434:	00912a23          	sw	x9,20(x2)
    a438:	01212823          	sw	x18,16(x2)
    a43c:	01312623          	sw	x19,12(x2)
    a440:	01412423          	sw	x20,8(x2)
    a444:	00068993          	addi	x19,x13,0
    a448:	00900793          	addi	x15,x0,9
    a44c:	00868693          	addi	x13,x13,8
    a450:	00112e23          	sw	x1,28(x2)
    a454:	02f6c6b3          	div	x13,x13,x15
    a458:	00050913          	addi	x18,x10,0
    a45c:	00058413          	addi	x8,x11,0
    a460:	00060a13          	addi	x20,x12,0
    a464:	00070493          	addi	x9,x14,0
    a468:	0f37d263          	bge	x15,x19,a54c <__s2b+0x120>
    a46c:	00100793          	addi	x15,x0,1
    a470:	00000593          	addi	x11,x0,0
    a474:	00179793          	slli	x15,x15,0x1
    a478:	00158593          	addi	x11,x11,1
    a47c:	fed7cce3          	blt	x15,x13,a474 <__s2b+0x48>
    a480:	00090513          	addi	x10,x18,0
    a484:	d89ff0ef          	jal	x1,a20c <_Balloc>
    a488:	00050593          	addi	x11,x10,0
    a48c:	0c050463          	beq	x10,x0,a554 <__s2b+0x128>
    a490:	00100793          	addi	x15,x0,1
    a494:	00f52823          	sw	x15,16(x10)
    a498:	00952a23          	sw	x9,20(x10)
    a49c:	00900793          	addi	x15,x0,9
    a4a0:	0b47d063          	bge	x15,x20,a540 <__s2b+0x114>
    a4a4:	01612023          	sw	x22,0(x2)
    a4a8:	00f40b33          	add	x22,x8,x15
    a4ac:	01512223          	sw	x21,4(x2)
    a4b0:	01440433          	add	x8,x8,x20
    a4b4:	000b0493          	addi	x9,x22,0
    a4b8:	00a00a93          	addi	x21,x0,10
    a4bc:	0004c683          	lbu	x13,0(x9)
    a4c0:	000a8613          	addi	x12,x21,0
    a4c4:	00090513          	addi	x10,x18,0
    a4c8:	fd068693          	addi	x13,x13,-48
    a4cc:	00148493          	addi	x9,x9,1
    a4d0:	e11ff0ef          	jal	x1,a2e0 <__multadd>
    a4d4:	00050593          	addi	x11,x10,0
    a4d8:	fe8492e3          	bne	x9,x8,a4bc <__s2b+0x90>
    a4dc:	ff8a0413          	addi	x8,x20,-8
    a4e0:	008b0433          	add	x8,x22,x8
    a4e4:	00412a83          	lw	x21,4(x2)
    a4e8:	00012b03          	lw	x22,0(x2)
    a4ec:	033a5863          	bge	x20,x19,a51c <__s2b+0xf0>
    a4f0:	414989b3          	sub	x19,x19,x20
    a4f4:	013409b3          	add	x19,x8,x19
    a4f8:	00a00493          	addi	x9,x0,10
    a4fc:	00044683          	lbu	x13,0(x8)
    a500:	00048613          	addi	x12,x9,0
    a504:	00090513          	addi	x10,x18,0
    a508:	fd068693          	addi	x13,x13,-48
    a50c:	00140413          	addi	x8,x8,1
    a510:	dd1ff0ef          	jal	x1,a2e0 <__multadd>
    a514:	00050593          	addi	x11,x10,0
    a518:	ff3412e3          	bne	x8,x19,a4fc <__s2b+0xd0>
    a51c:	01c12083          	lw	x1,28(x2)
    a520:	01812403          	lw	x8,24(x2)
    a524:	01412483          	lw	x9,20(x2)
    a528:	01012903          	lw	x18,16(x2)
    a52c:	00c12983          	lw	x19,12(x2)
    a530:	00812a03          	lw	x20,8(x2)
    a534:	00058513          	addi	x10,x11,0
    a538:	02010113          	addi	x2,x2,32
    a53c:	00008067          	jalr	x0,0(x1)
    a540:	00a40413          	addi	x8,x8,10
    a544:	00078a13          	addi	x20,x15,0
    a548:	fa5ff06f          	jal	x0,a4ec <__s2b+0xc0>
    a54c:	00000593          	addi	x11,x0,0
    a550:	f31ff06f          	jal	x0,a480 <__s2b+0x54>
    a554:	00007697          	auipc	x13,0x7
    a558:	56068693          	addi	x13,x13,1376 # 11ab4 <__clzsi2+0x11c>
    a55c:	00000613          	addi	x12,x0,0
    a560:	0d300593          	addi	x11,x0,211
    a564:	00007517          	auipc	x10,0x7
    a568:	5e050513          	addi	x10,x10,1504 # 11b44 <__clzsi2+0x1ac>
    a56c:	01512223          	sw	x21,4(x2)
    a570:	01612023          	sw	x22,0(x2)
    a574:	c21ff0ef          	jal	x1,a194 <__assert_func>

0000a578 <__hi0bits>:
    a578:	00050793          	addi	x15,x10,0
    a57c:	00010737          	lui	x14,0x10
    a580:	00000513          	addi	x10,x0,0
    a584:	00e7f663          	bgeu	x15,x14,a590 <__hi0bits+0x18>
    a588:	01079793          	slli	x15,x15,0x10
    a58c:	01000513          	addi	x10,x0,16
    a590:	01000737          	lui	x14,0x1000
    a594:	00e7f663          	bgeu	x15,x14,a5a0 <__hi0bits+0x28>
    a598:	00850513          	addi	x10,x10,8
    a59c:	00879793          	slli	x15,x15,0x8
    a5a0:	10000737          	lui	x14,0x10000
    a5a4:	00e7f663          	bgeu	x15,x14,a5b0 <__hi0bits+0x38>
    a5a8:	00450513          	addi	x10,x10,4
    a5ac:	00479793          	slli	x15,x15,0x4
    a5b0:	40000737          	lui	x14,0x40000
    a5b4:	00e7ea63          	bltu	x15,x14,a5c8 <__hi0bits+0x50>
    a5b8:	fff7c793          	xori	x15,x15,-1
    a5bc:	01f7d793          	srli	x15,x15,0x1f
    a5c0:	00f50533          	add	x10,x10,x15
    a5c4:	00008067          	jalr	x0,0(x1)
    a5c8:	00279793          	slli	x15,x15,0x2
    a5cc:	0007ca63          	blt	x15,x0,a5e0 <__hi0bits+0x68>
    a5d0:	00179713          	slli	x14,x15,0x1
    a5d4:	00075a63          	bge	x14,x0,a5e8 <__hi0bits+0x70>
    a5d8:	00350513          	addi	x10,x10,3
    a5dc:	00008067          	jalr	x0,0(x1)
    a5e0:	00250513          	addi	x10,x10,2
    a5e4:	00008067          	jalr	x0,0(x1)
    a5e8:	02000513          	addi	x10,x0,32
    a5ec:	00008067          	jalr	x0,0(x1)

0000a5f0 <__lo0bits>:
    a5f0:	00052783          	lw	x15,0(x10)
    a5f4:	00050713          	addi	x14,x10,0
    a5f8:	0077f693          	andi	x13,x15,7
    a5fc:	02068463          	beq	x13,x0,a624 <__lo0bits+0x34>
    a600:	0017f693          	andi	x13,x15,1
    a604:	00000513          	addi	x10,x0,0
    a608:	06069e63          	bne	x13,x0,a684 <__lo0bits+0x94>
    a60c:	0027f693          	andi	x13,x15,2
    a610:	08068063          	beq	x13,x0,a690 <__lo0bits+0xa0>
    a614:	0017d793          	srli	x15,x15,0x1
    a618:	00f72023          	sw	x15,0(x14) # 40000000 <__heap_end+0x3fc00000>
    a61c:	00100513          	addi	x10,x0,1
    a620:	00008067          	jalr	x0,0(x1)
    a624:	01079693          	slli	x13,x15,0x10
    a628:	0106d693          	srli	x13,x13,0x10
    a62c:	00000513          	addi	x10,x0,0
    a630:	00069663          	bne	x13,x0,a63c <__lo0bits+0x4c>
    a634:	0107d793          	srli	x15,x15,0x10
    a638:	01000513          	addi	x10,x0,16
    a63c:	0ff7f693          	andi	x13,x15,255
    a640:	00069663          	bne	x13,x0,a64c <__lo0bits+0x5c>
    a644:	00850513          	addi	x10,x10,8
    a648:	0087d793          	srli	x15,x15,0x8
    a64c:	00f7f693          	andi	x13,x15,15
    a650:	00069663          	bne	x13,x0,a65c <__lo0bits+0x6c>
    a654:	00450513          	addi	x10,x10,4
    a658:	0047d793          	srli	x15,x15,0x4
    a65c:	0037f693          	andi	x13,x15,3
    a660:	00069663          	bne	x13,x0,a66c <__lo0bits+0x7c>
    a664:	00250513          	addi	x10,x10,2
    a668:	0027d793          	srli	x15,x15,0x2
    a66c:	0017f693          	andi	x13,x15,1
    a670:	00069c63          	bne	x13,x0,a688 <__lo0bits+0x98>
    a674:	0017d793          	srli	x15,x15,0x1
    a678:	00150513          	addi	x10,x10,1
    a67c:	00079663          	bne	x15,x0,a688 <__lo0bits+0x98>
    a680:	02000513          	addi	x10,x0,32
    a684:	00008067          	jalr	x0,0(x1)
    a688:	00f72023          	sw	x15,0(x14)
    a68c:	00008067          	jalr	x0,0(x1)
    a690:	0027d793          	srli	x15,x15,0x2
    a694:	00f72023          	sw	x15,0(x14)
    a698:	00200513          	addi	x10,x0,2
    a69c:	00008067          	jalr	x0,0(x1)

0000a6a0 <__i2b>:
    a6a0:	04452783          	lw	x15,68(x10)
    a6a4:	ff010113          	addi	x2,x2,-16
    a6a8:	00812423          	sw	x8,8(x2)
    a6ac:	00912223          	sw	x9,4(x2)
    a6b0:	00112623          	sw	x1,12(x2)
    a6b4:	00050413          	addi	x8,x10,0
    a6b8:	00058493          	addi	x9,x11,0
    a6bc:	02078c63          	beq	x15,x0,a6f4 <__i2b+0x54>
    a6c0:	0047a503          	lw	x10,4(x15)
    a6c4:	06050263          	beq	x10,x0,a728 <__i2b+0x88>
    a6c8:	00052703          	lw	x14,0(x10)
    a6cc:	00e7a223          	sw	x14,4(x15)
    a6d0:	00c12083          	lw	x1,12(x2)
    a6d4:	00812403          	lw	x8,8(x2)
    a6d8:	00100793          	addi	x15,x0,1
    a6dc:	00952a23          	sw	x9,20(x10)
    a6e0:	00052623          	sw	x0,12(x10)
    a6e4:	00f52823          	sw	x15,16(x10)
    a6e8:	00412483          	lw	x9,4(x2)
    a6ec:	01010113          	addi	x2,x2,16
    a6f0:	00008067          	jalr	x0,0(x1)
    a6f4:	02100613          	addi	x12,x0,33
    a6f8:	00400593          	addi	x11,x0,4
    a6fc:	138010ef          	jal	x1,b834 <_calloc_r>
    a700:	04a42223          	sw	x10,68(x8)
    a704:	00050793          	addi	x15,x10,0
    a708:	fa051ce3          	bne	x10,x0,a6c0 <__i2b+0x20>
    a70c:	00007697          	auipc	x13,0x7
    a710:	3a868693          	addi	x13,x13,936 # 11ab4 <__clzsi2+0x11c>
    a714:	00000613          	addi	x12,x0,0
    a718:	14500593          	addi	x11,x0,325
    a71c:	00007517          	auipc	x10,0x7
    a720:	42850513          	addi	x10,x10,1064 # 11b44 <__clzsi2+0x1ac>
    a724:	a71ff0ef          	jal	x1,a194 <__assert_func>
    a728:	00040513          	addi	x10,x8,0
    a72c:	01c00613          	addi	x12,x0,28
    a730:	00100593          	addi	x11,x0,1
    a734:	100010ef          	jal	x1,b834 <_calloc_r>
    a738:	fc050ae3          	beq	x10,x0,a70c <__i2b+0x6c>
    a73c:	00100713          	addi	x14,x0,1
    a740:	00200793          	addi	x15,x0,2
    a744:	00e52223          	sw	x14,4(x10)
    a748:	00f52423          	sw	x15,8(x10)
    a74c:	f85ff06f          	jal	x0,a6d0 <__i2b+0x30>

0000a750 <__multiply>:
    a750:	fe010113          	addi	x2,x2,-32
    a754:	01212823          	sw	x18,16(x2)
    a758:	01312623          	sw	x19,12(x2)
    a75c:	0105a903          	lw	x18,16(x11)
    a760:	01062983          	lw	x19,16(x12)
    a764:	00912a23          	sw	x9,20(x2)
    a768:	01412423          	sw	x20,8(x2)
    a76c:	00112e23          	sw	x1,28(x2)
    a770:	00812c23          	sw	x8,24(x2)
    a774:	00058a13          	addi	x20,x11,0
    a778:	00060493          	addi	x9,x12,0
    a77c:	01394c63          	blt	x18,x19,a794 <__multiply+0x44>
    a780:	00098713          	addi	x14,x19,0
    a784:	00058493          	addi	x9,x11,0
    a788:	00090993          	addi	x19,x18,0
    a78c:	00060a13          	addi	x20,x12,0
    a790:	00070913          	addi	x18,x14,0
    a794:	0084a783          	lw	x15,8(x9)
    a798:	0044a583          	lw	x11,4(x9)
    a79c:	01298433          	add	x8,x19,x18
    a7a0:	0087a7b3          	slt	x15,x15,x8
    a7a4:	00f585b3          	add	x11,x11,x15
    a7a8:	a65ff0ef          	jal	x1,a20c <_Balloc>
    a7ac:	1c050863          	beq	x10,x0,a97c <__multiply+0x22c>
    a7b0:	01450893          	addi	x17,x10,20
    a7b4:	00241813          	slli	x16,x8,0x2
    a7b8:	01088833          	add	x16,x17,x16
    a7bc:	00088793          	addi	x15,x17,0
    a7c0:	0108f863          	bgeu	x17,x16,a7d0 <__multiply+0x80>
    a7c4:	0007a023          	sw	x0,0(x15)
    a7c8:	00478793          	addi	x15,x15,4
    a7cc:	ff07ece3          	bltu	x15,x16,a7c4 <__multiply+0x74>
    a7d0:	014a0593          	addi	x11,x20,20
    a7d4:	00291313          	slli	x6,x18,0x2
    a7d8:	00299693          	slli	x13,x19,0x2
    a7dc:	01448e13          	addi	x28,x9,20
    a7e0:	00658333          	add	x6,x11,x6
    a7e4:	00de06b3          	add	x13,x28,x13
    a7e8:	1465fa63          	bgeu	x11,x6,a93c <__multiply+0x1ec>
    a7ec:	01548793          	addi	x15,x9,21
    a7f0:	00400e93          	addi	x29,x0,4
    a7f4:	02f6ec63          	bltu	x13,x15,a82c <__multiply+0xdc>
    a7f8:	0005af03          	lw	x30,0(x11)
    a7fc:	409687b3          	sub	x15,x13,x9
    a800:	feb78793          	addi	x15,x15,-21
    a804:	010f1293          	slli	x5,x30,0x10
    a808:	ffc7f793          	andi	x15,x15,-4
    a80c:	0102d293          	srli	x5,x5,0x10
    a810:	01d78eb3          	add	x29,x15,x29
    a814:	02029463          	bne	x5,x0,a83c <__multiply+0xec>
    a818:	010f5f13          	srli	x30,x30,0x10
    a81c:	0a0f1063          	bne	x30,x0,a8bc <__multiply+0x16c>
    a820:	00458593          	addi	x11,x11,4
    a824:	00488893          	addi	x17,x17,4
    a828:	1065fa63          	bgeu	x11,x6,a93c <__multiply+0x1ec>
    a82c:	0005af03          	lw	x30,0(x11)
    a830:	010f1293          	slli	x5,x30,0x10
    a834:	0102d293          	srli	x5,x5,0x10
    a838:	fe0280e3          	beq	x5,x0,a818 <__multiply+0xc8>
    a83c:	00088f93          	addi	x31,x17,0
    a840:	000e0f13          	addi	x30,x28,0
    a844:	00000393          	addi	x7,x0,0
    a848:	000f2783          	lw	x15,0(x30)
    a84c:	000fa603          	lw	x12,0(x31)
    a850:	004f8f93          	addi	x31,x31,4
    a854:	01079713          	slli	x14,x15,0x10
    a858:	01075713          	srli	x14,x14,0x10
    a85c:	02570733          	mul	x14,x14,x5
    a860:	0107d793          	srli	x15,x15,0x10
    a864:	01061493          	slli	x9,x12,0x10
    a868:	0104d493          	srli	x9,x9,0x10
    a86c:	01065613          	srli	x12,x12,0x10
    a870:	004f0f13          	addi	x30,x30,4
    a874:	025787b3          	mul	x15,x15,x5
    a878:	00970733          	add	x14,x14,x9
    a87c:	00770733          	add	x14,x14,x7
    a880:	01075393          	srli	x7,x14,0x10
    a884:	01071713          	slli	x14,x14,0x10
    a888:	01075713          	srli	x14,x14,0x10
    a88c:	00c787b3          	add	x15,x15,x12
    a890:	007787b3          	add	x15,x15,x7
    a894:	01079613          	slli	x12,x15,0x10
    a898:	00e66733          	or	x14,x12,x14
    a89c:	feefae23          	sw	x14,-4(x31)
    a8a0:	0107d393          	srli	x7,x15,0x10
    a8a4:	fadf62e3          	bltu	x30,x13,a848 <__multiply+0xf8>
    a8a8:	01d887b3          	add	x15,x17,x29
    a8ac:	0077a023          	sw	x7,0(x15)
    a8b0:	0005af03          	lw	x30,0(x11)
    a8b4:	010f5f13          	srli	x30,x30,0x10
    a8b8:	f60f04e3          	beq	x30,x0,a820 <__multiply+0xd0>
    a8bc:	0008a783          	lw	x15,0(x17)
    a8c0:	00088f93          	addi	x31,x17,0
    a8c4:	000e0613          	addi	x12,x28,0
    a8c8:	00078393          	addi	x7,x15,0
    a8cc:	00000293          	addi	x5,x0,0
    a8d0:	00065703          	lhu	x14,0(x12)
    a8d4:	0103d913          	srli	x18,x7,0x10
    a8d8:	01079793          	slli	x15,x15,0x10
    a8dc:	03e70733          	mul	x14,x14,x30
    a8e0:	0107d793          	srli	x15,x15,0x10
    a8e4:	00460613          	addi	x12,x12,4
    a8e8:	004fa383          	lw	x7,4(x31)
    a8ec:	004f8f93          	addi	x31,x31,4
    a8f0:	01039493          	slli	x9,x7,0x10
    a8f4:	0104d493          	srli	x9,x9,0x10
    a8f8:	00570733          	add	x14,x14,x5
    a8fc:	01270733          	add	x14,x14,x18
    a900:	01071293          	slli	x5,x14,0x10
    a904:	00f2e7b3          	or	x15,x5,x15
    a908:	feffae23          	sw	x15,-4(x31)
    a90c:	ffe65783          	lhu	x15,-2(x12)
    a910:	01075713          	srli	x14,x14,0x10
    a914:	03e787b3          	mul	x15,x15,x30
    a918:	009787b3          	add	x15,x15,x9
    a91c:	00e787b3          	add	x15,x15,x14
    a920:	0107d293          	srli	x5,x15,0x10
    a924:	fad666e3          	bltu	x12,x13,a8d0 <__multiply+0x180>
    a928:	01d88733          	add	x14,x17,x29
    a92c:	00f72023          	sw	x15,0(x14)
    a930:	00458593          	addi	x11,x11,4
    a934:	00488893          	addi	x17,x17,4
    a938:	ee65eae3          	bltu	x11,x6,a82c <__multiply+0xdc>
    a93c:	00804863          	blt	x0,x8,a94c <__multiply+0x1fc>
    a940:	0180006f          	jal	x0,a958 <__multiply+0x208>
    a944:	fff40413          	addi	x8,x8,-1
    a948:	00040863          	beq	x8,x0,a958 <__multiply+0x208>
    a94c:	ffc82783          	lw	x15,-4(x16)
    a950:	ffc80813          	addi	x16,x16,-4
    a954:	fe0788e3          	beq	x15,x0,a944 <__multiply+0x1f4>
    a958:	01c12083          	lw	x1,28(x2)
    a95c:	00852823          	sw	x8,16(x10)
    a960:	01812403          	lw	x8,24(x2)
    a964:	01412483          	lw	x9,20(x2)
    a968:	01012903          	lw	x18,16(x2)
    a96c:	00c12983          	lw	x19,12(x2)
    a970:	00812a03          	lw	x20,8(x2)
    a974:	02010113          	addi	x2,x2,32
    a978:	00008067          	jalr	x0,0(x1)
    a97c:	00007697          	auipc	x13,0x7
    a980:	13868693          	addi	x13,x13,312 # 11ab4 <__clzsi2+0x11c>
    a984:	00000613          	addi	x12,x0,0
    a988:	16200593          	addi	x11,x0,354
    a98c:	00007517          	auipc	x10,0x7
    a990:	1b850513          	addi	x10,x10,440 # 11b44 <__clzsi2+0x1ac>
    a994:	801ff0ef          	jal	x1,a194 <__assert_func>

0000a998 <__pow5mult>:
    a998:	fe010113          	addi	x2,x2,-32
    a99c:	00812c23          	sw	x8,24(x2)
    a9a0:	01212823          	sw	x18,16(x2)
    a9a4:	01312623          	sw	x19,12(x2)
    a9a8:	00112e23          	sw	x1,28(x2)
    a9ac:	00367793          	andi	x15,x12,3
    a9b0:	00060413          	addi	x8,x12,0
    a9b4:	00050993          	addi	x19,x10,0
    a9b8:	00058913          	addi	x18,x11,0
    a9bc:	0a079c63          	bne	x15,x0,aa74 <__pow5mult+0xdc>
    a9c0:	40245413          	srai	x8,x8,0x2
    a9c4:	06040a63          	beq	x8,x0,aa38 <__pow5mult+0xa0>
    a9c8:	00912a23          	sw	x9,20(x2)
    a9cc:	0409a483          	lw	x9,64(x19)
    a9d0:	0c048663          	beq	x9,x0,aa9c <__pow5mult+0x104>
    a9d4:	00147793          	andi	x15,x8,1
    a9d8:	02079063          	bne	x15,x0,a9f8 <__pow5mult+0x60>
    a9dc:	40145413          	srai	x8,x8,0x1
    a9e0:	04040a63          	beq	x8,x0,aa34 <__pow5mult+0x9c>
    a9e4:	0004a503          	lw	x10,0(x9)
    a9e8:	06050663          	beq	x10,x0,aa54 <__pow5mult+0xbc>
    a9ec:	00050493          	addi	x9,x10,0
    a9f0:	00147793          	andi	x15,x8,1
    a9f4:	fe0784e3          	beq	x15,x0,a9dc <__pow5mult+0x44>
    a9f8:	00048613          	addi	x12,x9,0
    a9fc:	00090593          	addi	x11,x18,0
    aa00:	00098513          	addi	x10,x19,0
    aa04:	d4dff0ef          	jal	x1,a750 <__multiply>
    aa08:	02090063          	beq	x18,x0,aa28 <__pow5mult+0x90>
    aa0c:	00492703          	lw	x14,4(x18)
    aa10:	0449a783          	lw	x15,68(x19)
    aa14:	00271713          	slli	x14,x14,0x2
    aa18:	00e787b3          	add	x15,x15,x14
    aa1c:	0007a703          	lw	x14,0(x15)
    aa20:	00e92023          	sw	x14,0(x18)
    aa24:	0127a023          	sw	x18,0(x15)
    aa28:	40145413          	srai	x8,x8,0x1
    aa2c:	00050913          	addi	x18,x10,0
    aa30:	fa041ae3          	bne	x8,x0,a9e4 <__pow5mult+0x4c>
    aa34:	01412483          	lw	x9,20(x2)
    aa38:	01c12083          	lw	x1,28(x2)
    aa3c:	01812403          	lw	x8,24(x2)
    aa40:	00c12983          	lw	x19,12(x2)
    aa44:	00090513          	addi	x10,x18,0
    aa48:	01012903          	lw	x18,16(x2)
    aa4c:	02010113          	addi	x2,x2,32
    aa50:	00008067          	jalr	x0,0(x1)
    aa54:	00048613          	addi	x12,x9,0
    aa58:	00048593          	addi	x11,x9,0
    aa5c:	00098513          	addi	x10,x19,0
    aa60:	cf1ff0ef          	jal	x1,a750 <__multiply>
    aa64:	00a4a023          	sw	x10,0(x9)
    aa68:	00052023          	sw	x0,0(x10)
    aa6c:	00050493          	addi	x9,x10,0
    aa70:	f81ff06f          	jal	x0,a9f0 <__pow5mult+0x58>
    aa74:	fff78793          	addi	x15,x15,-1
    aa78:	00007717          	auipc	x14,0x7
    aa7c:	6b870713          	addi	x14,x14,1720 # 12130 <p05.0>
    aa80:	00279793          	slli	x15,x15,0x2
    aa84:	00f707b3          	add	x15,x14,x15
    aa88:	0007a603          	lw	x12,0(x15)
    aa8c:	00000693          	addi	x13,x0,0
    aa90:	851ff0ef          	jal	x1,a2e0 <__multadd>
    aa94:	00050913          	addi	x18,x10,0
    aa98:	f29ff06f          	jal	x0,a9c0 <__pow5mult+0x28>
    aa9c:	00100593          	addi	x11,x0,1
    aaa0:	00098513          	addi	x10,x19,0
    aaa4:	f68ff0ef          	jal	x1,a20c <_Balloc>
    aaa8:	00050493          	addi	x9,x10,0
    aaac:	02050063          	beq	x10,x0,aacc <__pow5mult+0x134>
    aab0:	27100713          	addi	x14,x0,625
    aab4:	00100793          	addi	x15,x0,1
    aab8:	00e52a23          	sw	x14,20(x10)
    aabc:	00f52823          	sw	x15,16(x10)
    aac0:	04a9a023          	sw	x10,64(x19)
    aac4:	00052023          	sw	x0,0(x10)
    aac8:	f0dff06f          	jal	x0,a9d4 <__pow5mult+0x3c>
    aacc:	00007697          	auipc	x13,0x7
    aad0:	fe868693          	addi	x13,x13,-24 # 11ab4 <__clzsi2+0x11c>
    aad4:	00000613          	addi	x12,x0,0
    aad8:	14500593          	addi	x11,x0,325
    aadc:	00007517          	auipc	x10,0x7
    aae0:	06850513          	addi	x10,x10,104 # 11b44 <__clzsi2+0x1ac>
    aae4:	eb0ff0ef          	jal	x1,a194 <__assert_func>

0000aae8 <__lshift>:
    aae8:	fe010113          	addi	x2,x2,-32
    aaec:	01512223          	sw	x21,4(x2)
    aaf0:	0105aa83          	lw	x21,16(x11)
    aaf4:	0085a783          	lw	x15,8(x11)
    aaf8:	01312623          	sw	x19,12(x2)
    aafc:	40565993          	srai	x19,x12,0x5
    ab00:	01598ab3          	add	x21,x19,x21
    ab04:	00812c23          	sw	x8,24(x2)
    ab08:	00912a23          	sw	x9,20(x2)
    ab0c:	01212823          	sw	x18,16(x2)
    ab10:	01412423          	sw	x20,8(x2)
    ab14:	00112e23          	sw	x1,28(x2)
    ab18:	001a8913          	addi	x18,x21,1
    ab1c:	00058493          	addi	x9,x11,0
    ab20:	00060413          	addi	x8,x12,0
    ab24:	0045a583          	lw	x11,4(x11)
    ab28:	00050a13          	addi	x20,x10,0
    ab2c:	0127d863          	bge	x15,x18,ab3c <__lshift+0x54>
    ab30:	00179793          	slli	x15,x15,0x1
    ab34:	00158593          	addi	x11,x11,1
    ab38:	ff27cce3          	blt	x15,x18,ab30 <__lshift+0x48>
    ab3c:	000a0513          	addi	x10,x20,0
    ab40:	eccff0ef          	jal	x1,a20c <_Balloc>
    ab44:	10050c63          	beq	x10,x0,ac5c <__lshift+0x174>
    ab48:	01450813          	addi	x16,x10,20
    ab4c:	03305463          	bge	x0,x19,ab74 <__lshift+0x8c>
    ab50:	00598993          	addi	x19,x19,5
    ab54:	00299993          	slli	x19,x19,0x2
    ab58:	01350733          	add	x14,x10,x19
    ab5c:	00080793          	addi	x15,x16,0
    ab60:	00478793          	addi	x15,x15,4
    ab64:	fe07ae23          	sw	x0,-4(x15)
    ab68:	fee79ce3          	bne	x15,x14,ab60 <__lshift+0x78>
    ab6c:	fec98993          	addi	x19,x19,-20
    ab70:	01380833          	add	x16,x16,x19
    ab74:	0104a883          	lw	x17,16(x9)
    ab78:	01448793          	addi	x15,x9,20
    ab7c:	01f47613          	andi	x12,x8,31
    ab80:	00289893          	slli	x17,x17,0x2
    ab84:	011788b3          	add	x17,x15,x17
    ab88:	0a060463          	beq	x12,x0,ac30 <__lshift+0x148>
    ab8c:	02000593          	addi	x11,x0,32
    ab90:	40c585b3          	sub	x11,x11,x12
    ab94:	00080313          	addi	x6,x16,0
    ab98:	00000693          	addi	x13,x0,0
    ab9c:	0007a703          	lw	x14,0(x15)
    aba0:	00430313          	addi	x6,x6,4
    aba4:	00478793          	addi	x15,x15,4
    aba8:	00c71733          	sll	x14,x14,x12
    abac:	00d76733          	or	x14,x14,x13
    abb0:	fee32e23          	sw	x14,-4(x6)
    abb4:	ffc7a683          	lw	x13,-4(x15)
    abb8:	00b6d6b3          	srl	x13,x13,x11
    abbc:	ff17e0e3          	bltu	x15,x17,ab9c <__lshift+0xb4>
    abc0:	01548793          	addi	x15,x9,21
    abc4:	00400713          	addi	x14,x0,4
    abc8:	00f8ea63          	bltu	x17,x15,abdc <__lshift+0xf4>
    abcc:	409887b3          	sub	x15,x17,x9
    abd0:	feb78793          	addi	x15,x15,-21
    abd4:	ffc7f793          	andi	x15,x15,-4
    abd8:	00e78733          	add	x14,x15,x14
    abdc:	00e80833          	add	x16,x16,x14
    abe0:	00d82023          	sw	x13,0(x16)
    abe4:	00069463          	bne	x13,x0,abec <__lshift+0x104>
    abe8:	000a8913          	addi	x18,x21,0
    abec:	0044a703          	lw	x14,4(x9)
    abf0:	044a2783          	lw	x15,68(x20)
    abf4:	01c12083          	lw	x1,28(x2)
    abf8:	00271713          	slli	x14,x14,0x2
    abfc:	00e787b3          	add	x15,x15,x14
    ac00:	0007a703          	lw	x14,0(x15)
    ac04:	01252823          	sw	x18,16(x10)
    ac08:	01812403          	lw	x8,24(x2)
    ac0c:	00e4a023          	sw	x14,0(x9)
    ac10:	0097a023          	sw	x9,0(x15)
    ac14:	01012903          	lw	x18,16(x2)
    ac18:	01412483          	lw	x9,20(x2)
    ac1c:	00c12983          	lw	x19,12(x2)
    ac20:	00812a03          	lw	x20,8(x2)
    ac24:	00412a83          	lw	x21,4(x2)
    ac28:	02010113          	addi	x2,x2,32
    ac2c:	00008067          	jalr	x0,0(x1)
    ac30:	0007a703          	lw	x14,0(x15)
    ac34:	00478793          	addi	x15,x15,4
    ac38:	00480813          	addi	x16,x16,4
    ac3c:	fee82e23          	sw	x14,-4(x16)
    ac40:	fb17f4e3          	bgeu	x15,x17,abe8 <__lshift+0x100>
    ac44:	0007a703          	lw	x14,0(x15)
    ac48:	00478793          	addi	x15,x15,4
    ac4c:	00480813          	addi	x16,x16,4
    ac50:	fee82e23          	sw	x14,-4(x16)
    ac54:	fd17eee3          	bltu	x15,x17,ac30 <__lshift+0x148>
    ac58:	f91ff06f          	jal	x0,abe8 <__lshift+0x100>
    ac5c:	00007697          	auipc	x13,0x7
    ac60:	e5868693          	addi	x13,x13,-424 # 11ab4 <__clzsi2+0x11c>
    ac64:	00000613          	addi	x12,x0,0
    ac68:	1de00593          	addi	x11,x0,478
    ac6c:	00007517          	auipc	x10,0x7
    ac70:	ed850513          	addi	x10,x10,-296 # 11b44 <__clzsi2+0x1ac>
    ac74:	d20ff0ef          	jal	x1,a194 <__assert_func>

0000ac78 <__mcmp>:
    ac78:	01052703          	lw	x14,16(x10)
    ac7c:	0105a783          	lw	x15,16(x11)
    ac80:	00050813          	addi	x16,x10,0
    ac84:	40f70533          	sub	x10,x14,x15
    ac88:	04f71263          	bne	x14,x15,accc <__mcmp+0x54>
    ac8c:	00279793          	slli	x15,x15,0x2
    ac90:	01480813          	addi	x16,x16,20
    ac94:	01458593          	addi	x11,x11,20
    ac98:	00f58733          	add	x14,x11,x15
    ac9c:	00f807b3          	add	x15,x16,x15
    aca0:	0080006f          	jal	x0,aca8 <__mcmp+0x30>
    aca4:	02f87463          	bgeu	x16,x15,accc <__mcmp+0x54>
    aca8:	ffc7a603          	lw	x12,-4(x15)
    acac:	ffc72683          	lw	x13,-4(x14)
    acb0:	ffc78793          	addi	x15,x15,-4
    acb4:	ffc70713          	addi	x14,x14,-4
    acb8:	fed606e3          	beq	x12,x13,aca4 <__mcmp+0x2c>
    acbc:	00100513          	addi	x10,x0,1
    acc0:	00d67663          	bgeu	x12,x13,accc <__mcmp+0x54>
    acc4:	fff00513          	addi	x10,x0,-1
    acc8:	00008067          	jalr	x0,0(x1)
    accc:	00008067          	jalr	x0,0(x1)

0000acd0 <__mdiff>:
    acd0:	0105a703          	lw	x14,16(x11)
    acd4:	01062783          	lw	x15,16(x12)
    acd8:	ff010113          	addi	x2,x2,-16
    acdc:	00812423          	sw	x8,8(x2)
    ace0:	00912223          	sw	x9,4(x2)
    ace4:	00112623          	sw	x1,12(x2)
    ace8:	01212023          	sw	x18,0(x2)
    acec:	00058413          	addi	x8,x11,0
    acf0:	00060493          	addi	x9,x12,0
    acf4:	40f706b3          	sub	x13,x14,x15
    acf8:	18f71863          	bne	x14,x15,ae88 <__mdiff+0x1b8>
    acfc:	00279693          	slli	x13,x15,0x2
    ad00:	01458613          	addi	x12,x11,20
    ad04:	01448713          	addi	x14,x9,20
    ad08:	00d607b3          	add	x15,x12,x13
    ad0c:	00d70733          	add	x14,x14,x13
    ad10:	0080006f          	jal	x0,ad18 <__mdiff+0x48>
    ad14:	18f67e63          	bgeu	x12,x15,aeb0 <__mdiff+0x1e0>
    ad18:	ffc7a583          	lw	x11,-4(x15)
    ad1c:	ffc72683          	lw	x13,-4(x14)
    ad20:	ffc78793          	addi	x15,x15,-4
    ad24:	ffc70713          	addi	x14,x14,-4
    ad28:	fed586e3          	beq	x11,x13,ad14 <__mdiff+0x44>
    ad2c:	00100913          	addi	x18,x0,1
    ad30:	16d5f063          	bgeu	x11,x13,ae90 <__mdiff+0x1c0>
    ad34:	0044a583          	lw	x11,4(x9)
    ad38:	cd4ff0ef          	jal	x1,a20c <_Balloc>
    ad3c:	1c050063          	beq	x10,x0,aefc <__mdiff+0x22c>
    ad40:	0104a883          	lw	x17,16(x9)
    ad44:	01042f83          	lw	x31,16(x8)
    ad48:	01448f13          	addi	x30,x9,20
    ad4c:	00289313          	slli	x6,x17,0x2
    ad50:	002f9f93          	slli	x31,x31,0x2
    ad54:	01440813          	addi	x16,x8,20
    ad58:	01450593          	addi	x11,x10,20
    ad5c:	01252623          	sw	x18,12(x10)
    ad60:	006f0333          	add	x6,x30,x6
    ad64:	01f80fb3          	add	x31,x16,x31
    ad68:	000f0e93          	addi	x29,x30,0
    ad6c:	00058e13          	addi	x28,x11,0
    ad70:	00000693          	addi	x13,x0,0
    ad74:	000ea703          	lw	x14,0(x29)
    ad78:	00082603          	lw	x12,0(x16)
    ad7c:	004e0e13          	addi	x28,x28,4
    ad80:	01071793          	slli	x15,x14,0x10
    ad84:	01061293          	slli	x5,x12,0x10
    ad88:	0107d793          	srli	x15,x15,0x10
    ad8c:	0102d293          	srli	x5,x5,0x10
    ad90:	405787b3          	sub	x15,x15,x5
    ad94:	00d787b3          	add	x15,x15,x13
    ad98:	01075713          	srli	x14,x14,0x10
    ad9c:	01065613          	srli	x12,x12,0x10
    ada0:	4107d693          	srai	x13,x15,0x10
    ada4:	40c70733          	sub	x14,x14,x12
    ada8:	00d70733          	add	x14,x14,x13
    adac:	01079793          	slli	x15,x15,0x10
    adb0:	01071693          	slli	x13,x14,0x10
    adb4:	0107d793          	srli	x15,x15,0x10
    adb8:	00d7e7b3          	or	x15,x15,x13
    adbc:	00480813          	addi	x16,x16,4
    adc0:	fefe2e23          	sw	x15,-4(x28)
    adc4:	004e8e93          	addi	x29,x29,4
    adc8:	41075693          	srai	x13,x14,0x10
    adcc:	fbf864e3          	bltu	x16,x31,ad74 <__mdiff+0xa4>
    add0:	01540713          	addi	x14,x8,21
    add4:	408f8433          	sub	x8,x31,x8
    add8:	feb40413          	addi	x8,x8,-21
    addc:	00efbfb3          	sltu	x31,x31,x14
    ade0:	00245413          	srli	x8,x8,0x2
    ade4:	001fce93          	xori	x29,x31,1
    ade8:	00400713          	addi	x14,x0,4
    adec:	0a0f8c63          	beq	x31,x0,aea4 <__mdiff+0x1d4>
    adf0:	00ef0f33          	add	x30,x30,x14
    adf4:	00e58833          	add	x16,x11,x14
    adf8:	00080e13          	addi	x28,x16,0
    adfc:	000f0613          	addi	x12,x30,0
    ae00:	0e6f7063          	bgeu	x30,x6,aee0 <__mdiff+0x210>
    ae04:	00062783          	lw	x15,0(x12)
    ae08:	004e0e13          	addi	x28,x28,4
    ae0c:	00460613          	addi	x12,x12,4
    ae10:	01079713          	slli	x14,x15,0x10
    ae14:	01075713          	srli	x14,x14,0x10
    ae18:	00d70733          	add	x14,x14,x13
    ae1c:	0107d593          	srli	x11,x15,0x10
    ae20:	41075713          	srai	x14,x14,0x10
    ae24:	00d787b3          	add	x15,x15,x13
    ae28:	00b70733          	add	x14,x14,x11
    ae2c:	01079793          	slli	x15,x15,0x10
    ae30:	01071693          	slli	x13,x14,0x10
    ae34:	0107d793          	srli	x15,x15,0x10
    ae38:	00d7e7b3          	or	x15,x15,x13
    ae3c:	fefe2e23          	sw	x15,-4(x28)
    ae40:	41075693          	srai	x13,x14,0x10
    ae44:	fc6660e3          	bltu	x12,x6,ae04 <__mdiff+0x134>
    ae48:	fff30313          	addi	x6,x6,-1
    ae4c:	41e30333          	sub	x6,x6,x30
    ae50:	ffc37313          	andi	x6,x6,-4
    ae54:	00680733          	add	x14,x16,x6
    ae58:	00079a63          	bne	x15,x0,ae6c <__mdiff+0x19c>
    ae5c:	ffc72783          	lw	x15,-4(x14)
    ae60:	ffc70713          	addi	x14,x14,-4
    ae64:	fff88893          	addi	x17,x17,-1
    ae68:	fe078ae3          	beq	x15,x0,ae5c <__mdiff+0x18c>
    ae6c:	00c12083          	lw	x1,12(x2)
    ae70:	00812403          	lw	x8,8(x2)
    ae74:	01152823          	sw	x17,16(x10)
    ae78:	00412483          	lw	x9,4(x2)
    ae7c:	00012903          	lw	x18,0(x2)
    ae80:	01010113          	addi	x2,x2,16
    ae84:	00008067          	jalr	x0,0(x1)
    ae88:	00100913          	addi	x18,x0,1
    ae8c:	ea06c4e3          	blt	x13,x0,ad34 <__mdiff+0x64>
    ae90:	00048793          	addi	x15,x9,0
    ae94:	00000913          	addi	x18,x0,0
    ae98:	00040493          	addi	x9,x8,0
    ae9c:	00078413          	addi	x8,x15,0
    aea0:	e95ff06f          	jal	x0,ad34 <__mdiff+0x64>
    aea4:	00140713          	addi	x14,x8,1
    aea8:	00271713          	slli	x14,x14,0x2
    aeac:	f45ff06f          	jal	x0,adf0 <__mdiff+0x120>
    aeb0:	00000593          	addi	x11,x0,0
    aeb4:	b58ff0ef          	jal	x1,a20c <_Balloc>
    aeb8:	06050063          	beq	x10,x0,af18 <__mdiff+0x248>
    aebc:	00c12083          	lw	x1,12(x2)
    aec0:	00812403          	lw	x8,8(x2)
    aec4:	00100793          	addi	x15,x0,1
    aec8:	00052a23          	sw	x0,20(x10)
    aecc:	00f52823          	sw	x15,16(x10)
    aed0:	00412483          	lw	x9,4(x2)
    aed4:	00012903          	lw	x18,0(x2)
    aed8:	01010113          	addi	x2,x2,16
    aedc:	00008067          	jalr	x0,0(x1)
    aee0:	00000713          	addi	x14,x0,0
    aee4:	000e9663          	bne	x29,x0,aef0 <__mdiff+0x220>
    aee8:	00e58733          	add	x14,x11,x14
    aeec:	f6dff06f          	jal	x0,ae58 <__mdiff+0x188>
    aef0:	00241713          	slli	x14,x8,0x2
    aef4:	00e58733          	add	x14,x11,x14
    aef8:	f61ff06f          	jal	x0,ae58 <__mdiff+0x188>
    aefc:	00007697          	auipc	x13,0x7
    af00:	bb868693          	addi	x13,x13,-1096 # 11ab4 <__clzsi2+0x11c>
    af04:	00000613          	addi	x12,x0,0
    af08:	24500593          	addi	x11,x0,581
    af0c:	00007517          	auipc	x10,0x7
    af10:	c3850513          	addi	x10,x10,-968 # 11b44 <__clzsi2+0x1ac>
    af14:	a80ff0ef          	jal	x1,a194 <__assert_func>
    af18:	00007697          	auipc	x13,0x7
    af1c:	b9c68693          	addi	x13,x13,-1124 # 11ab4 <__clzsi2+0x11c>
    af20:	00000613          	addi	x12,x0,0
    af24:	23700593          	addi	x11,x0,567
    af28:	00007517          	auipc	x10,0x7
    af2c:	c1c50513          	addi	x10,x10,-996 # 11b44 <__clzsi2+0x1ac>
    af30:	a64ff0ef          	jal	x1,a194 <__assert_func>

0000af34 <__ulp>:
    af34:	7ff007b7          	lui	x15,0x7ff00
    af38:	00b7f5b3          	and	x11,x15,x11
    af3c:	fcc007b7          	lui	x15,0xfcc00
    af40:	00f585b3          	add	x11,x11,x15
    af44:	00000793          	addi	x15,x0,0
    af48:	00b05663          	bge	x0,x11,af54 <__ulp+0x20>
    af4c:	00078513          	addi	x10,x15,0 # fcc00000 <__heap_end+0xfc800000>
    af50:	00008067          	jalr	x0,0(x1)
    af54:	40b005b3          	sub	x11,x0,x11
    af58:	4145d593          	srai	x11,x11,0x14
    af5c:	01300793          	addi	x15,x0,19
    af60:	00b7cc63          	blt	x15,x11,af78 <__ulp+0x44>
    af64:	000807b7          	lui	x15,0x80
    af68:	40b7d5b3          	sra	x11,x15,x11
    af6c:	00000793          	addi	x15,x0,0
    af70:	00078513          	addi	x10,x15,0 # 80000 <__heap_start+0x6d130>
    af74:	00008067          	jalr	x0,0(x1)
    af78:	fec58593          	addi	x11,x11,-20
    af7c:	01e00713          	addi	x14,x0,30
    af80:	00100793          	addi	x15,x0,1
    af84:	00b74663          	blt	x14,x11,af90 <__ulp+0x5c>
    af88:	800007b7          	lui	x15,0x80000
    af8c:	00b7d7b3          	srl	x15,x15,x11
    af90:	00000593          	addi	x11,x0,0
    af94:	00078513          	addi	x10,x15,0 # 80000000 <__heap_end+0x7fc00000>
    af98:	00008067          	jalr	x0,0(x1)

0000af9c <__b2d>:
    af9c:	fe010113          	addi	x2,x2,-32
    afa0:	00912a23          	sw	x9,20(x2)
    afa4:	01052483          	lw	x9,16(x10)
    afa8:	00812c23          	sw	x8,24(x2)
    afac:	01450413          	addi	x8,x10,20
    afb0:	00249493          	slli	x9,x9,0x2
    afb4:	009404b3          	add	x9,x8,x9
    afb8:	01412423          	sw	x20,8(x2)
    afbc:	ffc4aa03          	lw	x20,-4(x9)
    afc0:	01512223          	sw	x21,4(x2)
    afc4:	01612023          	sw	x22,0(x2)
    afc8:	000a0513          	addi	x10,x20,0
    afcc:	00058a93          	addi	x21,x11,0
    afd0:	00112e23          	sw	x1,28(x2)
    afd4:	01212823          	sw	x18,16(x2)
    afd8:	01312623          	sw	x19,12(x2)
    afdc:	d9cff0ef          	jal	x1,a578 <__hi0bits>
    afe0:	02000713          	addi	x14,x0,32
    afe4:	40a707b3          	sub	x15,x14,x10
    afe8:	00faa023          	sw	x15,0(x21)
    afec:	00a00793          	addi	x15,x0,10
    aff0:	ffc48b13          	addi	x22,x9,-4
    aff4:	0aa7d063          	bge	x15,x10,b094 <__b2d+0xf8>
    aff8:	ff550613          	addi	x12,x10,-11
    affc:	05647063          	bgeu	x8,x22,b03c <__b2d+0xa0>
    b000:	ff84a783          	lw	x15,-8(x9)
    b004:	04060c63          	beq	x12,x0,b05c <__b2d+0xc0>
    b008:	40c706b3          	sub	x13,x14,x12
    b00c:	00d7d733          	srl	x14,x15,x13
    b010:	00ca1a33          	sll	x20,x20,x12
    b014:	00ea6a33          	or	x20,x20,x14
    b018:	ff848593          	addi	x11,x9,-8
    b01c:	3ff00737          	lui	x14,0x3ff00
    b020:	00c797b3          	sll	x15,x15,x12
    b024:	00ea6733          	or	x14,x20,x14
    b028:	02b47e63          	bgeu	x8,x11,b064 <__b2d+0xc8>
    b02c:	ff44a603          	lw	x12,-12(x9)
    b030:	00d656b3          	srl	x13,x12,x13
    b034:	00d7e7b3          	or	x15,x15,x13
    b038:	02c0006f          	jal	x0,b064 <__b2d+0xc8>
    b03c:	00b00793          	addi	x15,x0,11
    b040:	00f50c63          	beq	x10,x15,b058 <__b2d+0xbc>
    b044:	00ca1a33          	sll	x20,x20,x12
    b048:	3ff00737          	lui	x14,0x3ff00
    b04c:	00ea6733          	or	x14,x20,x14
    b050:	00000793          	addi	x15,x0,0
    b054:	0100006f          	jal	x0,b064 <__b2d+0xc8>
    b058:	00000793          	addi	x15,x0,0
    b05c:	3ff00737          	lui	x14,0x3ff00
    b060:	00ea6733          	or	x14,x20,x14
    b064:	01c12083          	lw	x1,28(x2)
    b068:	01812403          	lw	x8,24(x2)
    b06c:	01412483          	lw	x9,20(x2)
    b070:	01012903          	lw	x18,16(x2)
    b074:	00c12983          	lw	x19,12(x2)
    b078:	00812a03          	lw	x20,8(x2)
    b07c:	00412a83          	lw	x21,4(x2)
    b080:	00012b03          	lw	x22,0(x2)
    b084:	00078513          	addi	x10,x15,0
    b088:	00070593          	addi	x11,x14,0 # 3ff00000 <__heap_end+0x3fb00000>
    b08c:	02010113          	addi	x2,x2,32
    b090:	00008067          	jalr	x0,0(x1)
    b094:	00b00693          	addi	x13,x0,11
    b098:	40a686b3          	sub	x13,x13,x10
    b09c:	3ff007b7          	lui	x15,0x3ff00
    b0a0:	00da5733          	srl	x14,x20,x13
    b0a4:	00f76733          	or	x14,x14,x15
    b0a8:	00000793          	addi	x15,x0,0
    b0ac:	01647663          	bgeu	x8,x22,b0b8 <__b2d+0x11c>
    b0b0:	ff84a783          	lw	x15,-8(x9)
    b0b4:	00d7d7b3          	srl	x15,x15,x13
    b0b8:	01550513          	addi	x10,x10,21
    b0bc:	00aa1a33          	sll	x20,x20,x10
    b0c0:	00fa67b3          	or	x15,x20,x15
    b0c4:	fa1ff06f          	jal	x0,b064 <__b2d+0xc8>

0000b0c8 <__d2b>:
    b0c8:	fd010113          	addi	x2,x2,-48
    b0cc:	01512a23          	sw	x21,20(x2)
    b0d0:	00058a93          	addi	x21,x11,0
    b0d4:	00100593          	addi	x11,x0,1
    b0d8:	02912223          	sw	x9,36(x2)
    b0dc:	01312e23          	sw	x19,28(x2)
    b0e0:	01412c23          	sw	x20,24(x2)
    b0e4:	02112623          	sw	x1,44(x2)
    b0e8:	02812423          	sw	x8,40(x2)
    b0ec:	03212023          	sw	x18,32(x2)
    b0f0:	00060493          	addi	x9,x12,0
    b0f4:	00068a13          	addi	x20,x13,0
    b0f8:	00070993          	addi	x19,x14,0
    b0fc:	910ff0ef          	jal	x1,a20c <_Balloc>
    b100:	0e050e63          	beq	x10,x0,b1fc <__d2b+0x134>
    b104:	00100737          	lui	x14,0x100
    b108:	0144d913          	srli	x18,x9,0x14
    b10c:	fff70793          	addi	x15,x14,-1 # fffff <__heap_start+0xed12f>
    b110:	7ff97913          	andi	x18,x18,2047
    b114:	00050413          	addi	x8,x10,0
    b118:	0097f7b3          	and	x15,x15,x9
    b11c:	00090463          	beq	x18,x0,b124 <__d2b+0x5c>
    b120:	00e7e7b3          	or	x15,x15,x14
    b124:	00f12623          	sw	x15,12(x2)
    b128:	060a9263          	bne	x21,x0,b18c <__d2b+0xc4>
    b12c:	00c10513          	addi	x10,x2,12
    b130:	cc0ff0ef          	jal	x1,a5f0 <__lo0bits>
    b134:	00c12703          	lw	x14,12(x2)
    b138:	00100493          	addi	x9,x0,1
    b13c:	00942823          	sw	x9,16(x8)
    b140:	00e42a23          	sw	x14,20(x8)
    b144:	02050793          	addi	x15,x10,32
    b148:	08090863          	beq	x18,x0,b1d8 <__d2b+0x110>
    b14c:	bcd90913          	addi	x18,x18,-1075
    b150:	00f90933          	add	x18,x18,x15
    b154:	03500493          	addi	x9,x0,53
    b158:	012a2023          	sw	x18,0(x20)
    b15c:	40f48533          	sub	x10,x9,x15
    b160:	00a9a023          	sw	x10,0(x19)
    b164:	02c12083          	lw	x1,44(x2)
    b168:	00040513          	addi	x10,x8,0
    b16c:	02812403          	lw	x8,40(x2)
    b170:	02412483          	lw	x9,36(x2)
    b174:	02012903          	lw	x18,32(x2)
    b178:	01c12983          	lw	x19,28(x2)
    b17c:	01812a03          	lw	x20,24(x2)
    b180:	01412a83          	lw	x21,20(x2)
    b184:	03010113          	addi	x2,x2,48
    b188:	00008067          	jalr	x0,0(x1)
    b18c:	00810513          	addi	x10,x2,8
    b190:	01512423          	sw	x21,8(x2)
    b194:	c5cff0ef          	jal	x1,a5f0 <__lo0bits>
    b198:	00c12703          	lw	x14,12(x2)
    b19c:	00812683          	lw	x13,8(x2)
    b1a0:	00050793          	addi	x15,x10,0
    b1a4:	00050e63          	beq	x10,x0,b1c0 <__d2b+0xf8>
    b1a8:	02000613          	addi	x12,x0,32
    b1ac:	40a60633          	sub	x12,x12,x10
    b1b0:	00c71633          	sll	x12,x14,x12
    b1b4:	00a75733          	srl	x14,x14,x10
    b1b8:	00c6e6b3          	or	x13,x13,x12
    b1bc:	00e12623          	sw	x14,12(x2)
    b1c0:	00e034b3          	sltu	x9,x0,x14
    b1c4:	00148493          	addi	x9,x9,1
    b1c8:	00d42a23          	sw	x13,20(x8)
    b1cc:	00e42c23          	sw	x14,24(x8)
    b1d0:	00942823          	sw	x9,16(x8)
    b1d4:	f6091ce3          	bne	x18,x0,b14c <__d2b+0x84>
    b1d8:	00249713          	slli	x14,x9,0x2
    b1dc:	00e40733          	add	x14,x8,x14
    b1e0:	01072503          	lw	x10,16(x14)
    b1e4:	bce78793          	addi	x15,x15,-1074 # 3feffbce <__heap_end+0x3faffbce>
    b1e8:	00fa2023          	sw	x15,0(x20)
    b1ec:	b8cff0ef          	jal	x1,a578 <__hi0bits>
    b1f0:	00549493          	slli	x9,x9,0x5
    b1f4:	40a48533          	sub	x10,x9,x10
    b1f8:	f69ff06f          	jal	x0,b160 <__d2b+0x98>
    b1fc:	00007697          	auipc	x13,0x7
    b200:	8b868693          	addi	x13,x13,-1864 # 11ab4 <__clzsi2+0x11c>
    b204:	00000613          	addi	x12,x0,0
    b208:	30f00593          	addi	x11,x0,783
    b20c:	00007517          	auipc	x10,0x7
    b210:	93850513          	addi	x10,x10,-1736 # 11b44 <__clzsi2+0x1ac>
    b214:	f81fe0ef          	jal	x1,a194 <__assert_func>

0000b218 <__ratio>:
    b218:	fc010113          	addi	x2,x2,-64
    b21c:	03612023          	sw	x22,32(x2)
    b220:	00058b13          	addi	x22,x11,0
    b224:	00810593          	addi	x11,x2,8
    b228:	02112e23          	sw	x1,60(x2)
    b22c:	02812c23          	sw	x8,56(x2)
    b230:	02912a23          	sw	x9,52(x2)
    b234:	01712e23          	sw	x23,28(x2)
    b238:	03212823          	sw	x18,48(x2)
    b23c:	00050b93          	addi	x23,x10,0
    b240:	03312623          	sw	x19,44(x2)
    b244:	03412423          	sw	x20,40(x2)
    b248:	03512223          	sw	x21,36(x2)
    b24c:	d51ff0ef          	jal	x1,af9c <__b2d>
    b250:	00050493          	addi	x9,x10,0
    b254:	00058413          	addi	x8,x11,0
    b258:	000b0513          	addi	x10,x22,0
    b25c:	00c10593          	addi	x11,x2,12
    b260:	d3dff0ef          	jal	x1,af9c <__b2d>
    b264:	010ba783          	lw	x15,16(x23)
    b268:	010b2603          	lw	x12,16(x22)
    b26c:	00812703          	lw	x14,8(x2)
    b270:	00c12683          	lw	x13,12(x2)
    b274:	40c787b3          	sub	x15,x15,x12
    b278:	00579793          	slli	x15,x15,0x5
    b27c:	40d70733          	sub	x14,x14,x13
    b280:	00e787b3          	add	x15,x15,x14
    b284:	04f05663          	bge	x0,x15,b2d0 <__ratio+0xb8>
    b288:	01479793          	slli	x15,x15,0x14
    b28c:	00878433          	add	x8,x15,x8
    b290:	00050613          	addi	x12,x10,0
    b294:	00058693          	addi	x13,x11,0
    b298:	00048513          	addi	x10,x9,0
    b29c:	00040593          	addi	x11,x8,0
    b2a0:	1ed010ef          	jal	x1,cc8c <__divdf3>
    b2a4:	03c12083          	lw	x1,60(x2)
    b2a8:	03812403          	lw	x8,56(x2)
    b2ac:	03412483          	lw	x9,52(x2)
    b2b0:	03012903          	lw	x18,48(x2)
    b2b4:	02c12983          	lw	x19,44(x2)
    b2b8:	02812a03          	lw	x20,40(x2)
    b2bc:	02412a83          	lw	x21,36(x2)
    b2c0:	02012b03          	lw	x22,32(x2)
    b2c4:	01c12b83          	lw	x23,28(x2)
    b2c8:	04010113          	addi	x2,x2,64
    b2cc:	00008067          	jalr	x0,0(x1)
    b2d0:	01479793          	slli	x15,x15,0x14
    b2d4:	40f585b3          	sub	x11,x11,x15
    b2d8:	fb9ff06f          	jal	x0,b290 <__ratio+0x78>

0000b2dc <_mprec_log10>:
    b2dc:	fe010113          	addi	x2,x2,-32
    b2e0:	01412423          	sw	x20,8(x2)
    b2e4:	00112e23          	sw	x1,28(x2)
    b2e8:	01212823          	sw	x18,16(x2)
    b2ec:	01312623          	sw	x19,12(x2)
    b2f0:	01700793          	addi	x15,x0,23
    b2f4:	00050a13          	addi	x20,x10,0
    b2f8:	06a7d863          	bge	x15,x10,b368 <_mprec_log10+0x8c>
    b2fc:	00008797          	auipc	x15,0x8
    b300:	87c78793          	addi	x15,x15,-1924 # 12b78 <__SDATA_BEGIN__+0x30>
    b304:	00008717          	auipc	x14,0x8
    b308:	87c70713          	addi	x14,x14,-1924 # 12b80 <__SDATA_BEGIN__+0x38>
    b30c:	00812c23          	sw	x8,24(x2)
    b310:	00912a23          	sw	x9,20(x2)
    b314:	0007a503          	lw	x10,0(x15)
    b318:	0047a583          	lw	x11,4(x15)
    b31c:	00072403          	lw	x8,0(x14)
    b320:	00472483          	lw	x9,4(x14)
    b324:	01612223          	sw	x22,4(x2)
    b328:	01712023          	sw	x23,0(x2)
    b32c:	00040613          	addi	x12,x8,0
    b330:	00048693          	addi	x13,x9,0
    b334:	fffa0a13          	addi	x20,x20,-1
    b338:	3a0020ef          	jal	x1,d6d8 <__muldf3>
    b33c:	fe0a18e3          	bne	x20,x0,b32c <_mprec_log10+0x50>
    b340:	01812403          	lw	x8,24(x2)
    b344:	01c12083          	lw	x1,28(x2)
    b348:	01412483          	lw	x9,20(x2)
    b34c:	00412b03          	lw	x22,4(x2)
    b350:	00012b83          	lw	x23,0(x2)
    b354:	01012903          	lw	x18,16(x2)
    b358:	00c12983          	lw	x19,12(x2)
    b35c:	00812a03          	lw	x20,8(x2)
    b360:	02010113          	addi	x2,x2,32
    b364:	00008067          	jalr	x0,0(x1)
    b368:	01c12083          	lw	x1,28(x2)
    b36c:	00351a13          	slli	x20,x10,0x3
    b370:	00007797          	auipc	x15,0x7
    b374:	dc078793          	addi	x15,x15,-576 # 12130 <p05.0>
    b378:	014787b3          	add	x15,x15,x20
    b37c:	0107a503          	lw	x10,16(x15)
    b380:	0147a583          	lw	x11,20(x15)
    b384:	01012903          	lw	x18,16(x2)
    b388:	00c12983          	lw	x19,12(x2)
    b38c:	00812a03          	lw	x20,8(x2)
    b390:	02010113          	addi	x2,x2,32
    b394:	00008067          	jalr	x0,0(x1)

0000b398 <__copybits>:
    b398:	01062683          	lw	x13,16(x12)
    b39c:	fff58593          	addi	x11,x11,-1
    b3a0:	4055d593          	srai	x11,x11,0x5
    b3a4:	00158593          	addi	x11,x11,1
    b3a8:	00269693          	slli	x13,x13,0x2
    b3ac:	01460793          	addi	x15,x12,20
    b3b0:	00259593          	slli	x11,x11,0x2
    b3b4:	00d786b3          	add	x13,x15,x13
    b3b8:	00b505b3          	add	x11,x10,x11
    b3bc:	02d7f863          	bgeu	x15,x13,b3ec <__copybits+0x54>
    b3c0:	00050713          	addi	x14,x10,0
    b3c4:	0007a803          	lw	x16,0(x15)
    b3c8:	00478793          	addi	x15,x15,4
    b3cc:	00470713          	addi	x14,x14,4
    b3d0:	ff072e23          	sw	x16,-4(x14)
    b3d4:	fed7e8e3          	bltu	x15,x13,b3c4 <__copybits+0x2c>
    b3d8:	40c687b3          	sub	x15,x13,x12
    b3dc:	feb78793          	addi	x15,x15,-21
    b3e0:	ffc7f793          	andi	x15,x15,-4
    b3e4:	00478793          	addi	x15,x15,4
    b3e8:	00f50533          	add	x10,x10,x15
    b3ec:	00b57863          	bgeu	x10,x11,b3fc <__copybits+0x64>
    b3f0:	00450513          	addi	x10,x10,4
    b3f4:	fe052e23          	sw	x0,-4(x10)
    b3f8:	feb56ce3          	bltu	x10,x11,b3f0 <__copybits+0x58>
    b3fc:	00008067          	jalr	x0,0(x1)

0000b400 <__any_on>:
    b400:	01052703          	lw	x14,16(x10)
    b404:	4055d613          	srai	x12,x11,0x5
    b408:	01450693          	addi	x13,x10,20
    b40c:	02c75263          	bge	x14,x12,b430 <__any_on+0x30>
    b410:	00271713          	slli	x14,x14,0x2
    b414:	00e687b3          	add	x15,x13,x14
    b418:	04f6f263          	bgeu	x13,x15,b45c <__any_on+0x5c>
    b41c:	ffc7a703          	lw	x14,-4(x15)
    b420:	ffc78793          	addi	x15,x15,-4
    b424:	fe070ae3          	beq	x14,x0,b418 <__any_on+0x18>
    b428:	00100513          	addi	x10,x0,1
    b42c:	00008067          	jalr	x0,0(x1)
    b430:	00261793          	slli	x15,x12,0x2
    b434:	00f687b3          	add	x15,x13,x15
    b438:	fee650e3          	bge	x12,x14,b418 <__any_on+0x18>
    b43c:	01f5f593          	andi	x11,x11,31
    b440:	fc058ce3          	beq	x11,x0,b418 <__any_on+0x18>
    b444:	0007a603          	lw	x12,0(x15)
    b448:	00100513          	addi	x10,x0,1
    b44c:	00b65733          	srl	x14,x12,x11
    b450:	00b71733          	sll	x14,x14,x11
    b454:	fce602e3          	beq	x12,x14,b418 <__any_on+0x18>
    b458:	00008067          	jalr	x0,0(x1)
    b45c:	00000513          	addi	x10,x0,0
    b460:	00008067          	jalr	x0,0(x1)

0000b464 <__rshift_D2A>:
    b464:	01052803          	lw	x16,16(x10)
    b468:	4055de13          	srai	x28,x11,0x5
    b46c:	010e4863          	blt	x28,x16,b47c <__rshift_D2A+0x18>
    b470:	00052823          	sw	x0,16(x10)
    b474:	00052a23          	sw	x0,20(x10)
    b478:	00008067          	jalr	x0,0(x1)
    b47c:	01450313          	addi	x6,x10,20
    b480:	00281613          	slli	x12,x16,0x2
    b484:	002e1793          	slli	x15,x28,0x2
    b488:	01f5f593          	andi	x11,x11,31
    b48c:	00c30633          	add	x12,x6,x12
    b490:	00f307b3          	add	x15,x6,x15
    b494:	06058263          	beq	x11,x0,b4f8 <__rshift_D2A+0x94>
    b498:	0007a683          	lw	x13,0(x15)
    b49c:	02000e93          	addi	x29,x0,32
    b4a0:	00478793          	addi	x15,x15,4
    b4a4:	00b6d6b3          	srl	x13,x13,x11
    b4a8:	40be8eb3          	sub	x29,x29,x11
    b4ac:	08c7f463          	bgeu	x15,x12,b534 <__rshift_D2A+0xd0>
    b4b0:	00030893          	addi	x17,x6,0
    b4b4:	0007a703          	lw	x14,0(x15)
    b4b8:	00488893          	addi	x17,x17,4
    b4bc:	00478793          	addi	x15,x15,4
    b4c0:	01d71733          	sll	x14,x14,x29
    b4c4:	00d76733          	or	x14,x14,x13
    b4c8:	fee8ae23          	sw	x14,-4(x17)
    b4cc:	ffc7a683          	lw	x13,-4(x15)
    b4d0:	00b6d6b3          	srl	x13,x13,x11
    b4d4:	fec7e0e3          	bltu	x15,x12,b4b4 <__rshift_D2A+0x50>
    b4d8:	41c80833          	sub	x16,x16,x28
    b4dc:	00281813          	slli	x16,x16,0x2
    b4e0:	ffc80813          	addi	x16,x16,-4
    b4e4:	01030833          	add	x16,x6,x16
    b4e8:	00d82023          	sw	x13,0(x16)
    b4ec:	02068a63          	beq	x13,x0,b520 <__rshift_D2A+0xbc>
    b4f0:	00480813          	addi	x16,x16,4
    b4f4:	02c0006f          	jal	x0,b520 <__rshift_D2A+0xbc>
    b4f8:	00030713          	addi	x14,x6,0
    b4fc:	f6c7fae3          	bgeu	x15,x12,b470 <__rshift_D2A+0xc>
    b500:	0007a683          	lw	x13,0(x15)
    b504:	00478793          	addi	x15,x15,4
    b508:	00470713          	addi	x14,x14,4
    b50c:	fed72e23          	sw	x13,-4(x14)
    b510:	fec7e8e3          	bltu	x15,x12,b500 <__rshift_D2A+0x9c>
    b514:	41c80833          	sub	x16,x16,x28
    b518:	00281813          	slli	x16,x16,0x2
    b51c:	01030833          	add	x16,x6,x16
    b520:	406807b3          	sub	x15,x16,x6
    b524:	4027d793          	srai	x15,x15,0x2
    b528:	00f52823          	sw	x15,16(x10)
    b52c:	f46804e3          	beq	x16,x6,b474 <__rshift_D2A+0x10>
    b530:	00008067          	jalr	x0,0(x1)
    b534:	00d52a23          	sw	x13,20(x10)
    b538:	f2068ce3          	beq	x13,x0,b470 <__rshift_D2A+0xc>
    b53c:	00030813          	addi	x16,x6,0
    b540:	00480813          	addi	x16,x16,4
    b544:	fddff06f          	jal	x0,b520 <__rshift_D2A+0xbc>

0000b548 <__trailz_D2A>:
    b548:	01052703          	lw	x14,16(x10)
    b54c:	fe010113          	addi	x2,x2,-32
    b550:	01450513          	addi	x10,x10,20
    b554:	00271713          	slli	x14,x14,0x2
    b558:	00812c23          	sw	x8,24(x2)
    b55c:	00112e23          	sw	x1,28(x2)
    b560:	00e50733          	add	x14,x10,x14
    b564:	00000413          	addi	x8,x0,0
    b568:	00e56a63          	bltu	x10,x14,b57c <__trailz_D2A+0x34>
    b56c:	02c0006f          	jal	x0,b598 <__trailz_D2A+0x50>
    b570:	00450513          	addi	x10,x10,4
    b574:	02040413          	addi	x8,x8,32
    b578:	02e57063          	bgeu	x10,x14,b598 <__trailz_D2A+0x50>
    b57c:	00052783          	lw	x15,0(x10)
    b580:	fe0788e3          	beq	x15,x0,b570 <__trailz_D2A+0x28>
    b584:	00e57a63          	bgeu	x10,x14,b598 <__trailz_D2A+0x50>
    b588:	00c10513          	addi	x10,x2,12
    b58c:	00f12623          	sw	x15,12(x2)
    b590:	860ff0ef          	jal	x1,a5f0 <__lo0bits>
    b594:	00a40433          	add	x8,x8,x10
    b598:	01c12083          	lw	x1,28(x2)
    b59c:	00040513          	addi	x10,x8,0
    b5a0:	01812403          	lw	x8,24(x2)
    b5a4:	02010113          	addi	x2,x2,32
    b5a8:	00008067          	jalr	x0,0(x1)

0000b5ac <_isatty_r>:
    b5ac:	ff010113          	addi	x2,x2,-16
    b5b0:	00812423          	sw	x8,8(x2)
    b5b4:	00050413          	addi	x8,x10,0
    b5b8:	00058513          	addi	x10,x11,0
    b5bc:	f001ac23          	sw	x0,-232(x3) # 12bb8 <errno>
    b5c0:	00112623          	sw	x1,12(x2)
    b5c4:	cdff40ef          	jal	x1,2a2 <_isatty>
    b5c8:	fff00793          	addi	x15,x0,-1
    b5cc:	00f50a63          	beq	x10,x15,b5e0 <_isatty_r+0x34>
    b5d0:	00c12083          	lw	x1,12(x2)
    b5d4:	00812403          	lw	x8,8(x2)
    b5d8:	01010113          	addi	x2,x2,16
    b5dc:	00008067          	jalr	x0,0(x1)
    b5e0:	00912223          	sw	x9,4(x2)
    b5e4:	f1818493          	addi	x9,x3,-232 # 12bb8 <errno>
    b5e8:	0004a783          	lw	x15,0(x9)
    b5ec:	00078e63          	beq	x15,x0,b608 <_isatty_r+0x5c>
    b5f0:	00c12083          	lw	x1,12(x2)
    b5f4:	00f42023          	sw	x15,0(x8)
    b5f8:	00812403          	lw	x8,8(x2)
    b5fc:	00412483          	lw	x9,4(x2)
    b600:	01010113          	addi	x2,x2,16
    b604:	00008067          	jalr	x0,0(x1)
    b608:	00c12083          	lw	x1,12(x2)
    b60c:	00812403          	lw	x8,8(x2)
    b610:	00412483          	lw	x9,4(x2)
    b614:	01010113          	addi	x2,x2,16
    b618:	00008067          	jalr	x0,0(x1)

0000b61c <_wcrtomb_r>:
    b61c:	fe010113          	addi	x2,x2,-32
    b620:	00812c23          	sw	x8,24(x2)
    b624:	00912a23          	sw	x9,20(x2)
    b628:	00112e23          	sw	x1,28(x2)
    b62c:	00050413          	addi	x8,x10,0
    b630:	00068493          	addi	x9,x13,0
    b634:	e181a783          	lw	x15,-488(x3) # 12ab8 <__global_locale+0xe0>
    b638:	02058263          	beq	x11,x0,b65c <_wcrtomb_r+0x40>
    b63c:	000780e7          	jalr	x1,0(x15)
    b640:	fff00793          	addi	x15,x0,-1
    b644:	02f50663          	beq	x10,x15,b670 <_wcrtomb_r+0x54>
    b648:	01c12083          	lw	x1,28(x2)
    b64c:	01812403          	lw	x8,24(x2)
    b650:	01412483          	lw	x9,20(x2)
    b654:	02010113          	addi	x2,x2,32
    b658:	00008067          	jalr	x0,0(x1)
    b65c:	00000613          	addi	x12,x0,0
    b660:	00410593          	addi	x11,x2,4
    b664:	000780e7          	jalr	x1,0(x15)
    b668:	fff00793          	addi	x15,x0,-1
    b66c:	fcf51ee3          	bne	x10,x15,b648 <_wcrtomb_r+0x2c>
    b670:	0004a023          	sw	x0,0(x9)
    b674:	08a00793          	addi	x15,x0,138
    b678:	01c12083          	lw	x1,28(x2)
    b67c:	00f42023          	sw	x15,0(x8)
    b680:	01812403          	lw	x8,24(x2)
    b684:	01412483          	lw	x9,20(x2)
    b688:	02010113          	addi	x2,x2,32
    b68c:	00008067          	jalr	x0,0(x1)

0000b690 <wcrtomb>:
    b690:	fe010113          	addi	x2,x2,-32
    b694:	00812c23          	sw	x8,24(x2)
    b698:	00912a23          	sw	x9,20(x2)
    b69c:	00112e23          	sw	x1,28(x2)
    b6a0:	00060413          	addi	x8,x12,0
    b6a4:	f141a483          	lw	x9,-236(x3) # 12bb4 <_impure_ptr>
    b6a8:	e181a783          	lw	x15,-488(x3) # 12ab8 <__global_locale+0xe0>
    b6ac:	02050a63          	beq	x10,x0,b6e0 <wcrtomb+0x50>
    b6b0:	00058613          	addi	x12,x11,0
    b6b4:	00040693          	addi	x13,x8,0
    b6b8:	00050593          	addi	x11,x10,0
    b6bc:	00048513          	addi	x10,x9,0
    b6c0:	000780e7          	jalr	x1,0(x15)
    b6c4:	fff00793          	addi	x15,x0,-1
    b6c8:	02f50a63          	beq	x10,x15,b6fc <wcrtomb+0x6c>
    b6cc:	01c12083          	lw	x1,28(x2)
    b6d0:	01812403          	lw	x8,24(x2)
    b6d4:	01412483          	lw	x9,20(x2)
    b6d8:	02010113          	addi	x2,x2,32
    b6dc:	00008067          	jalr	x0,0(x1)
    b6e0:	00060693          	addi	x13,x12,0
    b6e4:	00410593          	addi	x11,x2,4
    b6e8:	00000613          	addi	x12,x0,0
    b6ec:	00048513          	addi	x10,x9,0
    b6f0:	000780e7          	jalr	x1,0(x15)
    b6f4:	fff00793          	addi	x15,x0,-1
    b6f8:	fcf51ae3          	bne	x10,x15,b6cc <wcrtomb+0x3c>
    b6fc:	00042023          	sw	x0,0(x8)
    b700:	01c12083          	lw	x1,28(x2)
    b704:	01812403          	lw	x8,24(x2)
    b708:	08a00793          	addi	x15,x0,138
    b70c:	00f4a023          	sw	x15,0(x9)
    b710:	01412483          	lw	x9,20(x2)
    b714:	02010113          	addi	x2,x2,32
    b718:	00008067          	jalr	x0,0(x1)

0000b71c <_setlocale_r>:
    b71c:	04060063          	beq	x12,x0,b75c <_setlocale_r+0x40>
    b720:	ff010113          	addi	x2,x2,-16
    b724:	00006597          	auipc	x11,0x6
    b728:	45858593          	addi	x11,x11,1112 # 11b7c <__clzsi2+0x1e4>
    b72c:	00060513          	addi	x10,x12,0
    b730:	00812423          	sw	x8,8(x2)
    b734:	00112623          	sw	x1,12(x2)
    b738:	00060413          	addi	x8,x12,0
    b73c:	4c0000ef          	jal	x1,bbfc <strcmp>
    b740:	02051463          	bne	x10,x0,b768 <_setlocale_r+0x4c>
    b744:	00006517          	auipc	x10,0x6
    b748:	43450513          	addi	x10,x10,1076 # 11b78 <__clzsi2+0x1e0>
    b74c:	00c12083          	lw	x1,12(x2)
    b750:	00812403          	lw	x8,8(x2)
    b754:	01010113          	addi	x2,x2,16
    b758:	00008067          	jalr	x0,0(x1)
    b75c:	00006517          	auipc	x10,0x6
    b760:	41c50513          	addi	x10,x10,1052 # 11b78 <__clzsi2+0x1e0>
    b764:	00008067          	jalr	x0,0(x1)
    b768:	00006597          	auipc	x11,0x6
    b76c:	41058593          	addi	x11,x11,1040 # 11b78 <__clzsi2+0x1e0>
    b770:	00040513          	addi	x10,x8,0
    b774:	488000ef          	jal	x1,bbfc <strcmp>
    b778:	fc0506e3          	beq	x10,x0,b744 <_setlocale_r+0x28>
    b77c:	00040513          	addi	x10,x8,0
    b780:	00006597          	auipc	x11,0x6
    b784:	39058593          	addi	x11,x11,912 # 11b10 <__clzsi2+0x178>
    b788:	474000ef          	jal	x1,bbfc <strcmp>
    b78c:	fa050ce3          	beq	x10,x0,b744 <_setlocale_r+0x28>
    b790:	00000513          	addi	x10,x0,0
    b794:	fb9ff06f          	jal	x0,b74c <_setlocale_r+0x30>

0000b798 <__locale_mb_cur_max>:
    b798:	e601c503          	lbu	x10,-416(x3) # 12b00 <__global_locale+0x128>
    b79c:	00008067          	jalr	x0,0(x1)

0000b7a0 <setlocale>:
    b7a0:	04058063          	beq	x11,x0,b7e0 <setlocale+0x40>
    b7a4:	ff010113          	addi	x2,x2,-16
    b7a8:	00812423          	sw	x8,8(x2)
    b7ac:	00058413          	addi	x8,x11,0
    b7b0:	00040513          	addi	x10,x8,0
    b7b4:	00006597          	auipc	x11,0x6
    b7b8:	3c858593          	addi	x11,x11,968 # 11b7c <__clzsi2+0x1e4>
    b7bc:	00112623          	sw	x1,12(x2)
    b7c0:	43c000ef          	jal	x1,bbfc <strcmp>
    b7c4:	02051463          	bne	x10,x0,b7ec <setlocale+0x4c>
    b7c8:	00006517          	auipc	x10,0x6
    b7cc:	3b050513          	addi	x10,x10,944 # 11b78 <__clzsi2+0x1e0>
    b7d0:	00c12083          	lw	x1,12(x2)
    b7d4:	00812403          	lw	x8,8(x2)
    b7d8:	01010113          	addi	x2,x2,16
    b7dc:	00008067          	jalr	x0,0(x1)
    b7e0:	00006517          	auipc	x10,0x6
    b7e4:	39850513          	addi	x10,x10,920 # 11b78 <__clzsi2+0x1e0>
    b7e8:	00008067          	jalr	x0,0(x1)
    b7ec:	00006597          	auipc	x11,0x6
    b7f0:	38c58593          	addi	x11,x11,908 # 11b78 <__clzsi2+0x1e0>
    b7f4:	00040513          	addi	x10,x8,0
    b7f8:	404000ef          	jal	x1,bbfc <strcmp>
    b7fc:	fc0506e3          	beq	x10,x0,b7c8 <setlocale+0x28>
    b800:	00040513          	addi	x10,x8,0
    b804:	00006597          	auipc	x11,0x6
    b808:	30c58593          	addi	x11,x11,780 # 11b10 <__clzsi2+0x178>
    b80c:	3f0000ef          	jal	x1,bbfc <strcmp>
    b810:	fa050ce3          	beq	x10,x0,b7c8 <setlocale+0x28>
    b814:	00000513          	addi	x10,x0,0
    b818:	fb9ff06f          	jal	x0,b7d0 <setlocale+0x30>

0000b81c <abort>:
    b81c:	ff010113          	addi	x2,x2,-16
    b820:	00600513          	addi	x10,x0,6
    b824:	00112623          	sw	x1,12(x2)
    b828:	7f4000ef          	jal	x1,c01c <raise>
    b82c:	00100513          	addi	x10,x0,1
    b830:	a15f40ef          	jal	x1,244 <_exit>

0000b834 <_calloc_r>:
    b834:	02c5b7b3          	mulhu	x15,x11,x12
    b838:	ff010113          	addi	x2,x2,-16
    b83c:	00112623          	sw	x1,12(x2)
    b840:	00812423          	sw	x8,8(x2)
    b844:	02c585b3          	mul	x11,x11,x12
    b848:	0a079063          	bne	x15,x0,b8e8 <_calloc_r+0xb4>
    b84c:	875f50ef          	jal	x1,10c0 <_malloc_r>
    b850:	00050413          	addi	x8,x10,0
    b854:	0a050063          	beq	x10,x0,b8f4 <_calloc_r+0xc0>
    b858:	ffc52603          	lw	x12,-4(x10)
    b85c:	02400713          	addi	x14,x0,36
    b860:	ffc67613          	andi	x12,x12,-4
    b864:	ffc60613          	addi	x12,x12,-4
    b868:	04c76863          	bltu	x14,x12,b8b8 <_calloc_r+0x84>
    b86c:	01300693          	addi	x13,x0,19
    b870:	00050793          	addi	x15,x10,0
    b874:	02c6f263          	bgeu	x13,x12,b898 <_calloc_r+0x64>
    b878:	00052023          	sw	x0,0(x10)
    b87c:	00052223          	sw	x0,4(x10)
    b880:	01b00793          	addi	x15,x0,27
    b884:	04c7f863          	bgeu	x15,x12,b8d4 <_calloc_r+0xa0>
    b888:	00052423          	sw	x0,8(x10)
    b88c:	00052623          	sw	x0,12(x10)
    b890:	01050793          	addi	x15,x10,16
    b894:	06e60c63          	beq	x12,x14,b90c <_calloc_r+0xd8>
    b898:	0007a023          	sw	x0,0(x15)
    b89c:	0007a223          	sw	x0,4(x15)
    b8a0:	0007a423          	sw	x0,8(x15)
    b8a4:	00c12083          	lw	x1,12(x2)
    b8a8:	00040513          	addi	x10,x8,0
    b8ac:	00812403          	lw	x8,8(x2)
    b8b0:	01010113          	addi	x2,x2,16
    b8b4:	00008067          	jalr	x0,0(x1)
    b8b8:	00000593          	addi	x11,x0,0
    b8bc:	b89f40ef          	jal	x1,444 <memset>
    b8c0:	00c12083          	lw	x1,12(x2)
    b8c4:	00040513          	addi	x10,x8,0
    b8c8:	00812403          	lw	x8,8(x2)
    b8cc:	01010113          	addi	x2,x2,16
    b8d0:	00008067          	jalr	x0,0(x1)
    b8d4:	00850793          	addi	x15,x10,8
    b8d8:	0007a023          	sw	x0,0(x15)
    b8dc:	0007a223          	sw	x0,4(x15)
    b8e0:	0007a423          	sw	x0,8(x15)
    b8e4:	fc1ff06f          	jal	x0,b8a4 <_calloc_r+0x70>
    b8e8:	0ac000ef          	jal	x1,b994 <__errno>
    b8ec:	00c00793          	addi	x15,x0,12
    b8f0:	00f52023          	sw	x15,0(x10)
    b8f4:	00000413          	addi	x8,x0,0
    b8f8:	00c12083          	lw	x1,12(x2)
    b8fc:	00040513          	addi	x10,x8,0
    b900:	00812403          	lw	x8,8(x2)
    b904:	01010113          	addi	x2,x2,16
    b908:	00008067          	jalr	x0,0(x1)
    b90c:	00052823          	sw	x0,16(x10)
    b910:	00052a23          	sw	x0,20(x10)
    b914:	01850793          	addi	x15,x10,24
    b918:	f81ff06f          	jal	x0,b898 <_calloc_r+0x64>

0000b91c <_fstat_r>:
    b91c:	ff010113          	addi	x2,x2,-16
    b920:	00058713          	addi	x14,x11,0
    b924:	00812423          	sw	x8,8(x2)
    b928:	00060593          	addi	x11,x12,0
    b92c:	00050413          	addi	x8,x10,0
    b930:	00070513          	addi	x10,x14,0
    b934:	f001ac23          	sw	x0,-232(x3) # 12bb8 <errno>
    b938:	00112623          	sw	x1,12(x2)
    b93c:	92bf40ef          	jal	x1,266 <_fstat>
    b940:	fff00793          	addi	x15,x0,-1
    b944:	00f50a63          	beq	x10,x15,b958 <_fstat_r+0x3c>
    b948:	00c12083          	lw	x1,12(x2)
    b94c:	00812403          	lw	x8,8(x2)
    b950:	01010113          	addi	x2,x2,16
    b954:	00008067          	jalr	x0,0(x1)
    b958:	00912223          	sw	x9,4(x2)
    b95c:	f1818493          	addi	x9,x3,-232 # 12bb8 <errno>
    b960:	0004a783          	lw	x15,0(x9)
    b964:	00078e63          	beq	x15,x0,b980 <_fstat_r+0x64>
    b968:	00c12083          	lw	x1,12(x2)
    b96c:	00f42023          	sw	x15,0(x8)
    b970:	00812403          	lw	x8,8(x2)
    b974:	00412483          	lw	x9,4(x2)
    b978:	01010113          	addi	x2,x2,16
    b97c:	00008067          	jalr	x0,0(x1)
    b980:	00c12083          	lw	x1,12(x2)
    b984:	00812403          	lw	x8,8(x2)
    b988:	00412483          	lw	x9,4(x2)
    b98c:	01010113          	addi	x2,x2,16
    b990:	00008067          	jalr	x0,0(x1)

0000b994 <__errno>:
    b994:	f141a503          	lw	x10,-236(x3) # 12bb4 <_impure_ptr>
    b998:	00008067          	jalr	x0,0(x1)

0000b99c <_fiprintf_r>:
    b99c:	fc010113          	addi	x2,x2,-64
    b9a0:	02c10313          	addi	x6,x2,44
    b9a4:	02d12623          	sw	x13,44(x2)
    b9a8:	00030693          	addi	x13,x6,0
    b9ac:	00112e23          	sw	x1,28(x2)
    b9b0:	02e12823          	sw	x14,48(x2)
    b9b4:	02f12a23          	sw	x15,52(x2)
    b9b8:	03012c23          	sw	x16,56(x2)
    b9bc:	03112e23          	sw	x17,60(x2)
    b9c0:	00612623          	sw	x6,12(x2)
    b9c4:	e20fa0ef          	jal	x1,5fe4 <_vfiprintf_r>
    b9c8:	01c12083          	lw	x1,28(x2)
    b9cc:	04010113          	addi	x2,x2,64
    b9d0:	00008067          	jalr	x0,0(x1)

0000b9d4 <fiprintf>:
    b9d4:	fc010113          	addi	x2,x2,-64
    b9d8:	02810313          	addi	x6,x2,40
    b9dc:	00058e13          	addi	x28,x11,0
    b9e0:	02c12423          	sw	x12,40(x2)
    b9e4:	02d12623          	sw	x13,44(x2)
    b9e8:	00050593          	addi	x11,x10,0
    b9ec:	000e0613          	addi	x12,x28,0
    b9f0:	00030693          	addi	x13,x6,0
    b9f4:	f141a503          	lw	x10,-236(x3) # 12bb4 <_impure_ptr>
    b9f8:	00112e23          	sw	x1,28(x2)
    b9fc:	02e12823          	sw	x14,48(x2)
    ba00:	02f12a23          	sw	x15,52(x2)
    ba04:	03012c23          	sw	x16,56(x2)
    ba08:	03112e23          	sw	x17,60(x2)
    ba0c:	00612623          	sw	x6,12(x2)
    ba10:	dd4fa0ef          	jal	x1,5fe4 <_vfiprintf_r>
    ba14:	01c12083          	lw	x1,28(x2)
    ba18:	04010113          	addi	x2,x2,64
    ba1c:	00008067          	jalr	x0,0(x1)

0000ba20 <_wctomb_r>:
    ba20:	e181a783          	lw	x15,-488(x3) # 12ab8 <__global_locale+0xe0>
    ba24:	00078067          	jalr	x0,0(x15)

0000ba28 <__ascii_wctomb>:
    ba28:	02058463          	beq	x11,x0,ba50 <__ascii_wctomb+0x28>
    ba2c:	0ff00793          	addi	x15,x0,255
    ba30:	00c7e863          	bltu	x15,x12,ba40 <__ascii_wctomb+0x18>
    ba34:	00c58023          	sb	x12,0(x11)
    ba38:	00100513          	addi	x10,x0,1
    ba3c:	00008067          	jalr	x0,0(x1)
    ba40:	08a00793          	addi	x15,x0,138
    ba44:	00f52023          	sw	x15,0(x10)
    ba48:	fff00513          	addi	x10,x0,-1
    ba4c:	00008067          	jalr	x0,0(x1)
    ba50:	00000513          	addi	x10,x0,0
    ba54:	00008067          	jalr	x0,0(x1)

0000ba58 <__swbuf_r>:
    ba58:	fe010113          	addi	x2,x2,-32
    ba5c:	00812c23          	sw	x8,24(x2)
    ba60:	00912a23          	sw	x9,20(x2)
    ba64:	01212823          	sw	x18,16(x2)
    ba68:	00112e23          	sw	x1,28(x2)
    ba6c:	00050913          	addi	x18,x10,0
    ba70:	00058493          	addi	x9,x11,0
    ba74:	00060413          	addi	x8,x12,0
    ba78:	00050663          	beq	x10,x0,ba84 <__swbuf_r+0x2c>
    ba7c:	03452783          	lw	x15,52(x10)
    ba80:	16078263          	beq	x15,x0,bbe4 <__swbuf_r+0x18c>
    ba84:	01842783          	lw	x15,24(x8)
    ba88:	00c41703          	lh	x14,12(x8)
    ba8c:	00f42423          	sw	x15,8(x8)
    ba90:	00877793          	andi	x15,x14,8
    ba94:	08078263          	beq	x15,x0,bb18 <__swbuf_r+0xc0>
    ba98:	01042783          	lw	x15,16(x8)
    ba9c:	06078e63          	beq	x15,x0,bb18 <__swbuf_r+0xc0>
    baa0:	01312623          	sw	x19,12(x2)
    baa4:	01271693          	slli	x13,x14,0x12
    baa8:	0ff4f993          	andi	x19,x9,255
    baac:	000025b7          	lui	x11,0x2
    bab0:	0ff4f493          	andi	x9,x9,255
    bab4:	0806da63          	bge	x13,x0,bb48 <__swbuf_r+0xf0>
    bab8:	00042703          	lw	x14,0(x8)
    babc:	01442683          	lw	x13,20(x8)
    bac0:	40f707b3          	sub	x15,x14,x15
    bac4:	0ad7d863          	bge	x15,x13,bb74 <__swbuf_r+0x11c>
    bac8:	00842683          	lw	x13,8(x8)
    bacc:	00170613          	addi	x12,x14,1
    bad0:	00c42023          	sw	x12,0(x8)
    bad4:	fff68693          	addi	x13,x13,-1
    bad8:	00d42423          	sw	x13,8(x8)
    badc:	01370023          	sb	x19,0(x14)
    bae0:	01442703          	lw	x14,20(x8)
    bae4:	00178793          	addi	x15,x15,1
    bae8:	0cf70263          	beq	x14,x15,bbac <__swbuf_r+0x154>
    baec:	00c45783          	lhu	x15,12(x8)
    baf0:	0017f793          	andi	x15,x15,1
    baf4:	0c079a63          	bne	x15,x0,bbc8 <__swbuf_r+0x170>
    baf8:	00c12983          	lw	x19,12(x2)
    bafc:	01c12083          	lw	x1,28(x2)
    bb00:	01812403          	lw	x8,24(x2)
    bb04:	01012903          	lw	x18,16(x2)
    bb08:	00048513          	addi	x10,x9,0
    bb0c:	01412483          	lw	x9,20(x2)
    bb10:	02010113          	addi	x2,x2,32
    bb14:	00008067          	jalr	x0,0(x1)
    bb18:	00040593          	addi	x11,x8,0
    bb1c:	00090513          	addi	x10,x18,0
    bb20:	fcdf60ef          	jal	x1,2aec <__swsetup_r>
    bb24:	08051e63          	bne	x10,x0,bbc0 <__swbuf_r+0x168>
    bb28:	00c41703          	lh	x14,12(x8)
    bb2c:	01312623          	sw	x19,12(x2)
    bb30:	01042783          	lw	x15,16(x8)
    bb34:	01271693          	slli	x13,x14,0x12
    bb38:	0ff4f993          	andi	x19,x9,255
    bb3c:	000025b7          	lui	x11,0x2
    bb40:	0ff4f493          	andi	x9,x9,255
    bb44:	f606cae3          	blt	x13,x0,bab8 <__swbuf_r+0x60>
    bb48:	06442683          	lw	x13,100(x8)
    bb4c:	ffffe637          	lui	x12,0xffffe
    bb50:	00b76733          	or	x14,x14,x11
    bb54:	fff60613          	addi	x12,x12,-1 # ffffdfff <__heap_end+0xffbfdfff>
    bb58:	00c6f6b3          	and	x13,x13,x12
    bb5c:	00e41623          	sh	x14,12(x8)
    bb60:	00042703          	lw	x14,0(x8)
    bb64:	06d42223          	sw	x13,100(x8)
    bb68:	01442683          	lw	x13,20(x8)
    bb6c:	40f707b3          	sub	x15,x14,x15
    bb70:	f4d7cce3          	blt	x15,x13,bac8 <__swbuf_r+0x70>
    bb74:	00040593          	addi	x11,x8,0
    bb78:	00090513          	addi	x10,x18,0
    bb7c:	db5f60ef          	jal	x1,2930 <_fflush_r>
    bb80:	02051e63          	bne	x10,x0,bbbc <__swbuf_r+0x164>
    bb84:	00042703          	lw	x14,0(x8)
    bb88:	00842683          	lw	x13,8(x8)
    bb8c:	00100793          	addi	x15,x0,1
    bb90:	00170613          	addi	x12,x14,1
    bb94:	fff68693          	addi	x13,x13,-1
    bb98:	00c42023          	sw	x12,0(x8)
    bb9c:	00d42423          	sw	x13,8(x8)
    bba0:	01370023          	sb	x19,0(x14)
    bba4:	01442703          	lw	x14,20(x8)
    bba8:	f4f712e3          	bne	x14,x15,baec <__swbuf_r+0x94>
    bbac:	00040593          	addi	x11,x8,0
    bbb0:	00090513          	addi	x10,x18,0
    bbb4:	d7df60ef          	jal	x1,2930 <_fflush_r>
    bbb8:	f40500e3          	beq	x10,x0,baf8 <__swbuf_r+0xa0>
    bbbc:	00c12983          	lw	x19,12(x2)
    bbc0:	fff00493          	addi	x9,x0,-1
    bbc4:	f39ff06f          	jal	x0,bafc <__swbuf_r+0xa4>
    bbc8:	00a00793          	addi	x15,x0,10
    bbcc:	f2f496e3          	bne	x9,x15,baf8 <__swbuf_r+0xa0>
    bbd0:	00040593          	addi	x11,x8,0
    bbd4:	00090513          	addi	x10,x18,0
    bbd8:	d59f60ef          	jal	x1,2930 <_fflush_r>
    bbdc:	f0050ee3          	beq	x10,x0,baf8 <__swbuf_r+0xa0>
    bbe0:	fddff06f          	jal	x0,bbbc <__swbuf_r+0x164>
    bbe4:	e71f40ef          	jal	x1,a54 <__sinit>
    bbe8:	e9dff06f          	jal	x0,ba84 <__swbuf_r+0x2c>

0000bbec <__swbuf>:
    bbec:	00058613          	addi	x12,x11,0 # 2000 <memmove+0xb4>
    bbf0:	00050593          	addi	x11,x10,0
    bbf4:	f141a503          	lw	x10,-236(x3) # 12bb4 <_impure_ptr>
    bbf8:	e61ff06f          	jal	x0,ba58 <__swbuf_r>

0000bbfc <strcmp>:
    bbfc:	00b56733          	or	x14,x10,x11
    bc00:	fff00393          	addi	x7,x0,-1
    bc04:	00377713          	andi	x14,x14,3
    bc08:	10071063          	bne	x14,x0,bd08 <strcmp+0x10c>
    bc0c:	7f7f87b7          	lui	x15,0x7f7f8
    bc10:	f7f78793          	addi	x15,x15,-129 # 7f7f7f7f <__heap_end+0x7f3f7f7f>
    bc14:	00052603          	lw	x12,0(x10)
    bc18:	0005a683          	lw	x13,0(x11)
    bc1c:	00f672b3          	and	x5,x12,x15
    bc20:	00f66333          	or	x6,x12,x15
    bc24:	00f282b3          	add	x5,x5,x15
    bc28:	0062e2b3          	or	x5,x5,x6
    bc2c:	10729263          	bne	x5,x7,bd30 <strcmp+0x134>
    bc30:	08d61663          	bne	x12,x13,bcbc <strcmp+0xc0>
    bc34:	00452603          	lw	x12,4(x10)
    bc38:	0045a683          	lw	x13,4(x11)
    bc3c:	00f672b3          	and	x5,x12,x15
    bc40:	00f66333          	or	x6,x12,x15
    bc44:	00f282b3          	add	x5,x5,x15
    bc48:	0062e2b3          	or	x5,x5,x6
    bc4c:	0c729e63          	bne	x5,x7,bd28 <strcmp+0x12c>
    bc50:	06d61663          	bne	x12,x13,bcbc <strcmp+0xc0>
    bc54:	00852603          	lw	x12,8(x10)
    bc58:	0085a683          	lw	x13,8(x11)
    bc5c:	00f672b3          	and	x5,x12,x15
    bc60:	00f66333          	or	x6,x12,x15
    bc64:	00f282b3          	add	x5,x5,x15
    bc68:	0062e2b3          	or	x5,x5,x6
    bc6c:	0c729863          	bne	x5,x7,bd3c <strcmp+0x140>
    bc70:	04d61663          	bne	x12,x13,bcbc <strcmp+0xc0>
    bc74:	00c52603          	lw	x12,12(x10)
    bc78:	00c5a683          	lw	x13,12(x11)
    bc7c:	00f672b3          	and	x5,x12,x15
    bc80:	00f66333          	or	x6,x12,x15
    bc84:	00f282b3          	add	x5,x5,x15
    bc88:	0062e2b3          	or	x5,x5,x6
    bc8c:	0c729263          	bne	x5,x7,bd50 <strcmp+0x154>
    bc90:	02d61663          	bne	x12,x13,bcbc <strcmp+0xc0>
    bc94:	01052603          	lw	x12,16(x10)
    bc98:	0105a683          	lw	x13,16(x11)
    bc9c:	00f672b3          	and	x5,x12,x15
    bca0:	00f66333          	or	x6,x12,x15
    bca4:	00f282b3          	add	x5,x5,x15
    bca8:	0062e2b3          	or	x5,x5,x6
    bcac:	0a729c63          	bne	x5,x7,bd64 <strcmp+0x168>
    bcb0:	01450513          	addi	x10,x10,20
    bcb4:	01458593          	addi	x11,x11,20
    bcb8:	f4d60ee3          	beq	x12,x13,bc14 <strcmp+0x18>
    bcbc:	01061713          	slli	x14,x12,0x10
    bcc0:	01069793          	slli	x15,x13,0x10
    bcc4:	00f71e63          	bne	x14,x15,bce0 <strcmp+0xe4>
    bcc8:	01065713          	srli	x14,x12,0x10
    bccc:	0106d793          	srli	x15,x13,0x10
    bcd0:	40f70533          	sub	x10,x14,x15
    bcd4:	0ff57593          	andi	x11,x10,255
    bcd8:	02059063          	bne	x11,x0,bcf8 <strcmp+0xfc>
    bcdc:	00008067          	jalr	x0,0(x1)
    bce0:	01075713          	srli	x14,x14,0x10
    bce4:	0107d793          	srli	x15,x15,0x10
    bce8:	40f70533          	sub	x10,x14,x15
    bcec:	0ff57593          	andi	x11,x10,255
    bcf0:	00059463          	bne	x11,x0,bcf8 <strcmp+0xfc>
    bcf4:	00008067          	jalr	x0,0(x1)
    bcf8:	0ff77713          	andi	x14,x14,255
    bcfc:	0ff7f793          	andi	x15,x15,255
    bd00:	40f70533          	sub	x10,x14,x15
    bd04:	00008067          	jalr	x0,0(x1)
    bd08:	00054603          	lbu	x12,0(x10)
    bd0c:	0005c683          	lbu	x13,0(x11)
    bd10:	00150513          	addi	x10,x10,1
    bd14:	00158593          	addi	x11,x11,1
    bd18:	00d61463          	bne	x12,x13,bd20 <strcmp+0x124>
    bd1c:	fe0616e3          	bne	x12,x0,bd08 <strcmp+0x10c>
    bd20:	40d60533          	sub	x10,x12,x13
    bd24:	00008067          	jalr	x0,0(x1)
    bd28:	00450513          	addi	x10,x10,4
    bd2c:	00458593          	addi	x11,x11,4
    bd30:	fcd61ce3          	bne	x12,x13,bd08 <strcmp+0x10c>
    bd34:	00000513          	addi	x10,x0,0
    bd38:	00008067          	jalr	x0,0(x1)
    bd3c:	00850513          	addi	x10,x10,8
    bd40:	00858593          	addi	x11,x11,8
    bd44:	fcd612e3          	bne	x12,x13,bd08 <strcmp+0x10c>
    bd48:	00000513          	addi	x10,x0,0
    bd4c:	00008067          	jalr	x0,0(x1)
    bd50:	00c50513          	addi	x10,x10,12
    bd54:	00c58593          	addi	x11,x11,12
    bd58:	fad618e3          	bne	x12,x13,bd08 <strcmp+0x10c>
    bd5c:	00000513          	addi	x10,x0,0
    bd60:	00008067          	jalr	x0,0(x1)
    bd64:	01050513          	addi	x10,x10,16
    bd68:	01058593          	addi	x11,x11,16
    bd6c:	f8d61ee3          	bne	x12,x13,bd08 <strcmp+0x10c>
    bd70:	00000513          	addi	x10,x0,0
    bd74:	00008067          	jalr	x0,0(x1)

0000bd78 <_init_signal_r>:
    bd78:	11852783          	lw	x15,280(x10)
    bd7c:	00078663          	beq	x15,x0,bd88 <_init_signal_r+0x10>
    bd80:	00000513          	addi	x10,x0,0
    bd84:	00008067          	jalr	x0,0(x1)
    bd88:	ff010113          	addi	x2,x2,-16
    bd8c:	08000593          	addi	x11,x0,128
    bd90:	00812423          	sw	x8,8(x2)
    bd94:	00112623          	sw	x1,12(x2)
    bd98:	00050413          	addi	x8,x10,0
    bd9c:	b24f50ef          	jal	x1,10c0 <_malloc_r>
    bda0:	10a42c23          	sw	x10,280(x8)
    bda4:	02050463          	beq	x10,x0,bdcc <_init_signal_r+0x54>
    bda8:	08050793          	addi	x15,x10,128
    bdac:	00052023          	sw	x0,0(x10)
    bdb0:	00450513          	addi	x10,x10,4
    bdb4:	fef51ce3          	bne	x10,x15,bdac <_init_signal_r+0x34>
    bdb8:	00000513          	addi	x10,x0,0
    bdbc:	00c12083          	lw	x1,12(x2)
    bdc0:	00812403          	lw	x8,8(x2)
    bdc4:	01010113          	addi	x2,x2,16
    bdc8:	00008067          	jalr	x0,0(x1)
    bdcc:	fff00513          	addi	x10,x0,-1
    bdd0:	fedff06f          	jal	x0,bdbc <_init_signal_r+0x44>

0000bdd4 <_signal_r>:
    bdd4:	fe010113          	addi	x2,x2,-32
    bdd8:	00912a23          	sw	x9,20(x2)
    bddc:	00112e23          	sw	x1,28(x2)
    bde0:	01f00793          	addi	x15,x0,31
    bde4:	00050493          	addi	x9,x10,0
    bde8:	02b7ec63          	bltu	x15,x11,be20 <_signal_r+0x4c>
    bdec:	11852783          	lw	x15,280(x10)
    bdf0:	00812c23          	sw	x8,24(x2)
    bdf4:	00058413          	addi	x8,x11,0
    bdf8:	04078263          	beq	x15,x0,be3c <_signal_r+0x68>
    bdfc:	00241413          	slli	x8,x8,0x2
    be00:	008787b3          	add	x15,x15,x8
    be04:	01c12083          	lw	x1,28(x2)
    be08:	01812403          	lw	x8,24(x2)
    be0c:	0007a503          	lw	x10,0(x15)
    be10:	00c7a023          	sw	x12,0(x15)
    be14:	01412483          	lw	x9,20(x2)
    be18:	02010113          	addi	x2,x2,32
    be1c:	00008067          	jalr	x0,0(x1)
    be20:	01600793          	addi	x15,x0,22
    be24:	00f52023          	sw	x15,0(x10)
    be28:	fff00513          	addi	x10,x0,-1
    be2c:	01c12083          	lw	x1,28(x2)
    be30:	01412483          	lw	x9,20(x2)
    be34:	02010113          	addi	x2,x2,32
    be38:	00008067          	jalr	x0,0(x1)
    be3c:	08000593          	addi	x11,x0,128
    be40:	00c12623          	sw	x12,12(x2)
    be44:	a7cf50ef          	jal	x1,10c0 <_malloc_r>
    be48:	10a4ac23          	sw	x10,280(x9)
    be4c:	00c12603          	lw	x12,12(x2)
    be50:	00050793          	addi	x15,x10,0
    be54:	00050713          	addi	x14,x10,0
    be58:	08050693          	addi	x13,x10,128
    be5c:	00050a63          	beq	x10,x0,be70 <_signal_r+0x9c>
    be60:	00072023          	sw	x0,0(x14)
    be64:	00470713          	addi	x14,x14,4
    be68:	fed71ce3          	bne	x14,x13,be60 <_signal_r+0x8c>
    be6c:	f91ff06f          	jal	x0,bdfc <_signal_r+0x28>
    be70:	01812403          	lw	x8,24(x2)
    be74:	fff00513          	addi	x10,x0,-1
    be78:	fb5ff06f          	jal	x0,be2c <_signal_r+0x58>

0000be7c <_raise_r>:
    be7c:	ff010113          	addi	x2,x2,-16
    be80:	00912223          	sw	x9,4(x2)
    be84:	00112623          	sw	x1,12(x2)
    be88:	01f00793          	addi	x15,x0,31
    be8c:	00050493          	addi	x9,x10,0
    be90:	08b7ee63          	bltu	x15,x11,bf2c <_raise_r+0xb0>
    be94:	11852783          	lw	x15,280(x10)
    be98:	00812423          	sw	x8,8(x2)
    be9c:	00058413          	addi	x8,x11,0
    bea0:	04078463          	beq	x15,x0,bee8 <_raise_r+0x6c>
    bea4:	00259713          	slli	x14,x11,0x2
    bea8:	00e787b3          	add	x15,x15,x14
    beac:	0007a703          	lw	x14,0(x15)
    beb0:	02070c63          	beq	x14,x0,bee8 <_raise_r+0x6c>
    beb4:	00100513          	addi	x10,x0,1
    beb8:	00a70c63          	beq	x14,x10,bed0 <_raise_r+0x54>
    bebc:	fff00693          	addi	x13,x0,-1
    bec0:	04d70863          	beq	x14,x13,bf10 <_raise_r+0x94>
    bec4:	0007a023          	sw	x0,0(x15)
    bec8:	00058513          	addi	x10,x11,0
    becc:	000700e7          	jalr	x1,0(x14)
    bed0:	00812403          	lw	x8,8(x2)
    bed4:	00000513          	addi	x10,x0,0
    bed8:	00c12083          	lw	x1,12(x2)
    bedc:	00412483          	lw	x9,4(x2)
    bee0:	01010113          	addi	x2,x2,16
    bee4:	00008067          	jalr	x0,0(x1)
    bee8:	00048513          	addi	x10,x9,0
    beec:	4c8000ef          	jal	x1,c3b4 <_getpid_r>
    bef0:	00040613          	addi	x12,x8,0
    bef4:	00812403          	lw	x8,8(x2)
    bef8:	00c12083          	lw	x1,12(x2)
    befc:	00050593          	addi	x11,x10,0
    bf00:	00048513          	addi	x10,x9,0
    bf04:	00412483          	lw	x9,4(x2)
    bf08:	01010113          	addi	x2,x2,16
    bf0c:	4300006f          	jal	x0,c33c <_kill_r>
    bf10:	00812403          	lw	x8,8(x2)
    bf14:	00c12083          	lw	x1,12(x2)
    bf18:	01600793          	addi	x15,x0,22
    bf1c:	00f4a023          	sw	x15,0(x9)
    bf20:	00412483          	lw	x9,4(x2)
    bf24:	01010113          	addi	x2,x2,16
    bf28:	00008067          	jalr	x0,0(x1)
    bf2c:	01600793          	addi	x15,x0,22
    bf30:	00f52023          	sw	x15,0(x10)
    bf34:	fff00513          	addi	x10,x0,-1
    bf38:	fa1ff06f          	jal	x0,bed8 <_raise_r+0x5c>

0000bf3c <__sigtramp_r>:
    bf3c:	01f00793          	addi	x15,x0,31
    bf40:	0cb7ea63          	bltu	x15,x11,c014 <__sigtramp_r+0xd8>
    bf44:	11852783          	lw	x15,280(x10)
    bf48:	ff010113          	addi	x2,x2,-16
    bf4c:	00812423          	sw	x8,8(x2)
    bf50:	00912223          	sw	x9,4(x2)
    bf54:	00112623          	sw	x1,12(x2)
    bf58:	00058413          	addi	x8,x11,0
    bf5c:	00050493          	addi	x9,x10,0
    bf60:	08078063          	beq	x15,x0,bfe0 <__sigtramp_r+0xa4>
    bf64:	00241713          	slli	x14,x8,0x2
    bf68:	00e787b3          	add	x15,x15,x14
    bf6c:	0007a703          	lw	x14,0(x15)
    bf70:	02070c63          	beq	x14,x0,bfa8 <__sigtramp_r+0x6c>
    bf74:	fff00693          	addi	x13,x0,-1
    bf78:	06d70063          	beq	x14,x13,bfd8 <__sigtramp_r+0x9c>
    bf7c:	00100693          	addi	x13,x0,1
    bf80:	04d70063          	beq	x14,x13,bfc0 <__sigtramp_r+0x84>
    bf84:	00040513          	addi	x10,x8,0
    bf88:	0007a023          	sw	x0,0(x15)
    bf8c:	000700e7          	jalr	x1,0(x14)
    bf90:	00000513          	addi	x10,x0,0
    bf94:	00c12083          	lw	x1,12(x2)
    bf98:	00812403          	lw	x8,8(x2)
    bf9c:	00412483          	lw	x9,4(x2)
    bfa0:	01010113          	addi	x2,x2,16
    bfa4:	00008067          	jalr	x0,0(x1)
    bfa8:	00c12083          	lw	x1,12(x2)
    bfac:	00812403          	lw	x8,8(x2)
    bfb0:	00412483          	lw	x9,4(x2)
    bfb4:	00100513          	addi	x10,x0,1
    bfb8:	01010113          	addi	x2,x2,16
    bfbc:	00008067          	jalr	x0,0(x1)
    bfc0:	00c12083          	lw	x1,12(x2)
    bfc4:	00812403          	lw	x8,8(x2)
    bfc8:	00412483          	lw	x9,4(x2)
    bfcc:	00300513          	addi	x10,x0,3
    bfd0:	01010113          	addi	x2,x2,16
    bfd4:	00008067          	jalr	x0,0(x1)
    bfd8:	00200513          	addi	x10,x0,2
    bfdc:	fb9ff06f          	jal	x0,bf94 <__sigtramp_r+0x58>
    bfe0:	08000593          	addi	x11,x0,128
    bfe4:	8dcf50ef          	jal	x1,10c0 <_malloc_r>
    bfe8:	10a4ac23          	sw	x10,280(x9)
    bfec:	00050793          	addi	x15,x10,0
    bff0:	00050e63          	beq	x10,x0,c00c <__sigtramp_r+0xd0>
    bff4:	00050713          	addi	x14,x10,0
    bff8:	08050693          	addi	x13,x10,128
    bffc:	00072023          	sw	x0,0(x14)
    c000:	00470713          	addi	x14,x14,4
    c004:	fed71ce3          	bne	x14,x13,bffc <__sigtramp_r+0xc0>
    c008:	f5dff06f          	jal	x0,bf64 <__sigtramp_r+0x28>
    c00c:	fff00513          	addi	x10,x0,-1
    c010:	f85ff06f          	jal	x0,bf94 <__sigtramp_r+0x58>
    c014:	fff00513          	addi	x10,x0,-1
    c018:	00008067          	jalr	x0,0(x1)

0000c01c <raise>:
    c01c:	ff010113          	addi	x2,x2,-16
    c020:	00912223          	sw	x9,4(x2)
    c024:	00112623          	sw	x1,12(x2)
    c028:	01f00793          	addi	x15,x0,31
    c02c:	f141a483          	lw	x9,-236(x3) # 12bb4 <_impure_ptr>
    c030:	08a7ee63          	bltu	x15,x10,c0cc <raise+0xb0>
    c034:	1184a783          	lw	x15,280(x9)
    c038:	00812423          	sw	x8,8(x2)
    c03c:	00050413          	addi	x8,x10,0
    c040:	04078263          	beq	x15,x0,c084 <raise+0x68>
    c044:	00251713          	slli	x14,x10,0x2
    c048:	00e787b3          	add	x15,x15,x14
    c04c:	0007a703          	lw	x14,0(x15)
    c050:	02070a63          	beq	x14,x0,c084 <raise+0x68>
    c054:	00100693          	addi	x13,x0,1
    c058:	00d70a63          	beq	x14,x13,c06c <raise+0x50>
    c05c:	fff00613          	addi	x12,x0,-1
    c060:	04c70663          	beq	x14,x12,c0ac <raise+0x90>
    c064:	0007a023          	sw	x0,0(x15)
    c068:	000700e7          	jalr	x1,0(x14)
    c06c:	00812403          	lw	x8,8(x2)
    c070:	00000513          	addi	x10,x0,0
    c074:	00c12083          	lw	x1,12(x2)
    c078:	00412483          	lw	x9,4(x2)
    c07c:	01010113          	addi	x2,x2,16
    c080:	00008067          	jalr	x0,0(x1)
    c084:	00048513          	addi	x10,x9,0
    c088:	32c000ef          	jal	x1,c3b4 <_getpid_r>
    c08c:	00040613          	addi	x12,x8,0
    c090:	00812403          	lw	x8,8(x2)
    c094:	00c12083          	lw	x1,12(x2)
    c098:	00050593          	addi	x11,x10,0
    c09c:	00048513          	addi	x10,x9,0
    c0a0:	00412483          	lw	x9,4(x2)
    c0a4:	01010113          	addi	x2,x2,16
    c0a8:	2940006f          	jal	x0,c33c <_kill_r>
    c0ac:	00812403          	lw	x8,8(x2)
    c0b0:	00c12083          	lw	x1,12(x2)
    c0b4:	01600793          	addi	x15,x0,22
    c0b8:	00f4a023          	sw	x15,0(x9)
    c0bc:	00068513          	addi	x10,x13,0
    c0c0:	00412483          	lw	x9,4(x2)
    c0c4:	01010113          	addi	x2,x2,16
    c0c8:	00008067          	jalr	x0,0(x1)
    c0cc:	01600793          	addi	x15,x0,22
    c0d0:	00f4a023          	sw	x15,0(x9)
    c0d4:	fff00513          	addi	x10,x0,-1
    c0d8:	f9dff06f          	jal	x0,c074 <raise+0x58>

0000c0dc <signal>:
    c0dc:	ff010113          	addi	x2,x2,-16
    c0e0:	01212023          	sw	x18,0(x2)
    c0e4:	00112623          	sw	x1,12(x2)
    c0e8:	01f00793          	addi	x15,x0,31
    c0ec:	f141a903          	lw	x18,-236(x3) # 12bb4 <_impure_ptr>
    c0f0:	04a7e263          	bltu	x15,x10,c134 <signal+0x58>
    c0f4:	00812423          	sw	x8,8(x2)
    c0f8:	00050413          	addi	x8,x10,0
    c0fc:	11892503          	lw	x10,280(x18)
    c100:	00912223          	sw	x9,4(x2)
    c104:	00058493          	addi	x9,x11,0
    c108:	04050463          	beq	x10,x0,c150 <signal+0x74>
    c10c:	00241413          	slli	x8,x8,0x2
    c110:	008507b3          	add	x15,x10,x8
    c114:	00c12083          	lw	x1,12(x2)
    c118:	00812403          	lw	x8,8(x2)
    c11c:	0007a503          	lw	x10,0(x15)
    c120:	0097a023          	sw	x9,0(x15)
    c124:	00012903          	lw	x18,0(x2)
    c128:	00412483          	lw	x9,4(x2)
    c12c:	01010113          	addi	x2,x2,16
    c130:	00008067          	jalr	x0,0(x1)
    c134:	01600793          	addi	x15,x0,22
    c138:	00f92023          	sw	x15,0(x18)
    c13c:	fff00513          	addi	x10,x0,-1
    c140:	00c12083          	lw	x1,12(x2)
    c144:	00012903          	lw	x18,0(x2)
    c148:	01010113          	addi	x2,x2,16
    c14c:	00008067          	jalr	x0,0(x1)
    c150:	08000593          	addi	x11,x0,128
    c154:	00090513          	addi	x10,x18,0
    c158:	f69f40ef          	jal	x1,10c0 <_malloc_r>
    c15c:	10a92c23          	sw	x10,280(x18)
    c160:	00050793          	addi	x15,x10,0
    c164:	08050713          	addi	x14,x10,128
    c168:	00050a63          	beq	x10,x0,c17c <signal+0xa0>
    c16c:	0007a023          	sw	x0,0(x15)
    c170:	00478793          	addi	x15,x15,4
    c174:	fef71ce3          	bne	x14,x15,c16c <signal+0x90>
    c178:	f95ff06f          	jal	x0,c10c <signal+0x30>
    c17c:	00812403          	lw	x8,8(x2)
    c180:	00412483          	lw	x9,4(x2)
    c184:	fff00513          	addi	x10,x0,-1
    c188:	fb9ff06f          	jal	x0,c140 <signal+0x64>

0000c18c <_init_signal>:
    c18c:	ff010113          	addi	x2,x2,-16
    c190:	00812423          	sw	x8,8(x2)
    c194:	f141a403          	lw	x8,-236(x3) # 12bb4 <_impure_ptr>
    c198:	11842783          	lw	x15,280(x8)
    c19c:	00112623          	sw	x1,12(x2)
    c1a0:	00078c63          	beq	x15,x0,c1b8 <_init_signal+0x2c>
    c1a4:	00000513          	addi	x10,x0,0
    c1a8:	00c12083          	lw	x1,12(x2)
    c1ac:	00812403          	lw	x8,8(x2)
    c1b0:	01010113          	addi	x2,x2,16
    c1b4:	00008067          	jalr	x0,0(x1)
    c1b8:	08000593          	addi	x11,x0,128
    c1bc:	00040513          	addi	x10,x8,0
    c1c0:	f01f40ef          	jal	x1,10c0 <_malloc_r>
    c1c4:	10a42c23          	sw	x10,280(x8)
    c1c8:	00050c63          	beq	x10,x0,c1e0 <_init_signal+0x54>
    c1cc:	08050793          	addi	x15,x10,128
    c1d0:	00052023          	sw	x0,0(x10)
    c1d4:	00450513          	addi	x10,x10,4
    c1d8:	fef51ce3          	bne	x10,x15,c1d0 <_init_signal+0x44>
    c1dc:	fc9ff06f          	jal	x0,c1a4 <_init_signal+0x18>
    c1e0:	fff00513          	addi	x10,x0,-1
    c1e4:	fc5ff06f          	jal	x0,c1a8 <_init_signal+0x1c>

0000c1e8 <__sigtramp>:
    c1e8:	ff010113          	addi	x2,x2,-16
    c1ec:	00912223          	sw	x9,4(x2)
    c1f0:	00112623          	sw	x1,12(x2)
    c1f4:	01f00793          	addi	x15,x0,31
    c1f8:	f141a483          	lw	x9,-236(x3) # 12bb4 <_impure_ptr>
    c1fc:	0ca7e463          	bltu	x15,x10,c2c4 <__sigtramp+0xdc>
    c200:	1184a783          	lw	x15,280(x9)
    c204:	00812423          	sw	x8,8(x2)
    c208:	00050413          	addi	x8,x10,0
    c20c:	08078263          	beq	x15,x0,c290 <__sigtramp+0xa8>
    c210:	00241713          	slli	x14,x8,0x2
    c214:	00e787b3          	add	x15,x15,x14
    c218:	0007a703          	lw	x14,0(x15)
    c21c:	02070c63          	beq	x14,x0,c254 <__sigtramp+0x6c>
    c220:	fff00693          	addi	x13,x0,-1
    c224:	06d70063          	beq	x14,x13,c284 <__sigtramp+0x9c>
    c228:	00100693          	addi	x13,x0,1
    c22c:	04d70063          	beq	x14,x13,c26c <__sigtramp+0x84>
    c230:	00040513          	addi	x10,x8,0
    c234:	0007a023          	sw	x0,0(x15)
    c238:	000700e7          	jalr	x1,0(x14)
    c23c:	00812403          	lw	x8,8(x2)
    c240:	00000513          	addi	x10,x0,0
    c244:	00c12083          	lw	x1,12(x2)
    c248:	00412483          	lw	x9,4(x2)
    c24c:	01010113          	addi	x2,x2,16
    c250:	00008067          	jalr	x0,0(x1)
    c254:	00812403          	lw	x8,8(x2)
    c258:	00c12083          	lw	x1,12(x2)
    c25c:	00412483          	lw	x9,4(x2)
    c260:	00100513          	addi	x10,x0,1
    c264:	01010113          	addi	x2,x2,16
    c268:	00008067          	jalr	x0,0(x1)
    c26c:	00812403          	lw	x8,8(x2)
    c270:	00c12083          	lw	x1,12(x2)
    c274:	00412483          	lw	x9,4(x2)
    c278:	00300513          	addi	x10,x0,3
    c27c:	01010113          	addi	x2,x2,16
    c280:	00008067          	jalr	x0,0(x1)
    c284:	00812403          	lw	x8,8(x2)
    c288:	00200513          	addi	x10,x0,2
    c28c:	fb9ff06f          	jal	x0,c244 <__sigtramp+0x5c>
    c290:	08000593          	addi	x11,x0,128
    c294:	00048513          	addi	x10,x9,0
    c298:	e29f40ef          	jal	x1,10c0 <_malloc_r>
    c29c:	10a4ac23          	sw	x10,280(x9)
    c2a0:	00050793          	addi	x15,x10,0
    c2a4:	00050e63          	beq	x10,x0,c2c0 <__sigtramp+0xd8>
    c2a8:	00050713          	addi	x14,x10,0
    c2ac:	08050693          	addi	x13,x10,128
    c2b0:	00072023          	sw	x0,0(x14)
    c2b4:	00470713          	addi	x14,x14,4
    c2b8:	fee69ce3          	bne	x13,x14,c2b0 <__sigtramp+0xc8>
    c2bc:	f55ff06f          	jal	x0,c210 <__sigtramp+0x28>
    c2c0:	00812403          	lw	x8,8(x2)
    c2c4:	fff00513          	addi	x10,x0,-1
    c2c8:	f7dff06f          	jal	x0,c244 <__sigtramp+0x5c>

0000c2cc <_mbtowc_r>:
    c2cc:	e1c1a783          	lw	x15,-484(x3) # 12abc <__global_locale+0xe4>
    c2d0:	00078067          	jalr	x0,0(x15)

0000c2d4 <__ascii_mbtowc>:
    c2d4:	02058063          	beq	x11,x0,c2f4 <__ascii_mbtowc+0x20>
    c2d8:	04060263          	beq	x12,x0,c31c <__ascii_mbtowc+0x48>
    c2dc:	04068863          	beq	x13,x0,c32c <__ascii_mbtowc+0x58>
    c2e0:	00064783          	lbu	x15,0(x12)
    c2e4:	00f5a023          	sw	x15,0(x11)
    c2e8:	00064503          	lbu	x10,0(x12)
    c2ec:	00a03533          	sltu	x10,x0,x10
    c2f0:	00008067          	jalr	x0,0(x1)
    c2f4:	ff010113          	addi	x2,x2,-16
    c2f8:	00c10593          	addi	x11,x2,12
    c2fc:	02060463          	beq	x12,x0,c324 <__ascii_mbtowc+0x50>
    c300:	02068a63          	beq	x13,x0,c334 <__ascii_mbtowc+0x60>
    c304:	00064783          	lbu	x15,0(x12)
    c308:	00f5a023          	sw	x15,0(x11)
    c30c:	00064503          	lbu	x10,0(x12)
    c310:	00a03533          	sltu	x10,x0,x10
    c314:	01010113          	addi	x2,x2,16
    c318:	00008067          	jalr	x0,0(x1)
    c31c:	00000513          	addi	x10,x0,0
    c320:	00008067          	jalr	x0,0(x1)
    c324:	00000513          	addi	x10,x0,0
    c328:	fedff06f          	jal	x0,c314 <__ascii_mbtowc+0x40>
    c32c:	ffe00513          	addi	x10,x0,-2
    c330:	00008067          	jalr	x0,0(x1)
    c334:	ffe00513          	addi	x10,x0,-2
    c338:	fddff06f          	jal	x0,c314 <__ascii_mbtowc+0x40>

0000c33c <_kill_r>:
    c33c:	ff010113          	addi	x2,x2,-16
    c340:	00058713          	addi	x14,x11,0
    c344:	00812423          	sw	x8,8(x2)
    c348:	00060593          	addi	x11,x12,0
    c34c:	00050413          	addi	x8,x10,0
    c350:	00070513          	addi	x10,x14,0
    c354:	f001ac23          	sw	x0,-232(x3) # 12bb8 <errno>
    c358:	00112623          	sw	x1,12(x2)
    c35c:	f4ff30ef          	jal	x1,2aa <_kill>
    c360:	fff00793          	addi	x15,x0,-1
    c364:	00f50a63          	beq	x10,x15,c378 <_kill_r+0x3c>
    c368:	00c12083          	lw	x1,12(x2)
    c36c:	00812403          	lw	x8,8(x2)
    c370:	01010113          	addi	x2,x2,16
    c374:	00008067          	jalr	x0,0(x1)
    c378:	00912223          	sw	x9,4(x2)
    c37c:	f1818493          	addi	x9,x3,-232 # 12bb8 <errno>
    c380:	0004a783          	lw	x15,0(x9)
    c384:	00078e63          	beq	x15,x0,c3a0 <_kill_r+0x64>
    c388:	00c12083          	lw	x1,12(x2)
    c38c:	00f42023          	sw	x15,0(x8)
    c390:	00812403          	lw	x8,8(x2)
    c394:	00412483          	lw	x9,4(x2)
    c398:	01010113          	addi	x2,x2,16
    c39c:	00008067          	jalr	x0,0(x1)
    c3a0:	00c12083          	lw	x1,12(x2)
    c3a4:	00812403          	lw	x8,8(x2)
    c3a8:	00412483          	lw	x9,4(x2)
    c3ac:	01010113          	addi	x2,x2,16
    c3b0:	00008067          	jalr	x0,0(x1)

0000c3b4 <_getpid_r>:
    c3b4:	edff306f          	jal	x0,292 <_getpid>

0000c3b8 <__adddf3>:
    c3b8:	001007b7          	lui	x15,0x100
    c3bc:	fff78e13          	addi	x28,x15,-1 # fffff <__heap_start+0xed12f>
    c3c0:	fe010113          	addi	x2,x2,-32
    c3c4:	00be77b3          	and	x15,x28,x11
    c3c8:	0145d313          	srli	x6,x11,0x14
    c3cc:	0146d893          	srli	x17,x13,0x14
    c3d0:	00de7833          	and	x16,x28,x13
    c3d4:	00379793          	slli	x15,x15,0x3
    c3d8:	01212823          	sw	x18,16(x2)
    c3dc:	01412423          	sw	x20,8(x2)
    c3e0:	01d55713          	srli	x14,x10,0x1d
    c3e4:	7ff37a13          	andi	x20,x6,2047
    c3e8:	01f5d913          	srli	x18,x11,0x1f
    c3ec:	7ff8f893          	andi	x17,x17,2047
    c3f0:	00381813          	slli	x16,x16,0x3
    c3f4:	01d65593          	srli	x11,x12,0x1d
    c3f8:	00112e23          	sw	x1,28(x2)
    c3fc:	00812c23          	sw	x8,24(x2)
    c400:	00912a23          	sw	x9,20(x2)
    c404:	01312623          	sw	x19,12(x2)
    c408:	01512223          	sw	x21,4(x2)
    c40c:	01f6d693          	srli	x13,x13,0x1f
    c410:	00f76733          	or	x14,x14,x15
    c414:	0105eeb3          	or	x29,x11,x16
    c418:	411a07b3          	sub	x15,x20,x17
    c41c:	00351f93          	slli	x31,x10,0x3
    c420:	00361f13          	slli	x30,x12,0x3
    c424:	1ed90863          	beq	x18,x13,c614 <__adddf3+0x25c>
    c428:	16f05663          	bge	x0,x15,c594 <__adddf3+0x1dc>
    c42c:	28088a63          	beq	x17,x0,c6c0 <__adddf3+0x308>
    c430:	7ff00693          	addi	x13,x0,2047
    c434:	42da0863          	beq	x20,x13,c864 <__adddf3+0x4ac>
    c438:	03800693          	addi	x13,x0,56
    c43c:	00100613          	addi	x12,x0,1
    c440:	02f6ce63          	blt	x13,x15,c47c <__adddf3+0xc4>
    c444:	008006b7          	lui	x13,0x800
    c448:	00deeeb3          	or	x29,x29,x13
    c44c:	01f00693          	addi	x13,x0,31
    c450:	54f6c063          	blt	x13,x15,c990 <__adddf3+0x5d8>
    c454:	02000693          	addi	x13,x0,32
    c458:	40f686b3          	sub	x13,x13,x15
    c45c:	00de9633          	sll	x12,x29,x13
    c460:	00ff55b3          	srl	x11,x30,x15
    c464:	00df16b3          	sll	x13,x30,x13
    c468:	00d036b3          	sltu	x13,x0,x13
    c46c:	00b66633          	or	x12,x12,x11
    c470:	00fed7b3          	srl	x15,x29,x15
    c474:	00d66633          	or	x12,x12,x13
    c478:	40f70733          	sub	x14,x14,x15
    c47c:	40cf8633          	sub	x12,x31,x12
    c480:	00cfb5b3          	sltu	x11,x31,x12
    c484:	40b70ab3          	sub	x21,x14,x11
    c488:	00060993          	addi	x19,x12,0
    c48c:	008a9713          	slli	x14,x21,0x8
    c490:	008007b7          	lui	x15,0x800
    c494:	32075c63          	bge	x14,x0,c7cc <__adddf3+0x414>
    c498:	fff78793          	addi	x15,x15,-1 # 7fffff <__heap_end+0x3fffff>
    c49c:	00fafab3          	and	x21,x21,x15
    c4a0:	2c0a8c63          	beq	x21,x0,c778 <__adddf3+0x3c0>
    c4a4:	000a8513          	addi	x10,x21,0
    c4a8:	4f0050ef          	jal	x1,11998 <__clzsi2>
    c4ac:	ff850793          	addi	x15,x10,-8
    c4b0:	02000693          	addi	x13,x0,32
    c4b4:	40f68733          	sub	x14,x13,x15
    c4b8:	00e9d733          	srl	x14,x19,x14
    c4bc:	00fa9ab3          	sll	x21,x21,x15
    c4c0:	01576733          	or	x14,x14,x21
    c4c4:	00f999b3          	sll	x19,x19,x15
    c4c8:	4b47ca63          	blt	x15,x20,c97c <__adddf3+0x5c4>
    c4cc:	414787b3          	sub	x15,x15,x20
    c4d0:	00178793          	addi	x15,x15,1
    c4d4:	40f686b3          	sub	x13,x13,x15
    c4d8:	00d99633          	sll	x12,x19,x13
    c4dc:	00c03633          	sltu	x12,x0,x12
    c4e0:	00f9dab3          	srl	x21,x19,x15
    c4e4:	01566633          	or	x12,x12,x21
    c4e8:	00d716b3          	sll	x13,x14,x13
    c4ec:	00c6e9b3          	or	x19,x13,x12
    c4f0:	00f75ab3          	srl	x21,x14,x15
    c4f4:	00000a13          	addi	x20,x0,0
    c4f8:	0079f793          	andi	x15,x19,7
    c4fc:	02078063          	beq	x15,x0,c51c <__adddf3+0x164>
    c500:	00f9f793          	andi	x15,x19,15
    c504:	00400713          	addi	x14,x0,4
    c508:	00e78a63          	beq	x15,x14,c51c <__adddf3+0x164>
    c50c:	00e987b3          	add	x15,x19,x14
    c510:	0137b633          	sltu	x12,x15,x19
    c514:	00ca8ab3          	add	x21,x21,x12
    c518:	00078993          	addi	x19,x15,0
    c51c:	008a9793          	slli	x15,x21,0x8
    c520:	6c07d663          	bge	x15,x0,cbec <__adddf3+0x834>
    c524:	001a0793          	addi	x15,x20,1
    c528:	7ff00693          	addi	x13,x0,2047
    c52c:	00090313          	addi	x6,x18,0
    c530:	2ad78a63          	beq	x15,x13,c7e4 <__adddf3+0x42c>
    c534:	ff800737          	lui	x14,0xff800
    c538:	fff70713          	addi	x14,x14,-1 # ff7fffff <__heap_end+0xff3fffff>
    c53c:	00d7f7b3          	and	x15,x15,x13
    c540:	00eaf733          	and	x14,x21,x14
    c544:	01d71813          	slli	x16,x14,0x1d
    c548:	0039d613          	srli	x12,x19,0x3
    c54c:	00971713          	slli	x14,x14,0x9
    c550:	00c86833          	or	x16,x16,x12
    c554:	00c75713          	srli	x14,x14,0xc
    c558:	01c12083          	lw	x1,28(x2)
    c55c:	01812403          	lw	x8,24(x2)
    c560:	01479793          	slli	x15,x15,0x14
    c564:	00e7e7b3          	or	x15,x15,x14
    c568:	01f31713          	slli	x14,x6,0x1f
    c56c:	00e7e7b3          	or	x15,x15,x14
    c570:	01412483          	lw	x9,20(x2)
    c574:	01012903          	lw	x18,16(x2)
    c578:	00c12983          	lw	x19,12(x2)
    c57c:	00812a03          	lw	x20,8(x2)
    c580:	00412a83          	lw	x21,4(x2)
    c584:	00080513          	addi	x10,x16,0
    c588:	00078593          	addi	x11,x15,0
    c58c:	02010113          	addi	x2,x2,32
    c590:	00008067          	jalr	x0,0(x1)
    c594:	14078c63          	beq	x15,x0,c6ec <__adddf3+0x334>
    c598:	414887b3          	sub	x15,x17,x20
    c59c:	3c0a1063          	bne	x20,x0,c95c <__adddf3+0x5a4>
    c5a0:	01f765b3          	or	x11,x14,x31
    c5a4:	4c058263          	beq	x11,x0,ca68 <__adddf3+0x6b0>
    c5a8:	fff78593          	addi	x11,x15,-1
    c5ac:	60058063          	beq	x11,x0,cbac <__adddf3+0x7f4>
    c5b0:	7ff00513          	addi	x10,x0,2047
    c5b4:	56a78463          	beq	x15,x10,cb1c <__adddf3+0x764>
    c5b8:	03800793          	addi	x15,x0,56
    c5bc:	00100613          	addi	x12,x0,1
    c5c0:	02b7cc63          	blt	x15,x11,c5f8 <__adddf3+0x240>
    c5c4:	00058793          	addi	x15,x11,0
    c5c8:	01f00613          	addi	x12,x0,31
    c5cc:	56f64a63          	blt	x12,x15,cb40 <__adddf3+0x788>
    c5d0:	02000593          	addi	x11,x0,32
    c5d4:	40f585b3          	sub	x11,x11,x15
    c5d8:	00b71633          	sll	x12,x14,x11
    c5dc:	00bf9533          	sll	x10,x31,x11
    c5e0:	00ffd5b3          	srl	x11,x31,x15
    c5e4:	00a03533          	sltu	x10,x0,x10
    c5e8:	00b66633          	or	x12,x12,x11
    c5ec:	00f75733          	srl	x14,x14,x15
    c5f0:	00a66633          	or	x12,x12,x10
    c5f4:	40ee8eb3          	sub	x29,x29,x14
    c5f8:	40cf0633          	sub	x12,x30,x12
    c5fc:	00cf35b3          	sltu	x11,x30,x12
    c600:	40be8ab3          	sub	x21,x29,x11
    c604:	00060993          	addi	x19,x12,0
    c608:	00088a13          	addi	x20,x17,0
    c60c:	00068913          	addi	x18,x13,0 # 800000 <__heap_end+0x400000>
    c610:	e7dff06f          	jal	x0,c48c <__adddf3+0xd4>
    c614:	1cf05e63          	bge	x0,x15,c7f0 <__adddf3+0x438>
    c618:	14089063          	bne	x17,x0,c758 <__adddf3+0x3a0>
    c61c:	01eee6b3          	or	x13,x29,x30
    c620:	26068a63          	beq	x13,x0,c894 <__adddf3+0x4dc>
    c624:	fff78693          	addi	x13,x15,-1
    c628:	46068e63          	beq	x13,x0,caa4 <__adddf3+0x6ec>
    c62c:	7ff00613          	addi	x12,x0,2047
    c630:	22c78a63          	beq	x15,x12,c864 <__adddf3+0x4ac>
    c634:	03800793          	addi	x15,x0,56
    c638:	00100a93          	addi	x21,x0,1
    c63c:	02d7cc63          	blt	x15,x13,c674 <__adddf3+0x2bc>
    c640:	00068793          	addi	x15,x13,0
    c644:	01f00693          	addi	x13,x0,31
    c648:	48f6ce63          	blt	x13,x15,cae4 <__adddf3+0x72c>
    c64c:	02000693          	addi	x13,x0,32
    c650:	40f686b3          	sub	x13,x13,x15
    c654:	00de9ab3          	sll	x21,x29,x13
    c658:	00ff55b3          	srl	x11,x30,x15
    c65c:	00df16b3          	sll	x13,x30,x13
    c660:	00d036b3          	sltu	x13,x0,x13
    c664:	00baeab3          	or	x21,x21,x11
    c668:	00fed7b3          	srl	x15,x29,x15
    c66c:	00daeab3          	or	x21,x21,x13
    c670:	00f70733          	add	x14,x14,x15
    c674:	01fa8633          	add	x12,x21,x31
    c678:	01563ab3          	sltu	x21,x12,x21
    c67c:	00ea8ab3          	add	x21,x21,x14
    c680:	00060993          	addi	x19,x12,0
    c684:	008a9793          	slli	x15,x21,0x8
    c688:	1407d263          	bge	x15,x0,c7cc <__adddf3+0x414>
    c68c:	001a0a13          	addi	x20,x20,1
    c690:	7ff00793          	addi	x15,x0,2047
    c694:	36fa0a63          	beq	x20,x15,ca08 <__adddf3+0x650>
    c698:	ff8007b7          	lui	x15,0xff800
    c69c:	fff78793          	addi	x15,x15,-1 # ff7fffff <__heap_end+0xff3fffff>
    c6a0:	00faf7b3          	and	x15,x21,x15
    c6a4:	0019d713          	srli	x14,x19,0x1
    c6a8:	0019f613          	andi	x12,x19,1
    c6ac:	01f79693          	slli	x13,x15,0x1f
    c6b0:	00c76733          	or	x14,x14,x12
    c6b4:	0017da93          	srli	x21,x15,0x1
    c6b8:	00e6e9b3          	or	x19,x13,x14
    c6bc:	e3dff06f          	jal	x0,c4f8 <__adddf3+0x140>
    c6c0:	01eee6b3          	or	x13,x29,x30
    c6c4:	1c068863          	beq	x13,x0,c894 <__adddf3+0x4dc>
    c6c8:	fff78693          	addi	x13,x15,-1
    c6cc:	3e068e63          	beq	x13,x0,cac8 <__adddf3+0x710>
    c6d0:	7ff00613          	addi	x12,x0,2047
    c6d4:	18c78863          	beq	x15,x12,c864 <__adddf3+0x4ac>
    c6d8:	03800793          	addi	x15,x0,56
    c6dc:	00100613          	addi	x12,x0,1
    c6e0:	d8d7cee3          	blt	x15,x13,c47c <__adddf3+0xc4>
    c6e4:	00068793          	addi	x15,x13,0
    c6e8:	d65ff06f          	jal	x0,c44c <__adddf3+0x94>
    c6ec:	001a0593          	addi	x11,x20,1
    c6f0:	7fe5f593          	andi	x11,x11,2046
    c6f4:	22059a63          	bne	x11,x0,c928 <__adddf3+0x570>
    c6f8:	01f765b3          	or	x11,x14,x31
    c6fc:	01eee833          	or	x16,x29,x30
    c700:	360a1e63          	bne	x20,x0,ca7c <__adddf3+0x6c4>
    c704:	46058c63          	beq	x11,x0,cb7c <__adddf3+0x7c4>
    c708:	40080463          	beq	x16,x0,cb10 <__adddf3+0x758>
    c70c:	41ef8ab3          	sub	x21,x31,x30
    c710:	015fb5b3          	sltu	x11,x31,x21
    c714:	41d70633          	sub	x12,x14,x29
    c718:	40b60633          	sub	x12,x12,x11
    c71c:	00861593          	slli	x11,x12,0x8
    c720:	5005dc63          	bge	x11,x0,cc38 <__adddf3+0x880>
    c724:	41ff05b3          	sub	x11,x30,x31
    c728:	00bf3f33          	sltu	x30,x30,x11
    c72c:	40ee8733          	sub	x14,x29,x14
    c730:	41e70733          	sub	x14,x14,x30
    c734:	00871613          	slli	x12,x14,0x8
    c738:	00058993          	addi	x19,x11,0
    c73c:	52065c63          	bge	x12,x0,cc74 <__adddf3+0x8bc>
    c740:	ff8007b7          	lui	x15,0xff800
    c744:	fff78793          	addi	x15,x15,-1 # ff7fffff <__heap_end+0xff3fffff>
    c748:	00f77733          	and	x14,x14,x15
    c74c:	00068313          	addi	x6,x13,0
    c750:	00100793          	addi	x15,x0,1
    c754:	df1ff06f          	jal	x0,c544 <__adddf3+0x18c>
    c758:	7ff00693          	addi	x13,x0,2047
    c75c:	10da0463          	beq	x20,x13,c864 <__adddf3+0x4ac>
    c760:	03800693          	addi	x13,x0,56
    c764:	00100a93          	addi	x21,x0,1
    c768:	f0f6c6e3          	blt	x13,x15,c674 <__adddf3+0x2bc>
    c76c:	008006b7          	lui	x13,0x800
    c770:	00deeeb3          	or	x29,x29,x13
    c774:	ed1ff06f          	jal	x0,c644 <__adddf3+0x28c>
    c778:	00098513          	addi	x10,x19,0
    c77c:	21c050ef          	jal	x1,11998 <__clzsi2>
    c780:	01850793          	addi	x15,x10,24
    c784:	01f00693          	addi	x13,x0,31
    c788:	d2f6d4e3          	bge	x13,x15,c4b0 <__adddf3+0xf8>
    c78c:	ff850713          	addi	x14,x10,-8
    c790:	00e99733          	sll	x14,x19,x14
    c794:	2347c463          	blt	x15,x20,c9bc <__adddf3+0x604>
    c798:	41478633          	sub	x12,x15,x20
    c79c:	00160793          	addi	x15,x12,1
    c7a0:	48f6d463          	bge	x13,x15,cc28 <__adddf3+0x870>
    c7a4:	fe160613          	addi	x12,x12,-31
    c7a8:	02000693          	addi	x13,x0,32
    c7ac:	00c759b3          	srl	x19,x14,x12
    c7b0:	00d78c63          	beq	x15,x13,c7c8 <__adddf3+0x410>
    c7b4:	04000693          	addi	x13,x0,64
    c7b8:	40f687b3          	sub	x15,x13,x15
    c7bc:	00f717b3          	sll	x15,x14,x15
    c7c0:	00f037b3          	sltu	x15,x0,x15
    c7c4:	00f9e9b3          	or	x19,x19,x15
    c7c8:	00000a13          	addi	x20,x0,0
    c7cc:	0079f793          	andi	x15,x19,7
    c7d0:	d20798e3          	bne	x15,x0,c500 <__adddf3+0x148>
    c7d4:	000a0793          	addi	x15,x20,0
    c7d8:	0039d613          	srli	x12,x19,0x3
    c7dc:	000a8713          	addi	x14,x21,0
    c7e0:	0bc0006f          	jal	x0,c89c <__adddf3+0x4e4>
    c7e4:	00000713          	addi	x14,x0,0
    c7e8:	00000813          	addi	x16,x0,0
    c7ec:	d6dff06f          	jal	x0,c558 <__adddf3+0x1a0>
    c7f0:	0c078a63          	beq	x15,x0,c8c4 <__adddf3+0x50c>
    c7f4:	414887b3          	sub	x15,x17,x20
    c7f8:	1e0a0263          	beq	x20,x0,c9dc <__adddf3+0x624>
    c7fc:	7ff00693          	addi	x13,x0,2047
    c800:	32d88863          	beq	x17,x13,cb30 <__adddf3+0x778>
    c804:	03800693          	addi	x13,x0,56
    c808:	00100a93          	addi	x21,x0,1
    c80c:	02f6ce63          	blt	x13,x15,c848 <__adddf3+0x490>
    c810:	008006b7          	lui	x13,0x800
    c814:	00d76733          	or	x14,x14,x13
    c818:	01f00693          	addi	x13,x0,31
    c81c:	3ef6c063          	blt	x13,x15,cbfc <__adddf3+0x844>
    c820:	02000693          	addi	x13,x0,32
    c824:	40f686b3          	sub	x13,x13,x15
    c828:	00d71ab3          	sll	x21,x14,x13
    c82c:	00ffd633          	srl	x12,x31,x15
    c830:	00df96b3          	sll	x13,x31,x13
    c834:	00d036b3          	sltu	x13,x0,x13
    c838:	00caeab3          	or	x21,x21,x12
    c83c:	00f75733          	srl	x14,x14,x15
    c840:	00daeab3          	or	x21,x21,x13
    c844:	00ee8eb3          	add	x29,x29,x14
    c848:	01ea85b3          	add	x11,x21,x30
    c84c:	0155bab3          	sltu	x21,x11,x21
    c850:	01da8ab3          	add	x21,x21,x29
    c854:	00058993          	addi	x19,x11,0
    c858:	00088a13          	addi	x20,x17,0
    c85c:	e29ff06f          	jal	x0,c684 <__adddf3+0x2cc>
    c860:	02081063          	bne	x16,x0,c880 <__adddf3+0x4c8>
    c864:	00351793          	slli	x15,x10,0x3
    c868:	0037d793          	srli	x15,x15,0x3
    c86c:	01d71813          	slli	x16,x14,0x1d
    c870:	00f86833          	or	x16,x16,x15
    c874:	00375713          	srli	x14,x14,0x3
    c878:	01076733          	or	x14,x14,x16
    c87c:	18070663          	beq	x14,x0,ca08 <__adddf3+0x650>
    c880:	00000313          	addi	x6,x0,0
    c884:	7ff00793          	addi	x15,x0,2047
    c888:	00080737          	lui	x14,0x80
    c88c:	00000813          	addi	x16,x0,0
    c890:	cc9ff06f          	jal	x0,c558 <__adddf3+0x1a0>
    c894:	00351613          	slli	x12,x10,0x3
    c898:	00365613          	srli	x12,x12,0x3
    c89c:	01d71813          	slli	x16,x14,0x1d
    c8a0:	7ff00693          	addi	x13,x0,2047
    c8a4:	00c86833          	or	x16,x16,x12
    c8a8:	00375713          	srli	x14,x14,0x3
    c8ac:	fcd786e3          	beq	x15,x13,c878 <__adddf3+0x4c0>
    c8b0:	00c71713          	slli	x14,x14,0xc
    c8b4:	00c75713          	srli	x14,x14,0xc
    c8b8:	7ff7f793          	andi	x15,x15,2047
    c8bc:	00090313          	addi	x6,x18,0
    c8c0:	c99ff06f          	jal	x0,c558 <__adddf3+0x1a0>
    c8c4:	001a0693          	addi	x13,x20,1
    c8c8:	7fe6f593          	andi	x11,x13,2046
    c8cc:	14059863          	bne	x11,x0,ca1c <__adddf3+0x664>
    c8d0:	01f766b3          	or	x13,x14,x31
    c8d4:	280a1c63          	bne	x20,x0,cb6c <__adddf3+0x7b4>
    c8d8:	30068263          	beq	x13,x0,cbdc <__adddf3+0x824>
    c8dc:	01eee6b3          	or	x13,x29,x30
    c8e0:	22068863          	beq	x13,x0,cb10 <__adddf3+0x758>
    c8e4:	01ef87b3          	add	x15,x31,x30
    c8e8:	01f7b633          	sltu	x12,x15,x31
    c8ec:	01d70733          	add	x14,x14,x29
    c8f0:	00c70733          	add	x14,x14,x12
    c8f4:	0037d813          	srli	x16,x15,0x3
    c8f8:	00871793          	slli	x15,x14,0x8
    c8fc:	00090313          	addi	x6,x18,0
    c900:	3407de63          	bge	x15,x0,cc5c <__adddf3+0x8a4>
    c904:	ff8007b7          	lui	x15,0xff800
    c908:	fff78793          	addi	x15,x15,-1 # ff7fffff <__heap_end+0xff3fffff>
    c90c:	00f77733          	and	x14,x14,x15
    c910:	01d71793          	slli	x15,x14,0x1d
    c914:	00375713          	srli	x14,x14,0x3
    c918:	0107e833          	or	x16,x15,x16
    c91c:	01c77733          	and	x14,x14,x28
    c920:	00100793          	addi	x15,x0,1
    c924:	c35ff06f          	jal	x0,c558 <__adddf3+0x1a0>
    c928:	41ef8833          	sub	x16,x31,x30
    c92c:	010fb7b3          	sltu	x15,x31,x16
    c930:	41d70ab3          	sub	x21,x14,x29
    c934:	40fa8ab3          	sub	x21,x21,x15
    c938:	008a9793          	slli	x15,x21,0x8
    c93c:	00080993          	addi	x19,x16,0
    c940:	1007c663          	blt	x15,x0,ca4c <__adddf3+0x694>
    c944:	01586833          	or	x16,x16,x21
    c948:	b4081ce3          	bne	x16,x0,c4a0 <__adddf3+0xe8>
    c94c:	00000313          	addi	x6,x0,0
    c950:	00000793          	addi	x15,x0,0
    c954:	00000713          	addi	x14,x0,0
    c958:	c01ff06f          	jal	x0,c558 <__adddf3+0x1a0>
    c95c:	7ff00593          	addi	x11,x0,2047
    c960:	1ab88e63          	beq	x17,x11,cb1c <__adddf3+0x764>
    c964:	03800593          	addi	x11,x0,56
    c968:	00100613          	addi	x12,x0,1
    c96c:	c8f5c6e3          	blt	x11,x15,c5f8 <__adddf3+0x240>
    c970:	00800637          	lui	x12,0x800
    c974:	00c76733          	or	x14,x14,x12
    c978:	c51ff06f          	jal	x0,c5c8 <__adddf3+0x210>
    c97c:	ff800ab7          	lui	x21,0xff800
    c980:	fffa8a93          	addi	x21,x21,-1 # ff7fffff <__heap_end+0xff3fffff>
    c984:	40fa0a33          	sub	x20,x20,x15
    c988:	01577ab3          	and	x21,x14,x21
    c98c:	b6dff06f          	jal	x0,c4f8 <__adddf3+0x140>
    c990:	fe078693          	addi	x13,x15,-32
    c994:	02000613          	addi	x12,x0,32
    c998:	00ded6b3          	srl	x13,x29,x13
    c99c:	00c78a63          	beq	x15,x12,c9b0 <__adddf3+0x5f8>
    c9a0:	04000613          	addi	x12,x0,64
    c9a4:	40f607b3          	sub	x15,x12,x15
    c9a8:	00fe97b3          	sll	x15,x29,x15
    c9ac:	00ff6f33          	or	x30,x30,x15
    c9b0:	01e03633          	sltu	x12,x0,x30
    c9b4:	00d66633          	or	x12,x12,x13
    c9b8:	ac5ff06f          	jal	x0,c47c <__adddf3+0xc4>
    c9bc:	ff8006b7          	lui	x13,0xff800
    c9c0:	fff68693          	addi	x13,x13,-1 # ff7fffff <__heap_end+0xff3fffff>
    c9c4:	40fa07b3          	sub	x15,x20,x15
    c9c8:	00d77733          	and	x14,x14,x13
    c9cc:	01d71813          	slli	x16,x14,0x1d
    c9d0:	01586833          	or	x16,x16,x21
    c9d4:	00375713          	srli	x14,x14,0x3
    c9d8:	ed9ff06f          	jal	x0,c8b0 <__adddf3+0x4f8>
    c9dc:	01f766b3          	or	x13,x14,x31
    c9e0:	1e068663          	beq	x13,x0,cbcc <__adddf3+0x814>
    c9e4:	fff78693          	addi	x13,x15,-1
    c9e8:	0a068e63          	beq	x13,x0,caa4 <__adddf3+0x6ec>
    c9ec:	7ff00593          	addi	x11,x0,2047
    c9f0:	14b78063          	beq	x15,x11,cb30 <__adddf3+0x778>
    c9f4:	03800793          	addi	x15,x0,56
    c9f8:	00100a93          	addi	x21,x0,1
    c9fc:	e4d7c6e3          	blt	x15,x13,c848 <__adddf3+0x490>
    ca00:	00068793          	addi	x15,x13,0
    ca04:	e15ff06f          	jal	x0,c818 <__adddf3+0x460>
    ca08:	00090313          	addi	x6,x18,0
    ca0c:	7ff00793          	addi	x15,x0,2047
    ca10:	00000713          	addi	x14,x0,0
    ca14:	00000813          	addi	x16,x0,0
    ca18:	b41ff06f          	jal	x0,c558 <__adddf3+0x1a0>
    ca1c:	7ff00793          	addi	x15,x0,2047
    ca20:	fef684e3          	beq	x13,x15,ca08 <__adddf3+0x650>
    ca24:	01ef8f33          	add	x30,x31,x30
    ca28:	01ff3633          	sltu	x12,x30,x31
    ca2c:	01d707b3          	add	x15,x14,x29
    ca30:	00c787b3          	add	x15,x15,x12
    ca34:	001f5f13          	srli	x30,x30,0x1
    ca38:	01f79613          	slli	x12,x15,0x1f
    ca3c:	00068a13          	addi	x20,x13,0
    ca40:	01e669b3          	or	x19,x12,x30
    ca44:	0017da93          	srli	x21,x15,0x1
    ca48:	ab1ff06f          	jal	x0,c4f8 <__adddf3+0x140>
    ca4c:	41ff0633          	sub	x12,x30,x31
    ca50:	00cf35b3          	sltu	x11,x30,x12
    ca54:	40ee87b3          	sub	x15,x29,x14
    ca58:	00060993          	addi	x19,x12,0 # 800000 <__heap_end+0x400000>
    ca5c:	40b78ab3          	sub	x21,x15,x11
    ca60:	00068913          	addi	x18,x13,0
    ca64:	a3dff06f          	jal	x0,c4a0 <__adddf3+0xe8>
    ca68:	00361613          	slli	x12,x12,0x3
    ca6c:	00365613          	srli	x12,x12,0x3
    ca70:	00068913          	addi	x18,x13,0
    ca74:	000e8713          	addi	x14,x29,0
    ca78:	e25ff06f          	jal	x0,c89c <__adddf3+0x4e4>
    ca7c:	de0592e3          	bne	x11,x0,c860 <__adddf3+0x4a8>
    ca80:	1c080663          	beq	x16,x0,cc4c <__adddf3+0x894>
    ca84:	00361613          	slli	x12,x12,0x3
    ca88:	003ed713          	srli	x14,x29,0x3
    ca8c:	01de9793          	slli	x15,x29,0x1d
    ca90:	00365613          	srli	x12,x12,0x3
    ca94:	00f76733          	or	x14,x14,x15
    ca98:	00068913          	addi	x18,x13,0
    ca9c:	00c76733          	or	x14,x14,x12
    caa0:	dddff06f          	jal	x0,c87c <__adddf3+0x4c4>
    caa4:	01ef8f33          	add	x30,x31,x30
    caa8:	01d707b3          	add	x15,x14,x29
    caac:	01ff3633          	sltu	x12,x30,x31
    cab0:	00c78ab3          	add	x21,x15,x12
    cab4:	008a9793          	slli	x15,x21,0x8
    cab8:	000f0993          	addi	x19,x30,0
    cabc:	0e07d463          	bge	x15,x0,cba4 <__adddf3+0x7ec>
    cac0:	00200a13          	addi	x20,x0,2
    cac4:	bd5ff06f          	jal	x0,c698 <__adddf3+0x2e0>
    cac8:	41ef8f33          	sub	x30,x31,x30
    cacc:	01efb633          	sltu	x12,x31,x30
    cad0:	41d707b3          	sub	x15,x14,x29
    cad4:	000f0993          	addi	x19,x30,0
    cad8:	40c78ab3          	sub	x21,x15,x12
    cadc:	00100a13          	addi	x20,x0,1
    cae0:	9adff06f          	jal	x0,c48c <__adddf3+0xd4>
    cae4:	fe078693          	addi	x13,x15,-32
    cae8:	02000613          	addi	x12,x0,32
    caec:	00ded6b3          	srl	x13,x29,x13
    caf0:	00c78a63          	beq	x15,x12,cb04 <__adddf3+0x74c>
    caf4:	04000613          	addi	x12,x0,64
    caf8:	40f607b3          	sub	x15,x12,x15
    cafc:	00fe97b3          	sll	x15,x29,x15
    cb00:	00ff6f33          	or	x30,x30,x15
    cb04:	01e03ab3          	sltu	x21,x0,x30
    cb08:	00daeab3          	or	x21,x21,x13
    cb0c:	b69ff06f          	jal	x0,c674 <__adddf3+0x2bc>
    cb10:	00351613          	slli	x12,x10,0x3
    cb14:	00365a93          	srli	x21,x12,0x3
    cb18:	eb5ff06f          	jal	x0,c9cc <__adddf3+0x614>
    cb1c:	00361613          	slli	x12,x12,0x3
    cb20:	00365793          	srli	x15,x12,0x3
    cb24:	00068913          	addi	x18,x13,0
    cb28:	000e8713          	addi	x14,x29,0
    cb2c:	d41ff06f          	jal	x0,c86c <__adddf3+0x4b4>
    cb30:	00361613          	slli	x12,x12,0x3
    cb34:	00365793          	srli	x15,x12,0x3
    cb38:	000e8713          	addi	x14,x29,0
    cb3c:	d31ff06f          	jal	x0,c86c <__adddf3+0x4b4>
    cb40:	fe078593          	addi	x11,x15,-32
    cb44:	02000613          	addi	x12,x0,32
    cb48:	00b755b3          	srl	x11,x14,x11
    cb4c:	00c78a63          	beq	x15,x12,cb60 <__adddf3+0x7a8>
    cb50:	04000613          	addi	x12,x0,64
    cb54:	40f607b3          	sub	x15,x12,x15
    cb58:	00f717b3          	sll	x15,x14,x15
    cb5c:	00ffefb3          	or	x31,x31,x15
    cb60:	01f03633          	sltu	x12,x0,x31
    cb64:	00b66633          	or	x12,x12,x11
    cb68:	a91ff06f          	jal	x0,c5f8 <__adddf3+0x240>
    cb6c:	fc0682e3          	beq	x13,x0,cb30 <__adddf3+0x778>
    cb70:	01eee5b3          	or	x11,x29,x30
    cb74:	d00596e3          	bne	x11,x0,c880 <__adddf3+0x4c8>
    cb78:	cedff06f          	jal	x0,c864 <__adddf3+0x4ac>
    cb7c:	dc0808e3          	beq	x16,x0,c94c <__adddf3+0x594>
    cb80:	00361813          	slli	x16,x12,0x3
    cb84:	01de9793          	slli	x15,x29,0x1d
    cb88:	00385813          	srli	x16,x16,0x3
    cb8c:	003ed713          	srli	x14,x29,0x3
    cb90:	00f86833          	or	x16,x16,x15
    cb94:	00068313          	addi	x6,x13,0
    cb98:	01c77733          	and	x14,x14,x28
    cb9c:	00000793          	addi	x15,x0,0
    cba0:	9b9ff06f          	jal	x0,c558 <__adddf3+0x1a0>
    cba4:	00100793          	addi	x15,x0,1
    cba8:	c31ff06f          	jal	x0,c7d8 <__adddf3+0x420>
    cbac:	41ff0633          	sub	x12,x30,x31
    cbb0:	00cf3f33          	sltu	x30,x30,x12
    cbb4:	40ee87b3          	sub	x15,x29,x14
    cbb8:	00060993          	addi	x19,x12,0
    cbbc:	41e78ab3          	sub	x21,x15,x30
    cbc0:	00068913          	addi	x18,x13,0
    cbc4:	00100a13          	addi	x20,x0,1
    cbc8:	8c5ff06f          	jal	x0,c48c <__adddf3+0xd4>
    cbcc:	00361613          	slli	x12,x12,0x3
    cbd0:	00365613          	srli	x12,x12,0x3
    cbd4:	000e8713          	addi	x14,x29,0
    cbd8:	cc5ff06f          	jal	x0,c89c <__adddf3+0x4e4>
    cbdc:	00361613          	slli	x12,x12,0x3
    cbe0:	00365a93          	srli	x21,x12,0x3
    cbe4:	000e8713          	addi	x14,x29,0
    cbe8:	de5ff06f          	jal	x0,c9cc <__adddf3+0x614>
    cbec:	0039d613          	srli	x12,x19,0x3
    cbf0:	000a0793          	addi	x15,x20,0
    cbf4:	000a8713          	addi	x14,x21,0
    cbf8:	ca5ff06f          	jal	x0,c89c <__adddf3+0x4e4>
    cbfc:	fe078693          	addi	x13,x15,-32
    cc00:	02000613          	addi	x12,x0,32
    cc04:	00d756b3          	srl	x13,x14,x13
    cc08:	00c78a63          	beq	x15,x12,cc1c <__adddf3+0x864>
    cc0c:	04000613          	addi	x12,x0,64
    cc10:	40f607b3          	sub	x15,x12,x15
    cc14:	00f717b3          	sll	x15,x14,x15
    cc18:	00ffefb3          	or	x31,x31,x15
    cc1c:	01f03ab3          	sltu	x21,x0,x31
    cc20:	00daeab3          	or	x21,x21,x13
    cc24:	c25ff06f          	jal	x0,c848 <__adddf3+0x490>
    cc28:	02000693          	addi	x13,x0,32
    cc2c:	40f686b3          	sub	x13,x13,x15
    cc30:	00000613          	addi	x12,x0,0
    cc34:	8b1ff06f          	jal	x0,c4e4 <__adddf3+0x12c>
    cc38:	00cae833          	or	x16,x21,x12
    cc3c:	d00808e3          	beq	x16,x0,c94c <__adddf3+0x594>
    cc40:	003ada93          	srli	x21,x21,0x3
    cc44:	00060713          	addi	x14,x12,0
    cc48:	d85ff06f          	jal	x0,c9cc <__adddf3+0x614>
    cc4c:	00000313          	addi	x6,x0,0
    cc50:	7ff00793          	addi	x15,x0,2047
    cc54:	00080737          	lui	x14,0x80
    cc58:	901ff06f          	jal	x0,c558 <__adddf3+0x1a0>
    cc5c:	01d71793          	slli	x15,x14,0x1d
    cc60:	00375713          	srli	x14,x14,0x3
    cc64:	0107e833          	or	x16,x15,x16
    cc68:	01c77733          	and	x14,x14,x28
    cc6c:	00000793          	addi	x15,x0,0
    cc70:	8e9ff06f          	jal	x0,c558 <__adddf3+0x1a0>
    cc74:	01d71813          	slli	x16,x14,0x1d
    cc78:	0035d613          	srli	x12,x11,0x3
    cc7c:	00068913          	addi	x18,x13,0
    cc80:	00c86833          	or	x16,x16,x12
    cc84:	00375713          	srli	x14,x14,0x3
    cc88:	c29ff06f          	jal	x0,c8b0 <__adddf3+0x4f8>

0000cc8c <__divdf3>:
    cc8c:	fd010113          	addi	x2,x2,-48
    cc90:	0145d793          	srli	x15,x11,0x14
    cc94:	02812423          	sw	x8,40(x2)
    cc98:	02912223          	sw	x9,36(x2)
    cc9c:	03212023          	sw	x18,32(x2)
    cca0:	01612823          	sw	x22,16(x2)
    cca4:	01912223          	sw	x25,4(x2)
    cca8:	00c59493          	slli	x9,x11,0xc
    ccac:	02112623          	sw	x1,44(x2)
    ccb0:	01312e23          	sw	x19,28(x2)
    ccb4:	01412c23          	sw	x20,24(x2)
    ccb8:	01512a23          	sw	x21,20(x2)
    ccbc:	01712623          	sw	x23,12(x2)
    ccc0:	01812423          	sw	x24,8(x2)
    ccc4:	01a12023          	sw	x26,0(x2)
    ccc8:	7ff7f793          	andi	x15,x15,2047
    cccc:	00050413          	addi	x8,x10,0
    ccd0:	00060c93          	addi	x25,x12,0
    ccd4:	00068913          	addi	x18,x13,0
    ccd8:	00c4d493          	srli	x9,x9,0xc
    ccdc:	01f5db13          	srli	x22,x11,0x1f
    cce0:	1a078263          	beq	x15,x0,ce84 <__divdf3+0x1f8>
    cce4:	7ff00713          	addi	x14,x0,2047
    cce8:	08e78863          	beq	x15,x14,cd78 <__divdf3+0xec>
    ccec:	00349493          	slli	x9,x9,0x3
    ccf0:	01d55713          	srli	x14,x10,0x1d
    ccf4:	00976733          	or	x14,x14,x9
    ccf8:	008006b7          	lui	x13,0x800
    ccfc:	c0178993          	addi	x19,x15,-1023
    cd00:	00351c13          	slli	x24,x10,0x3
    cd04:	00d76bb3          	or	x23,x14,x13
    cd08:	00000493          	addi	x9,x0,0
    cd0c:	00000d13          	addi	x26,x0,0
    cd10:	01495793          	srli	x15,x18,0x14
    cd14:	00c91413          	slli	x8,x18,0xc
    cd18:	7ff7f793          	andi	x15,x15,2047
    cd1c:	00c45413          	srli	x8,x8,0xc
    cd20:	01f95913          	srli	x18,x18,0x1f
    cd24:	08078263          	beq	x15,x0,cda8 <__divdf3+0x11c>
    cd28:	7ff00713          	addi	x14,x0,2047
    cd2c:	1ae78263          	beq	x15,x14,ced0 <__divdf3+0x244>
    cd30:	00341413          	slli	x8,x8,0x3
    cd34:	01dcd713          	srli	x14,x25,0x1d
    cd38:	00876733          	or	x14,x14,x8
    cd3c:	c0178793          	addi	x15,x15,-1023
    cd40:	00800437          	lui	x8,0x800
    cd44:	00876433          	or	x8,x14,x8
    cd48:	40f989b3          	sub	x19,x19,x15
    cd4c:	003c9593          	slli	x11,x25,0x3
    cd50:	00000713          	addi	x14,x0,0
    cd54:	00f00793          	addi	x15,x0,15
    cd58:	012b46b3          	xor	x13,x22,x18
    cd5c:	2497ec63          	bltu	x15,x9,cfb4 <__divdf3+0x328>
    cd60:	000127b7          	lui	x15,0x12
    cd64:	35c78793          	addi	x15,x15,860 # 1235c <_ctype_+0x104>
    cd68:	00249493          	slli	x9,x9,0x2
    cd6c:	00f484b3          	add	x9,x9,x15
    cd70:	0004a783          	lw	x15,0(x9)
    cd74:	00078067          	jalr	x0,0(x15)
    cd78:	00a4ebb3          	or	x23,x9,x10
    cd7c:	1e0b9663          	bne	x23,x0,cf68 <__divdf3+0x2dc>
    cd80:	00078993          	addi	x19,x15,0
    cd84:	01495793          	srli	x15,x18,0x14
    cd88:	00c91413          	slli	x8,x18,0xc
    cd8c:	7ff7f793          	andi	x15,x15,2047
    cd90:	00000c13          	addi	x24,x0,0
    cd94:	00800493          	addi	x9,x0,8
    cd98:	00200d13          	addi	x26,x0,2
    cd9c:	00c45413          	srli	x8,x8,0xc
    cda0:	01f95913          	srli	x18,x18,0x1f
    cda4:	f80792e3          	bne	x15,x0,cd28 <__divdf3+0x9c>
    cda8:	019465b3          	or	x11,x8,x25
    cdac:	1c058a63          	beq	x11,x0,cf80 <__divdf3+0x2f4>
    cdb0:	44040a63          	beq	x8,x0,d204 <__divdf3+0x578>
    cdb4:	00040513          	addi	x10,x8,0 # 800000 <__heap_end+0x400000>
    cdb8:	3e1040ef          	jal	x1,11998 <__clzsi2>
    cdbc:	00050793          	addi	x15,x10,0
    cdc0:	ff550693          	addi	x13,x10,-11
    cdc4:	01d00713          	addi	x14,x0,29
    cdc8:	ff878593          	addi	x11,x15,-8
    cdcc:	40d70733          	sub	x14,x14,x13
    cdd0:	00b41433          	sll	x8,x8,x11
    cdd4:	00ecd733          	srl	x14,x25,x14
    cdd8:	00876433          	or	x8,x14,x8
    cddc:	00bc95b3          	sll	x11,x25,x11
    cde0:	013787b3          	add	x15,x15,x19
    cde4:	3f378993          	addi	x19,x15,1011
    cde8:	00000713          	addi	x14,x0,0
    cdec:	f69ff06f          	jal	x0,cd54 <__divdf3+0xc8>
    cdf0:	46078e63          	beq	x15,x0,d26c <__divdf3+0x5e0>
    cdf4:	00100613          	addi	x12,x0,1
    cdf8:	40f60633          	sub	x12,x12,x15
    cdfc:	03800713          	addi	x14,x0,56
    ce00:	4cc75863          	bge	x14,x12,d2d0 <__divdf3+0x644>
    ce04:	00000793          	addi	x15,x0,0
    ce08:	00000413          	addi	x8,x0,0
    ce0c:	00000713          	addi	x14,x0,0
    ce10:	01479793          	slli	x15,x15,0x14
    ce14:	02c12083          	lw	x1,44(x2)
    ce18:	0087e7b3          	or	x15,x15,x8
    ce1c:	02812403          	lw	x8,40(x2)
    ce20:	01f69693          	slli	x13,x13,0x1f
    ce24:	00d7e7b3          	or	x15,x15,x13
    ce28:	02412483          	lw	x9,36(x2)
    ce2c:	02012903          	lw	x18,32(x2)
    ce30:	01c12983          	lw	x19,28(x2)
    ce34:	01812a03          	lw	x20,24(x2)
    ce38:	01412a83          	lw	x21,20(x2)
    ce3c:	01012b03          	lw	x22,16(x2)
    ce40:	00c12b83          	lw	x23,12(x2)
    ce44:	00812c03          	lw	x24,8(x2)
    ce48:	00412c83          	lw	x25,4(x2)
    ce4c:	00012d03          	lw	x26,0(x2)
    ce50:	00070513          	addi	x10,x14,0 # 80000 <__heap_start+0x6d130>
    ce54:	00078593          	addi	x11,x15,0
    ce58:	03010113          	addi	x2,x2,48
    ce5c:	00008067          	jalr	x0,0(x1)
    ce60:	7ff00793          	addi	x15,x0,2047
    ce64:	00000413          	addi	x8,x0,0
    ce68:	00000713          	addi	x14,x0,0
    ce6c:	fa5ff06f          	jal	x0,ce10 <__divdf3+0x184>
    ce70:	00000693          	addi	x13,x0,0
    ce74:	7ff00793          	addi	x15,x0,2047
    ce78:	00080437          	lui	x8,0x80
    ce7c:	00000713          	addi	x14,x0,0
    ce80:	f91ff06f          	jal	x0,ce10 <__divdf3+0x184>
    ce84:	00a4ebb3          	or	x23,x9,x10
    ce88:	100b8c63          	beq	x23,x0,cfa0 <__divdf3+0x314>
    ce8c:	3a048063          	beq	x9,x0,d22c <__divdf3+0x5a0>
    ce90:	00048513          	addi	x10,x9,0
    ce94:	305040ef          	jal	x1,11998 <__clzsi2>
    ce98:	00050693          	addi	x13,x10,0
    ce9c:	ff550793          	addi	x15,x10,-11
    cea0:	01d00713          	addi	x14,x0,29
    cea4:	ff868c13          	addi	x24,x13,-8 # 7ffff8 <__heap_end+0x3ffff8>
    cea8:	40f70733          	sub	x14,x14,x15
    ceac:	018494b3          	sll	x9,x9,x24
    ceb0:	00e45733          	srl	x14,x8,x14
    ceb4:	00976bb3          	or	x23,x14,x9
    ceb8:	01841c33          	sll	x24,x8,x24
    cebc:	c0d00793          	addi	x15,x0,-1011
    cec0:	40d789b3          	sub	x19,x15,x13
    cec4:	00000493          	addi	x9,x0,0
    cec8:	00000d13          	addi	x26,x0,0
    cecc:	e45ff06f          	jal	x0,cd10 <__divdf3+0x84>
    ced0:	019465b3          	or	x11,x8,x25
    ced4:	80198993          	addi	x19,x19,-2047
    ced8:	0a059c63          	bne	x11,x0,cf90 <__divdf3+0x304>
    cedc:	0024e493          	ori	x9,x9,2
    cee0:	00000413          	addi	x8,x0,0
    cee4:	00200713          	addi	x14,x0,2
    cee8:	e6dff06f          	jal	x0,cd54 <__divdf3+0xc8>
    ceec:	000b0913          	addi	x18,x22,0
    cef0:	000b8413          	addi	x8,x23,0
    cef4:	000c0593          	addi	x11,x24,0
    cef8:	00200793          	addi	x15,x0,2
    cefc:	4cfd0263          	beq	x26,x15,d3c0 <__divdf3+0x734>
    cf00:	00300793          	addi	x15,x0,3
    cf04:	f6fd06e3          	beq	x26,x15,ce70 <__divdf3+0x1e4>
    cf08:	00100793          	addi	x15,x0,1
    cf0c:	00090693          	addi	x13,x18,0
    cf10:	eefd0ae3          	beq	x26,x15,ce04 <__divdf3+0x178>
    cf14:	3ff98793          	addi	x15,x19,1023
    cf18:	ecf05ce3          	bge	x0,x15,cdf0 <__divdf3+0x164>
    cf1c:	0075f713          	andi	x14,x11,7
    cf20:	48071063          	bne	x14,x0,d3a0 <__divdf3+0x714>
    cf24:	00741713          	slli	x14,x8,0x7
    cf28:	00075a63          	bge	x14,x0,cf3c <__divdf3+0x2b0>
    cf2c:	ff000737          	lui	x14,0xff000
    cf30:	fff70713          	addi	x14,x14,-1 # feffffff <__heap_end+0xfebfffff>
    cf34:	40098793          	addi	x15,x19,1024
    cf38:	00e47433          	and	x8,x8,x14
    cf3c:	7fe00713          	addi	x14,x0,2046
    cf40:	f2f740e3          	blt	x14,x15,ce60 <__divdf3+0x1d4>
    cf44:	01d41713          	slli	x14,x8,0x1d
    cf48:	0035d593          	srli	x11,x11,0x3
    cf4c:	00941413          	slli	x8,x8,0x9
    cf50:	7ff7f793          	andi	x15,x15,2047
    cf54:	00b76733          	or	x14,x14,x11
    cf58:	00c45413          	srli	x8,x8,0xc
    cf5c:	eb5ff06f          	jal	x0,ce10 <__divdf3+0x184>
    cf60:	00070d13          	addi	x26,x14,0
    cf64:	f95ff06f          	jal	x0,cef8 <__divdf3+0x26c>
    cf68:	00048b93          	addi	x23,x9,0
    cf6c:	00050c13          	addi	x24,x10,0
    cf70:	00078993          	addi	x19,x15,0
    cf74:	00c00493          	addi	x9,x0,12
    cf78:	00300d13          	addi	x26,x0,3
    cf7c:	d95ff06f          	jal	x0,cd10 <__divdf3+0x84>
    cf80:	0014e493          	ori	x9,x9,1
    cf84:	00000413          	addi	x8,x0,0
    cf88:	00100713          	addi	x14,x0,1
    cf8c:	dc9ff06f          	jal	x0,cd54 <__divdf3+0xc8>
    cf90:	0034e493          	ori	x9,x9,3
    cf94:	000c8593          	addi	x11,x25,0
    cf98:	00300713          	addi	x14,x0,3
    cf9c:	db9ff06f          	jal	x0,cd54 <__divdf3+0xc8>
    cfa0:	00000c13          	addi	x24,x0,0
    cfa4:	00400493          	addi	x9,x0,4
    cfa8:	00000993          	addi	x19,x0,0
    cfac:	00100d13          	addi	x26,x0,1
    cfb0:	d61ff06f          	jal	x0,cd10 <__divdf3+0x84>
    cfb4:	23746c63          	bltu	x8,x23,d1ec <__divdf3+0x560>
    cfb8:	228b8863          	beq	x23,x8,d1e8 <__divdf3+0x55c>
    cfbc:	000c0793          	addi	x15,x24,0
    cfc0:	fff98993          	addi	x19,x19,-1
    cfc4:	000b8713          	addi	x14,x23,0
    cfc8:	00000c13          	addi	x24,x0,0
    cfcc:	00841613          	slli	x12,x8,0x8
    cfd0:	01065893          	srli	x17,x12,0x10
    cfd4:	03175433          	divu	x8,x14,x17
    cfd8:	0185d513          	srli	x10,x11,0x18
    cfdc:	00c56533          	or	x10,x10,x12
    cfe0:	01051313          	slli	x6,x10,0x10
    cfe4:	01035313          	srli	x6,x6,0x10
    cfe8:	00859813          	slli	x16,x11,0x8
    cfec:	0107d613          	srli	x12,x15,0x10
    cff0:	03177733          	remu	x14,x14,x17
    cff4:	028305b3          	mul	x11,x6,x8
    cff8:	01071713          	slli	x14,x14,0x10
    cffc:	00e66733          	or	x14,x12,x14
    d000:	00b77a63          	bgeu	x14,x11,d014 <__divdf3+0x388>
    d004:	00e50733          	add	x14,x10,x14
    d008:	fff40613          	addi	x12,x8,-1 # 7ffff <__heap_start+0x6d12f>
    d00c:	2aa77263          	bgeu	x14,x10,d2b0 <__divdf3+0x624>
    d010:	00060413          	addi	x8,x12,0
    d014:	40b70733          	sub	x14,x14,x11
    d018:	03175633          	divu	x12,x14,x17
    d01c:	01079793          	slli	x15,x15,0x10
    d020:	0107d793          	srli	x15,x15,0x10
    d024:	03177733          	remu	x14,x14,x17
    d028:	02c30eb3          	mul	x29,x6,x12
    d02c:	01071713          	slli	x14,x14,0x10
    d030:	00e7e7b3          	or	x15,x15,x14
    d034:	01d7fa63          	bgeu	x15,x29,d048 <__divdf3+0x3bc>
    d038:	00f507b3          	add	x15,x10,x15
    d03c:	fff60713          	addi	x14,x12,-1
    d040:	28a7f063          	bgeu	x15,x10,d2c0 <__divdf3+0x634>
    d044:	00070613          	addi	x12,x14,0
    d048:	01041413          	slli	x8,x8,0x10
    d04c:	00c46433          	or	x8,x8,x12
    d050:	01041593          	slli	x11,x8,0x10
    d054:	01081613          	slli	x12,x16,0x10
    d058:	01045f93          	srli	x31,x8,0x10
    d05c:	01065613          	srli	x12,x12,0x10
    d060:	0105d593          	srli	x11,x11,0x10
    d064:	01085e13          	srli	x28,x16,0x10
    d068:	02cf8f33          	mul	x30,x31,x12
    d06c:	41d787b3          	sub	x15,x15,x29
    d070:	02be0eb3          	mul	x29,x28,x11
    d074:	02c585b3          	mul	x11,x11,x12
    d078:	01ee8eb3          	add	x29,x29,x30
    d07c:	0105d713          	srli	x14,x11,0x10
    d080:	01d70733          	add	x14,x14,x29
    d084:	03cf8fb3          	mul	x31,x31,x28
    d088:	01e77663          	bgeu	x14,x30,d094 <__divdf3+0x408>
    d08c:	00010eb7          	lui	x29,0x10
    d090:	01df8fb3          	add	x31,x31,x29
    d094:	01075f13          	srli	x30,x14,0x10
    d098:	01059593          	slli	x11,x11,0x10
    d09c:	01071e93          	slli	x29,x14,0x10
    d0a0:	0105d593          	srli	x11,x11,0x10
    d0a4:	01ff0733          	add	x14,x30,x31
    d0a8:	00be8eb3          	add	x29,x29,x11
    d0ac:	10e7e863          	bltu	x15,x14,d1bc <__divdf3+0x530>
    d0b0:	10e78463          	beq	x15,x14,d1b8 <__divdf3+0x52c>
    d0b4:	41dc0eb3          	sub	x29,x24,x29
    d0b8:	01dc3c33          	sltu	x24,x24,x29
    d0bc:	40e787b3          	sub	x15,x15,x14
    d0c0:	418787b3          	sub	x15,x15,x24
    d0c4:	2af50c63          	beq	x10,x15,d37c <__divdf3+0x6f0>
    d0c8:	0317d5b3          	divu	x11,x15,x17
    d0cc:	010ed713          	srli	x14,x29,0x10
    d0d0:	0317f7b3          	remu	x15,x15,x17
    d0d4:	02b30f33          	mul	x30,x6,x11
    d0d8:	01079793          	slli	x15,x15,0x10
    d0dc:	00f76733          	or	x14,x14,x15
    d0e0:	01e77e63          	bgeu	x14,x30,d0fc <__divdf3+0x470>
    d0e4:	00e50733          	add	x14,x10,x14
    d0e8:	fff58793          	addi	x15,x11,-1
    d0ec:	2ca76663          	bltu	x14,x10,d3b8 <__divdf3+0x72c>
    d0f0:	2de77463          	bgeu	x14,x30,d3b8 <__divdf3+0x72c>
    d0f4:	ffe58593          	addi	x11,x11,-2
    d0f8:	00a70733          	add	x14,x14,x10
    d0fc:	41e70733          	sub	x14,x14,x30
    d100:	03175f33          	divu	x30,x14,x17
    d104:	010e9793          	slli	x15,x29,0x10
    d108:	0107d793          	srli	x15,x15,0x10
    d10c:	03177733          	remu	x14,x14,x17
    d110:	03e30333          	mul	x6,x6,x30
    d114:	01071713          	slli	x14,x14,0x10
    d118:	00e7e7b3          	or	x15,x15,x14
    d11c:	0067fe63          	bgeu	x15,x6,d138 <__divdf3+0x4ac>
    d120:	00f507b3          	add	x15,x10,x15
    d124:	ffff0713          	addi	x14,x30,-1
    d128:	28a7e463          	bltu	x15,x10,d3b0 <__divdf3+0x724>
    d12c:	2867f263          	bgeu	x15,x6,d3b0 <__divdf3+0x724>
    d130:	ffef0f13          	addi	x30,x30,-2
    d134:	00a787b3          	add	x15,x15,x10
    d138:	01059593          	slli	x11,x11,0x10
    d13c:	01e5e5b3          	or	x11,x11,x30
    d140:	01059713          	slli	x14,x11,0x10
    d144:	01075713          	srli	x14,x14,0x10
    d148:	0105df13          	srli	x30,x11,0x10
    d14c:	02ee08b3          	mul	x17,x28,x14
    d150:	406787b3          	sub	x15,x15,x6
    d154:	02cf0eb3          	mul	x29,x30,x12
    d158:	02e60633          	mul	x12,x12,x14
    d15c:	01d888b3          	add	x17,x17,x29
    d160:	01065713          	srli	x14,x12,0x10
    d164:	01170733          	add	x14,x14,x17
    d168:	03ee0e33          	mul	x28,x28,x30
    d16c:	01d77663          	bgeu	x14,x29,d178 <__divdf3+0x4ec>
    d170:	000108b7          	lui	x17,0x10
    d174:	011e0e33          	add	x28,x28,x17
    d178:	01075893          	srli	x17,x14,0x10
    d17c:	01061613          	slli	x12,x12,0x10
    d180:	01065613          	srli	x12,x12,0x10
    d184:	01071713          	slli	x14,x14,0x10
    d188:	01c888b3          	add	x17,x17,x28
    d18c:	00c70733          	add	x14,x14,x12
    d190:	0d17f063          	bgeu	x15,x17,d250 <__divdf3+0x5c4>
    d194:	00f507b3          	add	x15,x10,x15
    d198:	00078613          	addi	x12,x15,0
    d19c:	fff58313          	addi	x6,x11,-1
    d1a0:	1aa7e463          	bltu	x15,x10,d348 <__divdf3+0x6bc>
    d1a4:	2317e863          	bltu	x15,x17,d3d4 <__divdf3+0x748>
    d1a8:	27178e63          	beq	x15,x17,d424 <__divdf3+0x798>
    d1ac:	00030593          	addi	x11,x6,0
    d1b0:	0015e593          	ori	x11,x11,1
    d1b4:	d61ff06f          	jal	x0,cf14 <__divdf3+0x288>
    d1b8:	efdc7ee3          	bgeu	x24,x29,d0b4 <__divdf3+0x428>
    d1bc:	010c05b3          	add	x11,x24,x16
    d1c0:	0185bf33          	sltu	x30,x11,x24
    d1c4:	00af0fb3          	add	x31,x30,x10
    d1c8:	01f787b3          	add	x15,x15,x31
    d1cc:	00058c13          	addi	x24,x11,0
    d1d0:	fff40f93          	addi	x31,x8,-1
    d1d4:	08f57463          	bgeu	x10,x15,d25c <__divdf3+0x5d0>
    d1d8:	18e7e463          	bltu	x15,x14,d360 <__divdf3+0x6d4>
    d1dc:	18f70063          	beq	x14,x15,d35c <__divdf3+0x6d0>
    d1e0:	000f8413          	addi	x8,x31,0
    d1e4:	ed1ff06f          	jal	x0,d0b4 <__divdf3+0x428>
    d1e8:	dcbc6ae3          	bltu	x24,x11,cfbc <__divdf3+0x330>
    d1ec:	001c5613          	srli	x12,x24,0x1
    d1f0:	01fb9793          	slli	x15,x23,0x1f
    d1f4:	001bd713          	srli	x14,x23,0x1
    d1f8:	00c7e7b3          	or	x15,x15,x12
    d1fc:	01fc1c13          	slli	x24,x24,0x1f
    d200:	dcdff06f          	jal	x0,cfcc <__divdf3+0x340>
    d204:	000c8513          	addi	x10,x25,0
    d208:	790040ef          	jal	x1,11998 <__clzsi2>
    d20c:	01550693          	addi	x13,x10,21
    d210:	01c00713          	addi	x14,x0,28
    d214:	02050793          	addi	x15,x10,32
    d218:	bad756e3          	bge	x14,x13,cdc4 <__divdf3+0x138>
    d21c:	ff850513          	addi	x10,x10,-8
    d220:	00ac9433          	sll	x8,x25,x10
    d224:	00000593          	addi	x11,x0,0
    d228:	bb9ff06f          	jal	x0,cde0 <__divdf3+0x154>
    d22c:	76c040ef          	jal	x1,11998 <__clzsi2>
    d230:	01550793          	addi	x15,x10,21
    d234:	01c00713          	addi	x14,x0,28
    d238:	02050693          	addi	x13,x10,32
    d23c:	c6f752e3          	bge	x14,x15,cea0 <__divdf3+0x214>
    d240:	ff850713          	addi	x14,x10,-8
    d244:	00e41bb3          	sll	x23,x8,x14
    d248:	00000c13          	addi	x24,x0,0
    d24c:	c71ff06f          	jal	x0,cebc <__divdf3+0x230>
    d250:	f71790e3          	bne	x15,x17,d1b0 <__divdf3+0x524>
    d254:	cc0700e3          	beq	x14,x0,cf14 <__divdf3+0x288>
    d258:	f3dff06f          	jal	x0,d194 <__divdf3+0x508>
    d25c:	f8f512e3          	bne	x10,x15,d1e0 <__divdf3+0x554>
    d260:	f60f0ce3          	beq	x30,x0,d1d8 <__divdf3+0x54c>
    d264:	000f8413          	addi	x8,x31,0
    d268:	e4dff06f          	jal	x0,d0b4 <__divdf3+0x428>
    d26c:	00100613          	addi	x12,x0,1
    d270:	41e98793          	addi	x15,x19,1054
    d274:	00f59733          	sll	x14,x11,x15
    d278:	00e03733          	sltu	x14,x0,x14
    d27c:	00f417b3          	sll	x15,x8,x15
    d280:	00f767b3          	or	x15,x14,x15
    d284:	00c5d733          	srl	x14,x11,x12
    d288:	00f76733          	or	x14,x14,x15
    d28c:	00777793          	andi	x15,x14,7
    d290:	00c45633          	srl	x12,x8,x12
    d294:	1a079063          	bne	x15,x0,d434 <__divdf3+0x7a8>
    d298:	00861793          	slli	x15,x12,0x8
    d29c:	0807d863          	bge	x15,x0,d32c <__divdf3+0x6a0>
    d2a0:	00100793          	addi	x15,x0,1
    d2a4:	00000413          	addi	x8,x0,0
    d2a8:	00000713          	addi	x14,x0,0
    d2ac:	b65ff06f          	jal	x0,ce10 <__divdf3+0x184>
    d2b0:	d6b770e3          	bgeu	x14,x11,d010 <__divdf3+0x384>
    d2b4:	ffe40413          	addi	x8,x8,-2
    d2b8:	00a70733          	add	x14,x14,x10
    d2bc:	d59ff06f          	jal	x0,d014 <__divdf3+0x388>
    d2c0:	d9d7f2e3          	bgeu	x15,x29,d044 <__divdf3+0x3b8>
    d2c4:	ffe60613          	addi	x12,x12,-2
    d2c8:	00a787b3          	add	x15,x15,x10
    d2cc:	d7dff06f          	jal	x0,d048 <__divdf3+0x3bc>
    d2d0:	01f00713          	addi	x14,x0,31
    d2d4:	f8c75ee3          	bge	x14,x12,d270 <__divdf3+0x5e4>
    d2d8:	fe100513          	addi	x10,x0,-31
    d2dc:	40f50533          	sub	x10,x10,x15
    d2e0:	02000793          	addi	x15,x0,32
    d2e4:	00a45533          	srl	x10,x8,x10
    d2e8:	00f60863          	beq	x12,x15,d2f8 <__divdf3+0x66c>
    d2ec:	43e98793          	addi	x15,x19,1086
    d2f0:	00f417b3          	sll	x15,x8,x15
    d2f4:	00f5e5b3          	or	x11,x11,x15
    d2f8:	00b03733          	sltu	x14,x0,x11
    d2fc:	00a76733          	or	x14,x14,x10
    d300:	00777613          	andi	x12,x14,7
    d304:	00000413          	addi	x8,x0,0
    d308:	02060863          	beq	x12,x0,d338 <__divdf3+0x6ac>
    d30c:	00f77793          	andi	x15,x14,15
    d310:	00400593          	addi	x11,x0,4
    d314:	00000613          	addi	x12,x0,0
    d318:	00b78a63          	beq	x15,x11,d32c <__divdf3+0x6a0>
    d31c:	00b707b3          	add	x15,x14,x11
    d320:	00e7b733          	sltu	x14,x15,x14
    d324:	00e03633          	sltu	x12,x0,x14
    d328:	00078713          	addi	x14,x15,0
    d32c:	00961413          	slli	x8,x12,0x9
    d330:	00c45413          	srli	x8,x8,0xc
    d334:	01d61613          	slli	x12,x12,0x1d
    d338:	00375713          	srli	x14,x14,0x3
    d33c:	00c76733          	or	x14,x14,x12
    d340:	00000793          	addi	x15,x0,0
    d344:	acdff06f          	jal	x0,ce10 <__divdf3+0x184>
    d348:	00030593          	addi	x11,x6,0
    d34c:	e71612e3          	bne	x12,x17,d1b0 <__divdf3+0x524>
    d350:	bd0702e3          	beq	x14,x16,cf14 <__divdf3+0x288>
    d354:	0015e593          	ori	x11,x11,1
    d358:	bbdff06f          	jal	x0,cf14 <__divdf3+0x288>
    d35c:	e9d5f2e3          	bgeu	x11,x29,d1e0 <__divdf3+0x554>
    d360:	00b805b3          	add	x11,x16,x11
    d364:	0105bf33          	sltu	x30,x11,x16
    d368:	00af0f33          	add	x30,x30,x10
    d36c:	ffe40413          	addi	x8,x8,-2
    d370:	01e787b3          	add	x15,x15,x30
    d374:	00058c13          	addi	x24,x11,0
    d378:	d3dff06f          	jal	x0,d0b4 <__divdf3+0x428>
    d37c:	c0200713          	addi	x14,x0,-1022
    d380:	3ff98793          	addi	x15,x19,1023
    d384:	fff00593          	addi	x11,x0,-1
    d388:	06e9c663          	blt	x19,x14,d3f4 <__divdf3+0x768>
    d38c:	00458713          	addi	x14,x11,4
    d390:	00b735b3          	sltu	x11,x14,x11
    d394:	00b40433          	add	x8,x8,x11
    d398:	00070593          	addi	x11,x14,0
    d39c:	b89ff06f          	jal	x0,cf24 <__divdf3+0x298>
    d3a0:	00f5f713          	andi	x14,x11,15
    d3a4:	00400613          	addi	x12,x0,4
    d3a8:	b6c70ee3          	beq	x14,x12,cf24 <__divdf3+0x298>
    d3ac:	fe1ff06f          	jal	x0,d38c <__divdf3+0x700>
    d3b0:	00070f13          	addi	x30,x14,0
    d3b4:	d85ff06f          	jal	x0,d138 <__divdf3+0x4ac>
    d3b8:	00078593          	addi	x11,x15,0
    d3bc:	d41ff06f          	jal	x0,d0fc <__divdf3+0x470>
    d3c0:	00090693          	addi	x13,x18,0
    d3c4:	7ff00793          	addi	x15,x0,2047
    d3c8:	00000413          	addi	x8,x0,0
    d3cc:	00000713          	addi	x14,x0,0
    d3d0:	a41ff06f          	jal	x0,ce10 <__divdf3+0x184>
    d3d4:	00181313          	slli	x6,x16,0x1
    d3d8:	01033633          	sltu	x12,x6,x16
    d3dc:	00a60633          	add	x12,x12,x10
    d3e0:	00c78633          	add	x12,x15,x12
    d3e4:	ffe58593          	addi	x11,x11,-2
    d3e8:	00030813          	addi	x16,x6,0
    d3ec:	f71602e3          	beq	x12,x17,d350 <__divdf3+0x6c4>
    d3f0:	dc1ff06f          	jal	x0,d1b0 <__divdf3+0x524>
    d3f4:	a00790e3          	bne	x15,x0,cdf4 <__divdf3+0x168>
    d3f8:	41e98793          	addi	x15,x19,1054
    d3fc:	80000637          	lui	x12,0x80000
    d400:	00f41733          	sll	x14,x8,x15
    d404:	fff60793          	addi	x15,x12,-1 # 7fffffff <__heap_end+0x7fbfffff>
    d408:	00f76733          	or	x14,x14,x15
    d40c:	00145613          	srli	x12,x8,0x1
    d410:	00470793          	addi	x15,x14,4
    d414:	00e7b733          	sltu	x14,x15,x14
    d418:	00e60633          	add	x12,x12,x14
    d41c:	00078713          	addi	x14,x15,0
    d420:	e79ff06f          	jal	x0,d298 <__divdf3+0x60c>
    d424:	fae868e3          	bltu	x16,x14,d3d4 <__divdf3+0x748>
    d428:	00030593          	addi	x11,x6,0
    d42c:	f30714e3          	bne	x14,x16,d354 <__divdf3+0x6c8>
    d430:	ae5ff06f          	jal	x0,cf14 <__divdf3+0x288>
    d434:	00f77793          	andi	x15,x14,15
    d438:	00400593          	addi	x11,x0,4
    d43c:	e4b78ee3          	beq	x15,x11,d298 <__divdf3+0x60c>
    d440:	fd1ff06f          	jal	x0,d410 <__divdf3+0x784>

0000d444 <__eqdf2>:
    d444:	0145d713          	srli	x14,x11,0x14
    d448:	001007b7          	lui	x15,0x100
    d44c:	0146d813          	srli	x16,x13,0x14
    d450:	fff78793          	addi	x15,x15,-1 # fffff <__heap_start+0xed12f>
    d454:	7ff00313          	addi	x6,x0,2047
    d458:	7ff77713          	andi	x14,x14,2047
    d45c:	00b7fe33          	and	x28,x15,x11
    d460:	00050893          	addi	x17,x10,0
    d464:	00d7f7b3          	and	x15,x15,x13
    d468:	00687833          	and	x16,x16,x6
    d46c:	01f5d593          	srli	x11,x11,0x1f
    d470:	01f6d693          	srli	x13,x13,0x1f
    d474:	00100513          	addi	x10,x0,1
    d478:	00670c63          	beq	x14,x6,d490 <__eqdf2+0x4c>
    d47c:	00680863          	beq	x16,x6,d48c <__eqdf2+0x48>
    d480:	01071463          	bne	x14,x16,d488 <__eqdf2+0x44>
    d484:	02fe0663          	beq	x28,x15,d4b0 <__eqdf2+0x6c>
    d488:	00008067          	jalr	x0,0(x1)
    d48c:	00008067          	jalr	x0,0(x1)
    d490:	fee81ce3          	bne	x16,x14,d488 <__eqdf2+0x44>
    d494:	00fe67b3          	or	x15,x28,x15
    d498:	00c7e7b3          	or	x15,x15,x12
    d49c:	0117e7b3          	or	x15,x15,x17
    d4a0:	fe0794e3          	bne	x15,x0,d488 <__eqdf2+0x44>
    d4a4:	40d585b3          	sub	x11,x11,x13
    d4a8:	00b03533          	sltu	x10,x0,x11
    d4ac:	00008067          	jalr	x0,0(x1)
    d4b0:	fd161ce3          	bne	x12,x17,d488 <__eqdf2+0x44>
    d4b4:	00d58a63          	beq	x11,x13,d4c8 <__eqdf2+0x84>
    d4b8:	fc0718e3          	bne	x14,x0,d488 <__eqdf2+0x44>
    d4bc:	00ce6e33          	or	x28,x28,x12
    d4c0:	01c03533          	sltu	x10,x0,x28
    d4c4:	00008067          	jalr	x0,0(x1)
    d4c8:	00000513          	addi	x10,x0,0
    d4cc:	00008067          	jalr	x0,0(x1)

0000d4d0 <__gedf2>:
    d4d0:	0145d893          	srli	x17,x11,0x14
    d4d4:	001007b7          	lui	x15,0x100
    d4d8:	0146d713          	srli	x14,x13,0x14
    d4dc:	00050813          	addi	x16,x10,0
    d4e0:	fff78793          	addi	x15,x15,-1 # fffff <__heap_start+0xed12f>
    d4e4:	7ff00313          	addi	x6,x0,2047
    d4e8:	7ff8f893          	andi	x17,x17,2047
    d4ec:	00677533          	and	x10,x14,x6
    d4f0:	00080e13          	addi	x28,x16,0
    d4f4:	00b7f733          	and	x14,x15,x11
    d4f8:	00060e93          	addi	x29,x12,0
    d4fc:	00d7f7b3          	and	x15,x15,x13
    d500:	01f5d593          	srli	x11,x11,0x1f
    d504:	01f6d693          	srli	x13,x13,0x1f
    d508:	04688863          	beq	x17,x6,d558 <__gedf2+0x88>
    d50c:	02650463          	beq	x10,x6,d534 <__gedf2+0x64>
    d510:	06089a63          	bne	x17,x0,d584 <__gedf2+0xb4>
    d514:	01076833          	or	x16,x14,x16
    d518:	06051063          	bne	x10,x0,d578 <__gedf2+0xa8>
    d51c:	00c7e633          	or	x12,x15,x12
    d520:	08060c63          	beq	x12,x0,d5b8 <__gedf2+0xe8>
    d524:	0a081263          	bne	x16,x0,d5c8 <__gedf2+0xf8>
    d528:	00100513          	addi	x10,x0,1
    d52c:	08068263          	beq	x13,x0,d5b0 <__gedf2+0xe0>
    d530:	00008067          	jalr	x0,0(x1)
    d534:	00c7e633          	or	x12,x15,x12
    d538:	08061463          	bne	x12,x0,d5c0 <__gedf2+0xf0>
    d53c:	00089663          	bne	x17,x0,d548 <__gedf2+0x78>
    d540:	01076733          	or	x14,x14,x16
    d544:	fe0702e3          	beq	x14,x0,d528 <__gedf2+0x58>
    d548:	06d58063          	beq	x11,x13,d5a8 <__gedf2+0xd8>
    d54c:	06059263          	bne	x11,x0,d5b0 <__gedf2+0xe0>
    d550:	00100513          	addi	x10,x0,1
    d554:	00008067          	jalr	x0,0(x1)
    d558:	01076733          	or	x14,x14,x16
    d55c:	06071263          	bne	x14,x0,d5c0 <__gedf2+0xf0>
    d560:	ff1516e3          	bne	x10,x17,d54c <__gedf2+0x7c>
    d564:	00c7e7b3          	or	x15,x15,x12
    d568:	04079c63          	bne	x15,x0,d5c0 <__gedf2+0xf0>
    d56c:	fed590e3          	bne	x11,x13,d54c <__gedf2+0x7c>
    d570:	00000513          	addi	x10,x0,0
    d574:	00008067          	jalr	x0,0(x1)
    d578:	fa0808e3          	beq	x16,x0,d528 <__gedf2+0x58>
    d57c:	fcd598e3          	bne	x11,x13,d54c <__gedf2+0x7c>
    d580:	0280006f          	jal	x0,d5a8 <__gedf2+0xd8>
    d584:	fc0504e3          	beq	x10,x0,d54c <__gedf2+0x7c>
    d588:	fcd592e3          	bne	x11,x13,d54c <__gedf2+0x7c>
    d58c:	fd1540e3          	blt	x10,x17,d54c <__gedf2+0x7c>
    d590:	00a8cc63          	blt	x17,x10,d5a8 <__gedf2+0xd8>
    d594:	fae7ece3          	bltu	x15,x14,d54c <__gedf2+0x7c>
    d598:	00f71863          	bne	x14,x15,d5a8 <__gedf2+0xd8>
    d59c:	fbcee8e3          	bltu	x29,x28,d54c <__gedf2+0x7c>
    d5a0:	00000513          	addi	x10,x0,0
    d5a4:	f9de76e3          	bgeu	x28,x29,d530 <__gedf2+0x60>
    d5a8:	00100513          	addi	x10,x0,1
    d5ac:	f80592e3          	bne	x11,x0,d530 <__gedf2+0x60>
    d5b0:	fff00513          	addi	x10,x0,-1
    d5b4:	00008067          	jalr	x0,0(x1)
    d5b8:	f8081ae3          	bne	x16,x0,d54c <__gedf2+0x7c>
    d5bc:	00008067          	jalr	x0,0(x1)
    d5c0:	ffe00513          	addi	x10,x0,-2
    d5c4:	00008067          	jalr	x0,0(x1)
    d5c8:	fcd586e3          	beq	x11,x13,d594 <__gedf2+0xc4>
    d5cc:	f81ff06f          	jal	x0,d54c <__gedf2+0x7c>

0000d5d0 <__ledf2>:
    d5d0:	0145d893          	srli	x17,x11,0x14
    d5d4:	001007b7          	lui	x15,0x100
    d5d8:	0146d713          	srli	x14,x13,0x14
    d5dc:	00050813          	addi	x16,x10,0
    d5e0:	fff78793          	addi	x15,x15,-1 # fffff <__heap_start+0xed12f>
    d5e4:	7ff00313          	addi	x6,x0,2047
    d5e8:	7ff8f893          	andi	x17,x17,2047
    d5ec:	00677533          	and	x10,x14,x6
    d5f0:	00080e13          	addi	x28,x16,0
    d5f4:	00b7f733          	and	x14,x15,x11
    d5f8:	00060e93          	addi	x29,x12,0
    d5fc:	00d7f7b3          	and	x15,x15,x13
    d600:	01f5d593          	srli	x11,x11,0x1f
    d604:	01f6d693          	srli	x13,x13,0x1f
    d608:	04688a63          	beq	x17,x6,d65c <__ledf2+0x8c>
    d60c:	02650463          	beq	x10,x6,d634 <__ledf2+0x64>
    d610:	06089863          	bne	x17,x0,d680 <__ledf2+0xb0>
    d614:	01076833          	or	x16,x14,x16
    d618:	08051e63          	bne	x10,x0,d6b4 <__ledf2+0xe4>
    d61c:	00c7e633          	or	x12,x15,x12
    d620:	0a060463          	beq	x12,x0,d6c8 <__ledf2+0xf8>
    d624:	0a081663          	bne	x16,x0,d6d0 <__ledf2+0x100>
    d628:	00100513          	addi	x10,x0,1
    d62c:	08068063          	beq	x13,x0,d6ac <__ledf2+0xdc>
    d630:	00008067          	jalr	x0,0(x1)
    d634:	00c7e633          	or	x12,x15,x12
    d638:	00200513          	addi	x10,x0,2
    d63c:	fe061ae3          	bne	x12,x0,d630 <__ledf2+0x60>
    d640:	00089663          	bne	x17,x0,d64c <__ledf2+0x7c>
    d644:	01076733          	or	x14,x14,x16
    d648:	fe0700e3          	beq	x14,x0,d628 <__ledf2+0x58>
    d64c:	04d58c63          	beq	x11,x13,d6a4 <__ledf2+0xd4>
    d650:	04059e63          	bne	x11,x0,d6ac <__ledf2+0xdc>
    d654:	00100513          	addi	x10,x0,1
    d658:	00008067          	jalr	x0,0(x1)
    d65c:	01076733          	or	x14,x14,x16
    d660:	06071063          	bne	x14,x0,d6c0 <__ledf2+0xf0>
    d664:	ff1516e3          	bne	x10,x17,d650 <__ledf2+0x80>
    d668:	00c7e7b3          	or	x15,x15,x12
    d66c:	00200513          	addi	x10,x0,2
    d670:	fc0790e3          	bne	x15,x0,d630 <__ledf2+0x60>
    d674:	fcd59ee3          	bne	x11,x13,d650 <__ledf2+0x80>
    d678:	00000513          	addi	x10,x0,0
    d67c:	00008067          	jalr	x0,0(x1)
    d680:	fc0508e3          	beq	x10,x0,d650 <__ledf2+0x80>
    d684:	fcd596e3          	bne	x11,x13,d650 <__ledf2+0x80>
    d688:	fd1544e3          	blt	x10,x17,d650 <__ledf2+0x80>
    d68c:	00a8cc63          	blt	x17,x10,d6a4 <__ledf2+0xd4>
    d690:	fce7e0e3          	bltu	x15,x14,d650 <__ledf2+0x80>
    d694:	00f71863          	bne	x14,x15,d6a4 <__ledf2+0xd4>
    d698:	fbceece3          	bltu	x29,x28,d650 <__ledf2+0x80>
    d69c:	00000513          	addi	x10,x0,0
    d6a0:	f9de78e3          	bgeu	x28,x29,d630 <__ledf2+0x60>
    d6a4:	00100513          	addi	x10,x0,1
    d6a8:	f80594e3          	bne	x11,x0,d630 <__ledf2+0x60>
    d6ac:	fff00513          	addi	x10,x0,-1
    d6b0:	00008067          	jalr	x0,0(x1)
    d6b4:	f6080ae3          	beq	x16,x0,d628 <__ledf2+0x58>
    d6b8:	f8d59ce3          	bne	x11,x13,d650 <__ledf2+0x80>
    d6bc:	fe9ff06f          	jal	x0,d6a4 <__ledf2+0xd4>
    d6c0:	00200513          	addi	x10,x0,2
    d6c4:	00008067          	jalr	x0,0(x1)
    d6c8:	f80814e3          	bne	x16,x0,d650 <__ledf2+0x80>
    d6cc:	00008067          	jalr	x0,0(x1)
    d6d0:	fcd580e3          	beq	x11,x13,d690 <__ledf2+0xc0>
    d6d4:	f7dff06f          	jal	x0,d650 <__ledf2+0x80>

0000d6d8 <__muldf3>:
    d6d8:	fd010113          	addi	x2,x2,-48
    d6dc:	0145d793          	srli	x15,x11,0x14
    d6e0:	02812423          	sw	x8,40(x2)
    d6e4:	02912223          	sw	x9,36(x2)
    d6e8:	01412c23          	sw	x20,24(x2)
    d6ec:	01512a23          	sw	x21,20(x2)
    d6f0:	01812423          	sw	x24,8(x2)
    d6f4:	00c59a13          	slli	x20,x11,0xc
    d6f8:	02112623          	sw	x1,44(x2)
    d6fc:	03212023          	sw	x18,32(x2)
    d700:	01312e23          	sw	x19,28(x2)
    d704:	01612823          	sw	x22,16(x2)
    d708:	01712623          	sw	x23,12(x2)
    d70c:	01912223          	sw	x25,4(x2)
    d710:	01a12023          	sw	x26,0(x2)
    d714:	7ff7f793          	andi	x15,x15,2047
    d718:	00050493          	addi	x9,x10,0
    d71c:	00060c13          	addi	x24,x12,0
    d720:	00068413          	addi	x8,x13,0
    d724:	00ca5a13          	srli	x20,x20,0xc
    d728:	01f5da93          	srli	x21,x11,0x1f
    d72c:	42078263          	beq	x15,x0,db50 <__muldf3+0x478>
    d730:	7ff00713          	addi	x14,x0,2047
    d734:	0ae78663          	beq	x15,x14,d7e0 <__muldf3+0x108>
    d738:	003a1693          	slli	x13,x20,0x3
    d73c:	01d55713          	srli	x14,x10,0x1d
    d740:	00d76733          	or	x14,x14,x13
    d744:	008006b7          	lui	x13,0x800
    d748:	c0178b13          	addi	x22,x15,-1023
    d74c:	00351b93          	slli	x23,x10,0x3
    d750:	00d76a33          	or	x20,x14,x13
    d754:	00000c93          	addi	x25,x0,0
    d758:	00000d13          	addi	x26,x0,0
    d75c:	01445713          	srli	x14,x8,0x14
    d760:	7ff77793          	andi	x15,x14,2047
    d764:	00c41713          	slli	x14,x8,0xc
    d768:	00c75493          	srli	x9,x14,0xc
    d76c:	01f45413          	srli	x8,x8,0x1f
    d770:	000c0613          	addi	x12,x24,0
    d774:	0a078063          	beq	x15,x0,d814 <__muldf3+0x13c>
    d778:	7ff00713          	addi	x14,x0,2047
    d77c:	16e78063          	beq	x15,x14,d8dc <__muldf3+0x204>
    d780:	00349713          	slli	x14,x9,0x3
    d784:	01dc5693          	srli	x13,x24,0x1d
    d788:	00e6e6b3          	or	x13,x13,x14
    d78c:	c0178793          	addi	x15,x15,-1023
    d790:	00800737          	lui	x14,0x800
    d794:	01678533          	add	x10,x15,x22
    d798:	003c1613          	slli	x12,x24,0x3
    d79c:	00e6e4b3          	or	x9,x13,x14
    d7a0:	00000893          	addi	x17,x0,0
    d7a4:	00a00793          	addi	x15,x0,10
    d7a8:	00150b13          	addi	x22,x10,1
    d7ac:	0b97ca63          	blt	x15,x25,d860 <__muldf3+0x188>
    d7b0:	008ac5b3          	xor	x11,x21,x8
    d7b4:	00200793          	addi	x15,x0,2
    d7b8:	00058813          	addi	x16,x11,0
    d7bc:	1597c863          	blt	x15,x25,d90c <__muldf3+0x234>
    d7c0:	fffc8c93          	addi	x25,x25,-1
    d7c4:	00100713          	addi	x14,x0,1
    d7c8:	17976263          	bltu	x14,x25,d92c <__muldf3+0x254>
    d7cc:	3cf88863          	beq	x17,x15,db9c <__muldf3+0x4c4>
    d7d0:	00048a13          	addi	x20,x9,0
    d7d4:	00060b93          	addi	x23,x12,0
    d7d8:	00088d13          	addi	x26,x17,0 # 10000 <__subtf3+0x2f8>
    d7dc:	0980006f          	jal	x0,d874 <__muldf3+0x19c>
    d7e0:	00aa6bb3          	or	x23,x20,x10
    d7e4:	3c0b9663          	bne	x23,x0,dbb0 <__muldf3+0x4d8>
    d7e8:	01445713          	srli	x14,x8,0x14
    d7ec:	00078b13          	addi	x22,x15,0
    d7f0:	7ff77793          	andi	x15,x14,2047
    d7f4:	00c41713          	slli	x14,x8,0xc
    d7f8:	00000a13          	addi	x20,x0,0
    d7fc:	00800c93          	addi	x25,x0,8
    d800:	00200d13          	addi	x26,x0,2
    d804:	00c75493          	srli	x9,x14,0xc
    d808:	01f45413          	srli	x8,x8,0x1f
    d80c:	000c0613          	addi	x12,x24,0
    d810:	f60794e3          	bne	x15,x0,d778 <__muldf3+0xa0>
    d814:	0184e7b3          	or	x15,x9,x24
    d818:	3c078063          	beq	x15,x0,dbd8 <__muldf3+0x500>
    d81c:	4a048263          	beq	x9,x0,dcc0 <__muldf3+0x5e8>
    d820:	00048513          	addi	x10,x9,0
    d824:	174040ef          	jal	x1,11998 <__clzsi2>
    d828:	ff550713          	addi	x14,x10,-11
    d82c:	01d00793          	addi	x15,x0,29
    d830:	40e787b3          	sub	x15,x15,x14
    d834:	ff850613          	addi	x12,x10,-8
    d838:	00c49733          	sll	x14,x9,x12
    d83c:	00fc57b3          	srl	x15,x24,x15
    d840:	00e7e4b3          	or	x9,x15,x14
    d844:	00cc1633          	sll	x12,x24,x12
    d848:	40ab0533          	sub	x10,x22,x10
    d84c:	c0d50513          	addi	x10,x10,-1011
    d850:	00a00793          	addi	x15,x0,10
    d854:	00000893          	addi	x17,x0,0
    d858:	00150b13          	addi	x22,x10,1
    d85c:	f597dae3          	bge	x15,x25,d7b0 <__muldf3+0xd8>
    d860:	000a8593          	addi	x11,x21,0
    d864:	00200793          	addi	x15,x0,2
    d868:	32fd0a63          	beq	x26,x15,db9c <__muldf3+0x4c4>
    d86c:	00300793          	addi	x15,x0,3
    d870:	46fd0e63          	beq	x26,x15,dcec <__muldf3+0x614>
    d874:	00100793          	addi	x15,x0,1
    d878:	00058813          	addi	x16,x11,0
    d87c:	42fd1e63          	bne	x26,x15,dcb8 <__muldf3+0x5e0>
    d880:	00000793          	addi	x15,x0,0
    d884:	00000693          	addi	x13,x0,0
    d888:	00000713          	addi	x14,x0,0
    d88c:	02c12083          	lw	x1,44(x2)
    d890:	02812403          	lw	x8,40(x2)
    d894:	01479793          	slli	x15,x15,0x14
    d898:	00d7e7b3          	or	x15,x15,x13
    d89c:	01f81813          	slli	x16,x16,0x1f
    d8a0:	0107e7b3          	or	x15,x15,x16
    d8a4:	02412483          	lw	x9,36(x2)
    d8a8:	02012903          	lw	x18,32(x2)
    d8ac:	01c12983          	lw	x19,28(x2)
    d8b0:	01812a03          	lw	x20,24(x2)
    d8b4:	01412a83          	lw	x21,20(x2)
    d8b8:	01012b03          	lw	x22,16(x2)
    d8bc:	00c12b83          	lw	x23,12(x2)
    d8c0:	00812c03          	lw	x24,8(x2)
    d8c4:	00412c83          	lw	x25,4(x2)
    d8c8:	00012d03          	lw	x26,0(x2)
    d8cc:	00070513          	addi	x10,x14,0 # 800000 <__heap_end+0x400000>
    d8d0:	00078593          	addi	x11,x15,0
    d8d4:	03010113          	addi	x2,x2,48
    d8d8:	00008067          	jalr	x0,0(x1)
    d8dc:	0184e733          	or	x14,x9,x24
    d8e0:	7ffb0513          	addi	x10,x22,2047
    d8e4:	30070663          	beq	x14,x0,dbf0 <__muldf3+0x518>
    d8e8:	00001737          	lui	x14,0x1
    d8ec:	008ac833          	xor	x16,x21,x8
    d8f0:	80070713          	addi	x14,x14,-2048 # 800 <global_stdio_init.part.0+0x28>
    d8f4:	003cec93          	ori	x25,x25,3
    d8f8:	00a00693          	addi	x13,x0,10
    d8fc:	00eb0b33          	add	x22,x22,x14
    d900:	00080593          	addi	x11,x16,0
    d904:	3796cc63          	blt	x13,x25,dc7c <__muldf3+0x5a4>
    d908:	00300893          	addi	x17,x0,3
    d90c:	00100693          	addi	x13,x0,1
    d910:	019696b3          	sll	x13,x13,x25
    d914:	5306f713          	andi	x14,x13,1328
    d918:	f40716e3          	bne	x14,x0,d864 <__muldf3+0x18c>
    d91c:	2406f793          	andi	x15,x13,576
    d920:	3e079063          	bne	x15,x0,dd00 <__muldf3+0x628>
    d924:	0886f693          	andi	x13,x13,136
    d928:	2c069e63          	bne	x13,x0,dc04 <__muldf3+0x52c>
    d92c:	010bd713          	srli	x14,x23,0x10
    d930:	01061313          	slli	x6,x12,0x10
    d934:	010b9b93          	slli	x23,x23,0x10
    d938:	010bdb93          	srli	x23,x23,0x10
    d93c:	01035313          	srli	x6,x6,0x10
    d940:	01065613          	srli	x12,x12,0x10
    d944:	026b86b3          	mul	x13,x23,x6
    d948:	026708b3          	mul	x17,x14,x6
    d94c:	0106d793          	srli	x15,x13,0x10
    d950:	037605b3          	mul	x11,x12,x23
    d954:	011585b3          	add	x11,x11,x17
    d958:	00b787b3          	add	x15,x15,x11
    d95c:	02c70f33          	mul	x30,x14,x12
    d960:	0117f663          	bgeu	x15,x17,d96c <__muldf3+0x294>
    d964:	000105b7          	lui	x11,0x10
    d968:	00bf0f33          	add	x30,x30,x11
    d96c:	0104de13          	srli	x28,x9,0x10
    d970:	01069693          	slli	x13,x13,0x10
    d974:	01049493          	slli	x9,x9,0x10
    d978:	0104d493          	srli	x9,x9,0x10
    d97c:	0106d693          	srli	x13,x13,0x10
    d980:	01079593          	slli	x11,x15,0x10
    d984:	029b82b3          	mul	x5,x23,x9
    d988:	00d585b3          	add	x11,x11,x13
    d98c:	0107d793          	srli	x15,x15,0x10
    d990:	037e0bb3          	mul	x23,x28,x23
    d994:	0102d893          	srli	x17,x5,0x10
    d998:	029706b3          	mul	x13,x14,x9
    d99c:	00db8bb3          	add	x23,x23,x13
    d9a0:	017888b3          	add	x17,x17,x23
    d9a4:	03c70eb3          	mul	x29,x14,x28
    d9a8:	00d8f663          	bgeu	x17,x13,d9b4 <__muldf3+0x2dc>
    d9ac:	00010737          	lui	x14,0x10
    d9b0:	00ee8eb3          	add	x29,x29,x14
    d9b4:	010a1693          	slli	x13,x20,0x10
    d9b8:	01029293          	slli	x5,x5,0x10
    d9bc:	010a5f93          	srli	x31,x20,0x10
    d9c0:	0106d693          	srli	x13,x13,0x10
    d9c4:	0102d293          	srli	x5,x5,0x10
    d9c8:	01089713          	slli	x14,x17,0x10
    d9cc:	02d603b3          	mul	x7,x12,x13
    d9d0:	00570733          	add	x14,x14,x5
    d9d4:	0108d893          	srli	x17,x17,0x10
    d9d8:	01d888b3          	add	x17,x17,x29
    d9dc:	00e787b3          	add	x15,x15,x14
    d9e0:	026682b3          	mul	x5,x13,x6
    d9e4:	026f8333          	mul	x6,x31,x6
    d9e8:	0102de93          	srli	x29,x5,0x10
    d9ec:	006383b3          	add	x7,x7,x6
    d9f0:	007e8eb3          	add	x29,x29,x7
    d9f4:	03f60633          	mul	x12,x12,x31
    d9f8:	006ef663          	bgeu	x29,x6,da04 <__muldf3+0x32c>
    d9fc:	00010337          	lui	x6,0x10
    da00:	00660633          	add	x12,x12,x6
    da04:	01029293          	slli	x5,x5,0x10
    da08:	0102d293          	srli	x5,x5,0x10
    da0c:	010e9313          	slli	x6,x29,0x10
    da10:	00530333          	add	x6,x6,x5
    da14:	010ede93          	srli	x29,x29,0x10
    da18:	00ce8633          	add	x12,x29,x12
    da1c:	029682b3          	mul	x5,x13,x9
    da20:	02de06b3          	mul	x13,x28,x13
    da24:	0102de93          	srli	x29,x5,0x10
    da28:	029f84b3          	mul	x9,x31,x9
    da2c:	009686b3          	add	x13,x13,x9
    da30:	00de8eb3          	add	x29,x29,x13
    da34:	03fe0e33          	mul	x28,x28,x31
    da38:	009ef663          	bgeu	x29,x9,da44 <__muldf3+0x36c>
    da3c:	000106b7          	lui	x13,0x10
    da40:	00de0e33          	add	x28,x28,x13
    da44:	01029293          	slli	x5,x5,0x10
    da48:	010e9693          	slli	x13,x29,0x10
    da4c:	0102d293          	srli	x5,x5,0x10
    da50:	01e787b3          	add	x15,x15,x30
    da54:	005686b3          	add	x13,x13,x5
    da58:	011688b3          	add	x17,x13,x17
    da5c:	00e7b733          	sltu	x14,x15,x14
    da60:	00678333          	add	x6,x15,x6
    da64:	00e88733          	add	x14,x17,x14
    da68:	00c70633          	add	x12,x14,x12
    da6c:	00f337b3          	sltu	x15,x6,x15
    da70:	00f607b3          	add	x15,x12,x15
    da74:	00d8b6b3          	sltu	x13,x17,x13
    da78:	011738b3          	sltu	x17,x14,x17
    da7c:	0116e6b3          	or	x13,x13,x17
    da80:	00e63733          	sltu	x14,x12,x14
    da84:	010ede93          	srli	x29,x29,0x10
    da88:	00c7b633          	sltu	x12,x15,x12
    da8c:	01d686b3          	add	x13,x13,x29
    da90:	00931b93          	slli	x23,x6,0x9
    da94:	00c76733          	or	x14,x14,x12
    da98:	00d70733          	add	x14,x14,x13
    da9c:	00bbebb3          	or	x23,x23,x11
    daa0:	01c70733          	add	x14,x14,x28
    daa4:	01703bb3          	sltu	x23,x0,x23
    daa8:	01735313          	srli	x6,x6,0x17
    daac:	00971713          	slli	x14,x14,0x9
    dab0:	0177d693          	srli	x13,x15,0x17
    dab4:	006bebb3          	or	x23,x23,x6
    dab8:	00979793          	slli	x15,x15,0x9
    dabc:	00fbebb3          	or	x23,x23,x15
    dac0:	00771793          	slli	x15,x14,0x7
    dac4:	00d76a33          	or	x20,x14,x13
    dac8:	0207d063          	bge	x15,x0,dae8 <__muldf3+0x410>
    dacc:	001bd793          	srli	x15,x23,0x1
    dad0:	001bfb93          	andi	x23,x23,1
    dad4:	0177e7b3          	or	x15,x15,x23
    dad8:	01fa1b93          	slli	x23,x20,0x1f
    dadc:	000b0513          	addi	x10,x22,0
    dae0:	0177ebb3          	or	x23,x15,x23
    dae4:	001a5a13          	srli	x20,x20,0x1
    dae8:	3ff50793          	addi	x15,x10,1023
    daec:	12f05663          	bge	x0,x15,dc18 <__muldf3+0x540>
    daf0:	007bf713          	andi	x14,x23,7
    daf4:	02070063          	beq	x14,x0,db14 <__muldf3+0x43c>
    daf8:	00fbf713          	andi	x14,x23,15
    dafc:	00400693          	addi	x13,x0,4
    db00:	00d70a63          	beq	x14,x13,db14 <__muldf3+0x43c>
    db04:	00db8733          	add	x14,x23,x13
    db08:	01773bb3          	sltu	x23,x14,x23
    db0c:	017a0a33          	add	x20,x20,x23
    db10:	00070b93          	addi	x23,x14,0 # 10000 <__subtf3+0x2f8>
    db14:	007a1713          	slli	x14,x20,0x7
    db18:	00075a63          	bge	x14,x0,db2c <__muldf3+0x454>
    db1c:	ff000737          	lui	x14,0xff000
    db20:	fff70713          	addi	x14,x14,-1 # feffffff <__heap_end+0xfebfffff>
    db24:	40050793          	addi	x15,x10,1024
    db28:	00ea7a33          	and	x20,x20,x14
    db2c:	7fe00713          	addi	x14,x0,2046
    db30:	1ef74063          	blt	x14,x15,dd10 <__muldf3+0x638>
    db34:	003bdb93          	srli	x23,x23,0x3
    db38:	01da1713          	slli	x14,x20,0x1d
    db3c:	009a1693          	slli	x13,x20,0x9
    db40:	7ff7f793          	andi	x15,x15,2047
    db44:	01776733          	or	x14,x14,x23
    db48:	00c6d693          	srli	x13,x13,0xc
    db4c:	d41ff06f          	jal	x0,d88c <__muldf3+0x1b4>
    db50:	00aa6bb3          	or	x23,x20,x10
    db54:	060b8863          	beq	x23,x0,dbc4 <__muldf3+0x4ec>
    db58:	120a0e63          	beq	x20,x0,dc94 <__muldf3+0x5bc>
    db5c:	000a0513          	addi	x10,x20,0
    db60:	639030ef          	jal	x1,11998 <__clzsi2>
    db64:	00050713          	addi	x14,x10,0
    db68:	ff550693          	addi	x13,x10,-11
    db6c:	01d00793          	addi	x15,x0,29
    db70:	40d787b3          	sub	x15,x15,x13
    db74:	ff870b93          	addi	x23,x14,-8
    db78:	017a16b3          	sll	x13,x20,x23
    db7c:	00f4d7b3          	srl	x15,x9,x15
    db80:	00d7ea33          	or	x20,x15,x13
    db84:	01749bb3          	sll	x23,x9,x23
    db88:	c0d00793          	addi	x15,x0,-1011
    db8c:	40e78b33          	sub	x22,x15,x14
    db90:	00000c93          	addi	x25,x0,0
    db94:	00000d13          	addi	x26,x0,0
    db98:	bc5ff06f          	jal	x0,d75c <__muldf3+0x84>
    db9c:	00058813          	addi	x16,x11,0 # 10000 <__subtf3+0x2f8>
    dba0:	7ff00793          	addi	x15,x0,2047
    dba4:	00000693          	addi	x13,x0,0
    dba8:	00000713          	addi	x14,x0,0
    dbac:	ce1ff06f          	jal	x0,d88c <__muldf3+0x1b4>
    dbb0:	00050b93          	addi	x23,x10,0
    dbb4:	00078b13          	addi	x22,x15,0
    dbb8:	00c00c93          	addi	x25,x0,12
    dbbc:	00300d13          	addi	x26,x0,3
    dbc0:	b9dff06f          	jal	x0,d75c <__muldf3+0x84>
    dbc4:	00000a13          	addi	x20,x0,0
    dbc8:	00400c93          	addi	x25,x0,4
    dbcc:	00000b13          	addi	x22,x0,0
    dbd0:	00100d13          	addi	x26,x0,1
    dbd4:	b89ff06f          	jal	x0,d75c <__muldf3+0x84>
    dbd8:	001cec93          	ori	x25,x25,1
    dbdc:	000b0513          	addi	x10,x22,0
    dbe0:	00000493          	addi	x9,x0,0
    dbe4:	00000613          	addi	x12,x0,0
    dbe8:	00100893          	addi	x17,x0,1
    dbec:	bb9ff06f          	jal	x0,d7a4 <__muldf3+0xcc>
    dbf0:	002cec93          	ori	x25,x25,2
    dbf4:	00000493          	addi	x9,x0,0
    dbf8:	00000613          	addi	x12,x0,0
    dbfc:	00200893          	addi	x17,x0,2
    dc00:	ba5ff06f          	jal	x0,d7a4 <__muldf3+0xcc>
    dc04:	00048a13          	addi	x20,x9,0
    dc08:	00060b93          	addi	x23,x12,0
    dc0c:	00088d13          	addi	x26,x17,0
    dc10:	00040593          	addi	x11,x8,0
    dc14:	c51ff06f          	jal	x0,d864 <__muldf3+0x18c>
    dc18:	00100693          	addi	x13,x0,1
    dc1c:	10079263          	bne	x15,x0,dd20 <__muldf3+0x648>
    dc20:	41e50513          	addi	x10,x10,1054
    dc24:	00ab97b3          	sll	x15,x23,x10
    dc28:	00f037b3          	sltu	x15,x0,x15
    dc2c:	00aa1533          	sll	x10,x20,x10
    dc30:	00a7e7b3          	or	x15,x15,x10
    dc34:	00dbd733          	srl	x14,x23,x13
    dc38:	00f76733          	or	x14,x14,x15
    dc3c:	00777613          	andi	x12,x14,7
    dc40:	00da57b3          	srl	x15,x20,x13
    dc44:	02060063          	beq	x12,x0,dc64 <__muldf3+0x58c>
    dc48:	00f77693          	andi	x13,x14,15
    dc4c:	00400613          	addi	x12,x0,4
    dc50:	00c68a63          	beq	x13,x12,dc64 <__muldf3+0x58c>
    dc54:	00c706b3          	add	x13,x14,x12
    dc58:	00e6b733          	sltu	x14,x13,x14
    dc5c:	00e787b3          	add	x15,x15,x14
    dc60:	00068713          	addi	x14,x13,0 # 10000 <__subtf3+0x2f8>
    dc64:	00879693          	slli	x13,x15,0x8
    dc68:	1206d063          	bge	x13,x0,dd88 <__muldf3+0x6b0>
    dc6c:	00100793          	addi	x15,x0,1
    dc70:	00000693          	addi	x13,x0,0
    dc74:	00000713          	addi	x14,x0,0
    dc78:	c15ff06f          	jal	x0,d88c <__muldf3+0x1b4>
    dc7c:	00f00713          	addi	x14,x0,15
    dc80:	12ec9263          	bne	x25,x14,dda4 <__muldf3+0x6cc>
    dc84:	00000813          	addi	x16,x0,0
    dc88:	000806b7          	lui	x13,0x80
    dc8c:	00000713          	addi	x14,x0,0
    dc90:	bfdff06f          	jal	x0,d88c <__muldf3+0x1b4>
    dc94:	505030ef          	jal	x1,11998 <__clzsi2>
    dc98:	01550693          	addi	x13,x10,21
    dc9c:	01c00793          	addi	x15,x0,28
    dca0:	02050713          	addi	x14,x10,32
    dca4:	ecd7d4e3          	bge	x15,x13,db6c <__muldf3+0x494>
    dca8:	ff850513          	addi	x10,x10,-8
    dcac:	00a49a33          	sll	x20,x9,x10
    dcb0:	00000b93          	addi	x23,x0,0
    dcb4:	ed5ff06f          	jal	x0,db88 <__muldf3+0x4b0>
    dcb8:	000b0513          	addi	x10,x22,0
    dcbc:	e2dff06f          	jal	x0,dae8 <__muldf3+0x410>
    dcc0:	000c0513          	addi	x10,x24,0
    dcc4:	4d5030ef          	jal	x1,11998 <__clzsi2>
    dcc8:	01550713          	addi	x14,x10,21
    dccc:	01c00693          	addi	x13,x0,28
    dcd0:	00050793          	addi	x15,x10,0
    dcd4:	02050513          	addi	x10,x10,32
    dcd8:	b4e6dae3          	bge	x13,x14,d82c <__muldf3+0x154>
    dcdc:	ff878793          	addi	x15,x15,-8
    dce0:	00fc14b3          	sll	x9,x24,x15
    dce4:	00000613          	addi	x12,x0,0
    dce8:	b61ff06f          	jal	x0,d848 <__muldf3+0x170>
    dcec:	00000813          	addi	x16,x0,0
    dcf0:	7ff00793          	addi	x15,x0,2047
    dcf4:	000806b7          	lui	x13,0x80
    dcf8:	00000713          	addi	x14,x0,0
    dcfc:	b91ff06f          	jal	x0,d88c <__muldf3+0x1b4>
    dd00:	00000813          	addi	x16,x0,0
    dd04:	7ff00793          	addi	x15,x0,2047
    dd08:	000806b7          	lui	x13,0x80
    dd0c:	b81ff06f          	jal	x0,d88c <__muldf3+0x1b4>
    dd10:	7ff00793          	addi	x15,x0,2047
    dd14:	00000693          	addi	x13,x0,0
    dd18:	00000713          	addi	x14,x0,0
    dd1c:	b71ff06f          	jal	x0,d88c <__muldf3+0x1b4>
    dd20:	40f686b3          	sub	x13,x13,x15
    dd24:	03800713          	addi	x14,x0,56
    dd28:	b4d74ce3          	blt	x14,x13,d880 <__muldf3+0x1a8>
    dd2c:	01f00713          	addi	x14,x0,31
    dd30:	eed758e3          	bge	x14,x13,dc20 <__muldf3+0x548>
    dd34:	fe100713          	addi	x14,x0,-31
    dd38:	40f707b3          	sub	x15,x14,x15
    dd3c:	02000713          	addi	x14,x0,32
    dd40:	00fa57b3          	srl	x15,x20,x15
    dd44:	00e68863          	beq	x13,x14,dd54 <__muldf3+0x67c>
    dd48:	43e50513          	addi	x10,x10,1086
    dd4c:	00aa1533          	sll	x10,x20,x10
    dd50:	00abebb3          	or	x23,x23,x10
    dd54:	01703733          	sltu	x14,x0,x23
    dd58:	00f76733          	or	x14,x14,x15
    dd5c:	00777793          	andi	x15,x14,7
    dd60:	00000693          	addi	x13,x0,0
    dd64:	02078863          	beq	x15,x0,dd94 <__muldf3+0x6bc>
    dd68:	00f77693          	andi	x13,x14,15
    dd6c:	00400613          	addi	x12,x0,4
    dd70:	00000793          	addi	x15,x0,0
    dd74:	00c68a63          	beq	x13,x12,dd88 <__muldf3+0x6b0>
    dd78:	00c706b3          	add	x13,x14,x12
    dd7c:	00e6b733          	sltu	x14,x13,x14
    dd80:	00e037b3          	sltu	x15,x0,x14
    dd84:	00068713          	addi	x14,x13,0 # 80000 <__heap_start+0x6d130>
    dd88:	00979693          	slli	x13,x15,0x9
    dd8c:	00c6d693          	srli	x13,x13,0xc
    dd90:	01d79793          	slli	x15,x15,0x1d
    dd94:	00375713          	srli	x14,x14,0x3
    dd98:	00f76733          	or	x14,x14,x15
    dd9c:	00000793          	addi	x15,x0,0
    dda0:	aedff06f          	jal	x0,d88c <__muldf3+0x1b4>
    dda4:	00048a13          	addi	x20,x9,0
    dda8:	000c0b93          	addi	x23,x24,0
    ddac:	00300d13          	addi	x26,x0,3
    ddb0:	00040593          	addi	x11,x8,0
    ddb4:	ab1ff06f          	jal	x0,d864 <__muldf3+0x18c>

0000ddb8 <__subdf3>:
    ddb8:	001007b7          	lui	x15,0x100
    ddbc:	fff78793          	addi	x15,x15,-1 # fffff <__heap_start+0xed12f>
    ddc0:	fe010113          	addi	x2,x2,-32
    ddc4:	00b7f333          	and	x6,x15,x11
    ddc8:	0146d893          	srli	x17,x13,0x14
    ddcc:	00d7f7b3          	and	x15,x15,x13
    ddd0:	00060e93          	addi	x29,x12,0
    ddd4:	00331313          	slli	x6,x6,0x3
    ddd8:	00379813          	slli	x16,x15,0x3
    dddc:	01312623          	sw	x19,12(x2)
    dde0:	01512223          	sw	x21,4(x2)
    dde4:	01f5d993          	srli	x19,x11,0x1f
    dde8:	0145da93          	srli	x21,x11,0x14
    ddec:	01d55713          	srli	x14,x10,0x1d
    ddf0:	01d65613          	srli	x12,x12,0x1d
    ddf4:	7ff00e13          	addi	x28,x0,2047
    ddf8:	00112e23          	sw	x1,28(x2)
    ddfc:	00812c23          	sw	x8,24(x2)
    de00:	00912a23          	sw	x9,20(x2)
    de04:	01212823          	sw	x18,16(x2)
    de08:	01412423          	sw	x20,8(x2)
    de0c:	7ff8f893          	andi	x17,x17,2047
    de10:	00676733          	or	x14,x14,x6
    de14:	01f6d693          	srli	x13,x13,0x1f
    de18:	01066333          	or	x6,x12,x16
    de1c:	01cafab3          	and	x21,x21,x28
    de20:	00098813          	addi	x16,x19,0
    de24:	00351f13          	slli	x30,x10,0x3
    de28:	003e9593          	slli	x11,x29,0x3
    de2c:	23c88063          	beq	x17,x28,e04c <__subdf3+0x294>
    de30:	0016c693          	xori	x13,x13,1
    de34:	411a87b3          	sub	x15,x21,x17
    de38:	16d98663          	beq	x19,x13,dfa4 <__subdf3+0x1ec>
    de3c:	62f05463          	bge	x0,x15,e464 <__subdf3+0x6ac>
    de40:	24088e63          	beq	x17,x0,e09c <__subdf3+0x2e4>
    de44:	3dca8863          	beq	x21,x28,e214 <__subdf3+0x45c>
    de48:	03800693          	addi	x13,x0,56
    de4c:	00100513          	addi	x10,x0,1
    de50:	02f6ce63          	blt	x13,x15,de8c <__subdf3+0xd4>
    de54:	008006b7          	lui	x13,0x800
    de58:	00d36333          	or	x6,x6,x13
    de5c:	01f00693          	addi	x13,x0,31
    de60:	4ef6ca63          	blt	x13,x15,e354 <__subdf3+0x59c>
    de64:	02000693          	addi	x13,x0,32
    de68:	40f686b3          	sub	x13,x13,x15
    de6c:	00d31533          	sll	x10,x6,x13
    de70:	00d596b3          	sll	x13,x11,x13
    de74:	00f5d5b3          	srl	x11,x11,x15
    de78:	00d036b3          	sltu	x13,x0,x13
    de7c:	00b56533          	or	x10,x10,x11
    de80:	00f357b3          	srl	x15,x6,x15
    de84:	00d56533          	or	x10,x10,x13
    de88:	40f70733          	sub	x14,x14,x15
    de8c:	40af0533          	sub	x10,x30,x10
    de90:	00af3633          	sltu	x12,x30,x10
    de94:	40c70933          	sub	x18,x14,x12
    de98:	00050a13          	addi	x20,x10,0
    de9c:	00891713          	slli	x14,x18,0x8
    dea0:	008007b7          	lui	x15,0x800
    dea4:	34075263          	bge	x14,x0,e1e8 <__subdf3+0x430>
    dea8:	fff78793          	addi	x15,x15,-1 # 7fffff <__heap_end+0x3fffff>
    deac:	00f97933          	and	x18,x18,x15
    deb0:	2e090263          	beq	x18,x0,e194 <__subdf3+0x3dc>
    deb4:	00090513          	addi	x10,x18,0
    deb8:	2e1030ef          	jal	x1,11998 <__clzsi2>
    debc:	ff850793          	addi	x15,x10,-8
    dec0:	02000693          	addi	x13,x0,32
    dec4:	40f68733          	sub	x14,x13,x15
    dec8:	00ea5733          	srl	x14,x20,x14
    decc:	00f91933          	sll	x18,x18,x15
    ded0:	01276733          	or	x14,x14,x18
    ded4:	00fa1a33          	sll	x20,x20,x15
    ded8:	3f57c863          	blt	x15,x21,e2c8 <__subdf3+0x510>
    dedc:	415787b3          	sub	x15,x15,x21
    dee0:	00178793          	addi	x15,x15,1
    dee4:	40f686b3          	sub	x13,x13,x15
    dee8:	00da1633          	sll	x12,x20,x13
    deec:	00c03633          	sltu	x12,x0,x12
    def0:	00fa5933          	srl	x18,x20,x15
    def4:	00c96633          	or	x12,x18,x12
    def8:	00d716b3          	sll	x13,x14,x13
    defc:	00c6ea33          	or	x20,x13,x12
    df00:	00f75933          	srl	x18,x14,x15
    df04:	00000a93          	addi	x21,x0,0
    df08:	007a7793          	andi	x15,x20,7
    df0c:	02078063          	beq	x15,x0,df2c <__subdf3+0x174>
    df10:	00fa7793          	andi	x15,x20,15
    df14:	00400713          	addi	x14,x0,4
    df18:	00e78a63          	beq	x15,x14,df2c <__subdf3+0x174>
    df1c:	00ea07b3          	add	x15,x20,x14
    df20:	0147b533          	sltu	x10,x15,x20
    df24:	00a90933          	add	x18,x18,x10
    df28:	00078a13          	addi	x20,x15,0
    df2c:	00891793          	slli	x15,x18,0x8
    df30:	6c07d463          	bge	x15,x0,e5f8 <__subdf3+0x840>
    df34:	001a8793          	addi	x15,x21,1
    df38:	7ff00713          	addi	x14,x0,2047
    df3c:	2ce78263          	beq	x15,x14,e200 <__subdf3+0x448>
    df40:	ff800737          	lui	x14,0xff800
    df44:	fff70713          	addi	x14,x14,-1 # ff7fffff <__heap_end+0xff3fffff>
    df48:	7ff7f793          	andi	x15,x15,2047
    df4c:	00e97733          	and	x14,x18,x14
    df50:	01d71613          	slli	x12,x14,0x1d
    df54:	003a5513          	srli	x10,x20,0x3
    df58:	00971713          	slli	x14,x14,0x9
    df5c:	0019f813          	andi	x16,x19,1
    df60:	00a66633          	or	x12,x12,x10
    df64:	00c75713          	srli	x14,x14,0xc
    df68:	01c12083          	lw	x1,28(x2)
    df6c:	01812403          	lw	x8,24(x2)
    df70:	01479793          	slli	x15,x15,0x14
    df74:	00e7e7b3          	or	x15,x15,x14
    df78:	01f81813          	slli	x16,x16,0x1f
    df7c:	0107e7b3          	or	x15,x15,x16
    df80:	01412483          	lw	x9,20(x2)
    df84:	01012903          	lw	x18,16(x2)
    df88:	00c12983          	lw	x19,12(x2)
    df8c:	00812a03          	lw	x20,8(x2)
    df90:	00412a83          	lw	x21,4(x2)
    df94:	00060513          	addi	x10,x12,0
    df98:	00078593          	addi	x11,x15,0
    df9c:	02010113          	addi	x2,x2,32
    dfa0:	00008067          	jalr	x0,0(x1)
    dfa4:	52f05c63          	bge	x0,x15,e4dc <__subdf3+0x724>
    dfa8:	1c089863          	bne	x17,x0,e178 <__subdf3+0x3c0>
    dfac:	00b366b3          	or	x13,x6,x11
    dfb0:	26068e63          	beq	x13,x0,e22c <__subdf3+0x474>
    dfb4:	fff78693          	addi	x13,x15,-1
    dfb8:	48068463          	beq	x13,x0,e440 <__subdf3+0x688>
    dfbc:	25c78c63          	beq	x15,x28,e214 <__subdf3+0x45c>
    dfc0:	03800793          	addi	x15,x0,56
    dfc4:	00100913          	addi	x18,x0,1
    dfc8:	02d7cc63          	blt	x15,x13,e000 <__subdf3+0x248>
    dfcc:	00068793          	addi	x15,x13,0 # 800000 <__heap_end+0x400000>
    dfd0:	01f00693          	addi	x13,x0,31
    dfd4:	4cf6c863          	blt	x13,x15,e4a4 <__subdf3+0x6ec>
    dfd8:	02000693          	addi	x13,x0,32
    dfdc:	40f686b3          	sub	x13,x13,x15
    dfe0:	00d31933          	sll	x18,x6,x13
    dfe4:	00d596b3          	sll	x13,x11,x13
    dfe8:	00f5d5b3          	srl	x11,x11,x15
    dfec:	00d036b3          	sltu	x13,x0,x13
    dff0:	00b96933          	or	x18,x18,x11
    dff4:	00f357b3          	srl	x15,x6,x15
    dff8:	00d96933          	or	x18,x18,x13
    dffc:	00f70733          	add	x14,x14,x15
    e000:	01e90633          	add	x12,x18,x30
    e004:	01263933          	sltu	x18,x12,x18
    e008:	00e90933          	add	x18,x18,x14
    e00c:	00060a13          	addi	x20,x12,0
    e010:	00891793          	slli	x15,x18,0x8
    e014:	1c07da63          	bge	x15,x0,e1e8 <__subdf3+0x430>
    e018:	001a8a93          	addi	x21,x21,1
    e01c:	7ff00793          	addi	x15,x0,2047
    e020:	36fa8a63          	beq	x21,x15,e394 <__subdf3+0x5dc>
    e024:	ff8007b7          	lui	x15,0xff800
    e028:	fff78793          	addi	x15,x15,-1 # ff7fffff <__heap_end+0xff3fffff>
    e02c:	00f977b3          	and	x15,x18,x15
    e030:	001a5713          	srli	x14,x20,0x1
    e034:	001a7513          	andi	x10,x20,1
    e038:	01f79693          	slli	x13,x15,0x1f
    e03c:	00a76733          	or	x14,x14,x10
    e040:	0017d913          	srli	x18,x15,0x1
    e044:	00e6ea33          	or	x20,x13,x14
    e048:	ec1ff06f          	jal	x0,df08 <__subdf3+0x150>
    e04c:	00b367b3          	or	x15,x6,x11
    e050:	801a8613          	addi	x12,x21,-2047
    e054:	06078863          	beq	x15,x0,e0c4 <__subdf3+0x30c>
    e058:	06d98a63          	beq	x19,x13,e0cc <__subdf3+0x314>
    e05c:	0e060663          	beq	x12,x0,e148 <__subdf3+0x390>
    e060:	260a8e63          	beq	x21,x0,e2dc <__subdf3+0x524>
    e064:	003e9513          	slli	x10,x29,0x3
    e068:	00355513          	srli	x10,x10,0x3
    e06c:	00068993          	addi	x19,x13,0
    e070:	00030713          	addi	x14,x6,0 # 10000 <__subtf3+0x2f8>
    e074:	01d71613          	slli	x12,x14,0x1d
    e078:	00a66633          	or	x12,x12,x10
    e07c:	00375713          	srli	x14,x14,0x3
    e080:	00c76733          	or	x14,x14,x12
    e084:	30070863          	beq	x14,x0,e394 <__subdf3+0x5dc>
    e088:	00000813          	addi	x16,x0,0
    e08c:	7ff00793          	addi	x15,x0,2047
    e090:	00080737          	lui	x14,0x80
    e094:	00000613          	addi	x12,x0,0
    e098:	ed1ff06f          	jal	x0,df68 <__subdf3+0x1b0>
    e09c:	00b366b3          	or	x13,x6,x11
    e0a0:	18068663          	beq	x13,x0,e22c <__subdf3+0x474>
    e0a4:	fff78693          	addi	x13,x15,-1
    e0a8:	3e068063          	beq	x13,x0,e488 <__subdf3+0x6d0>
    e0ac:	17c78463          	beq	x15,x28,e214 <__subdf3+0x45c>
    e0b0:	03800793          	addi	x15,x0,56
    e0b4:	00100513          	addi	x10,x0,1
    e0b8:	dcd7cae3          	blt	x15,x13,de8c <__subdf3+0xd4>
    e0bc:	00068793          	addi	x15,x13,0
    e0c0:	d9dff06f          	jal	x0,de5c <__subdf3+0xa4>
    e0c4:	0016c693          	xori	x13,x13,1
    e0c8:	f8d99ae3          	bne	x19,x13,e05c <__subdf3+0x2a4>
    e0cc:	18060863          	beq	x12,x0,e25c <__subdf3+0x4a4>
    e0d0:	2c0a9c63          	bne	x21,x0,e3a8 <__subdf3+0x5f0>
    e0d4:	00088793          	addi	x15,x17,0
    e0d8:	01e766b3          	or	x13,x14,x30
    e0dc:	4e068e63          	beq	x13,x0,e5d8 <__subdf3+0x820>
    e0e0:	fff78693          	addi	x13,x15,-1
    e0e4:	34068e63          	beq	x13,x0,e440 <__subdf3+0x688>
    e0e8:	7ff00613          	addi	x12,x0,2047
    e0ec:	2ac78e63          	beq	x15,x12,e3a8 <__subdf3+0x5f0>
    e0f0:	03800793          	addi	x15,x0,56
    e0f4:	00100913          	addi	x18,x0,1
    e0f8:	02d7cc63          	blt	x15,x13,e130 <__subdf3+0x378>
    e0fc:	00068793          	addi	x15,x13,0
    e100:	01f00693          	addi	x13,x0,31
    e104:	54f6c263          	blt	x13,x15,e648 <__subdf3+0x890>
    e108:	02000693          	addi	x13,x0,32
    e10c:	40f686b3          	sub	x13,x13,x15
    e110:	00d71933          	sll	x18,x14,x13
    e114:	00ff5633          	srl	x12,x30,x15
    e118:	00df16b3          	sll	x13,x30,x13
    e11c:	00d036b3          	sltu	x13,x0,x13
    e120:	00c96933          	or	x18,x18,x12
    e124:	00f757b3          	srl	x15,x14,x15
    e128:	00d96933          	or	x18,x18,x13
    e12c:	00f30333          	add	x6,x6,x15
    e130:	00b905b3          	add	x11,x18,x11
    e134:	0125b933          	sltu	x18,x11,x18
    e138:	00690933          	add	x18,x18,x6
    e13c:	00058a13          	addi	x20,x11,0
    e140:	00088a93          	addi	x21,x17,0
    e144:	ecdff06f          	jal	x0,e010 <__subdf3+0x258>
    e148:	001a8793          	addi	x15,x21,1
    e14c:	7fe7f793          	andi	x15,x15,2046
    e150:	14079263          	bne	x15,x0,e294 <__subdf3+0x4dc>
    e154:	00b36633          	or	x12,x6,x11
    e158:	01e767b3          	or	x15,x14,x30
    e15c:	2a0a9e63          	bne	x21,x0,e418 <__subdf3+0x660>
    e160:	40078263          	beq	x15,x0,e564 <__subdf3+0x7ac>
    e164:	42061463          	bne	x12,x0,e58c <__subdf3+0x7d4>
    e168:	00351913          	slli	x18,x10,0x3
    e16c:	00395913          	srli	x18,x18,0x3
    e170:	00000793          	addi	x15,x0,0
    e174:	1100006f          	jal	x0,e284 <__subdf3+0x4cc>
    e178:	09ca8e63          	beq	x21,x28,e214 <__subdf3+0x45c>
    e17c:	03800693          	addi	x13,x0,56
    e180:	00100913          	addi	x18,x0,1
    e184:	e6f6cee3          	blt	x13,x15,e000 <__subdf3+0x248>
    e188:	008006b7          	lui	x13,0x800
    e18c:	00d36333          	or	x6,x6,x13
    e190:	e41ff06f          	jal	x0,dfd0 <__subdf3+0x218>
    e194:	000a0513          	addi	x10,x20,0
    e198:	001030ef          	jal	x1,11998 <__clzsi2>
    e19c:	01850793          	addi	x15,x10,24
    e1a0:	01f00693          	addi	x13,x0,31
    e1a4:	d0f6dee3          	bge	x13,x15,dec0 <__subdf3+0x108>
    e1a8:	ff850713          	addi	x14,x10,-8
    e1ac:	00ea1733          	sll	x14,x20,x14
    e1b0:	1d57c863          	blt	x15,x21,e380 <__subdf3+0x5c8>
    e1b4:	41578ab3          	sub	x21,x15,x21
    e1b8:	001a8793          	addi	x15,x21,1
    e1bc:	4af6dc63          	bge	x13,x15,e674 <__subdf3+0x8bc>
    e1c0:	fe1a8a93          	addi	x21,x21,-31
    e1c4:	02000693          	addi	x13,x0,32
    e1c8:	01575a33          	srl	x20,x14,x21
    e1cc:	00d78c63          	beq	x15,x13,e1e4 <__subdf3+0x42c>
    e1d0:	04000693          	addi	x13,x0,64
    e1d4:	40f687b3          	sub	x15,x13,x15
    e1d8:	00f717b3          	sll	x15,x14,x15
    e1dc:	00f037b3          	sltu	x15,x0,x15
    e1e0:	00fa6a33          	or	x20,x20,x15
    e1e4:	00000a93          	addi	x21,x0,0
    e1e8:	007a7793          	andi	x15,x20,7
    e1ec:	d20792e3          	bne	x15,x0,df10 <__subdf3+0x158>
    e1f0:	000a8793          	addi	x15,x21,0
    e1f4:	003a5513          	srli	x10,x20,0x3
    e1f8:	00090713          	addi	x14,x18,0
    e1fc:	0380006f          	jal	x0,e234 <__subdf3+0x47c>
    e200:	0019f813          	andi	x16,x19,1
    e204:	00000713          	addi	x14,x0,0
    e208:	00000613          	addi	x12,x0,0
    e20c:	d5dff06f          	jal	x0,df68 <__subdf3+0x1b0>
    e210:	e6061ce3          	bne	x12,x0,e088 <__subdf3+0x2d0>
    e214:	00351513          	slli	x10,x10,0x3
    e218:	01d71613          	slli	x12,x14,0x1d
    e21c:	00355513          	srli	x10,x10,0x3
    e220:	00a66633          	or	x12,x12,x10
    e224:	00375713          	srli	x14,x14,0x3
    e228:	e59ff06f          	jal	x0,e080 <__subdf3+0x2c8>
    e22c:	00351513          	slli	x10,x10,0x3
    e230:	00355513          	srli	x10,x10,0x3
    e234:	01d71613          	slli	x12,x14,0x1d
    e238:	7ff00693          	addi	x13,x0,2047
    e23c:	00a66633          	or	x12,x12,x10
    e240:	00375713          	srli	x14,x14,0x3
    e244:	e2d78ee3          	beq	x15,x13,e080 <__subdf3+0x2c8>
    e248:	00c71713          	slli	x14,x14,0xc
    e24c:	00c75713          	srli	x14,x14,0xc
    e250:	7ff7f793          	andi	x15,x15,2047
    e254:	0019f813          	andi	x16,x19,1
    e258:	d11ff06f          	jal	x0,df68 <__subdf3+0x1b0>
    e25c:	001a8793          	addi	x15,x21,1
    e260:	7fe7f693          	andi	x13,x15,2046
    e264:	14069a63          	bne	x13,x0,e3b8 <__subdf3+0x600>
    e268:	01e767b3          	or	x15,x14,x30
    e26c:	2c0a9063          	bne	x21,x0,e52c <__subdf3+0x774>
    e270:	36078c63          	beq	x15,x0,e5e8 <__subdf3+0x830>
    e274:	00b367b3          	or	x15,x6,x11
    e278:	38079863          	bne	x15,x0,e608 <__subdf3+0x850>
    e27c:	00351913          	slli	x18,x10,0x3
    e280:	00395913          	srli	x18,x18,0x3
    e284:	01d71613          	slli	x12,x14,0x1d
    e288:	01266633          	or	x12,x12,x18
    e28c:	00375713          	srli	x14,x14,0x3
    e290:	fb9ff06f          	jal	x0,e248 <__subdf3+0x490>
    e294:	40bf0633          	sub	x12,x30,x11
    e298:	00cf37b3          	sltu	x15,x30,x12
    e29c:	40670933          	sub	x18,x14,x6
    e2a0:	40f90933          	sub	x18,x18,x15
    e2a4:	00891793          	slli	x15,x18,0x8
    e2a8:	00060a13          	addi	x20,x12,0
    e2ac:	1207ce63          	blt	x15,x0,e3e8 <__subdf3+0x630>
    e2b0:	01266633          	or	x12,x12,x18
    e2b4:	be061ee3          	bne	x12,x0,deb0 <__subdf3+0xf8>
    e2b8:	00000813          	addi	x16,x0,0
    e2bc:	00000793          	addi	x15,x0,0
    e2c0:	00000713          	addi	x14,x0,0
    e2c4:	ca5ff06f          	jal	x0,df68 <__subdf3+0x1b0>
    e2c8:	ff800937          	lui	x18,0xff800
    e2cc:	fff90913          	addi	x18,x18,-1 # ff7fffff <__heap_end+0xff3fffff>
    e2d0:	40fa8ab3          	sub	x21,x21,x15
    e2d4:	01277933          	and	x18,x14,x18
    e2d8:	c31ff06f          	jal	x0,df08 <__subdf3+0x150>
    e2dc:	00088793          	addi	x15,x17,0
    e2e0:	01e76633          	or	x12,x14,x30
    e2e4:	12060063          	beq	x12,x0,e404 <__subdf3+0x64c>
    e2e8:	fff78613          	addi	x12,x15,-1
    e2ec:	24060863          	beq	x12,x0,e53c <__subdf3+0x784>
    e2f0:	7ff00513          	addi	x10,x0,2047
    e2f4:	d6a788e3          	beq	x15,x10,e064 <__subdf3+0x2ac>
    e2f8:	03800793          	addi	x15,x0,56
    e2fc:	00068993          	addi	x19,x13,0 # 800000 <__heap_end+0x400000>
    e300:	00100513          	addi	x10,x0,1
    e304:	02c7cc63          	blt	x15,x12,e33c <__subdf3+0x584>
    e308:	00060793          	addi	x15,x12,0
    e30c:	01f00693          	addi	x13,x0,31
    e310:	1ef6c863          	blt	x13,x15,e500 <__subdf3+0x748>
    e314:	02000693          	addi	x13,x0,32
    e318:	40f686b3          	sub	x13,x13,x15
    e31c:	00d71533          	sll	x10,x14,x13
    e320:	00ff5633          	srl	x12,x30,x15
    e324:	00df16b3          	sll	x13,x30,x13
    e328:	00d036b3          	sltu	x13,x0,x13
    e32c:	00c56533          	or	x10,x10,x12
    e330:	00f757b3          	srl	x15,x14,x15
    e334:	00d56533          	or	x10,x10,x13
    e338:	40f30333          	sub	x6,x6,x15
    e33c:	40a58533          	sub	x10,x11,x10
    e340:	00a5b5b3          	sltu	x11,x11,x10
    e344:	40b30933          	sub	x18,x6,x11
    e348:	00050a13          	addi	x20,x10,0
    e34c:	00088a93          	addi	x21,x17,0
    e350:	b4dff06f          	jal	x0,de9c <__subdf3+0xe4>
    e354:	fe078693          	addi	x13,x15,-32
    e358:	02000613          	addi	x12,x0,32
    e35c:	00d356b3          	srl	x13,x6,x13
    e360:	00c78a63          	beq	x15,x12,e374 <__subdf3+0x5bc>
    e364:	04000613          	addi	x12,x0,64
    e368:	40f607b3          	sub	x15,x12,x15
    e36c:	00f317b3          	sll	x15,x6,x15
    e370:	00f5e5b3          	or	x11,x11,x15
    e374:	00b03533          	sltu	x10,x0,x11
    e378:	00d56533          	or	x10,x10,x13
    e37c:	b11ff06f          	jal	x0,de8c <__subdf3+0xd4>
    e380:	ff8006b7          	lui	x13,0xff800
    e384:	fff68693          	addi	x13,x13,-1 # ff7fffff <__heap_end+0xff3fffff>
    e388:	40fa87b3          	sub	x15,x21,x15
    e38c:	00d77733          	and	x14,x14,x13
    e390:	ef5ff06f          	jal	x0,e284 <__subdf3+0x4cc>
    e394:	0019f813          	andi	x16,x19,1
    e398:	7ff00793          	addi	x15,x0,2047
    e39c:	00000713          	addi	x14,x0,0
    e3a0:	00000613          	addi	x12,x0,0
    e3a4:	bc5ff06f          	jal	x0,df68 <__subdf3+0x1b0>
    e3a8:	003e9513          	slli	x10,x29,0x3
    e3ac:	00355513          	srli	x10,x10,0x3
    e3b0:	00030713          	addi	x14,x6,0
    e3b4:	cc1ff06f          	jal	x0,e074 <__subdf3+0x2bc>
    e3b8:	7ff00693          	addi	x13,x0,2047
    e3bc:	fcd78ce3          	beq	x15,x13,e394 <__subdf3+0x5dc>
    e3c0:	00bf05b3          	add	x11,x30,x11
    e3c4:	01e5b633          	sltu	x12,x11,x30
    e3c8:	00670933          	add	x18,x14,x6
    e3cc:	00c90933          	add	x18,x18,x12
    e3d0:	01f91513          	slli	x10,x18,0x1f
    e3d4:	0015d593          	srli	x11,x11,0x1
    e3d8:	00078a93          	addi	x21,x15,0
    e3dc:	00b56a33          	or	x20,x10,x11
    e3e0:	00195913          	srli	x18,x18,0x1
    e3e4:	b25ff06f          	jal	x0,df08 <__subdf3+0x150>
    e3e8:	41e58633          	sub	x12,x11,x30
    e3ec:	00c5b5b3          	sltu	x11,x11,x12
    e3f0:	40e307b3          	sub	x15,x6,x14
    e3f4:	00060a13          	addi	x20,x12,0
    e3f8:	40b78933          	sub	x18,x15,x11
    e3fc:	00068993          	addi	x19,x13,0
    e400:	ab1ff06f          	jal	x0,deb0 <__subdf3+0xf8>
    e404:	003e9613          	slli	x12,x29,0x3
    e408:	00365513          	srli	x10,x12,0x3
    e40c:	00068993          	addi	x19,x13,0
    e410:	00030713          	addi	x14,x6,0
    e414:	e21ff06f          	jal	x0,e234 <__subdf3+0x47c>
    e418:	de079ce3          	bne	x15,x0,e210 <__subdf3+0x458>
    e41c:	28060063          	beq	x12,x0,e69c <__subdf3+0x8e4>
    e420:	003e9613          	slli	x12,x29,0x3
    e424:	00335713          	srli	x14,x6,0x3
    e428:	01d31793          	slli	x15,x6,0x1d
    e42c:	00365613          	srli	x12,x12,0x3
    e430:	00f76733          	or	x14,x14,x15
    e434:	00068993          	addi	x19,x13,0
    e438:	00c76733          	or	x14,x14,x12
    e43c:	c49ff06f          	jal	x0,e084 <__subdf3+0x2cc>
    e440:	00bf05b3          	add	x11,x30,x11
    e444:	01e5b633          	sltu	x12,x11,x30
    e448:	00670933          	add	x18,x14,x6
    e44c:	00c90933          	add	x18,x18,x12
    e450:	00891793          	slli	x15,x18,0x8
    e454:	00058a13          	addi	x20,x11,0
    e458:	1007d263          	bge	x15,x0,e55c <__subdf3+0x7a4>
    e45c:	00200a93          	addi	x21,x0,2
    e460:	bc5ff06f          	jal	x0,e024 <__subdf3+0x26c>
    e464:	ce0782e3          	beq	x15,x0,e148 <__subdf3+0x390>
    e468:	415887b3          	sub	x15,x17,x21
    e46c:	e60a8ae3          	beq	x21,x0,e2e0 <__subdf3+0x528>
    e470:	03800613          	addi	x12,x0,56
    e474:	04f64e63          	blt	x12,x15,e4d0 <__subdf3+0x718>
    e478:	00800637          	lui	x12,0x800
    e47c:	00068993          	addi	x19,x13,0
    e480:	00c76733          	or	x14,x14,x12
    e484:	e89ff06f          	jal	x0,e30c <__subdf3+0x554>
    e488:	40bf05b3          	sub	x11,x30,x11
    e48c:	00bf3633          	sltu	x12,x30,x11
    e490:	40670933          	sub	x18,x14,x6
    e494:	00058a13          	addi	x20,x11,0
    e498:	40c90933          	sub	x18,x18,x12
    e49c:	00100a93          	addi	x21,x0,1
    e4a0:	9fdff06f          	jal	x0,de9c <__subdf3+0xe4>
    e4a4:	fe078693          	addi	x13,x15,-32
    e4a8:	02000613          	addi	x12,x0,32
    e4ac:	00d356b3          	srl	x13,x6,x13
    e4b0:	00c78a63          	beq	x15,x12,e4c4 <__subdf3+0x70c>
    e4b4:	04000613          	addi	x12,x0,64
    e4b8:	40f607b3          	sub	x15,x12,x15
    e4bc:	00f317b3          	sll	x15,x6,x15
    e4c0:	00f5e5b3          	or	x11,x11,x15
    e4c4:	00b03933          	sltu	x18,x0,x11
    e4c8:	00d96933          	or	x18,x18,x13
    e4cc:	b35ff06f          	jal	x0,e000 <__subdf3+0x248>
    e4d0:	00068993          	addi	x19,x13,0
    e4d4:	00100513          	addi	x10,x0,1
    e4d8:	e65ff06f          	jal	x0,e33c <__subdf3+0x584>
    e4dc:	d80780e3          	beq	x15,x0,e25c <__subdf3+0x4a4>
    e4e0:	415887b3          	sub	x15,x17,x21
    e4e4:	be0a8ae3          	beq	x21,x0,e0d8 <__subdf3+0x320>
    e4e8:	03800693          	addi	x13,x0,56
    e4ec:	00100913          	addi	x18,x0,1
    e4f0:	c4f6c0e3          	blt	x13,x15,e130 <__subdf3+0x378>
    e4f4:	008006b7          	lui	x13,0x800
    e4f8:	00d76733          	or	x14,x14,x13
    e4fc:	c05ff06f          	jal	x0,e100 <__subdf3+0x348>
    e500:	fe078693          	addi	x13,x15,-32
    e504:	02000613          	addi	x12,x0,32
    e508:	00d756b3          	srl	x13,x14,x13
    e50c:	00c78a63          	beq	x15,x12,e520 <__subdf3+0x768>
    e510:	04000613          	addi	x12,x0,64
    e514:	40f607b3          	sub	x15,x12,x15
    e518:	00f717b3          	sll	x15,x14,x15
    e51c:	00ff6f33          	or	x30,x30,x15
    e520:	01e03533          	sltu	x10,x0,x30
    e524:	00d56533          	or	x10,x10,x13
    e528:	e15ff06f          	jal	x0,e33c <__subdf3+0x584>
    e52c:	e6078ee3          	beq	x15,x0,e3a8 <__subdf3+0x5f0>
    e530:	00b365b3          	or	x11,x6,x11
    e534:	b4059ae3          	bne	x11,x0,e088 <__subdf3+0x2d0>
    e538:	cddff06f          	jal	x0,e214 <__subdf3+0x45c>
    e53c:	41e58633          	sub	x12,x11,x30
    e540:	00c5b5b3          	sltu	x11,x11,x12
    e544:	40e30933          	sub	x18,x6,x14
    e548:	00060a13          	addi	x20,x12,0 # 800000 <__heap_end+0x400000>
    e54c:	40b90933          	sub	x18,x18,x11
    e550:	00068993          	addi	x19,x13,0 # 800000 <__heap_end+0x400000>
    e554:	00100a93          	addi	x21,x0,1
    e558:	945ff06f          	jal	x0,de9c <__subdf3+0xe4>
    e55c:	00100793          	addi	x15,x0,1
    e560:	c95ff06f          	jal	x0,e1f4 <__subdf3+0x43c>
    e564:	d4060ae3          	beq	x12,x0,e2b8 <__subdf3+0x500>
    e568:	003e9793          	slli	x15,x29,0x3
    e56c:	0037d793          	srli	x15,x15,0x3
    e570:	01d31613          	slli	x12,x6,0x1d
    e574:	00931713          	slli	x14,x6,0x9
    e578:	00c7e633          	or	x12,x15,x12
    e57c:	00068813          	addi	x16,x13,0
    e580:	00c75713          	srli	x14,x14,0xc
    e584:	00000793          	addi	x15,x0,0
    e588:	9e1ff06f          	jal	x0,df68 <__subdf3+0x1b0>
    e58c:	40bf0933          	sub	x18,x30,x11
    e590:	012f3633          	sltu	x12,x30,x18
    e594:	406707b3          	sub	x15,x14,x6
    e598:	40c787b3          	sub	x15,x15,x12
    e59c:	00879613          	slli	x12,x15,0x8
    e5a0:	0e065263          	bge	x12,x0,e684 <__subdf3+0x8cc>
    e5a4:	41e58633          	sub	x12,x11,x30
    e5a8:	00c5b5b3          	sltu	x11,x11,x12
    e5ac:	40e30733          	sub	x14,x6,x14
    e5b0:	40b70733          	sub	x14,x14,x11
    e5b4:	00871793          	slli	x15,x14,0x8
    e5b8:	00060a13          	addi	x20,x12,0
    e5bc:	1007d463          	bge	x15,x0,e6c4 <__subdf3+0x90c>
    e5c0:	ff8007b7          	lui	x15,0xff800
    e5c4:	fff78793          	addi	x15,x15,-1 # ff7fffff <__heap_end+0xff3fffff>
    e5c8:	00f77733          	and	x14,x14,x15
    e5cc:	00068993          	addi	x19,x13,0
    e5d0:	00100793          	addi	x15,x0,1
    e5d4:	97dff06f          	jal	x0,df50 <__subdf3+0x198>
    e5d8:	003e9613          	slli	x12,x29,0x3
    e5dc:	00365513          	srli	x10,x12,0x3
    e5e0:	00030713          	addi	x14,x6,0
    e5e4:	c51ff06f          	jal	x0,e234 <__subdf3+0x47c>
    e5e8:	003e9613          	slli	x12,x29,0x3
    e5ec:	00365913          	srli	x18,x12,0x3
    e5f0:	00030713          	addi	x14,x6,0
    e5f4:	c91ff06f          	jal	x0,e284 <__subdf3+0x4cc>
    e5f8:	003a5513          	srli	x10,x20,0x3
    e5fc:	000a8793          	addi	x15,x21,0
    e600:	00090713          	addi	x14,x18,0
    e604:	c31ff06f          	jal	x0,e234 <__subdf3+0x47c>
    e608:	00bf05b3          	add	x11,x30,x11
    e60c:	01e5b633          	sltu	x12,x11,x30
    e610:	006707b3          	add	x15,x14,x6
    e614:	00c787b3          	add	x15,x15,x12
    e618:	00879713          	slli	x14,x15,0x8
    e61c:	0035d593          	srli	x11,x11,0x3
    e620:	08075663          	bge	x14,x0,e6ac <__subdf3+0x8f4>
    e624:	ff800737          	lui	x14,0xff800
    e628:	fff70713          	addi	x14,x14,-1 # ff7fffff <__heap_end+0xff3fffff>
    e62c:	00e7f7b3          	and	x15,x15,x14
    e630:	01d79613          	slli	x12,x15,0x1d
    e634:	00979793          	slli	x15,x15,0x9
    e638:	00c7d713          	srli	x14,x15,0xc
    e63c:	00b66633          	or	x12,x12,x11
    e640:	00100793          	addi	x15,x0,1
    e644:	925ff06f          	jal	x0,df68 <__subdf3+0x1b0>
    e648:	fe078693          	addi	x13,x15,-32
    e64c:	02000613          	addi	x12,x0,32
    e650:	00d756b3          	srl	x13,x14,x13
    e654:	00c78a63          	beq	x15,x12,e668 <__subdf3+0x8b0>
    e658:	04000613          	addi	x12,x0,64
    e65c:	40f607b3          	sub	x15,x12,x15
    e660:	00f717b3          	sll	x15,x14,x15
    e664:	00ff6f33          	or	x30,x30,x15
    e668:	01e03933          	sltu	x18,x0,x30
    e66c:	00d96933          	or	x18,x18,x13
    e670:	ac1ff06f          	jal	x0,e130 <__subdf3+0x378>
    e674:	02000693          	addi	x13,x0,32
    e678:	40f686b3          	sub	x13,x13,x15
    e67c:	00000613          	addi	x12,x0,0
    e680:	875ff06f          	jal	x0,def4 <__subdf3+0x13c>
    e684:	00f96633          	or	x12,x18,x15
    e688:	c20608e3          	beq	x12,x0,e2b8 <__subdf3+0x500>
    e68c:	00078713          	addi	x14,x15,0
    e690:	00395913          	srli	x18,x18,0x3
    e694:	00000793          	addi	x15,x0,0
    e698:	bedff06f          	jal	x0,e284 <__subdf3+0x4cc>
    e69c:	00000813          	addi	x16,x0,0
    e6a0:	7ff00793          	addi	x15,x0,2047
    e6a4:	00080737          	lui	x14,0x80
    e6a8:	8c1ff06f          	jal	x0,df68 <__subdf3+0x1b0>
    e6ac:	01d79613          	slli	x12,x15,0x1d
    e6b0:	00979793          	slli	x15,x15,0x9
    e6b4:	00c7d713          	srli	x14,x15,0xc
    e6b8:	00b66633          	or	x12,x12,x11
    e6bc:	00000793          	addi	x15,x0,0
    e6c0:	8a9ff06f          	jal	x0,df68 <__subdf3+0x1b0>
    e6c4:	01d71793          	slli	x15,x14,0x1d
    e6c8:	00365613          	srli	x12,x12,0x3
    e6cc:	00c7e633          	or	x12,x15,x12
    e6d0:	00068993          	addi	x19,x13,0
    e6d4:	00375713          	srli	x14,x14,0x3
    e6d8:	00000793          	addi	x15,x0,0
    e6dc:	b6dff06f          	jal	x0,e248 <__subdf3+0x490>

0000e6e0 <__fixdfsi>:
    e6e0:	0145d793          	srli	x15,x11,0x14
    e6e4:	001006b7          	lui	x13,0x100
    e6e8:	fff68713          	addi	x14,x13,-1 # fffff <__heap_start+0xed12f>
    e6ec:	7ff7f793          	andi	x15,x15,2047
    e6f0:	3fe00613          	addi	x12,x0,1022
    e6f4:	00b77733          	and	x14,x14,x11
    e6f8:	01f5d593          	srli	x11,x11,0x1f
    e6fc:	00f65e63          	bge	x12,x15,e718 <__fixdfsi+0x38>
    e700:	41d00613          	addi	x12,x0,1053
    e704:	00f65e63          	bge	x12,x15,e720 <__fixdfsi+0x40>
    e708:	80000537          	lui	x10,0x80000
    e70c:	fff50513          	addi	x10,x10,-1 # 7fffffff <__heap_end+0x7fbfffff>
    e710:	00a58533          	add	x10,x11,x10
    e714:	00008067          	jalr	x0,0(x1)
    e718:	00000513          	addi	x10,x0,0
    e71c:	00008067          	jalr	x0,0(x1)
    e720:	43300613          	addi	x12,x0,1075
    e724:	40f60633          	sub	x12,x12,x15
    e728:	01f00813          	addi	x16,x0,31
    e72c:	00d76733          	or	x14,x14,x13
    e730:	02c85063          	bge	x16,x12,e750 <__fixdfsi+0x70>
    e734:	41300693          	addi	x13,x0,1043
    e738:	40f687b3          	sub	x15,x13,x15
    e73c:	00f75733          	srl	x14,x14,x15
    e740:	40e00533          	sub	x10,x0,x14
    e744:	fc059ce3          	bne	x11,x0,e71c <__fixdfsi+0x3c>
    e748:	00070513          	addi	x10,x14,0 # 80000 <__heap_start+0x6d130>
    e74c:	00008067          	jalr	x0,0(x1)
    e750:	bed78793          	addi	x15,x15,-1043
    e754:	00f71733          	sll	x14,x14,x15
    e758:	00c55533          	srl	x10,x10,x12
    e75c:	00a76733          	or	x14,x14,x10
    e760:	fe1ff06f          	jal	x0,e740 <__fixdfsi+0x60>

0000e764 <__floatsidf>:
    e764:	fe010113          	addi	x2,x2,-32
    e768:	00112e23          	sw	x1,28(x2)
    e76c:	00812c23          	sw	x8,24(x2)
    e770:	00912a23          	sw	x9,20(x2)
    e774:	01212823          	sw	x18,16(x2)
    e778:	01312623          	sw	x19,12(x2)
    e77c:	04050a63          	beq	x10,x0,e7d0 <__floatsidf+0x6c>
    e780:	41f55713          	srai	x14,x10,0x1f
    e784:	00a744b3          	xor	x9,x14,x10
    e788:	40e484b3          	sub	x9,x9,x14
    e78c:	00050793          	addi	x15,x10,0
    e790:	00048513          	addi	x10,x9,0
    e794:	01f7d413          	srli	x8,x15,0x1f
    e798:	200030ef          	jal	x1,11998 <__clzsi2>
    e79c:	41e00793          	addi	x15,x0,1054
    e7a0:	40a787b3          	sub	x15,x15,x10
    e7a4:	00a00713          	addi	x14,x0,10
    e7a8:	7ff7f793          	andi	x15,x15,2047
    e7ac:	06a74463          	blt	x14,x10,e814 <__floatsidf+0xb0>
    e7b0:	00b00713          	addi	x14,x0,11
    e7b4:	40a70733          	sub	x14,x14,x10
    e7b8:	00e4d733          	srl	x14,x9,x14
    e7bc:	00c71713          	slli	x14,x14,0xc
    e7c0:	01550513          	addi	x10,x10,21
    e7c4:	00c75713          	srli	x14,x14,0xc
    e7c8:	00a494b3          	sll	x9,x9,x10
    e7cc:	0140006f          	jal	x0,e7e0 <__floatsidf+0x7c>
    e7d0:	00000413          	addi	x8,x0,0
    e7d4:	00000793          	addi	x15,x0,0
    e7d8:	00000713          	addi	x14,x0,0
    e7dc:	00000493          	addi	x9,x0,0
    e7e0:	01479793          	slli	x15,x15,0x14
    e7e4:	01f41413          	slli	x8,x8,0x1f
    e7e8:	00e7e7b3          	or	x15,x15,x14
    e7ec:	01c12083          	lw	x1,28(x2)
    e7f0:	0087e7b3          	or	x15,x15,x8
    e7f4:	01812403          	lw	x8,24(x2)
    e7f8:	01012903          	lw	x18,16(x2)
    e7fc:	00c12983          	lw	x19,12(x2)
    e800:	00048513          	addi	x10,x9,0
    e804:	00078593          	addi	x11,x15,0
    e808:	01412483          	lw	x9,20(x2)
    e80c:	02010113          	addi	x2,x2,32
    e810:	00008067          	jalr	x0,0(x1)
    e814:	ff550513          	addi	x10,x10,-11
    e818:	00a49733          	sll	x14,x9,x10
    e81c:	00c71713          	slli	x14,x14,0xc
    e820:	00c75713          	srli	x14,x14,0xc
    e824:	00000493          	addi	x9,x0,0
    e828:	fb9ff06f          	jal	x0,e7e0 <__floatsidf+0x7c>

0000e82c <__eqtf2>:
    e82c:	00c52703          	lw	x14,12(x10)
    e830:	00c5a683          	lw	x13,12(x11)
    e834:	000087b7          	lui	x15,0x8
    e838:	01075613          	srli	x12,x14,0x10
    e83c:	fff78793          	addi	x15,x15,-1 # 7fff <__gdtoa+0xa6b>
    e840:	0106d813          	srli	x16,x13,0x10
    e844:	01071f93          	slli	x31,x14,0x10
    e848:	01069293          	slli	x5,x13,0x10
    e84c:	00f67633          	and	x12,x12,x15
    e850:	00052303          	lw	x6,0(x10)
    e854:	00452883          	lw	x17,4(x10)
    e858:	00852f03          	lw	x30,8(x10)
    e85c:	0005ae03          	lw	x28,0(x11)
    e860:	0045ae83          	lw	x29,4(x11)
    e864:	ff010113          	addi	x2,x2,-16
    e868:	0085a583          	lw	x11,8(x11)
    e86c:	00f87833          	and	x16,x16,x15
    e870:	010fdf93          	srli	x31,x31,0x10
    e874:	01f75713          	srli	x14,x14,0x1f
    e878:	0102d293          	srli	x5,x5,0x10
    e87c:	01f6d693          	srli	x13,x13,0x1f
    e880:	00100513          	addi	x10,x0,1
    e884:	00f60c63          	beq	x12,x15,e89c <__eqtf2+0x70>
    e888:	00f80663          	beq	x16,x15,e894 <__eqtf2+0x68>
    e88c:	00c81463          	bne	x16,x12,e894 <__eqtf2+0x68>
    e890:	03c30e63          	beq	x6,x28,e8cc <__eqtf2+0xa0>
    e894:	01010113          	addi	x2,x2,16
    e898:	00008067          	jalr	x0,0(x1)
    e89c:	fec81ce3          	bne	x16,x12,e894 <__eqtf2+0x68>
    e8a0:	0068e7b3          	or	x15,x17,x6
    e8a4:	01e7e7b3          	or	x15,x15,x30
    e8a8:	01f7e7b3          	or	x15,x15,x31
    e8ac:	01c7e7b3          	or	x15,x15,x28
    e8b0:	01d7e7b3          	or	x15,x15,x29
    e8b4:	00b7e7b3          	or	x15,x15,x11
    e8b8:	0057e7b3          	or	x15,x15,x5
    e8bc:	fc079ce3          	bne	x15,x0,e894 <__eqtf2+0x68>
    e8c0:	40d70733          	sub	x14,x14,x13
    e8c4:	00e03533          	sltu	x10,x0,x14
    e8c8:	fcdff06f          	jal	x0,e894 <__eqtf2+0x68>
    e8cc:	fdd894e3          	bne	x17,x29,e894 <__eqtf2+0x68>
    e8d0:	fcbf12e3          	bne	x30,x11,e894 <__eqtf2+0x68>
    e8d4:	fc5f90e3          	bne	x31,x5,e894 <__eqtf2+0x68>
    e8d8:	00d70e63          	beq	x14,x13,e8f4 <__eqtf2+0xc8>
    e8dc:	fa081ce3          	bne	x16,x0,e894 <__eqtf2+0x68>
    e8e0:	0068e7b3          	or	x15,x17,x6
    e8e4:	01e7e7b3          	or	x15,x15,x30
    e8e8:	01f7e7b3          	or	x15,x15,x31
    e8ec:	00f03533          	sltu	x10,x0,x15
    e8f0:	fa5ff06f          	jal	x0,e894 <__eqtf2+0x68>
    e8f4:	00000513          	addi	x10,x0,0
    e8f8:	f9dff06f          	jal	x0,e894 <__eqtf2+0x68>

0000e8fc <__getf2>:
    e8fc:	00c52683          	lw	x13,12(x10)
    e900:	00c5a803          	lw	x16,12(x11)
    e904:	00008737          	lui	x14,0x8
    e908:	0106d613          	srli	x12,x13,0x10
    e90c:	fff70713          	addi	x14,x14,-1 # 7fff <__gdtoa+0xa6b>
    e910:	00050793          	addi	x15,x10,0
    e914:	01069e93          	slli	x29,x13,0x10
    e918:	01085513          	srli	x10,x16,0x10
    e91c:	01081313          	slli	x6,x16,0x10
    e920:	00e67633          	and	x12,x12,x14
    e924:	0047af83          	lw	x31,4(x15)
    e928:	0087af03          	lw	x30,8(x15)
    e92c:	0005ae03          	lw	x28,0(x11)
    e930:	01f85893          	srli	x17,x16,0x1f
    e934:	ff010113          	addi	x2,x2,-16
    e938:	0007a803          	lw	x16,0(x15)
    e93c:	00e57533          	and	x10,x10,x14
    e940:	0045a783          	lw	x15,4(x11)
    e944:	010ede93          	srli	x29,x29,0x10
    e948:	0085a583          	lw	x11,8(x11)
    e94c:	01f6d693          	srli	x13,x13,0x1f
    e950:	01035313          	srli	x6,x6,0x10
    e954:	06e60a63          	beq	x12,x14,e9c8 <__getf2+0xcc>
    e958:	02e50e63          	beq	x10,x14,e994 <__getf2+0x98>
    e95c:	0c061c63          	bne	x12,x0,ea34 <__getf2+0x138>
    e960:	01f86733          	or	x14,x16,x31
    e964:	01e76733          	or	x14,x14,x30
    e968:	01d76733          	or	x14,x14,x29
    e96c:	0e051263          	bne	x10,x0,ea50 <__getf2+0x154>
    e970:	01c7e633          	or	x12,x15,x28
    e974:	00b66633          	or	x12,x12,x11
    e978:	00666633          	or	x12,x12,x6
    e97c:	06061e63          	bne	x12,x0,e9f8 <__getf2+0xfc>
    e980:	00070663          	beq	x14,x0,e98c <__getf2+0x90>
    e984:	02069e63          	bne	x13,x0,e9c0 <__getf2+0xc4>
    e988:	00100513          	addi	x10,x0,1
    e98c:	01010113          	addi	x2,x2,16
    e990:	00008067          	jalr	x0,0(x1)
    e994:	01c7e7b3          	or	x15,x15,x28
    e998:	00b7e7b3          	or	x15,x15,x11
    e99c:	0067e7b3          	or	x15,x15,x6
    e9a0:	0a079463          	bne	x15,x0,ea48 <__getf2+0x14c>
    e9a4:	08061463          	bne	x12,x0,ea2c <__getf2+0x130>
    e9a8:	01f86833          	or	x16,x16,x31
    e9ac:	01e86833          	or	x16,x16,x30
    e9b0:	01d86833          	or	x16,x16,x29
    e9b4:	06081c63          	bne	x16,x0,ea2c <__getf2+0x130>
    e9b8:	00100513          	addi	x10,x0,1
    e9bc:	fc0898e3          	bne	x17,x0,e98c <__getf2+0x90>
    e9c0:	fff00513          	addi	x10,x0,-1
    e9c4:	fc9ff06f          	jal	x0,e98c <__getf2+0x90>
    e9c8:	01f86833          	or	x16,x16,x31
    e9cc:	01e86833          	or	x16,x16,x30
    e9d0:	01d86833          	or	x16,x16,x29
    e9d4:	06081a63          	bne	x16,x0,ea48 <__getf2+0x14c>
    e9d8:	fac516e3          	bne	x10,x12,e984 <__getf2+0x88>
    e9dc:	01c7e7b3          	or	x15,x15,x28
    e9e0:	00b7e7b3          	or	x15,x15,x11
    e9e4:	0067e7b3          	or	x15,x15,x6
    e9e8:	06079063          	bne	x15,x0,ea48 <__getf2+0x14c>
    e9ec:	f8d89ce3          	bne	x17,x13,e984 <__getf2+0x88>
    e9f0:	00000513          	addi	x10,x0,0
    e9f4:	f99ff06f          	jal	x0,e98c <__getf2+0x90>
    e9f8:	fc0700e3          	beq	x14,x0,e9b8 <__getf2+0xbc>
    e9fc:	f8d894e3          	bne	x17,x13,e984 <__getf2+0x88>
    ea00:	f9d362e3          	bltu	x6,x29,e984 <__getf2+0x88>
    ea04:	006e9e63          	bne	x29,x6,ea20 <__getf2+0x124>
    ea08:	f7e5eee3          	bltu	x11,x30,e984 <__getf2+0x88>
    ea0c:	00bf1a63          	bne	x30,x11,ea20 <__getf2+0x124>
    ea10:	f7f7eae3          	bltu	x15,x31,e984 <__getf2+0x88>
    ea14:	01f79663          	bne	x15,x31,ea20 <__getf2+0x124>
    ea18:	f70e66e3          	bltu	x28,x16,e984 <__getf2+0x88>
    ea1c:	fdc87ae3          	bgeu	x16,x28,e9f0 <__getf2+0xf4>
    ea20:	00100513          	addi	x10,x0,1
    ea24:	f60694e3          	bne	x13,x0,e98c <__getf2+0x90>
    ea28:	f99ff06f          	jal	x0,e9c0 <__getf2+0xc4>
    ea2c:	f4d89ce3          	bne	x17,x13,e984 <__getf2+0x88>
    ea30:	ff1ff06f          	jal	x0,ea20 <__getf2+0x124>
    ea34:	f40508e3          	beq	x10,x0,e984 <__getf2+0x88>
    ea38:	f4d896e3          	bne	x17,x13,e984 <__getf2+0x88>
    ea3c:	f4c544e3          	blt	x10,x12,e984 <__getf2+0x88>
    ea40:	fca650e3          	bge	x12,x10,ea00 <__getf2+0x104>
    ea44:	fddff06f          	jal	x0,ea20 <__getf2+0x124>
    ea48:	ffe00513          	addi	x10,x0,-2
    ea4c:	f41ff06f          	jal	x0,e98c <__getf2+0x90>
    ea50:	f60704e3          	beq	x14,x0,e9b8 <__getf2+0xbc>
    ea54:	f2d898e3          	bne	x17,x13,e984 <__getf2+0x88>
    ea58:	faa654e3          	bge	x12,x10,ea00 <__getf2+0x104>
    ea5c:	fc5ff06f          	jal	x0,ea20 <__getf2+0x124>

0000ea60 <__letf2>:
    ea60:	00c52603          	lw	x12,12(x10)
    ea64:	00c5a683          	lw	x13,12(x11)
    ea68:	00008737          	lui	x14,0x8
    ea6c:	01065893          	srli	x17,x12,0x10
    ea70:	fff70713          	addi	x14,x14,-1 # 7fff <__gdtoa+0xa6b>
    ea74:	00050793          	addi	x15,x10,0
    ea78:	01061e93          	slli	x29,x12,0x10
    ea7c:	0106d513          	srli	x10,x13,0x10
    ea80:	01069313          	slli	x6,x13,0x10
    ea84:	00e8f8b3          	and	x17,x17,x14
    ea88:	0047af83          	lw	x31,4(x15)
    ea8c:	0087af03          	lw	x30,8(x15)
    ea90:	0005ae03          	lw	x28,0(x11)
    ea94:	01f6d813          	srli	x16,x13,0x1f
    ea98:	ff010113          	addi	x2,x2,-16
    ea9c:	0007a683          	lw	x13,0(x15)
    eaa0:	00e57533          	and	x10,x10,x14
    eaa4:	0045a783          	lw	x15,4(x11)
    eaa8:	010ede93          	srli	x29,x29,0x10
    eaac:	0085a583          	lw	x11,8(x11)
    eab0:	01f65613          	srli	x12,x12,0x1f
    eab4:	01035313          	srli	x6,x6,0x10
    eab8:	08e88463          	beq	x17,x14,eb40 <__letf2+0xe0>
    eabc:	02e50a63          	beq	x10,x14,eaf0 <__letf2+0x90>
    eac0:	0a089a63          	bne	x17,x0,eb74 <__letf2+0x114>
    eac4:	01f6e733          	or	x14,x13,x31
    eac8:	01e76733          	or	x14,x14,x30
    eacc:	01d76733          	or	x14,x14,x29
    ead0:	04051e63          	bne	x10,x0,eb2c <__letf2+0xcc>
    ead4:	01c7e2b3          	or	x5,x15,x28
    ead8:	00b2e2b3          	or	x5,x5,x11
    eadc:	0062e2b3          	or	x5,x5,x6
    eae0:	04029663          	bne	x5,x0,eb2c <__letf2+0xcc>
    eae4:	02071c63          	bne	x14,x0,eb1c <__letf2+0xbc>
    eae8:	01010113          	addi	x2,x2,16
    eaec:	00008067          	jalr	x0,0(x1)
    eaf0:	01c7e7b3          	or	x15,x15,x28
    eaf4:	00b7e7b3          	or	x15,x15,x11
    eaf8:	0067e7b3          	or	x15,x15,x6
    eafc:	00200513          	addi	x10,x0,2
    eb00:	fe0794e3          	bne	x15,x0,eae8 <__letf2+0x88>
    eb04:	00089a63          	bne	x17,x0,eb18 <__letf2+0xb8>
    eb08:	01f6e6b3          	or	x13,x13,x31
    eb0c:	01e6e6b3          	or	x13,x13,x30
    eb10:	01d6e6b3          	or	x13,x13,x29
    eb14:	00068e63          	beq	x13,x0,eb30 <__letf2+0xd0>
    eb18:	08c80663          	beq	x16,x12,eba4 <__letf2+0x144>
    eb1c:	00061e63          	bne	x12,x0,eb38 <__letf2+0xd8>
    eb20:	00100513          	addi	x10,x0,1
    eb24:	01010113          	addi	x2,x2,16
    eb28:	00008067          	jalr	x0,0(x1)
    eb2c:	08071863          	bne	x14,x0,ebbc <__letf2+0x15c>
    eb30:	00100513          	addi	x10,x0,1
    eb34:	fa081ae3          	bne	x16,x0,eae8 <__letf2+0x88>
    eb38:	fff00513          	addi	x10,x0,-1
    eb3c:	fadff06f          	jal	x0,eae8 <__letf2+0x88>
    eb40:	01f6e6b3          	or	x13,x13,x31
    eb44:	01e6e6b3          	or	x13,x13,x30
    eb48:	01d6e6b3          	or	x13,x13,x29
    eb4c:	06069263          	bne	x13,x0,ebb0 <__letf2+0x150>
    eb50:	fd1516e3          	bne	x10,x17,eb1c <__letf2+0xbc>
    eb54:	01c7e7b3          	or	x15,x15,x28
    eb58:	00b7e7b3          	or	x15,x15,x11
    eb5c:	0067e7b3          	or	x15,x15,x6
    eb60:	00200513          	addi	x10,x0,2
    eb64:	f80792e3          	bne	x15,x0,eae8 <__letf2+0x88>
    eb68:	fac81ae3          	bne	x16,x12,eb1c <__letf2+0xbc>
    eb6c:	00000513          	addi	x10,x0,0
    eb70:	f79ff06f          	jal	x0,eae8 <__letf2+0x88>
    eb74:	fa0504e3          	beq	x10,x0,eb1c <__letf2+0xbc>
    eb78:	fac812e3          	bne	x16,x12,eb1c <__letf2+0xbc>
    eb7c:	fb1540e3          	blt	x10,x17,eb1c <__letf2+0xbc>
    eb80:	02a8c263          	blt	x17,x10,eba4 <__letf2+0x144>
    eb84:	f9d36ce3          	bltu	x6,x29,eb1c <__letf2+0xbc>
    eb88:	006e9e63          	bne	x29,x6,eba4 <__letf2+0x144>
    eb8c:	f9e5e8e3          	bltu	x11,x30,eb1c <__letf2+0xbc>
    eb90:	00bf1a63          	bne	x30,x11,eba4 <__letf2+0x144>
    eb94:	f9f7e4e3          	bltu	x15,x31,eb1c <__letf2+0xbc>
    eb98:	01f79663          	bne	x15,x31,eba4 <__letf2+0x144>
    eb9c:	f8de60e3          	bltu	x28,x13,eb1c <__letf2+0xbc>
    eba0:	fdc6f6e3          	bgeu	x13,x28,eb6c <__letf2+0x10c>
    eba4:	00100513          	addi	x10,x0,1
    eba8:	f40610e3          	bne	x12,x0,eae8 <__letf2+0x88>
    ebac:	f8dff06f          	jal	x0,eb38 <__letf2+0xd8>
    ebb0:	00200513          	addi	x10,x0,2
    ebb4:	01010113          	addi	x2,x2,16
    ebb8:	00008067          	jalr	x0,0(x1)
    ebbc:	f6c810e3          	bne	x16,x12,eb1c <__letf2+0xbc>
    ebc0:	fc1ff06f          	jal	x0,eb80 <__letf2+0x120>

0000ebc4 <__multf3>:
    ebc4:	00c5a803          	lw	x16,12(x11)
    ebc8:	f5010113          	addi	x2,x2,-176
    ebcc:	0045a703          	lw	x14,4(x11)
    ebd0:	0085a883          	lw	x17,8(x11)
    ebd4:	0a912223          	sw	x9,164(x2)
    ebd8:	0005a483          	lw	x9,0(x11)
    ebdc:	01081793          	slli	x15,x16,0x10
    ebe0:	000085b7          	lui	x11,0x8
    ebe4:	0107d793          	srli	x15,x15,0x10
    ebe8:	01085693          	srli	x13,x16,0x10
    ebec:	fff58593          	addi	x11,x11,-1 # 7fff <__gdtoa+0xa6b>
    ebf0:	0a812423          	sw	x8,168(x2)
    ebf4:	0b212023          	sw	x18,160(x2)
    ebf8:	09312e23          	sw	x19,156(x2)
    ebfc:	09412c23          	sw	x20,152(x2)
    ec00:	09512a23          	sw	x21,148(x2)
    ec04:	09712623          	sw	x23,140(x2)
    ec08:	0a112623          	sw	x1,172(x2)
    ec0c:	09612823          	sw	x22,144(x2)
    ec10:	09812423          	sw	x24,136(x2)
    ec14:	05012e23          	sw	x16,92(x2)
    ec18:	02f12623          	sw	x15,44(x2)
    ec1c:	00b6f6b3          	and	x13,x13,x11
    ec20:	04912823          	sw	x9,80(x2)
    ec24:	02912023          	sw	x9,32(x2)
    ec28:	04e12a23          	sw	x14,84(x2)
    ec2c:	02e12223          	sw	x14,36(x2)
    ec30:	05112c23          	sw	x17,88(x2)
    ec34:	03112423          	sw	x17,40(x2)
    ec38:	00062a83          	lw	x21,0(x12)
    ec3c:	00462983          	lw	x19,4(x12)
    ec40:	00862b83          	lw	x23,8(x12)
    ec44:	00c62903          	lw	x18,12(x12)
    ec48:	00050413          	addi	x8,x10,0
    ec4c:	01f85a13          	srli	x20,x16,0x1f
    ec50:	32068863          	beq	x13,x0,ef80 <__multf3+0x3bc>
    ec54:	18b68863          	beq	x13,x11,ede4 <__multf3+0x220>
    ec58:	00010737          	lui	x14,0x10
    ec5c:	00e7e7b3          	or	x15,x15,x14
    ec60:	02f12623          	sw	x15,44(x2)
    ec64:	02010513          	addi	x10,x2,32
    ec68:	02c10713          	addi	x14,x2,44
    ec6c:	00379593          	slli	x11,x15,0x3
    ec70:	ffc72783          	lw	x15,-4(x14) # fffc <__subtf3+0x2f4>
    ec74:	ffc70713          	addi	x14,x14,-4
    ec78:	01d7d613          	srli	x12,x15,0x1d
    ec7c:	00b66633          	or	x12,x12,x11
    ec80:	00c72223          	sw	x12,4(x14)
    ec84:	fee514e3          	bne	x10,x14,ec6c <__multf3+0xa8>
    ec88:	ffffc7b7          	lui	x15,0xffffc
    ec8c:	00349493          	slli	x9,x9,0x3
    ec90:	00178793          	addi	x15,x15,1 # ffffc001 <__heap_end+0xffbfc001>
    ec94:	02912023          	sw	x9,32(x2)
    ec98:	00000b13          	addi	x22,x0,0
    ec9c:	00f684b3          	add	x9,x13,x15
    eca0:	00000c13          	addi	x24,x0,0
    eca4:	01091513          	slli	x10,x18,0x10
    eca8:	000086b7          	lui	x13,0x8
    ecac:	01095793          	srli	x15,x18,0x10
    ecb0:	fff68713          	addi	x14,x13,-1 # 7fff <__gdtoa+0xa6b>
    ecb4:	01055513          	srli	x10,x10,0x10
    ecb8:	05212e23          	sw	x18,92(x2)
    ecbc:	05512823          	sw	x21,80(x2)
    ecc0:	05312a23          	sw	x19,84(x2)
    ecc4:	05712c23          	sw	x23,88(x2)
    ecc8:	03512823          	sw	x21,48(x2)
    eccc:	03312a23          	sw	x19,52(x2)
    ecd0:	03712c23          	sw	x23,56(x2)
    ecd4:	00e7f7b3          	and	x15,x15,x14
    ecd8:	02a12e23          	sw	x10,60(x2)
    ecdc:	01f95913          	srli	x18,x18,0x1f
    ece0:	1c078063          	beq	x15,x0,eea0 <__multf3+0x2dc>
    ece4:	12e78063          	beq	x15,x14,ee04 <__multf3+0x240>
    ece8:	00010737          	lui	x14,0x10
    ecec:	00e56533          	or	x10,x10,x14
    ecf0:	02a12e23          	sw	x10,60(x2)
    ecf4:	03010593          	addi	x11,x2,48
    ecf8:	03c10713          	addi	x14,x2,60
    ecfc:	00351613          	slli	x12,x10,0x3
    ed00:	ffc72503          	lw	x10,-4(x14) # fffc <__subtf3+0x2f4>
    ed04:	ffc70713          	addi	x14,x14,-4
    ed08:	01d55693          	srli	x13,x10,0x1d
    ed0c:	00c6e6b3          	or	x13,x13,x12
    ed10:	00d72223          	sw	x13,4(x14)
    ed14:	fee594e3          	bne	x11,x14,ecfc <__multf3+0x138>
    ed18:	ffffc737          	lui	x14,0xffffc
    ed1c:	00170713          	addi	x14,x14,1 # ffffc001 <__heap_end+0xffbfc001>
    ed20:	003a9a93          	slli	x21,x21,0x3
    ed24:	00e787b3          	add	x15,x15,x14
    ed28:	03512823          	sw	x21,48(x2)
    ed2c:	009787b3          	add	x15,x15,x9
    ed30:	00000613          	addi	x12,x0,0
    ed34:	00178693          	addi	x13,x15,1
    ed38:	00a00713          	addi	x14,x0,10
    ed3c:	00d12423          	sw	x13,8(x2)
    ed40:	23674c63          	blt	x14,x22,ef78 <__multf3+0x3b4>
    ed44:	012a4733          	xor	x14,x20,x18
    ed48:	00200693          	addi	x13,x0,2
    ed4c:	00070813          	addi	x16,x14,0
    ed50:	3366d063          	bge	x13,x22,f070 <__multf3+0x4ac>
    ed54:	00100693          	addi	x13,x0,1
    ed58:	016696b3          	sll	x13,x13,x22
    ed5c:	5306f593          	andi	x11,x13,1328
    ed60:	0e059463          	bne	x11,x0,ee48 <__multf3+0x284>
    ed64:	0886f593          	andi	x11,x13,136
    ed68:	3c0592e3          	bne	x11,x0,f92c <__multf3+0xd68>
    ed6c:	2406f693          	andi	x13,x13,576
    ed70:	36068263          	beq	x13,x0,f0d4 <__multf3+0x510>
    ed74:	000086b7          	lui	x13,0x8
    ed78:	fff68793          	addi	x15,x13,-1 # 7fff <__gdtoa+0xa6b>
    ed7c:	00000713          	addi	x14,x0,0
    ed80:	00000613          	addi	x12,x0,0
    ed84:	00000593          	addi	x11,x0,0
    ed88:	00000513          	addi	x10,x0,0
    ed8c:	00f71713          	slli	x14,x14,0xf
    ed90:	00e7e7b3          	or	x15,x15,x14
    ed94:	04f11f23          	sh	x15,94(x2)
    ed98:	04d11e23          	sh	x13,92(x2)
    ed9c:	05c12783          	lw	x15,92(x2)
    eda0:	00a42023          	sw	x10,0(x8)
    eda4:	0ac12083          	lw	x1,172(x2)
    eda8:	00b42223          	sw	x11,4(x8)
    edac:	00c42423          	sw	x12,8(x8)
    edb0:	00f42623          	sw	x15,12(x8)
    edb4:	00040513          	addi	x10,x8,0
    edb8:	0a812403          	lw	x8,168(x2)
    edbc:	0a412483          	lw	x9,164(x2)
    edc0:	0a012903          	lw	x18,160(x2)
    edc4:	09c12983          	lw	x19,156(x2)
    edc8:	09812a03          	lw	x20,152(x2)
    edcc:	09412a83          	lw	x21,148(x2)
    edd0:	09012b03          	lw	x22,144(x2)
    edd4:	08c12b83          	lw	x23,140(x2)
    edd8:	08812c03          	lw	x24,136(x2)
    eddc:	0b010113          	addi	x2,x2,176
    ede0:	00008067          	jalr	x0,0(x1)
    ede4:	00e4e733          	or	x14,x9,x14
    ede8:	01176733          	or	x14,x14,x17
    edec:	00f76733          	or	x14,x14,x15
    edf0:	00068493          	addi	x9,x13,0
    edf4:	2c071463          	bne	x14,x0,f0bc <__multf3+0x4f8>
    edf8:	00800b13          	addi	x22,x0,8
    edfc:	00200c13          	addi	x24,x0,2
    ee00:	ea5ff06f          	jal	x0,eca4 <__multf3+0xe0>
    ee04:	013ae9b3          	or	x19,x21,x19
    ee08:	0179e9b3          	or	x19,x19,x23
    ee0c:	00a9e9b3          	or	x19,x19,x10
    ee10:	00f487b3          	add	x15,x9,x15
    ee14:	2a098a63          	beq	x19,x0,f0c8 <__multf3+0x504>
    ee18:	00d486b3          	add	x13,x9,x13
    ee1c:	012a4733          	xor	x14,x20,x18
    ee20:	003b6b13          	ori	x22,x22,3
    ee24:	00a00613          	addi	x12,x0,10
    ee28:	00d12423          	sw	x13,8(x2)
    ee2c:	00070813          	addi	x16,x14,0
    ee30:	2f6648e3          	blt	x12,x22,f920 <__multf3+0xd5c>
    ee34:	00100693          	addi	x13,x0,1
    ee38:	016696b3          	sll	x13,x13,x22
    ee3c:	5306f593          	andi	x11,x13,1328
    ee40:	00300613          	addi	x12,x0,3
    ee44:	f20580e3          	beq	x11,x0,ed64 <__multf3+0x1a0>
    ee48:	02012783          	lw	x15,32(x2)
    ee4c:	02412683          	lw	x13,36(x2)
    ee50:	02812703          	lw	x14,40(x2)
    ee54:	04f12023          	sw	x15,64(x2)
    ee58:	02c12783          	lw	x15,44(x2)
    ee5c:	000c0613          	addi	x12,x24,0
    ee60:	04d12223          	sw	x13,68(x2)
    ee64:	04e12423          	sw	x14,72(x2)
    ee68:	04f12623          	sw	x15,76(x2)
    ee6c:	00200793          	addi	x15,x0,2
    ee70:	1ef60063          	beq	x12,x15,f050 <__multf3+0x48c>
    ee74:	00300793          	addi	x15,x0,3
    ee78:	eef60ee3          	beq	x12,x15,ed74 <__multf3+0x1b0>
    ee7c:	00100793          	addi	x15,x0,1
    ee80:	00080713          	addi	x14,x16,0
    ee84:	1af61ae3          	bne	x12,x15,f838 <__multf3+0xc74>
    ee88:	00000793          	addi	x15,x0,0
    ee8c:	00000693          	addi	x13,x0,0
    ee90:	00000613          	addi	x12,x0,0
    ee94:	00000593          	addi	x11,x0,0
    ee98:	00000513          	addi	x10,x0,0
    ee9c:	ef1ff06f          	jal	x0,ed8c <__multf3+0x1c8>
    eea0:	013ae7b3          	or	x15,x21,x19
    eea4:	0177e7b3          	or	x15,x15,x23
    eea8:	00a7e7b3          	or	x15,x15,x10
    eeac:	20078063          	beq	x15,x0,f0ac <__multf3+0x4e8>
    eeb0:	3e050ae3          	beq	x10,x0,faa4 <__multf3+0xee0>
    eeb4:	2e5020ef          	jal	x1,11998 <__clzsi2>
    eeb8:	ff450813          	addi	x16,x10,-12
    eebc:	02000313          	addi	x6,x0,32
    eec0:	010a9ab3          	sll	x21,x21,x16
    eec4:	41030333          	sub	x6,x6,x16
    eec8:	00000613          	addi	x12,x0,0
    eecc:	40c008b3          	sub	x17,x0,x12
    eed0:	00289893          	slli	x17,x17,0x2
    eed4:	03010693          	addi	x13,x2,48
    eed8:	01168733          	add	x14,x13,x17
    eedc:	00300593          	addi	x11,x0,3
    eee0:	411008b3          	sub	x17,x0,x17
    eee4:	00c72783          	lw	x15,12(x14)
    eee8:	00872e03          	lw	x28,8(x14)
    eeec:	fff58593          	addi	x11,x11,-1
    eef0:	010797b3          	sll	x15,x15,x16
    eef4:	006e5e33          	srl	x28,x28,x6
    eef8:	01c7e7b3          	or	x15,x15,x28
    eefc:	01170e33          	add	x28,x14,x17
    ef00:	00fe2623          	sw	x15,12(x28)
    ef04:	ffc70713          	addi	x14,x14,-4
    ef08:	fcb64ee3          	blt	x12,x11,eee4 <__multf3+0x320>
    ef0c:	00261793          	slli	x15,x12,0x2
    ef10:	00f687b3          	add	x15,x13,x15
    ef14:	0157a023          	sw	x21,0(x15)
    ef18:	fff60793          	addi	x15,x12,-1
    ef1c:	fff00713          	addi	x14,x0,-1
    ef20:	02e78a63          	beq	x15,x14,ef54 <__multf3+0x390>
    ef24:	00178793          	addi	x15,x15,1
    ef28:	00279793          	slli	x15,x15,0x2
    ef2c:	00800613          	addi	x12,x0,8
    ef30:	00068713          	addi	x14,x13,0
    ef34:	00c7ea63          	bltu	x15,x12,ef48 <__multf3+0x384>
    ef38:	02012823          	sw	x0,48(x2)
    ef3c:	0006a223          	sw	x0,4(x13)
    ef40:	ff878793          	addi	x15,x15,-8
    ef44:	03810713          	addi	x14,x2,56
    ef48:	00400693          	addi	x13,x0,4
    ef4c:	00d7e463          	bltu	x15,x13,ef54 <__multf3+0x390>
    ef50:	00072023          	sw	x0,0(x14)
    ef54:	ffffc7b7          	lui	x15,0xffffc
    ef58:	01178793          	addi	x15,x15,17 # ffffc011 <__heap_end+0xffbfc011>
    ef5c:	40a787b3          	sub	x15,x15,x10
    ef60:	009787b3          	add	x15,x15,x9
    ef64:	00178693          	addi	x13,x15,1
    ef68:	00a00713          	addi	x14,x0,10
    ef6c:	00d12423          	sw	x13,8(x2)
    ef70:	00000613          	addi	x12,x0,0
    ef74:	dd6758e3          	bge	x14,x22,ed44 <__multf3+0x180>
    ef78:	000a0813          	addi	x16,x20,0
    ef7c:	ecdff06f          	jal	x0,ee48 <__multf3+0x284>
    ef80:	00e4e6b3          	or	x13,x9,x14
    ef84:	0116e6b3          	or	x13,x13,x17
    ef88:	00f6e6b3          	or	x13,x13,x15
    ef8c:	10068863          	beq	x13,x0,f09c <__multf3+0x4d8>
    ef90:	360786e3          	beq	x15,x0,fafc <__multf3+0xf38>
    ef94:	00078513          	addi	x10,x15,0
    ef98:	201020ef          	jal	x1,11998 <__clzsi2>
    ef9c:	ff450e13          	addi	x28,x10,-12
    efa0:	02000893          	addi	x17,x0,32
    efa4:	01c494b3          	sll	x9,x9,x28
    efa8:	41c888b3          	sub	x17,x17,x28
    efac:	00000613          	addi	x12,x0,0
    efb0:	40c00833          	sub	x16,x0,x12
    efb4:	00281813          	slli	x16,x16,0x2
    efb8:	02010693          	addi	x13,x2,32
    efbc:	01068733          	add	x14,x13,x16
    efc0:	00300593          	addi	x11,x0,3
    efc4:	41000833          	sub	x16,x0,x16
    efc8:	00c72783          	lw	x15,12(x14)
    efcc:	00872303          	lw	x6,8(x14)
    efd0:	fff58593          	addi	x11,x11,-1
    efd4:	01c797b3          	sll	x15,x15,x28
    efd8:	01135333          	srl	x6,x6,x17
    efdc:	0067e7b3          	or	x15,x15,x6
    efe0:	01070333          	add	x6,x14,x16
    efe4:	00f32623          	sw	x15,12(x6)
    efe8:	ffc70713          	addi	x14,x14,-4
    efec:	fcb64ee3          	blt	x12,x11,efc8 <__multf3+0x404>
    eff0:	00261793          	slli	x15,x12,0x2
    eff4:	00f687b3          	add	x15,x13,x15
    eff8:	0097a023          	sw	x9,0(x15)
    effc:	fff60793          	addi	x15,x12,-1
    f000:	fff00713          	addi	x14,x0,-1
    f004:	02e78a63          	beq	x15,x14,f038 <__multf3+0x474>
    f008:	00178793          	addi	x15,x15,1
    f00c:	00279793          	slli	x15,x15,0x2
    f010:	00800613          	addi	x12,x0,8
    f014:	00068713          	addi	x14,x13,0
    f018:	00c7ea63          	bltu	x15,x12,f02c <__multf3+0x468>
    f01c:	02012023          	sw	x0,32(x2)
    f020:	0006a223          	sw	x0,4(x13)
    f024:	ff878793          	addi	x15,x15,-8
    f028:	02810713          	addi	x14,x2,40
    f02c:	00400693          	addi	x13,x0,4
    f030:	00d7e463          	bltu	x15,x13,f038 <__multf3+0x474>
    f034:	00072023          	sw	x0,0(x14)
    f038:	ffffc6b7          	lui	x13,0xffffc
    f03c:	01168693          	addi	x13,x13,17 # ffffc011 <__heap_end+0xffbfc011>
    f040:	40a684b3          	sub	x9,x13,x10
    f044:	00000b13          	addi	x22,x0,0
    f048:	00000c13          	addi	x24,x0,0
    f04c:	c59ff06f          	jal	x0,eca4 <__multf3+0xe0>
    f050:	000087b7          	lui	x15,0x8
    f054:	00080713          	addi	x14,x16,0
    f058:	fff78793          	addi	x15,x15,-1 # 7fff <__gdtoa+0xa6b>
    f05c:	00000693          	addi	x13,x0,0
    f060:	00000613          	addi	x12,x0,0
    f064:	00000593          	addi	x11,x0,0
    f068:	00000513          	addi	x10,x0,0
    f06c:	d21ff06f          	jal	x0,ed8c <__multf3+0x1c8>
    f070:	fffb0b13          	addi	x22,x22,-1
    f074:	00100693          	addi	x13,x0,1
    f078:	0566ee63          	bltu	x13,x22,f0d4 <__multf3+0x510>
    f07c:	03412583          	lw	x11,52(x2)
    f080:	03812683          	lw	x13,56(x2)
    f084:	03012703          	lw	x14,48(x2)
    f088:	03c12783          	lw	x15,60(x2)
    f08c:	04b12223          	sw	x11,68(x2)
    f090:	04d12423          	sw	x13,72(x2)
    f094:	04e12023          	sw	x14,64(x2)
    f098:	dd1ff06f          	jal	x0,ee68 <__multf3+0x2a4>
    f09c:	00400b13          	addi	x22,x0,4
    f0a0:	00000493          	addi	x9,x0,0
    f0a4:	00100c13          	addi	x24,x0,1
    f0a8:	bfdff06f          	jal	x0,eca4 <__multf3+0xe0>
    f0ac:	001b6b13          	ori	x22,x22,1
    f0b0:	00048793          	addi	x15,x9,0
    f0b4:	00100613          	addi	x12,x0,1
    f0b8:	c7dff06f          	jal	x0,ed34 <__multf3+0x170>
    f0bc:	00c00b13          	addi	x22,x0,12
    f0c0:	00300c13          	addi	x24,x0,3
    f0c4:	be1ff06f          	jal	x0,eca4 <__multf3+0xe0>
    f0c8:	002b6b13          	ori	x22,x22,2
    f0cc:	00200613          	addi	x12,x0,2
    f0d0:	c65ff06f          	jal	x0,ed34 <__multf3+0x170>
    f0d4:	02012683          	lw	x13,32(x2)
    f0d8:	03012f03          	lw	x30,48(x2)
    f0dc:	09912223          	sw	x25,132(x2)
    f0e0:	0106de93          	srli	x29,x13,0x10
    f0e4:	010f1f93          	slli	x31,x30,0x10
    f0e8:	01069693          	slli	x13,x13,0x10
    f0ec:	0106d693          	srli	x13,x13,0x10
    f0f0:	010fdf93          	srli	x31,x31,0x10
    f0f4:	010f5f13          	srli	x30,x30,0x10
    f0f8:	02df8633          	mul	x12,x31,x13
    f0fc:	09a12023          	sw	x26,128(x2)
    f100:	07b12e23          	sw	x27,124(x2)
    f104:	03fe8533          	mul	x10,x29,x31
    f108:	01065393          	srli	x7,x12,0x10
    f10c:	02df05b3          	mul	x11,x30,x13
    f110:	00a585b3          	add	x11,x11,x10
    f114:	00b383b3          	add	x7,x7,x11
    f118:	03ee88b3          	mul	x17,x29,x30
    f11c:	00a3f663          	bgeu	x7,x10,f128 <__multf3+0x564>
    f120:	000105b7          	lui	x11,0x10
    f124:	00b888b3          	add	x17,x17,x11
    f128:	03412903          	lw	x18,52(x2)
    f12c:	01061613          	slli	x12,x12,0x10
    f130:	01039593          	slli	x11,x7,0x10
    f134:	01065613          	srli	x12,x12,0x10
    f138:	01095a13          	srli	x20,x18,0x10
    f13c:	00c58633          	add	x12,x11,x12
    f140:	01091913          	slli	x18,x18,0x10
    f144:	00060593          	addi	x11,x12,0
    f148:	01095913          	srli	x18,x18,0x10
    f14c:	032e8533          	mul	x10,x29,x18
    f150:	00c12a23          	sw	x12,20(x2)
    f154:	04b12823          	sw	x11,80(x2)
    f158:	0103d393          	srli	x7,x7,0x10
    f15c:	02d90633          	mul	x12,x18,x13
    f160:	02da05b3          	mul	x11,x20,x13
    f164:	01065e13          	srli	x28,x12,0x10
    f168:	00a585b3          	add	x11,x11,x10
    f16c:	00be0e33          	add	x28,x28,x11
    f170:	034e8bb3          	mul	x23,x29,x20
    f174:	00ae7663          	bgeu	x28,x10,f180 <__multf3+0x5bc>
    f178:	000105b7          	lui	x11,0x10
    f17c:	00bb8bb3          	add	x23,x23,x11
    f180:	02412503          	lw	x10,36(x2)
    f184:	01061613          	slli	x12,x12,0x10
    f188:	01065613          	srli	x12,x12,0x10
    f18c:	01055a93          	srli	x21,x10,0x10
    f190:	01051513          	slli	x10,x10,0x10
    f194:	01055513          	srli	x10,x10,0x10
    f198:	03f505b3          	mul	x11,x10,x31
    f19c:	010e1293          	slli	x5,x28,0x10
    f1a0:	00c282b3          	add	x5,x5,x12
    f1a4:	005383b3          	add	x7,x7,x5
    f1a8:	010e5e13          	srli	x28,x28,0x10
    f1ac:	03fa8333          	mul	x6,x21,x31
    f1b0:	0105d613          	srli	x12,x11,0x10
    f1b4:	02af0833          	mul	x16,x30,x10
    f1b8:	00680833          	add	x16,x16,x6
    f1bc:	01060633          	add	x12,x12,x16
    f1c0:	035f0833          	mul	x16,x30,x21
    f1c4:	00667663          	bgeu	x12,x6,f1d0 <__multf3+0x60c>
    f1c8:	00010337          	lui	x6,0x10
    f1cc:	00680833          	add	x16,x16,x6
    f1d0:	01061b13          	slli	x22,x12,0x10
    f1d4:	01065613          	srli	x12,x12,0x10
    f1d8:	01060633          	add	x12,x12,x16
    f1dc:	01059593          	slli	x11,x11,0x10
    f1e0:	0105d593          	srli	x11,x11,0x10
    f1e4:	00bb0b33          	add	x22,x22,x11
    f1e8:	02a90833          	mul	x16,x18,x10
    f1ec:	032a84b3          	mul	x9,x21,x18
    f1f0:	01085593          	srli	x11,x16,0x10
    f1f4:	02aa0333          	mul	x6,x20,x10
    f1f8:	00930333          	add	x6,x6,x9
    f1fc:	006585b3          	add	x11,x11,x6
    f200:	035a0333          	mul	x6,x20,x21
    f204:	0095f663          	bgeu	x11,x9,f210 <__multf3+0x64c>
    f208:	000104b7          	lui	x9,0x10
    f20c:	00930333          	add	x6,x6,x9
    f210:	03812483          	lw	x9,56(x2)
    f214:	01059993          	slli	x19,x11,0x10
    f218:	01081813          	slli	x16,x16,0x10
    f21c:	0104dc13          	srli	x24,x9,0x10
    f220:	0105d593          	srli	x11,x11,0x10
    f224:	01049493          	slli	x9,x9,0x10
    f228:	006585b3          	add	x11,x11,x6
    f22c:	01085813          	srli	x16,x16,0x10
    f230:	0104d493          	srli	x9,x9,0x10
    f234:	02d48cb3          	mul	x25,x9,x13
    f238:	01098db3          	add	x27,x19,x16
    f23c:	00b12c23          	sw	x11,24(x2)
    f240:	01812623          	sw	x24,12(x2)
    f244:	029e85b3          	mul	x11,x29,x9
    f248:	010cd313          	srli	x6,x25,0x10
    f24c:	02dc0833          	mul	x16,x24,x13
    f250:	00b80833          	add	x16,x16,x11
    f254:	01030333          	add	x6,x6,x16
    f258:	038e8d33          	mul	x26,x29,x24
    f25c:	00b37663          	bgeu	x6,x11,f268 <__multf3+0x6a4>
    f260:	000105b7          	lui	x11,0x10
    f264:	00bd0d33          	add	x26,x26,x11
    f268:	02812803          	lw	x16,40(x2)
    f26c:	010c9c93          	slli	x25,x25,0x10
    f270:	010cdc93          	srli	x25,x25,0x10
    f274:	01085993          	srli	x19,x16,0x10
    f278:	01081813          	slli	x16,x16,0x10
    f27c:	01031593          	slli	x11,x6,0x10
    f280:	01085813          	srli	x16,x16,0x10
    f284:	01035313          	srli	x6,x6,0x10
    f288:	01a30333          	add	x6,x6,x26
    f28c:	03f80c33          	mul	x24,x16,x31
    f290:	019585b3          	add	x11,x11,x25
    f294:	00612e23          	sw	x6,28(x2)
    f298:	03f98cb3          	mul	x25,x19,x31
    f29c:	010c5313          	srli	x6,x24,0x10
    f2a0:	030f0d33          	mul	x26,x30,x16
    f2a4:	019d0d33          	add	x26,x26,x25
    f2a8:	01a30333          	add	x6,x6,x26
    f2ac:	033f0d33          	mul	x26,x30,x19
    f2b0:	01937663          	bgeu	x6,x25,f2bc <__multf3+0x6f8>
    f2b4:	00010cb7          	lui	x25,0x10
    f2b8:	019d0d33          	add	x26,x26,x25
    f2bc:	007888b3          	add	x17,x17,x7
    f2c0:	0058b2b3          	sltu	x5,x17,x5
    f2c4:	005e0e33          	add	x28,x28,x5
    f2c8:	017e0e33          	add	x28,x28,x23
    f2cc:	01688b33          	add	x22,x17,x22
    f2d0:	03c12383          	lw	x7,60(x2)
    f2d4:	00ce0633          	add	x12,x28,x12
    f2d8:	011b38b3          	sltu	x17,x22,x17
    f2dc:	011608b3          	add	x17,x12,x17
    f2e0:	005e32b3          	sltu	x5,x28,x5
    f2e4:	01612823          	sw	x22,16(x2)
    f2e8:	01c63e33          	sltu	x28,x12,x28
    f2ec:	0103db13          	srli	x22,x7,0x10
    f2f0:	00c8b633          	sltu	x12,x17,x12
    f2f4:	01039393          	slli	x7,x7,0x10
    f2f8:	0103d393          	srli	x7,x7,0x10
    f2fc:	00ce6633          	or	x12,x28,x12
    f300:	01b88e33          	add	x28,x17,x27
    f304:	01031d93          	slli	x27,x6,0x10
    f308:	01035313          	srli	x6,x6,0x10
    f30c:	02d38cb3          	mul	x25,x7,x13
    f310:	01a30333          	add	x6,x6,x26
    f314:	00560633          	add	x12,x12,x5
    f318:	01812283          	lw	x5,24(x2)
    f31c:	01c12b83          	lw	x23,28(x2)
    f320:	011e38b3          	sltu	x17,x28,x17
    f324:	005602b3          	add	x5,x12,x5
    f328:	010c1c13          	slli	x24,x24,0x10
    f32c:	00be05b3          	add	x11,x28,x11
    f330:	011288b3          	add	x17,x5,x17
    f334:	02db06b3          	mul	x13,x22,x13
    f338:	010c5c13          	srli	x24,x24,0x10
    f33c:	01788bb3          	add	x23,x17,x23
    f340:	01c5be33          	sltu	x28,x11,x28
    f344:	018d8c33          	add	x24,x27,x24
    f348:	01858db3          	add	x27,x11,x24
    f34c:	01cb8e33          	add	x28,x23,x28
    f350:	00c2b633          	sltu	x12,x5,x12
    f354:	0058b2b3          	sltu	x5,x17,x5
    f358:	006e0333          	add	x6,x28,x6
    f35c:	027e8d33          	mul	x26,x29,x7
    f360:	00bdb5b3          	sltu	x11,x27,x11
    f364:	005662b3          	or	x5,x12,x5
    f368:	01012603          	lw	x12,16(x2)
    f36c:	011bb8b3          	sltu	x17,x23,x17
    f370:	00b30c33          	add	x24,x6,x11
    f374:	017e3bb3          	sltu	x23,x28,x23
    f378:	0178ebb3          	or	x23,x17,x23
    f37c:	01c33e33          	sltu	x28,x6,x28
    f380:	006c3333          	sltu	x6,x24,x6
    f384:	01a685b3          	add	x11,x13,x26
    f388:	010cd693          	srli	x13,x25,0x10
    f38c:	01b12e23          	sw	x27,28(x2)
    f390:	017282b3          	add	x5,x5,x23
    f394:	006e6e33          	or	x28,x28,x6
    f398:	05b12c23          	sw	x27,88(x2)
    f39c:	00b685b3          	add	x11,x13,x11
    f3a0:	04c12a23          	sw	x12,84(x2)
    f3a4:	036e86b3          	mul	x13,x29,x22
    f3a8:	005e0db3          	add	x27,x28,x5
    f3ac:	01a5f663          	bgeu	x11,x26,f3b8 <__multf3+0x7f4>
    f3b0:	00010637          	lui	x12,0x10
    f3b4:	00c686b3          	add	x13,x13,x12
    f3b8:	02c12e83          	lw	x29,44(x2)
    f3bc:	01059893          	slli	x17,x11,0x10
    f3c0:	0105d593          	srli	x11,x11,0x10
    f3c4:	010edb93          	srli	x23,x29,0x10
    f3c8:	010e9e93          	slli	x29,x29,0x10
    f3cc:	010ede93          	srli	x29,x29,0x10
    f3d0:	03fe8633          	mul	x12,x29,x31
    f3d4:	00d585b3          	add	x11,x11,x13
    f3d8:	010c9c93          	slli	x25,x25,0x10
    f3dc:	010cdc93          	srli	x25,x25,0x10
    f3e0:	019888b3          	add	x17,x17,x25
    f3e4:	03df06b3          	mul	x13,x30,x29
    f3e8:	01065313          	srli	x6,x12,0x10
    f3ec:	03fb8fb3          	mul	x31,x23,x31
    f3f0:	01f686b3          	add	x13,x13,x31
    f3f4:	00d30333          	add	x6,x6,x13
    f3f8:	037f0f33          	mul	x30,x30,x23
    f3fc:	01f37663          	bgeu	x6,x31,f408 <__multf3+0x844>
    f400:	000106b7          	lui	x13,0x10
    f404:	00df0f33          	add	x30,x30,x13
    f408:	00c12f83          	lw	x31,12(x2)
    f40c:	01061613          	slli	x12,x12,0x10
    f410:	01065613          	srli	x12,x12,0x10
    f414:	01031693          	slli	x13,x6,0x10
    f418:	01035313          	srli	x6,x6,0x10
    f41c:	00c686b3          	add	x13,x13,x12
    f420:	01e30633          	add	x12,x6,x30
    f424:	00c12c23          	sw	x12,24(x2)
    f428:	02950333          	mul	x6,x10,x9
    f42c:	029a8633          	mul	x12,x21,x9
    f430:	01035e13          	srli	x28,x6,0x10
    f434:	02af8f33          	mul	x30,x31,x10
    f438:	00cf0f33          	add	x30,x30,x12
    f43c:	01ee0e33          	add	x28,x28,x30
    f440:	03fa8f33          	mul	x30,x21,x31
    f444:	00ce7663          	bgeu	x28,x12,f450 <__multf3+0x88c>
    f448:	00010637          	lui	x12,0x10
    f44c:	00cf0f33          	add	x30,x30,x12
    f450:	01031313          	slli	x6,x6,0x10
    f454:	01035313          	srli	x6,x6,0x10
    f458:	010e1613          	slli	x12,x28,0x10
    f45c:	00660633          	add	x12,x12,x6
    f460:	010e5e13          	srli	x28,x28,0x10
    f464:	01ee0e33          	add	x28,x28,x30
    f468:	03090d33          	mul	x26,x18,x16
    f46c:	03298fb3          	mul	x31,x19,x18
    f470:	010d5f13          	srli	x30,x26,0x10
    f474:	030a0333          	mul	x6,x20,x16
    f478:	01f30333          	add	x6,x6,x31
    f47c:	006f0f33          	add	x30,x30,x6
    f480:	033a0333          	mul	x6,x20,x19
    f484:	01ff7663          	bgeu	x30,x31,f490 <__multf3+0x8cc>
    f488:	00010fb7          	lui	x31,0x10
    f48c:	01f30333          	add	x6,x6,x31
    f490:	011c0fb3          	add	x31,x24,x17
    f494:	01812883          	lw	x17,24(x2)
    f498:	018fb2b3          	sltu	x5,x31,x24
    f49c:	00bd85b3          	add	x11,x27,x11
    f4a0:	005582b3          	add	x5,x11,x5
    f4a4:	01128c33          	add	x24,x5,x17
    f4a8:	010f1893          	slli	x17,x30,0x10
    f4ac:	010f5f13          	srli	x30,x30,0x10
    f4b0:	006f0f33          	add	x30,x30,x6
    f4b4:	00c12303          	lw	x6,12(x2)
    f4b8:	010d1d13          	slli	x26,x26,0x10
    f4bc:	010d5d13          	srli	x26,x26,0x10
    f4c0:	00df86b3          	add	x13,x31,x13
    f4c4:	01a888b3          	add	x17,x17,x26
    f4c8:	03048cb3          	mul	x25,x9,x16
    f4cc:	01f6bfb3          	sltu	x31,x13,x31
    f4d0:	01fc0fb3          	add	x31,x24,x31
    f4d4:	00c68633          	add	x12,x13,x12
    f4d8:	01cf8e33          	add	x28,x31,x28
    f4dc:	00d636b3          	sltu	x13,x12,x13
    f4e0:	00de06b3          	add	x13,x28,x13
    f4e4:	011608b3          	add	x17,x12,x17
    f4e8:	01e68f33          	add	x30,x13,x30
    f4ec:	01b5bdb3          	sltu	x27,x11,x27
    f4f0:	02998d33          	mul	x26,x19,x9
    f4f4:	00b2b5b3          	sltu	x11,x5,x11
    f4f8:	00c8b633          	sltu	x12,x17,x12
    f4fc:	005c32b3          	sltu	x5,x24,x5
    f500:	018fbc33          	sltu	x24,x31,x24
    f504:	0182ec33          	or	x24,x5,x24
    f508:	01fe3fb3          	sltu	x31,x28,x31
    f50c:	00bde5b3          	or	x11,x27,x11
    f510:	01c6be33          	sltu	x28,x13,x28
    f514:	00cf0633          	add	x12,x30,x12
    f518:	03030333          	mul	x6,x6,x16
    f51c:	01cfee33          	or	x28,x31,x28
    f520:	00df36b3          	sltu	x13,x30,x13
    f524:	018585b3          	add	x11,x11,x24
    f528:	01e63f33          	sltu	x30,x12,x30
    f52c:	00be05b3          	add	x11,x28,x11
    f530:	01e6e6b3          	or	x13,x13,x30
    f534:	00b686b3          	add	x13,x13,x11
    f538:	00c12583          	lw	x11,12(x2)
    f53c:	010cdf93          	srli	x31,x25,0x10
    f540:	01a30333          	add	x6,x6,x26
    f544:	05112e23          	sw	x17,92(x2)
    f548:	006f8333          	add	x6,x31,x6
    f54c:	033585b3          	mul	x11,x11,x19
    f550:	00088f13          	addi	x30,x17,0
    f554:	01a37663          	bgeu	x6,x26,f560 <__multf3+0x99c>
    f558:	00010e37          	lui	x28,0x10
    f55c:	01c585b3          	add	x11,x11,x28
    f560:	01031e13          	slli	x28,x6,0x10
    f564:	01035313          	srli	x6,x6,0x10
    f568:	00b30333          	add	x6,x6,x11
    f56c:	010c9c93          	slli	x25,x25,0x10
    f570:	010cdc93          	srli	x25,x25,0x10
    f574:	02a385b3          	mul	x11,x7,x10
    f578:	019e0e33          	add	x28,x28,x25
    f57c:	027a8fb3          	mul	x31,x21,x7
    f580:	0105d293          	srli	x5,x11,0x10
    f584:	02ab0533          	mul	x10,x22,x10
    f588:	01f50533          	add	x10,x10,x31
    f58c:	00a28533          	add	x10,x5,x10
    f590:	036a8ab3          	mul	x21,x21,x22
    f594:	01f57663          	bgeu	x10,x31,f5a0 <__multf3+0x9dc>
    f598:	00010fb7          	lui	x31,0x10
    f59c:	01fa8ab3          	add	x21,x21,x31
    f5a0:	01059593          	slli	x11,x11,0x10
    f5a4:	0105d593          	srli	x11,x11,0x10
    f5a8:	01051f93          	slli	x31,x10,0x10
    f5ac:	01055513          	srli	x10,x10,0x10
    f5b0:	00bf8fb3          	add	x31,x31,x11
    f5b4:	01550533          	add	x10,x10,x21
    f5b8:	032e85b3          	mul	x11,x29,x18
    f5bc:	03da0ab3          	mul	x21,x20,x29
    f5c0:	0105d293          	srli	x5,x11,0x10
    f5c4:	032b8933          	mul	x18,x23,x18
    f5c8:	012a8ab3          	add	x21,x21,x18
    f5cc:	015282b3          	add	x5,x5,x21
    f5d0:	037a0a33          	mul	x20,x20,x23
    f5d4:	0122f663          	bgeu	x5,x18,f5e0 <__multf3+0xa1c>
    f5d8:	00010937          	lui	x18,0x10
    f5dc:	012a0a33          	add	x20,x20,x18
    f5e0:	01059593          	slli	x11,x11,0x10
    f5e4:	0105d593          	srli	x11,x11,0x10
    f5e8:	01029913          	slli	x18,x5,0x10
    f5ec:	0102d293          	srli	x5,x5,0x10
    f5f0:	00b90933          	add	x18,x18,x11
    f5f4:	014282b3          	add	x5,x5,x20
    f5f8:	030385b3          	mul	x11,x7,x16
    f5fc:	02798a33          	mul	x20,x19,x7
    f600:	0105da93          	srli	x21,x11,0x10
    f604:	030b0833          	mul	x16,x22,x16
    f608:	01480833          	add	x16,x16,x20
    f60c:	010a8833          	add	x16,x21,x16
    f610:	036989b3          	mul	x19,x19,x22
    f614:	01487663          	bgeu	x16,x20,f620 <__multf3+0xa5c>
    f618:	00010a37          	lui	x20,0x10
    f61c:	014989b3          	add	x19,x19,x20
    f620:	00c12c03          	lw	x24,12(x2)
    f624:	01059593          	slli	x11,x11,0x10
    f628:	01081a13          	slli	x20,x16,0x10
    f62c:	0105d593          	srli	x11,x11,0x10
    f630:	01085813          	srli	x16,x16,0x10
    f634:	00ba05b3          	add	x11,x20,x11
    f638:	01380833          	add	x16,x16,x19
    f63c:	029e8a33          	mul	x20,x29,x9
    f640:	03dc09b3          	mul	x19,x24,x29
    f644:	010a5a93          	srli	x21,x20,0x10
    f648:	029b84b3          	mul	x9,x23,x9
    f64c:	009989b3          	add	x19,x19,x9
    f650:	013a89b3          	add	x19,x21,x19
    f654:	037c0ab3          	mul	x21,x24,x23
    f658:	0099f663          	bgeu	x19,x9,f664 <__multf3+0xaa0>
    f65c:	000104b7          	lui	x9,0x10
    f660:	009a8ab3          	add	x21,x21,x9
    f664:	01c60e33          	add	x28,x12,x28
    f668:	00668333          	add	x6,x13,x6
    f66c:	00ce3633          	sltu	x12,x28,x12
    f670:	01fe0fb3          	add	x31,x28,x31
    f674:	00c30633          	add	x12,x6,x12
    f678:	00a60533          	add	x10,x12,x10
    f67c:	03d384b3          	mul	x9,x7,x29
    f680:	01cfbe33          	sltu	x28,x31,x28
    f684:	01c50e33          	add	x28,x10,x28
    f688:	012f8933          	add	x18,x31,x18
    f68c:	005e02b3          	add	x5,x28,x5
    f690:	01f93fb3          	sltu	x31,x18,x31
    f694:	01f28fb3          	add	x31,x5,x31
    f698:	00d336b3          	sltu	x13,x6,x13
    f69c:	00663333          	sltu	x6,x12,x6
    f6a0:	00c53633          	sltu	x12,x10,x12
    f6a4:	027b83b3          	mul	x7,x23,x7
    f6a8:	00ae3533          	sltu	x10,x28,x10
    f6ac:	00a66633          	or	x12,x12,x10
    f6b0:	01c2be33          	sltu	x28,x5,x28
    f6b4:	0066e6b3          	or	x13,x13,x6
    f6b8:	005fb2b3          	sltu	x5,x31,x5
    f6bc:	00c686b3          	add	x13,x13,x12
    f6c0:	005e6e33          	or	x28,x28,x5
    f6c4:	010a1a13          	slli	x20,x20,0x10
    f6c8:	00bf85b3          	add	x11,x31,x11
    f6cc:	03db0eb3          	mul	x29,x22,x29
    f6d0:	00de0533          	add	x10,x28,x13
    f6d4:	01099313          	slli	x6,x19,0x10
    f6d8:	010a5a13          	srli	x20,x20,0x10
    f6dc:	01050833          	add	x16,x10,x16
    f6e0:	01f5b6b3          	sltu	x13,x11,x31
    f6e4:	01430333          	add	x6,x6,x20
    f6e8:	0109d993          	srli	x19,x19,0x10
    f6ec:	00d806b3          	add	x13,x16,x13
    f6f0:	00658333          	add	x6,x11,x6
    f6f4:	015989b3          	add	x19,x19,x21
    f6f8:	013689b3          	add	x19,x13,x19
    f6fc:	00b335b3          	sltu	x11,x6,x11
    f700:	00b985b3          	add	x11,x19,x11
    f704:	007e8eb3          	add	x29,x29,x7
    f708:	0104d613          	srli	x12,x9,0x10
    f70c:	00a83533          	sltu	x10,x16,x10
    f710:	07212023          	sw	x18,96(x2)
    f714:	0106b833          	sltu	x16,x13,x16
    f718:	06612223          	sw	x6,100(x2)
    f71c:	00d9b6b3          	sltu	x13,x19,x13
    f720:	01d60633          	add	x12,x12,x29
    f724:	0135b9b3          	sltu	x19,x11,x19
    f728:	037b0bb3          	mul	x23,x22,x23
    f72c:	01056833          	or	x16,x10,x16
    f730:	0136e6b3          	or	x13,x13,x19
    f734:	00767663          	bgeu	x12,x7,f740 <__multf3+0xb7c>
    f738:	00010537          	lui	x10,0x10
    f73c:	00ab8bb3          	add	x23,x23,x10
    f740:	01049493          	slli	x9,x9,0x10
    f744:	01061513          	slli	x10,x12,0x10
    f748:	0104d493          	srli	x9,x9,0x10
    f74c:	00950533          	add	x10,x10,x9
    f750:	01065613          	srli	x12,x12,0x10
    f754:	00a58533          	add	x10,x11,x10
    f758:	01060633          	add	x12,x12,x16
    f75c:	00c686b3          	add	x13,x13,x12
    f760:	00b535b3          	sltu	x11,x10,x11
    f764:	01412603          	lw	x12,20(x2)
    f768:	01012803          	lw	x16,16(x2)
    f76c:	00d585b3          	add	x11,x11,x13
    f770:	01c12683          	lw	x13,28(x2)
    f774:	01066633          	or	x12,x12,x16
    f778:	00d89893          	slli	x17,x17,0xd
    f77c:	00c6e6b3          	or	x13,x13,x12
    f780:	017585b3          	add	x11,x11,x23
    f784:	00d8e8b3          	or	x17,x17,x13
    f788:	06a12423          	sw	x10,104(x2)
    f78c:	06b12623          	sw	x11,108(x2)
    f790:	05010693          	addi	x13,x2,80
    f794:	06010513          	addi	x10,x2,96
    f798:	013f5593          	srli	x11,x30,0x13
    f79c:	0106af03          	lw	x30,16(x13) # 10010 <__subtf3+0x308>
    f7a0:	00468693          	addi	x13,x13,4
    f7a4:	00df1613          	slli	x12,x30,0xd
    f7a8:	00b66633          	or	x12,x12,x11
    f7ac:	fec6ae23          	sw	x12,-4(x13)
    f7b0:	fed514e3          	bne	x10,x13,f798 <__multf3+0xbd4>
    f7b4:	05012803          	lw	x16,80(x2)
    f7b8:	05c12583          	lw	x11,92(x2)
    f7bc:	05412603          	lw	x12,84(x2)
    f7c0:	05812503          	lw	x10,88(x2)
    f7c4:	011036b3          	sltu	x13,x0,x17
    f7c8:	0106e6b3          	or	x13,x13,x16
    f7cc:	04c12223          	sw	x12,68(x2)
    f7d0:	04d12023          	sw	x13,64(x2)
    f7d4:	04b12623          	sw	x11,76(x2)
    f7d8:	04a12423          	sw	x10,72(x2)
    f7dc:	00b59613          	slli	x12,x11,0xb
    f7e0:	36065a63          	bge	x12,x0,fb54 <__multf3+0xf90>
    f7e4:	01f69513          	slli	x10,x13,0x1f
    f7e8:	04010793          	addi	x15,x2,64
    f7ec:	04c10813          	addi	x16,x2,76
    f7f0:	0016d893          	srli	x17,x13,0x1
    f7f4:	0047a683          	lw	x13,4(x15)
    f7f8:	00478793          	addi	x15,x15,4
    f7fc:	01f69613          	slli	x12,x13,0x1f
    f800:	01166633          	or	x12,x12,x17
    f804:	fec7ae23          	sw	x12,-4(x15)
    f808:	ff0794e3          	bne	x15,x16,f7f0 <__multf3+0xc2c>
    f80c:	04012683          	lw	x13,64(x2)
    f810:	01f55793          	srli	x15,x10,0x1f
    f814:	0015d593          	srli	x11,x11,0x1
    f818:	00f6e6b3          	or	x13,x13,x15
    f81c:	08412c83          	lw	x25,132(x2)
    f820:	00812783          	lw	x15,8(x2)
    f824:	08012d03          	lw	x26,128(x2)
    f828:	07c12d83          	lw	x27,124(x2)
    f82c:	04b12623          	sw	x11,76(x2)
    f830:	04d12023          	sw	x13,64(x2)
    f834:	0080006f          	jal	x0,f83c <__multf3+0xc78>
    f838:	00812783          	lw	x15,8(x2)
    f83c:	00004637          	lui	x12,0x4
    f840:	fff60613          	addi	x12,x12,-1 # 3fff <_vfprintf_r+0x11eb>
    f844:	00c78633          	add	x12,x15,x12
    f848:	10c05463          	bge	x0,x12,f950 <__multf3+0xd8c>
    f84c:	04012583          	lw	x11,64(x2)
    f850:	04c12683          	lw	x13,76(x2)
    f854:	0075f513          	andi	x10,x11,7
    f858:	04050263          	beq	x10,x0,f89c <__multf3+0xcd8>
    f85c:	00f5f513          	andi	x10,x11,15
    f860:	00400813          	addi	x16,x0,4
    f864:	03050c63          	beq	x10,x16,f89c <__multf3+0xcd8>
    f868:	04412803          	lw	x16,68(x2)
    f86c:	00458593          	addi	x11,x11,4 # 10004 <__subtf3+0x2fc>
    f870:	04812883          	lw	x17,72(x2)
    f874:	0045b513          	sltiu	x10,x11,4
    f878:	01050833          	add	x16,x10,x16
    f87c:	00a83533          	sltu	x10,x16,x10
    f880:	00a88533          	add	x10,x17,x10
    f884:	011538b3          	sltu	x17,x10,x17
    f888:	011686b3          	add	x13,x13,x17
    f88c:	04b12023          	sw	x11,64(x2)
    f890:	05012223          	sw	x16,68(x2)
    f894:	04d12623          	sw	x13,76(x2)
    f898:	04a12423          	sw	x10,72(x2)
    f89c:	00b69593          	slli	x11,x13,0xb
    f8a0:	0005de63          	bge	x11,x0,f8bc <__multf3+0xcf8>
    f8a4:	fff00637          	lui	x12,0xfff00
    f8a8:	fff60613          	addi	x12,x12,-1 # ffefffff <__heap_end+0xffafffff>
    f8ac:	00c6f6b3          	and	x13,x13,x12
    f8b0:	00004637          	lui	x12,0x4
    f8b4:	04d12623          	sw	x13,76(x2)
    f8b8:	00c78633          	add	x12,x15,x12
    f8bc:	04012503          	lw	x10,64(x2)
    f8c0:	04010793          	addi	x15,x2,64
    f8c4:	04c10893          	addi	x17,x2,76
    f8c8:	00355813          	srli	x16,x10,0x3
    f8cc:	0047a503          	lw	x10,4(x15)
    f8d0:	00478793          	addi	x15,x15,4
    f8d4:	01d51593          	slli	x11,x10,0x1d
    f8d8:	0105e5b3          	or	x11,x11,x16
    f8dc:	feb7ae23          	sw	x11,-4(x15)
    f8e0:	ff1794e3          	bne	x15,x17,f8c8 <__multf3+0xd04>
    f8e4:	000085b7          	lui	x11,0x8
    f8e8:	000087b7          	lui	x15,0x8
    f8ec:	ffe58593          	addi	x11,x11,-2 # 7ffe <__gdtoa+0xa6a>
    f8f0:	fff78793          	addi	x15,x15,-1 # 7fff <__gdtoa+0xa6b>
    f8f4:	d8c5cc63          	blt	x11,x12,ee8c <__multf3+0x2c8>
    f8f8:	00f677b3          	and	x15,x12,x15
    f8fc:	0036d693          	srli	x13,x13,0x3
    f900:	01079793          	slli	x15,x15,0x10
    f904:	01069693          	slli	x13,x13,0x10
    f908:	04012503          	lw	x10,64(x2)
    f90c:	04412583          	lw	x11,68(x2)
    f910:	04812603          	lw	x12,72(x2)
    f914:	0107d793          	srli	x15,x15,0x10
    f918:	0106d693          	srli	x13,x13,0x10
    f91c:	c70ff06f          	jal	x0,ed8c <__multf3+0x1c8>
    f920:	00f00793          	addi	x15,x0,15
    f924:	00300613          	addi	x12,x0,3
    f928:	c4fb0663          	beq	x22,x15,ed74 <__multf3+0x1b0>
    f92c:	03412583          	lw	x11,52(x2)
    f930:	03812683          	lw	x13,56(x2)
    f934:	03012703          	lw	x14,48(x2)
    f938:	03c12783          	lw	x15,60(x2)
    f93c:	00090813          	addi	x16,x18,0 # 10000 <__subtf3+0x2f8>
    f940:	04b12223          	sw	x11,68(x2)
    f944:	04d12423          	sw	x13,72(x2)
    f948:	04e12023          	sw	x14,64(x2)
    f94c:	d1cff06f          	jal	x0,ee68 <__multf3+0x2a4>
    f950:	20061a63          	bne	x12,x0,fb64 <__multf3+0xfa0>
    f954:	04012783          	lw	x15,64(x2)
    f958:	04c12303          	lw	x6,76(x2)
    f95c:	00300693          	addi	x13,x0,3
    f960:	01f79793          	slli	x15,x15,0x1f
    f964:	00135313          	srli	x6,x6,0x1
    f968:	01f00e13          	addi	x28,x0,31
    f96c:	00100513          	addi	x10,x0,1
    f970:	04010593          	addi	x11,x2,64
    f974:	00261613          	slli	x12,x12,0x2
    f978:	00269f13          	slli	x30,x13,0x2
    f97c:	00c58833          	add	x16,x11,x12
    f980:	01e58eb3          	add	x29,x11,x30
    f984:	00058893          	addi	x17,x11,0
    f988:	00082603          	lw	x12,0(x16)
    f98c:	00482f83          	lw	x31,4(x16)
    f990:	00488893          	addi	x17,x17,4
    f994:	00a65633          	srl	x12,x12,x10
    f998:	01cf9fb3          	sll	x31,x31,x28
    f99c:	01f66633          	or	x12,x12,x31
    f9a0:	fec8ae23          	sw	x12,-4(x17)
    f9a4:	00480813          	addi	x16,x16,4
    f9a8:	ffd890e3          	bne	x17,x29,f988 <__multf3+0xdc4>
    f9ac:	00bf0f33          	add	x30,x30,x11
    f9b0:	006f2023          	sw	x6,0(x30)
    f9b4:	00168693          	addi	x13,x13,1
    f9b8:	00400613          	addi	x12,x0,4
    f9bc:	04012303          	lw	x6,64(x2)
    f9c0:	02c68e63          	beq	x13,x12,f9fc <__multf3+0xe38>
    f9c4:	00400613          	addi	x12,x0,4
    f9c8:	40d60633          	sub	x12,x12,x13
    f9cc:	00261613          	slli	x12,x12,0x2
    f9d0:	00269693          	slli	x13,x13,0x2
    f9d4:	00800513          	addi	x10,x0,8
    f9d8:	00d586b3          	add	x13,x11,x13
    f9dc:	00a66a63          	bltu	x12,x10,f9f0 <__multf3+0xe2c>
    f9e0:	0006a023          	sw	x0,0(x13)
    f9e4:	0006a223          	sw	x0,4(x13)
    f9e8:	ff860613          	addi	x12,x12,-8 # 3ff8 <_vfprintf_r+0x11e4>
    f9ec:	00a686b3          	add	x13,x13,x10
    f9f0:	00400513          	addi	x10,x0,4
    f9f4:	00a66463          	bltu	x12,x10,f9fc <__multf3+0xe38>
    f9f8:	0006a023          	sw	x0,0(x13)
    f9fc:	00f037b3          	sltu	x15,x0,x15
    fa00:	0067e7b3          	or	x15,x15,x6
    fa04:	04f12023          	sw	x15,64(x2)
    fa08:	0077f613          	andi	x12,x15,7
    fa0c:	04c12683          	lw	x13,76(x2)
    fa10:	04060263          	beq	x12,x0,fa54 <__multf3+0xe90>
    fa14:	00f7f613          	andi	x12,x15,15
    fa18:	00400513          	addi	x10,x0,4
    fa1c:	02a60c63          	beq	x12,x10,fa54 <__multf3+0xe90>
    fa20:	04412603          	lw	x12,68(x2)
    fa24:	00a787b3          	add	x15,x15,x10
    fa28:	04812803          	lw	x16,72(x2)
    fa2c:	0047b513          	sltiu	x10,x15,4
    fa30:	00a60533          	add	x10,x12,x10
    fa34:	00c53633          	sltu	x12,x10,x12
    fa38:	00c80633          	add	x12,x16,x12
    fa3c:	01063833          	sltu	x16,x12,x16
    fa40:	010686b3          	add	x13,x13,x16
    fa44:	04f12023          	sw	x15,64(x2)
    fa48:	04a12223          	sw	x10,68(x2)
    fa4c:	04d12623          	sw	x13,76(x2)
    fa50:	04c12423          	sw	x12,72(x2)
    fa54:	00c69793          	slli	x15,x13,0xc
    fa58:	1a07c863          	blt	x15,x0,fc08 <__multf3+0x1044>
    fa5c:	04012503          	lw	x10,64(x2)
    fa60:	00058793          	addi	x15,x11,0
    fa64:	04c10813          	addi	x16,x2,76
    fa68:	00355593          	srli	x11,x10,0x3
    fa6c:	0047a503          	lw	x10,4(x15)
    fa70:	00478793          	addi	x15,x15,4
    fa74:	01d51613          	slli	x12,x10,0x1d
    fa78:	00b66633          	or	x12,x12,x11
    fa7c:	fec7ae23          	sw	x12,-4(x15)
    fa80:	ff0794e3          	bne	x15,x16,fa68 <__multf3+0xea4>
    fa84:	0036d693          	srli	x13,x13,0x3
    fa88:	01069693          	slli	x13,x13,0x10
    fa8c:	04012503          	lw	x10,64(x2)
    fa90:	04412583          	lw	x11,68(x2)
    fa94:	04812603          	lw	x12,72(x2)
    fa98:	0106d693          	srli	x13,x13,0x10
    fa9c:	00000793          	addi	x15,x0,0
    faa0:	aecff06f          	jal	x0,ed8c <__multf3+0x1c8>
    faa4:	140b9a63          	bne	x23,x0,fbf8 <__multf3+0x1034>
    faa8:	1a098663          	beq	x19,x0,fc54 <__multf3+0x1090>
    faac:	00098513          	addi	x10,x19,0
    fab0:	6e9010ef          	jal	x1,11998 <__clzsi2>
    fab4:	04050513          	addi	x10,x10,64 # 10040 <__subtf3+0x338>
    fab8:	ff450613          	addi	x12,x10,-12
    fabc:	01f67813          	andi	x16,x12,31
    fac0:	40565613          	srai	x12,x12,0x5
    fac4:	1a081c63          	bne	x16,x0,fc7c <__multf3+0x10b8>
    fac8:	40c00733          	sub	x14,x0,x12
    facc:	00271713          	slli	x14,x14,0x2
    fad0:	00c70793          	addi	x15,x14,12
    fad4:	03010693          	addi	x13,x2,48
    fad8:	40e00733          	sub	x14,x0,x14
    fadc:	00f687b3          	add	x15,x13,x15
    fae0:	0007a883          	lw	x17,0(x15)
    fae4:	00e78833          	add	x16,x15,x14
    fae8:	00078593          	addi	x11,x15,0
    faec:	01182023          	sw	x17,0(x16)
    faf0:	ffc78793          	addi	x15,x15,-4
    faf4:	feb696e3          	bne	x13,x11,fae0 <__multf3+0xf1c>
    faf8:	c20ff06f          	jal	x0,ef18 <__multf3+0x354>
    fafc:	0e089663          	bne	x17,x0,fbe8 <__multf3+0x1024>
    fb00:	12070063          	beq	x14,x0,fc20 <__multf3+0x105c>
    fb04:	00070513          	addi	x10,x14,0
    fb08:	691010ef          	jal	x1,11998 <__clzsi2>
    fb0c:	04050513          	addi	x10,x10,64
    fb10:	ff450613          	addi	x12,x10,-12
    fb14:	01f67e13          	andi	x28,x12,31
    fb18:	40565613          	srai	x12,x12,0x5
    fb1c:	1a0e1463          	bne	x28,x0,fcc4 <__multf3+0x1100>
    fb20:	40c00733          	sub	x14,x0,x12
    fb24:	00271713          	slli	x14,x14,0x2
    fb28:	00c70793          	addi	x15,x14,12
    fb2c:	02010693          	addi	x13,x2,32
    fb30:	40e00733          	sub	x14,x0,x14
    fb34:	00f687b3          	add	x15,x13,x15
    fb38:	0007a883          	lw	x17,0(x15)
    fb3c:	00e78833          	add	x16,x15,x14
    fb40:	00078593          	addi	x11,x15,0
    fb44:	01182023          	sw	x17,0(x16)
    fb48:	ffc78793          	addi	x15,x15,-4
    fb4c:	feb696e3          	bne	x13,x11,fb38 <__multf3+0xf74>
    fb50:	cacff06f          	jal	x0,effc <__multf3+0x438>
    fb54:	08412c83          	lw	x25,132(x2)
    fb58:	08012d03          	lw	x26,128(x2)
    fb5c:	07c12d83          	lw	x27,124(x2)
    fb60:	cddff06f          	jal	x0,f83c <__multf3+0xc78>
    fb64:	00100793          	addi	x15,x0,1
    fb68:	40c787b3          	sub	x15,x15,x12
    fb6c:	07400693          	addi	x13,x0,116
    fb70:	b0f6cc63          	blt	x13,x15,ee88 <__multf3+0x2c4>
    fb74:	01f7f513          	andi	x10,x15,31
    fb78:	02000e13          	addi	x28,x0,32
    fb7c:	4057d613          	srai	x12,x15,0x5
    fb80:	40ae0e33          	sub	x28,x28,x10
    fb84:	12060863          	beq	x12,x0,fcb4 <__multf3+0x10f0>
    fb88:	04010593          	addi	x11,x2,64
    fb8c:	00261893          	slli	x17,x12,0x2
    fb90:	00058693          	addi	x13,x11,0
    fb94:	00b888b3          	add	x17,x17,x11
    fb98:	00000793          	addi	x15,x0,0
    fb9c:	0006a803          	lw	x16,0(x13)
    fba0:	00468693          	addi	x13,x13,4
    fba4:	0107e7b3          	or	x15,x15,x16
    fba8:	ff169ae3          	bne	x13,x17,fb9c <__multf3+0xfd8>
    fbac:	00060893          	addi	x17,x12,0
    fbb0:	00300693          	addi	x13,x0,3
    fbb4:	40c686b3          	sub	x13,x13,x12
    fbb8:	00058813          	addi	x16,x11,0
    fbbc:	00261313          	slli	x6,x12,0x2
    fbc0:	0c051663          	bne	x10,x0,fc8c <__multf3+0x10c8>
    fbc4:	006808b3          	add	x17,x16,x6
    fbc8:	0008a883          	lw	x17,0(x17)
    fbcc:	00150513          	addi	x10,x10,1
    fbd0:	00480813          	addi	x16,x16,4
    fbd4:	ff182e23          	sw	x17,-4(x16)
    fbd8:	fea6d6e3          	bge	x13,x10,fbc4 <__multf3+0x1000>
    fbdc:	00400693          	addi	x13,x0,4
    fbe0:	40c686b3          	sub	x13,x13,x12
    fbe4:	dd5ff06f          	jal	x0,f9b8 <__multf3+0xdf4>
    fbe8:	00088513          	addi	x10,x17,0
    fbec:	5ad010ef          	jal	x1,11998 <__clzsi2>
    fbf0:	02050513          	addi	x10,x10,32
    fbf4:	f1dff06f          	jal	x0,fb10 <__multf3+0xf4c>
    fbf8:	000b8513          	addi	x10,x23,0
    fbfc:	59d010ef          	jal	x1,11998 <__clzsi2>
    fc00:	02050513          	addi	x10,x10,32
    fc04:	eb5ff06f          	jal	x0,fab8 <__multf3+0xef4>
    fc08:	00100793          	addi	x15,x0,1
    fc0c:	00000693          	addi	x13,x0,0
    fc10:	00000613          	addi	x12,x0,0
    fc14:	00000593          	addi	x11,x0,0
    fc18:	00000513          	addi	x10,x0,0
    fc1c:	970ff06f          	jal	x0,ed8c <__multf3+0x1c8>
    fc20:	00048513          	addi	x10,x9,0 # 10000 <__subtf3+0x2f8>
    fc24:	575010ef          	jal	x1,11998 <__clzsi2>
    fc28:	05450613          	addi	x12,x10,84
    fc2c:	01f67e13          	andi	x28,x12,31
    fc30:	40565613          	srai	x12,x12,0x5
    fc34:	040e0063          	beq	x28,x0,fc74 <__multf3+0x10b0>
    fc38:	00200793          	addi	x15,x0,2
    fc3c:	06050513          	addi	x10,x10,96
    fc40:	01c494b3          	sll	x9,x9,x28
    fc44:	08f61863          	bne	x12,x15,fcd4 <__multf3+0x1110>
    fc48:	02000893          	addi	x17,x0,32
    fc4c:	41c888b3          	sub	x17,x17,x28
    fc50:	b60ff06f          	jal	x0,efb0 <__multf3+0x3ec>
    fc54:	000a8513          	addi	x10,x21,0
    fc58:	541010ef          	jal	x1,11998 <__clzsi2>
    fc5c:	05450613          	addi	x12,x10,84
    fc60:	01f67813          	andi	x16,x12,31
    fc64:	40565613          	srai	x12,x12,0x5
    fc68:	06081c63          	bne	x16,x0,fce0 <__multf3+0x111c>
    fc6c:	06c00513          	addi	x10,x0,108
    fc70:	e59ff06f          	jal	x0,fac8 <__multf3+0xf04>
    fc74:	06c00513          	addi	x10,x0,108
    fc78:	ea9ff06f          	jal	x0,fb20 <__multf3+0xf5c>
    fc7c:	02000313          	addi	x6,x0,32
    fc80:	010a9ab3          	sll	x21,x21,x16
    fc84:	41030333          	sub	x6,x6,x16
    fc88:	a44ff06f          	jal	x0,eecc <__multf3+0x308>
    fc8c:	00289813          	slli	x16,x17,0x2
    fc90:	00b80833          	add	x16,x16,x11
    fc94:	00082803          	lw	x16,0(x16)
    fc98:	04c12303          	lw	x6,76(x2)
    fc9c:	01c81833          	sll	x16,x16,x28
    fca0:	0107e7b3          	or	x15,x15,x16
    fca4:	00a35333          	srl	x6,x6,x10
    fca8:	cc0696e3          	bne	x13,x0,f974 <__multf3+0xdb0>
    fcac:	00100693          	addi	x13,x0,1
    fcb0:	d15ff06f          	jal	x0,f9c4 <__multf3+0xe00>
    fcb4:	00000893          	addi	x17,x0,0
    fcb8:	00000793          	addi	x15,x0,0
    fcbc:	04010593          	addi	x11,x2,64
    fcc0:	ef1ff06f          	jal	x0,fbb0 <__multf3+0xfec>
    fcc4:	02000893          	addi	x17,x0,32
    fcc8:	01c494b3          	sll	x9,x9,x28
    fccc:	41c888b3          	sub	x17,x17,x28
    fcd0:	ae0ff06f          	jal	x0,efb0 <__multf3+0x3ec>
    fcd4:	02912623          	sw	x9,44(x2)
    fcd8:	02010693          	addi	x13,x2,32
    fcdc:	b2cff06f          	jal	x0,f008 <__multf3+0x444>
    fce0:	00200793          	addi	x15,x0,2
    fce4:	06050513          	addi	x10,x10,96
    fce8:	010a9ab3          	sll	x21,x21,x16
    fcec:	00f61863          	bne	x12,x15,fcfc <__multf3+0x1138>
    fcf0:	02000313          	addi	x6,x0,32
    fcf4:	41030333          	sub	x6,x6,x16
    fcf8:	9d4ff06f          	jal	x0,eecc <__multf3+0x308>
    fcfc:	03512e23          	sw	x21,60(x2)
    fd00:	03010693          	addi	x13,x2,48
    fd04:	a20ff06f          	jal	x0,ef24 <__multf3+0x360>

0000fd08 <__subtf3>:
    fd08:	00c5a783          	lw	x15,12(x11)
    fd0c:	0085a703          	lw	x14,8(x11)
    fd10:	0005a803          	lw	x16,0(x11)
    fd14:	0045a883          	lw	x17,4(x11)
    fd18:	fa010113          	addi	x2,x2,-96
    fd1c:	01079693          	slli	x13,x15,0x10
    fd20:	00062303          	lw	x6,0(x12)
    fd24:	00462283          	lw	x5,4(x12)
    fd28:	00862e03          	lw	x28,8(x12)
    fd2c:	00c62583          	lw	x11,12(x12)
    fd30:	04812c23          	sw	x8,88(x2)
    fd34:	0106d693          	srli	x13,x13,0x10
    fd38:	00179413          	slli	x8,x15,0x1
    fd3c:	01f7de93          	srli	x29,x15,0x1f
    fd40:	04912a23          	sw	x9,84(x2)
    fd44:	05212823          	sw	x18,80(x2)
    fd48:	02e12c23          	sw	x14,56(x2)
    fd4c:	00e12c23          	sw	x14,24(x2)
    fd50:	04112e23          	sw	x1,92(x2)
    fd54:	00050913          	addi	x18,x10,0
    fd58:	02f12e23          	sw	x15,60(x2)
    fd5c:	00d12e23          	sw	x13,28(x2)
    fd60:	01145413          	srli	x8,x8,0x11
    fd64:	000e8493          	addi	x9,x29,0 # 10000 <__subtf3+0x2f8>
    fd68:	03012823          	sw	x16,48(x2)
    fd6c:	01012823          	sw	x16,16(x2)
    fd70:	03112a23          	sw	x17,52(x2)
    fd74:	01112a23          	sw	x17,20(x2)
    fd78:	01010f13          	addi	x30,x2,16
    fd7c:	01c10713          	addi	x14,x2,28
    fd80:	00369613          	slli	x12,x13,0x3
    fd84:	ffc72683          	lw	x13,-4(x14)
    fd88:	00070f93          	addi	x31,x14,0
    fd8c:	ffc70713          	addi	x14,x14,-4
    fd90:	01d6d793          	srli	x15,x13,0x1d
    fd94:	00c7e7b3          	or	x15,x15,x12
    fd98:	00f72223          	sw	x15,4(x14)
    fd9c:	feef12e3          	bne	x30,x14,fd80 <__subtf3+0x78>
    fda0:	01059613          	slli	x12,x11,0x10
    fda4:	00159513          	slli	x10,x11,0x1
    fda8:	00381893          	slli	x17,x16,0x3
    fdac:	01065613          	srli	x12,x12,0x10
    fdb0:	02512a23          	sw	x5,52(x2)
    fdb4:	02b12e23          	sw	x11,60(x2)
    fdb8:	02512223          	sw	x5,36(x2)
    fdbc:	01112823          	sw	x17,16(x2)
    fdc0:	02612823          	sw	x6,48(x2)
    fdc4:	03c12c23          	sw	x28,56(x2)
    fdc8:	02612023          	sw	x6,32(x2)
    fdcc:	03c12423          	sw	x28,40(x2)
    fdd0:	02c12623          	sw	x12,44(x2)
    fdd4:	01155513          	srli	x10,x10,0x11
    fdd8:	01f5d593          	srli	x11,x11,0x1f
    fddc:	02010293          	addi	x5,x2,32
    fde0:	02c10793          	addi	x15,x2,44
    fde4:	00361813          	slli	x16,x12,0x3
    fde8:	ffc7a603          	lw	x12,-4(x15)
    fdec:	ffc78793          	addi	x15,x15,-4
    fdf0:	01d65693          	srli	x13,x12,0x1d
    fdf4:	0106e6b3          	or	x13,x13,x16
    fdf8:	00d7a223          	sw	x13,4(x15)
    fdfc:	fef294e3          	bne	x5,x15,fde4 <__subtf3+0xdc>
    fe00:	00331313          	slli	x6,x6,0x3
    fe04:	00008637          	lui	x12,0x8
    fe08:	02612023          	sw	x6,32(x2)
    fe0c:	fff60613          	addi	x12,x12,-1 # 7fff <__gdtoa+0xa6b>
    fe10:	1cc50863          	beq	x10,x12,ffe0 <__subtf3+0x2d8>
    fe14:	0015c593          	xori	x11,x11,1
    fe18:	40a406b3          	sub	x13,x8,x10
    fe1c:	0cbe8663          	beq	x29,x11,fee8 <__subtf3+0x1e0>
    fe20:	68d05ae3          	bge	x0,x13,10cb4 <__subtf3+0xfac>
    fe24:	01412803          	lw	x16,20(x2)
    fe28:	01812583          	lw	x11,24(x2)
    fe2c:	01c12e03          	lw	x28,28(x2)
    fe30:	2e050c63          	beq	x10,x0,10128 <__subtf3+0x420>
    fe34:	74c402e3          	beq	x8,x12,10d78 <__subtf3+0x1070>
    fe38:	02c12503          	lw	x10,44(x2)
    fe3c:	00080637          	lui	x12,0x80
    fe40:	07400713          	addi	x14,x0,116
    fe44:	00c56533          	or	x10,x10,x12
    fe48:	02a12623          	sw	x10,44(x2)
    fe4c:	30d75863          	bge	x14,x13,1015c <__subtf3+0x454>
    fe50:	00000513          	addi	x10,x0,0
    fe54:	00000613          	addi	x12,x0,0
    fe58:	00000793          	addi	x15,x0,0
    fe5c:	00100713          	addi	x14,x0,1
    fe60:	40f806b3          	sub	x13,x16,x15
    fe64:	40e88733          	sub	x14,x17,x14
    fe68:	00e8beb3          	sltu	x29,x17,x14
    fe6c:	00d83333          	sltu	x6,x16,x13
    fe70:	41d68eb3          	sub	x29,x13,x29
    fe74:	00030693          	addi	x13,x6,0 # 10000 <__subtf3+0x2f8>
    fe78:	00e8f463          	bgeu	x17,x14,fe80 <__subtf3+0x178>
    fe7c:	6d078a63          	beq	x15,x16,10550 <__subtf3+0x848>
    fe80:	40c587b3          	sub	x15,x11,x12
    fe84:	40d786b3          	sub	x13,x15,x13
    fe88:	00f5b7b3          	sltu	x15,x11,x15
    fe8c:	6c031863          	bne	x6,x0,1055c <__subtf3+0x854>
    fe90:	00f507b3          	add	x15,x10,x15
    fe94:	40fe0e33          	sub	x28,x28,x15
    fe98:	03c12e23          	sw	x28,60(x2)
    fe9c:	02d12c23          	sw	x13,56(x2)
    fea0:	03d12a23          	sw	x29,52(x2)
    fea4:	02e12823          	sw	x14,48(x2)
    fea8:	00ce1793          	slli	x15,x28,0xc
    feac:	00080537          	lui	x10,0x80
    feb0:	4207d663          	bge	x15,x0,102dc <__subtf3+0x5d4>
    feb4:	fff50513          	addi	x10,x10,-1 # 7ffff <__heap_start+0x6d12f>
    feb8:	00ae7533          	and	x10,x28,x10
    febc:	02a12e23          	sw	x10,60(x2)
    fec0:	060512e3          	bne	x10,x0,10724 <__subtf3+0xa1c>
    fec4:	03812503          	lw	x10,56(x2)
    fec8:	7e050c63          	beq	x10,x0,106c0 <__subtf3+0x9b8>
    fecc:	2cd010ef          	jal	x1,11998 <__clzsi2>
    fed0:	01450613          	addi	x12,x10,20
    fed4:	01f67813          	andi	x16,x12,31
    fed8:	380810e3          	bne	x16,x0,10a58 <__subtf3+0xd50>
    fedc:	00100593          	addi	x11,x0,1
    fee0:	02000613          	addi	x12,x0,32
    fee4:	0090006f          	jal	x0,106ec <__subtf3+0x9e4>
    fee8:	6ed050e3          	bge	x0,x13,10dc8 <__subtf3+0x10c0>
    feec:	01412f83          	lw	x31,20(x2)
    fef0:	01812f03          	lw	x30,24(x2)
    fef4:	01c12e03          	lw	x28,28(x2)
    fef8:	36051463          	bne	x10,x0,10260 <__subtf3+0x558>
    fefc:	02412583          	lw	x11,36(x2)
    ff00:	02812383          	lw	x7,40(x2)
    ff04:	02c12503          	lw	x10,44(x2)
    ff08:	0075e733          	or	x14,x11,x7
    ff0c:	00a76733          	or	x14,x14,x10
    ff10:	00676733          	or	x14,x14,x6
    ff14:	580702e3          	beq	x14,x0,10c98 <__subtf3+0xf90>
    ff18:	fff68713          	addi	x14,x13,-1
    ff1c:	480708e3          	beq	x14,x0,10bac <__subtf3+0xea4>
    ff20:	56c68ce3          	beq	x13,x12,10c98 <__subtf3+0xf90>
    ff24:	07400693          	addi	x13,x0,116
    ff28:	34e6ca63          	blt	x13,x14,1027c <__subtf3+0x574>
    ff2c:	00070693          	addi	x13,x14,0
    ff30:	4056d313          	srai	x6,x13,0x5
    ff34:	01f6f693          	andi	x13,x13,31
    ff38:	4a030ae3          	beq	x6,x0,10bec <__subtf3+0xee4>
    ff3c:	00231813          	slli	x16,x6,0x2
    ff40:	00f803b3          	add	x7,x16,x15
    ff44:	00078713          	addi	x14,x15,0
    ff48:	00000613          	addi	x12,x0,0
    ff4c:	00072583          	lw	x11,0(x14)
    ff50:	00470713          	addi	x14,x14,4
    ff54:	00b66633          	or	x12,x12,x11
    ff58:	fe771ae3          	bne	x14,x7,ff4c <__subtf3+0x244>
    ff5c:	00300713          	addi	x14,x0,3
    ff60:	40670733          	sub	x14,x14,x6
    ff64:	1c0686e3          	beq	x13,x0,10930 <__subtf3+0xc28>
    ff68:	010285b3          	add	x11,x5,x16
    ff6c:	0005a583          	lw	x11,0(x11)
    ff70:	05312623          	sw	x19,76(x2)
    ff74:	02000993          	addi	x19,x0,32
    ff78:	40d989b3          	sub	x19,x19,x13
    ff7c:	013595b3          	sll	x11,x11,x19
    ff80:	00d55533          	srl	x10,x10,x13
    ff84:	00b66633          	or	x12,x12,x11
    ff88:	00071463          	bne	x14,x0,ff90 <__subtf3+0x288>
    ff8c:	3940106f          	jal	x0,11320 <__subtf3+0x1618>
    ff90:	05412423          	sw	x20,72(x2)
    ff94:	00271593          	slli	x11,x14,0x2
    ff98:	01028833          	add	x16,x5,x16
    ff9c:	00f58a33          	add	x20,x11,x15
    ffa0:	00082703          	lw	x14,0(x16)
    ffa4:	00482383          	lw	x7,4(x16)
    ffa8:	00478793          	addi	x15,x15,4
    ffac:	00d75733          	srl	x14,x14,x13
    ffb0:	013393b3          	sll	x7,x7,x19
    ffb4:	00776733          	or	x14,x14,x7
    ffb8:	fee7ae23          	sw	x14,-4(x15)
    ffbc:	00480813          	addi	x16,x16,4
    ffc0:	ff4790e3          	bne	x15,x20,ffa0 <__subtf3+0x298>
    ffc4:	00b28733          	add	x14,x5,x11
    ffc8:	00400793          	addi	x15,x0,4
    ffcc:	04c12983          	lw	x19,76(x2)
    ffd0:	04812a03          	lw	x20,72(x2)
    ffd4:	00a72023          	sw	x10,0(x14)
    ffd8:	406787b3          	sub	x15,x15,x6
    ffdc:	1750006f          	jal	x0,10950 <__subtf3+0xc48>
    ffe0:	02412803          	lw	x16,36(x2)
    ffe4:	02812603          	lw	x12,40(x2)
    ffe8:	02c12e03          	lw	x28,44(x2)
    ffec:	40a406b3          	sub	x13,x8,x10
    fff0:	00c867b3          	or	x15,x16,x12
    fff4:	01c7e7b3          	or	x15,x15,x28
    fff8:	0067e7b3          	or	x15,x15,x6
    fffc:	20079263          	bne	x15,x0,10200 <__subtf3+0x4f8>
   10000:	0015c593          	xori	x11,x11,1
   10004:	00000e13          	addi	x28,x0,0
   10008:	00000613          	addi	x12,x0,0
   1000c:	1ebe8e63          	beq	x29,x11,10208 <__subtf3+0x500>
   10010:	44068a63          	beq	x13,x0,10464 <__subtf3+0x75c>
   10014:	408503b3          	sub	x7,x10,x8
   10018:	5a041a63          	bne	x8,x0,105cc <__subtf3+0x8c4>
   1001c:	01412483          	lw	x9,20(x2)
   10020:	01812803          	lw	x16,24(x2)
   10024:	01c12283          	lw	x5,28(x2)
   10028:	0104e6b3          	or	x13,x9,x16
   1002c:	0056e6b3          	or	x13,x13,x5
   10030:	0116e6b3          	or	x13,x13,x17
   10034:	34068ce3          	beq	x13,x0,10b8c <__subtf3+0xe84>
   10038:	fff38e93          	addi	x29,x7,-1
   1003c:	660e88e3          	beq	x29,x0,10eac <__subtf3+0x11a4>
   10040:	000086b7          	lui	x13,0x8
   10044:	fff68693          	addi	x13,x13,-1 # 7fff <__gdtoa+0xa6b>
   10048:	74d38ae3          	beq	x7,x13,10f9c <__subtf3+0x1294>
   1004c:	07400693          	addi	x13,x0,116
   10050:	5bd6c063          	blt	x13,x29,105f0 <__subtf3+0x8e8>
   10054:	01f00693          	addi	x13,x0,31
   10058:	01d6c463          	blt	x13,x29,10060 <__subtf3+0x358>
   1005c:	3bc0106f          	jal	x0,11418 <__subtf3+0x1710>
   10060:	405ed813          	srai	x16,x29,0x5
   10064:	000e8393          	addi	x7,x29,0
   10068:	00070e93          	addi	x29,x14,0
   1006c:	00000693          	addi	x13,x0,0
   10070:	00000893          	addi	x17,x0,0
   10074:	000ea403          	lw	x8,0(x29)
   10078:	00188893          	addi	x17,x17,1
   1007c:	004e8e93          	addi	x29,x29,4
   10080:	0086e6b3          	or	x13,x13,x8
   10084:	ff08c8e3          	blt	x17,x16,10074 <__subtf3+0x36c>
   10088:	00080413          	addi	x8,x16,0
   1008c:	00300493          	addi	x9,x0,3
   10090:	01f3fe93          	andi	x29,x7,31
   10094:	408484b3          	sub	x9,x9,x8
   10098:	580e94e3          	bne	x29,x0,10e20 <__subtf3+0x1118>
   1009c:	00241893          	slli	x17,x8,0x2
   100a0:	01170833          	add	x16,x14,x17
   100a4:	00082803          	lw	x16,0(x16)
   100a8:	001e8e93          	addi	x29,x29,1
   100ac:	00470713          	addi	x14,x14,4
   100b0:	ff072e23          	sw	x16,-4(x14)
   100b4:	ffd4d6e3          	bge	x9,x29,100a0 <__subtf3+0x398>
   100b8:	00400713          	addi	x14,x0,4
   100bc:	40870733          	sub	x14,x14,x8
   100c0:	00300813          	addi	x16,x0,3
   100c4:	01012e83          	lw	x29,16(x2)
   100c8:	02e84e63          	blt	x16,x14,10104 <__subtf3+0x3fc>
   100cc:	00400813          	addi	x16,x0,4
   100d0:	40e80833          	sub	x16,x16,x14
   100d4:	00281813          	slli	x16,x16,0x2
   100d8:	00271713          	slli	x14,x14,0x2
   100dc:	00800893          	addi	x17,x0,8
   100e0:	00ef0733          	add	x14,x30,x14
   100e4:	01186a63          	bltu	x16,x17,100f8 <__subtf3+0x3f0>
   100e8:	00072023          	sw	x0,0(x14)
   100ec:	00072223          	sw	x0,4(x14)
   100f0:	ff880813          	addi	x16,x16,-8
   100f4:	01170733          	add	x14,x14,x17
   100f8:	00400893          	addi	x17,x0,4
   100fc:	01186463          	bltu	x16,x17,10104 <__subtf3+0x3fc>
   10100:	00072023          	sw	x0,0(x14)
   10104:	01412883          	lw	x17,20(x2)
   10108:	01812803          	lw	x16,24(x2)
   1010c:	01c12283          	lw	x5,28(x2)
   10110:	00d03733          	sltu	x14,x0,x13
   10114:	01d76733          	or	x14,x14,x29
   10118:	41178f33          	sub	x30,x15,x17
   1011c:	41060fb3          	sub	x31,x12,x16
   10120:	405e0e33          	sub	x28,x28,x5
   10124:	4e00006f          	jal	x0,10604 <__subtf3+0x8fc>
   10128:	02412f83          	lw	x31,36(x2)
   1012c:	02812f03          	lw	x30,40(x2)
   10130:	02c12503          	lw	x10,44(x2)
   10134:	01efe733          	or	x14,x31,x30
   10138:	00a76733          	or	x14,x14,x10
   1013c:	00676733          	or	x14,x14,x6
   10140:	2a070463          	beq	x14,x0,103e8 <__subtf3+0x6e0>
   10144:	fff68713          	addi	x14,x13,-1
   10148:	3e0708e3          	beq	x14,x0,10d38 <__subtf3+0x1030>
   1014c:	28c68e63          	beq	x13,x12,103e8 <__subtf3+0x6e0>
   10150:	07400693          	addi	x13,x0,116
   10154:	cee6cee3          	blt	x13,x14,fe50 <__subtf3+0x148>
   10158:	00070693          	addi	x13,x14,0
   1015c:	4056df93          	srai	x31,x13,0x5
   10160:	01f6f693          	andi	x13,x13,31
   10164:	780f88e3          	beq	x31,x0,110f4 <__subtf3+0x13ec>
   10168:	002f9e93          	slli	x29,x31,0x2
   1016c:	00fe8f33          	add	x30,x29,x15
   10170:	00078713          	addi	x14,x15,0
   10174:	00000613          	addi	x12,x0,0
   10178:	00072303          	lw	x6,0(x14)
   1017c:	00470713          	addi	x14,x14,4
   10180:	00666633          	or	x12,x12,x6
   10184:	feef1ae3          	bne	x30,x14,10178 <__subtf3+0x470>
   10188:	00300713          	addi	x14,x0,3
   1018c:	41f70733          	sub	x14,x14,x31
   10190:	34068c63          	beq	x13,x0,104e8 <__subtf3+0x7e0>
   10194:	01d28333          	add	x6,x5,x29
   10198:	00032303          	lw	x6,0(x6)
   1019c:	02000393          	addi	x7,x0,32
   101a0:	40d383b3          	sub	x7,x7,x13
   101a4:	00731333          	sll	x6,x6,x7
   101a8:	00d55533          	srl	x10,x10,x13
   101ac:	00666633          	or	x12,x12,x6
   101b0:	72070ee3          	beq	x14,x0,110ec <__subtf3+0x13e4>
   101b4:	05312623          	sw	x19,76(x2)
   101b8:	00271313          	slli	x6,x14,0x2
   101bc:	01d28eb3          	add	x29,x5,x29
   101c0:	00f309b3          	add	x19,x6,x15
   101c4:	000ea703          	lw	x14,0(x29)
   101c8:	004eaf03          	lw	x30,4(x29)
   101cc:	00478793          	addi	x15,x15,4
   101d0:	00d75733          	srl	x14,x14,x13
   101d4:	007f1f33          	sll	x30,x30,x7
   101d8:	01e76733          	or	x14,x14,x30
   101dc:	fee7ae23          	sw	x14,-4(x15)
   101e0:	004e8e93          	addi	x29,x29,4
   101e4:	fef990e3          	bne	x19,x15,101c4 <__subtf3+0x4bc>
   101e8:	00628733          	add	x14,x5,x6
   101ec:	00400793          	addi	x15,x0,4
   101f0:	04c12983          	lw	x19,76(x2)
   101f4:	00a72023          	sw	x10,0(x14)
   101f8:	41f787b3          	sub	x15,x15,x31
   101fc:	30c0006f          	jal	x0,10508 <__subtf3+0x800>
   10200:	00080793          	addi	x15,x16,0
   10204:	e0be96e3          	bne	x29,x11,10010 <__subtf3+0x308>
   10208:	36068263          	beq	x13,x0,1056c <__subtf3+0x864>
   1020c:	408503b3          	sub	x7,x10,x8
   10210:	7a041c63          	bne	x8,x0,109c8 <__subtf3+0xcc0>
   10214:	01412683          	lw	x13,20(x2)
   10218:	05312623          	sw	x19,76(x2)
   1021c:	01812983          	lw	x19,24(x2)
   10220:	01c12283          	lw	x5,28(x2)
   10224:	0136e5b3          	or	x11,x13,x19
   10228:	0055e5b3          	or	x11,x11,x5
   1022c:	0115e5b3          	or	x11,x11,x17
   10230:	6e0584e3          	beq	x11,x0,11118 <__subtf3+0x1410>
   10234:	fff38813          	addi	x16,x7,-1
   10238:	7c0808e3          	beq	x16,x0,11208 <__subtf3+0x1500>
   1023c:	000086b7          	lui	x13,0x8
   10240:	fff68693          	addi	x13,x13,-1 # 7fff <__gdtoa+0xa6b>
   10244:	00d39463          	bne	x7,x13,1024c <__subtf3+0x544>
   10248:	0b40106f          	jal	x0,112fc <__subtf3+0x15f4>
   1024c:	07400693          	addi	x13,x0,116
   10250:	0106c463          	blt	x13,x16,10258 <__subtf3+0x550>
   10254:	1380106f          	jal	x0,1138c <__subtf3+0x1684>
   10258:	04c12983          	lw	x19,76(x2)
   1025c:	7900006f          	jal	x0,109ec <__subtf3+0xce4>
   10260:	38c404e3          	beq	x8,x12,10de8 <__subtf3+0x10e0>
   10264:	02c12503          	lw	x10,44(x2)
   10268:	00080637          	lui	x12,0x80
   1026c:	07400713          	addi	x14,x0,116
   10270:	00c56533          	or	x10,x10,x12
   10274:	02a12623          	sw	x10,44(x2)
   10278:	cad75ce3          	bge	x14,x13,ff30 <__subtf3+0x228>
   1027c:	00000513          	addi	x10,x0,0
   10280:	00000693          	addi	x13,x0,0
   10284:	00000793          	addi	x15,x0,0
   10288:	00100713          	addi	x14,x0,1
   1028c:	00e88733          	add	x14,x17,x14
   10290:	01f785b3          	add	x11,x15,x31
   10294:	01173833          	sltu	x16,x14,x17
   10298:	01058833          	add	x16,x11,x16
   1029c:	00f5b7b3          	sltu	x15,x11,x15
   102a0:	00b835b3          	sltu	x11,x16,x11
   102a4:	01e68633          	add	x12,x13,x30
   102a8:	00b7e7b3          	or	x15,x15,x11
   102ac:	00f607b3          	add	x15,x12,x15
   102b0:	00d636b3          	sltu	x13,x12,x13
   102b4:	00c7b633          	sltu	x12,x15,x12
   102b8:	00c6e6b3          	or	x13,x13,x12
   102bc:	01c50633          	add	x12,x10,x28
   102c0:	00c68e33          	add	x28,x13,x12
   102c4:	02f12c23          	sw	x15,56(x2)
   102c8:	02e12823          	sw	x14,48(x2)
   102cc:	03012a23          	sw	x16,52(x2)
   102d0:	00ce1793          	slli	x15,x28,0xc
   102d4:	1407c0e3          	blt	x15,x0,10c14 <__subtf3+0xf0c>
   102d8:	03c12e23          	sw	x28,60(x2)
   102dc:	00777693          	andi	x13,x14,7
   102e0:	03010793          	addi	x15,x2,48
   102e4:	1e068c63          	beq	x13,x0,104dc <__subtf3+0x7d4>
   102e8:	00f77693          	andi	x13,x14,15
   102ec:	00400613          	addi	x12,x0,4
   102f0:	10c68863          	beq	x13,x12,10400 <__subtf3+0x6f8>
   102f4:	03412683          	lw	x13,52(x2)
   102f8:	00470513          	addi	x10,x14,4
   102fc:	03812583          	lw	x11,56(x2)
   10300:	00453613          	sltiu	x12,x10,4
   10304:	00c68633          	add	x12,x13,x12
   10308:	00d636b3          	sltu	x13,x12,x13
   1030c:	00d586b3          	add	x13,x11,x13
   10310:	00b6b5b3          	sltu	x11,x13,x11
   10314:	00be0e33          	add	x28,x28,x11
   10318:	00080737          	lui	x14,0x80
   1031c:	02a12823          	sw	x10,48(x2)
   10320:	02c12a23          	sw	x12,52(x2)
   10324:	03c12e23          	sw	x28,60(x2)
   10328:	02d12c23          	sw	x13,56(x2)
   1032c:	00ee7733          	and	x14,x28,x14
   10330:	0c070e63          	beq	x14,x0,1040c <__subtf3+0x704>
   10334:	00008737          	lui	x14,0x8
   10338:	00140413          	addi	x8,x8,1
   1033c:	fff70713          	addi	x14,x14,-1 # 7fff <__gdtoa+0xa6b>
   10340:	0ee40c63          	beq	x8,x14,10438 <__subtf3+0x730>
   10344:	fff805b7          	lui	x11,0xfff80
   10348:	fff58593          	addi	x11,x11,-1 # fff7ffff <__heap_end+0xffb7ffff>
   1034c:	00be75b3          	and	x11,x28,x11
   10350:	02b12e23          	sw	x11,60(x2)
   10354:	0035d593          	srli	x11,x11,0x3
   10358:	03012683          	lw	x13,48(x2)
   1035c:	03c10513          	addi	x10,x2,60
   10360:	0036d613          	srli	x12,x13,0x3
   10364:	0047a683          	lw	x13,4(x15)
   10368:	00478793          	addi	x15,x15,4
   1036c:	01d69713          	slli	x14,x13,0x1d
   10370:	00c76733          	or	x14,x14,x12
   10374:	fee7ae23          	sw	x14,-4(x15)
   10378:	fea794e3          	bne	x15,x10,10360 <__subtf3+0x658>
   1037c:	00008737          	lui	x14,0x8
   10380:	fff70513          	addi	x10,x14,-1 # 7fff <__gdtoa+0xa6b>
   10384:	03012783          	lw	x15,48(x2)
   10388:	03412603          	lw	x12,52(x2)
   1038c:	03812683          	lw	x13,56(x2)
   10390:	08a40263          	beq	x8,x10,10414 <__subtf3+0x70c>
   10394:	01059713          	slli	x14,x11,0x10
   10398:	01075713          	srli	x14,x14,0x10
   1039c:	0014f493          	andi	x9,x9,1
   103a0:	01141413          	slli	x8,x8,0x11
   103a4:	01145413          	srli	x8,x8,0x11
   103a8:	00f49493          	slli	x9,x9,0xf
   103ac:	0084e4b3          	or	x9,x9,x8
   103b0:	00911723          	sh	x9,14(x2)
   103b4:	00e11623          	sh	x14,12(x2)
   103b8:	00c12703          	lw	x14,12(x2)
   103bc:	05c12083          	lw	x1,92(x2)
   103c0:	05812403          	lw	x8,88(x2)
   103c4:	00f92023          	sw	x15,0(x18)
   103c8:	00c92223          	sw	x12,4(x18)
   103cc:	00d92423          	sw	x13,8(x18)
   103d0:	00e92623          	sw	x14,12(x18)
   103d4:	05412483          	lw	x9,84(x2)
   103d8:	00090513          	addi	x10,x18,0
   103dc:	05012903          	lw	x18,80(x2)
   103e0:	06010113          	addi	x2,x2,96
   103e4:	00008067          	jalr	x0,0(x1)
   103e8:	03112823          	sw	x17,48(x2)
   103ec:	03012a23          	sw	x16,52(x2)
   103f0:	02b12c23          	sw	x11,56(x2)
   103f4:	03c12e23          	sw	x28,60(x2)
   103f8:	00068413          	addi	x8,x13,0
   103fc:	03010793          	addi	x15,x2,48
   10400:	00080737          	lui	x14,0x80
   10404:	00ee7733          	and	x14,x28,x14
   10408:	f20716e3          	bne	x14,x0,10334 <__subtf3+0x62c>
   1040c:	003e5593          	srli	x11,x28,0x3
   10410:	f49ff06f          	jal	x0,10358 <__subtf3+0x650>
   10414:	00c7e7b3          	or	x15,x15,x12
   10418:	00d7e7b3          	or	x15,x15,x13
   1041c:	00b7e7b3          	or	x15,x15,x11
   10420:	02079863          	bne	x15,x0,10450 <__subtf3+0x748>
   10424:	0014f493          	andi	x9,x9,1
   10428:	00000693          	addi	x13,x0,0
   1042c:	00000613          	addi	x12,x0,0
   10430:	00000713          	addi	x14,x0,0
   10434:	f6dff06f          	jal	x0,103a0 <__subtf3+0x698>
   10438:	02012e23          	sw	x0,60(x2)
   1043c:	02012c23          	sw	x0,56(x2)
   10440:	02012a23          	sw	x0,52(x2)
   10444:	02012823          	sw	x0,48(x2)
   10448:	00000593          	addi	x11,x0,0
   1044c:	f0dff06f          	jal	x0,10358 <__subtf3+0x650>
   10450:	00000493          	addi	x9,x0,0
   10454:	00000693          	addi	x13,x0,0
   10458:	00000613          	addi	x12,x0,0
   1045c:	00000793          	addi	x15,x0,0
   10460:	f41ff06f          	jal	x0,103a0 <__subtf3+0x698>
   10464:	00140713          	addi	x14,x8,1
   10468:	01171813          	slli	x16,x14,0x11
   1046c:	01285813          	srli	x16,x16,0x12
   10470:	01412f03          	lw	x30,20(x2)
   10474:	01812283          	lw	x5,24(x2)
   10478:	01c12f83          	lw	x31,28(x2)
   1047c:	00008537          	lui	x10,0x8
   10480:	1a081c63          	bne	x16,x0,10638 <__subtf3+0x930>
   10484:	00c7e733          	or	x14,x15,x12
   10488:	005f66b3          	or	x13,x30,x5
   1048c:	00676733          	or	x14,x14,x6
   10490:	01f6e6b3          	or	x13,x13,x31
   10494:	01c76733          	or	x14,x14,x28
   10498:	0116e6b3          	or	x13,x13,x17
   1049c:	68041863          	bne	x8,x0,10b2c <__subtf3+0xe24>
   104a0:	100684e3          	beq	x13,x0,10da8 <__subtf3+0x10a0>
   104a4:	240718e3          	bne	x14,x0,10ef4 <__subtf3+0x11ec>
   104a8:	03112823          	sw	x17,48(x2)
   104ac:	03e12a23          	sw	x30,52(x2)
   104b0:	02512c23          	sw	x5,56(x2)
   104b4:	03f12e23          	sw	x31,60(x2)
   104b8:	000f8e13          	addi	x28,x31,0 # 10000 <__subtf3+0x2f8>
   104bc:	03010793          	addi	x15,x2,48
   104c0:	f41ff06f          	jal	x0,10400 <__subtf3+0x6f8>
   104c4:	010764b3          	or	x9,x14,x16
   104c8:	00a4e4b3          	or	x9,x9,x10
   104cc:	00d4e4b3          	or	x9,x9,x13
   104d0:	009034b3          	sltu	x9,x0,x9
   104d4:	009ef4b3          	and	x9,x29,x9
   104d8:	00068e13          	addi	x28,x13,0
   104dc:	003e5593          	srli	x11,x28,0x3
   104e0:	03010793          	addi	x15,x2,48
   104e4:	e75ff06f          	jal	x0,10358 <__subtf3+0x650>
   104e8:	01d78533          	add	x10,x15,x29
   104ec:	00052503          	lw	x10,0(x10) # 8000 <__gdtoa+0xa6c>
   104f0:	00168693          	addi	x13,x13,1
   104f4:	00478793          	addi	x15,x15,4
   104f8:	fea7ae23          	sw	x10,-4(x15)
   104fc:	fed756e3          	bge	x14,x13,104e8 <__subtf3+0x7e0>
   10500:	00400793          	addi	x15,x0,4
   10504:	41f787b3          	sub	x15,x15,x31
   10508:	00400713          	addi	x14,x0,4
   1050c:	02012503          	lw	x10,32(x2)
   10510:	02e78463          	beq	x15,x14,10538 <__subtf3+0x830>
   10514:	00400713          	addi	x14,x0,4
   10518:	40f70733          	sub	x14,x14,x15
   1051c:	00271713          	slli	x14,x14,0x2
   10520:	00279793          	slli	x15,x15,0x2
   10524:	00800693          	addi	x13,x0,8
   10528:	00f287b3          	add	x15,x5,x15
   1052c:	48d77463          	bgeu	x14,x13,109b4 <__subtf3+0xcac>
   10530:	00400693          	addi	x13,x0,4
   10534:	46d77c63          	bgeu	x14,x13,109ac <__subtf3+0xca4>
   10538:	00c03733          	sltu	x14,x0,x12
   1053c:	00a76733          	or	x14,x14,x10
   10540:	02412783          	lw	x15,36(x2)
   10544:	02812603          	lw	x12,40(x2)
   10548:	02c12503          	lw	x10,44(x2)
   1054c:	915ff06f          	jal	x0,fe60 <__subtf3+0x158>
   10550:	fff58693          	addi	x13,x11,-1
   10554:	40c686b3          	sub	x13,x13,x12
   10558:	00c5b7b3          	sltu	x15,x11,x12
   1055c:	40b60633          	sub	x12,x12,x11
   10560:	00163613          	sltiu	x12,x12,1
   10564:	00c7e7b3          	or	x15,x15,x12
   10568:	929ff06f          	jal	x0,fe90 <__subtf3+0x188>
   1056c:	00140593          	addi	x11,x8,1
   10570:	01159f13          	slli	x30,x11,0x11
   10574:	012f5f13          	srli	x30,x30,0x12
   10578:	01412683          	lw	x13,20(x2)
   1057c:	01812703          	lw	x14,24(x2)
   10580:	01c12503          	lw	x10,28(x2)
   10584:	00008837          	lui	x16,0x8
   10588:	500f1a63          	bne	x30,x0,10a9c <__subtf3+0xd94>
   1058c:	00e6e5b3          	or	x11,x13,x14
   10590:	00a5e5b3          	or	x11,x11,x10
   10594:	0115e5b3          	or	x11,x11,x17
   10598:	060414e3          	bne	x8,x0,10e00 <__subtf3+0x10f8>
   1059c:	00058ae3          	beq	x11,x0,10db0 <__subtf3+0x10a8>
   105a0:	00c7e5b3          	or	x11,x15,x12
   105a4:	0065e5b3          	or	x11,x11,x6
   105a8:	01c5e5b3          	or	x11,x11,x28
   105ac:	3c0590e3          	bne	x11,x0,1116c <__subtf3+0x1464>
   105b0:	03112823          	sw	x17,48(x2)
   105b4:	02d12a23          	sw	x13,52(x2)
   105b8:	02e12c23          	sw	x14,56(x2)
   105bc:	02a12e23          	sw	x10,60(x2)
   105c0:	00050e13          	addi	x28,x10,0
   105c4:	03010793          	addi	x15,x2,48
   105c8:	e39ff06f          	jal	x0,10400 <__subtf3+0x6f8>
   105cc:	000086b7          	lui	x13,0x8
   105d0:	fff68693          	addi	x13,x13,-1 # 7fff <__gdtoa+0xa6b>
   105d4:	1cd504e3          	beq	x10,x13,10f9c <__subtf3+0x1294>
   105d8:	01c12283          	lw	x5,28(x2)
   105dc:	00080837          	lui	x16,0x80
   105e0:	07400693          	addi	x13,x0,116
   105e4:	0102e2b3          	or	x5,x5,x16
   105e8:	00512e23          	sw	x5,28(x2)
   105ec:	4876d463          	bge	x13,x7,10a74 <__subtf3+0xd6c>
   105f0:	00060f93          	addi	x31,x12,0 # 80000 <__heap_start+0x6d130>
   105f4:	00078f13          	addi	x30,x15,0
   105f8:	00000813          	addi	x16,x0,0
   105fc:	00000893          	addi	x17,x0,0
   10600:	00100713          	addi	x14,x0,1
   10604:	40e30733          	sub	x14,x6,x14
   10608:	00e33eb3          	sltu	x29,x6,x14
   1060c:	41df0eb3          	sub	x29,x30,x29
   10610:	01e7b6b3          	sltu	x13,x15,x30
   10614:	00e37463          	bgeu	x6,x14,1061c <__subtf3+0x914>
   10618:	77178c63          	beq	x15,x17,10d90 <__subtf3+0x1088>
   1061c:	40df86b3          	sub	x13,x31,x13
   10620:	01f638b3          	sltu	x17,x12,x31
   10624:	77e7ea63          	bltu	x15,x30,10d98 <__subtf3+0x1090>
   10628:	411e0e33          	sub	x28,x28,x17
   1062c:	00050413          	addi	x8,x10,0
   10630:	00058493          	addi	x9,x11,0
   10634:	865ff06f          	jal	x0,fe98 <__subtf3+0x190>
   10638:	40ff0533          	sub	x10,x30,x15
   1063c:	40688733          	sub	x14,x17,x6
   10640:	00e8beb3          	sltu	x29,x17,x14
   10644:	00af33b3          	sltu	x7,x30,x10
   10648:	41d50eb3          	sub	x29,x10,x29
   1064c:	40c28833          	sub	x16,x5,x12
   10650:	00038513          	addi	x10,x7,0
   10654:	00e8fc63          	bgeu	x17,x14,1066c <__subtf3+0x964>
   10658:	01e79a63          	bne	x15,x30,1066c <__subtf3+0x964>
   1065c:	fff80813          	addi	x16,x16,-1 # 7ffff <__heap_start+0x6d12f>
   10660:	005633b3          	sltu	x7,x12,x5
   10664:	0013b393          	sltiu	x7,x7,1
   10668:	0100006f          	jal	x0,10678 <__subtf3+0x970>
   1066c:	40a80833          	sub	x16,x16,x10
   10670:	fe0398e3          	bne	x7,x0,10660 <__subtf3+0x958>
   10674:	00c2b3b3          	sltu	x7,x5,x12
   10678:	41cf8533          	sub	x10,x31,x28
   1067c:	40750533          	sub	x10,x10,x7
   10680:	03012c23          	sw	x16,56(x2)
   10684:	03d12a23          	sw	x29,52(x2)
   10688:	02e12823          	sw	x14,48(x2)
   1068c:	02a12e23          	sw	x10,60(x2)
   10690:	00c51393          	slli	x7,x10,0xc
   10694:	6203c863          	blt	x7,x0,10cc4 <__subtf3+0xfbc>
   10698:	01d767b3          	or	x15,x14,x29
   1069c:	0107e7b3          	or	x15,x15,x16
   106a0:	00a7e7b3          	or	x15,x15,x10
   106a4:	66079663          	bne	x15,x0,10d10 <__subtf3+0x1008>
   106a8:	00000413          	addi	x8,x0,0
   106ac:	03010793          	addi	x15,x2,48
   106b0:	00000e13          	addi	x28,x0,0
   106b4:	00068493          	addi	x9,x13,0
   106b8:	003e5593          	srli	x11,x28,0x3
   106bc:	c9dff06f          	jal	x0,10358 <__subtf3+0x650>
   106c0:	03412503          	lw	x10,52(x2)
   106c4:	36051463          	bne	x10,x0,10a2c <__subtf3+0xd24>
   106c8:	05312623          	sw	x19,76(x2)
   106cc:	03012983          	lw	x19,48(x2)
   106d0:	00098513          	addi	x10,x19,0
   106d4:	2c4010ef          	jal	x1,11998 <__clzsi2>
   106d8:	05450613          	addi	x12,x10,84
   106dc:	01f67813          	andi	x16,x12,31
   106e0:	1c0814e3          	bne	x16,x0,110a8 <__subtf3+0x13a0>
   106e4:	04c12983          	lw	x19,76(x2)
   106e8:	40565593          	srai	x11,x12,0x5
   106ec:	40b006b3          	sub	x13,x0,x11
   106f0:	00269693          	slli	x13,x13,0x2
   106f4:	00c68713          	addi	x14,x13,12
   106f8:	03010793          	addi	x15,x2,48
   106fc:	40d006b3          	sub	x13,x0,x13
   10700:	00e78733          	add	x14,x15,x14
   10704:	00072883          	lw	x17,0(x14) # 80000 <__heap_start+0x6d130>
   10708:	00d70833          	add	x16,x14,x13
   1070c:	00070513          	addi	x10,x14,0
   10710:	01182023          	sw	x17,0(x16)
   10714:	ffc70713          	addi	x14,x14,-4
   10718:	fef516e3          	bne	x10,x15,10704 <__subtf3+0x9fc>
   1071c:	fff58713          	addi	x14,x11,-1
   10720:	0780006f          	jal	x0,10798 <__subtf3+0xa90>
   10724:	05312623          	sw	x19,76(x2)
   10728:	270010ef          	jal	x1,11998 <__clzsi2>
   1072c:	ff450813          	addi	x16,x10,-12
   10730:	00080613          	addi	x12,x16,0
   10734:	03012983          	lw	x19,48(x2)
   10738:	02000e13          	addi	x28,x0,32
   1073c:	40ce0e33          	sub	x28,x28,x12
   10740:	010999b3          	sll	x19,x19,x16
   10744:	00000593          	addi	x11,x0,0
   10748:	40b008b3          	sub	x17,x0,x11
   1074c:	00289893          	slli	x17,x17,0x2
   10750:	00c88713          	addi	x14,x17,12
   10754:	03010793          	addi	x15,x2,48
   10758:	411008b3          	sub	x17,x0,x17
   1075c:	00e78733          	add	x14,x15,x14
   10760:	00072683          	lw	x13,0(x14)
   10764:	ffc72503          	lw	x10,-4(x14)
   10768:	01170333          	add	x6,x14,x17
   1076c:	010696b3          	sll	x13,x13,x16
   10770:	01c55533          	srl	x10,x10,x28
   10774:	00a6e6b3          	or	x13,x13,x10
   10778:	00d32023          	sw	x13,0(x6)
   1077c:	ffc70713          	addi	x14,x14,-4
   10780:	fee790e3          	bne	x15,x14,10760 <__subtf3+0xa58>
   10784:	00259713          	slli	x14,x11,0x2
   10788:	00f70733          	add	x14,x14,x15
   1078c:	01372023          	sw	x19,0(x14)
   10790:	04c12983          	lw	x19,76(x2)
   10794:	fff58713          	addi	x14,x11,-1
   10798:	fff00693          	addi	x13,x0,-1
   1079c:	02d70a63          	beq	x14,x13,107d0 <__subtf3+0xac8>
   107a0:	00170713          	addi	x14,x14,1
   107a4:	00271713          	slli	x14,x14,0x2
   107a8:	00800593          	addi	x11,x0,8
   107ac:	00078693          	addi	x13,x15,0
   107b0:	00b76a63          	bltu	x14,x11,107c4 <__subtf3+0xabc>
   107b4:	02012823          	sw	x0,48(x2)
   107b8:	0007a223          	sw	x0,4(x15)
   107bc:	ff870713          	addi	x14,x14,-8
   107c0:	03810693          	addi	x13,x2,56
   107c4:	00400593          	addi	x11,x0,4
   107c8:	00b76463          	bltu	x14,x11,107d0 <__subtf3+0xac8>
   107cc:	0006a023          	sw	x0,0(x13)
   107d0:	12864263          	blt	x12,x8,108f4 <__subtf3+0xbec>
   107d4:	408606b3          	sub	x13,x12,x8
   107d8:	00168693          	addi	x13,x13,1
   107dc:	4056d313          	srai	x6,x13,0x5
   107e0:	01f6f693          	andi	x13,x13,31
   107e4:	0e0302e3          	beq	x6,x0,110c8 <__subtf3+0x13c0>
   107e8:	00231593          	slli	x11,x6,0x2
   107ec:	00f58833          	add	x16,x11,x15
   107f0:	00078613          	addi	x12,x15,0
   107f4:	00000713          	addi	x14,x0,0
   107f8:	00062503          	lw	x10,0(x12)
   107fc:	00460613          	addi	x12,x12,4
   10800:	00a76733          	or	x14,x14,x10
   10804:	fec81ae3          	bne	x16,x12,107f8 <__subtf3+0xaf0>
   10808:	00300513          	addi	x10,x0,3
   1080c:	40650533          	sub	x10,x10,x6
   10810:	06068863          	beq	x13,x0,10880 <__subtf3+0xb78>
   10814:	00f58633          	add	x12,x11,x15
   10818:	00062603          	lw	x12,0(x12)
   1081c:	03c12e83          	lw	x29,60(x2)
   10820:	02000e13          	addi	x28,x0,32
   10824:	40de0e33          	sub	x28,x28,x13
   10828:	01c61633          	sll	x12,x12,x28
   1082c:	00c76733          	or	x14,x14,x12
   10830:	00dedeb3          	srl	x29,x29,x13
   10834:	78050663          	beq	x10,x0,10fc0 <__subtf3+0x12b8>
   10838:	00251513          	slli	x10,x10,0x2
   1083c:	00b78633          	add	x12,x15,x11
   10840:	00a78f33          	add	x30,x15,x10
   10844:	00078813          	addi	x16,x15,0
   10848:	00062583          	lw	x11,0(x12)
   1084c:	00462883          	lw	x17,4(x12)
   10850:	00480813          	addi	x16,x16,4
   10854:	00d5d5b3          	srl	x11,x11,x13
   10858:	01c898b3          	sll	x17,x17,x28
   1085c:	0115e5b3          	or	x11,x11,x17
   10860:	feb82e23          	sw	x11,-4(x16)
   10864:	00460613          	addi	x12,x12,4
   10868:	ff0f10e3          	bne	x30,x16,10848 <__subtf3+0xb40>
   1086c:	00f50533          	add	x10,x10,x15
   10870:	00400693          	addi	x13,x0,4
   10874:	01d52023          	sw	x29,0(x10)
   10878:	406686b3          	sub	x13,x13,x6
   1087c:	0280006f          	jal	x0,108a4 <__subtf3+0xb9c>
   10880:	00078613          	addi	x12,x15,0
   10884:	00b60833          	add	x16,x12,x11
   10888:	00082803          	lw	x16,0(x16)
   1088c:	00168693          	addi	x13,x13,1
   10890:	00460613          	addi	x12,x12,4
   10894:	ff062e23          	sw	x16,-4(x12)
   10898:	fed556e3          	bge	x10,x13,10884 <__subtf3+0xb7c>
   1089c:	00400693          	addi	x13,x0,4
   108a0:	406686b3          	sub	x13,x13,x6
   108a4:	00400613          	addi	x12,x0,4
   108a8:	03012e83          	lw	x29,48(x2)
   108ac:	02c68463          	beq	x13,x12,108d4 <__subtf3+0xbcc>
   108b0:	00400613          	addi	x12,x0,4
   108b4:	40d60633          	sub	x12,x12,x13
   108b8:	00261613          	slli	x12,x12,0x2
   108bc:	00269693          	slli	x13,x13,0x2
   108c0:	00800593          	addi	x11,x0,8
   108c4:	00d786b3          	add	x13,x15,x13
   108c8:	04b67a63          	bgeu	x12,x11,1091c <__subtf3+0xc14>
   108cc:	00400593          	addi	x11,x0,4
   108d0:	04b67263          	bgeu	x12,x11,10914 <__subtf3+0xc0c>
   108d4:	00e03733          	sltu	x14,x0,x14
   108d8:	03c12e03          	lw	x28,60(x2)
   108dc:	01d76733          	or	x14,x14,x29
   108e0:	02e12823          	sw	x14,48(x2)
   108e4:	00000413          	addi	x8,x0,0
   108e8:	00777693          	andi	x13,x14,7
   108ec:	9e069ee3          	bne	x13,x0,102e8 <__subtf3+0x5e0>
   108f0:	b11ff06f          	jal	x0,10400 <__subtf3+0x6f8>
   108f4:	03c12e03          	lw	x28,60(x2)
   108f8:	fff806b7          	lui	x13,0xfff80
   108fc:	fff68693          	addi	x13,x13,-1 # fff7ffff <__heap_end+0xffb7ffff>
   10900:	00de7e33          	and	x28,x28,x13
   10904:	03012703          	lw	x14,48(x2)
   10908:	40c40433          	sub	x8,x8,x12
   1090c:	03c12e23          	sw	x28,60(x2)
   10910:	fd9ff06f          	jal	x0,108e8 <__subtf3+0xbe0>
   10914:	0006a023          	sw	x0,0(x13)
   10918:	fbdff06f          	jal	x0,108d4 <__subtf3+0xbcc>
   1091c:	0006a023          	sw	x0,0(x13)
   10920:	0006a223          	sw	x0,4(x13)
   10924:	ff860613          	addi	x12,x12,-8
   10928:	00b686b3          	add	x13,x13,x11
   1092c:	fa1ff06f          	jal	x0,108cc <__subtf3+0xbc4>
   10930:	010785b3          	add	x11,x15,x16
   10934:	0005a583          	lw	x11,0(x11)
   10938:	00168693          	addi	x13,x13,1
   1093c:	00478793          	addi	x15,x15,4
   10940:	feb7ae23          	sw	x11,-4(x15)
   10944:	fed756e3          	bge	x14,x13,10930 <__subtf3+0xc28>
   10948:	00400793          	addi	x15,x0,4
   1094c:	406787b3          	sub	x15,x15,x6
   10950:	00400713          	addi	x14,x0,4
   10954:	02012503          	lw	x10,32(x2)
   10958:	02e78e63          	beq	x15,x14,10994 <__subtf3+0xc8c>
   1095c:	00400713          	addi	x14,x0,4
   10960:	40f70733          	sub	x14,x14,x15
   10964:	00271713          	slli	x14,x14,0x2
   10968:	00279793          	slli	x15,x15,0x2
   1096c:	00800693          	addi	x13,x0,8
   10970:	00f287b3          	add	x15,x5,x15
   10974:	00d76a63          	bltu	x14,x13,10988 <__subtf3+0xc80>
   10978:	0007a023          	sw	x0,0(x15)
   1097c:	0007a223          	sw	x0,4(x15)
   10980:	ff870713          	addi	x14,x14,-8
   10984:	00d787b3          	add	x15,x15,x13
   10988:	00400693          	addi	x13,x0,4
   1098c:	00d76463          	bltu	x14,x13,10994 <__subtf3+0xc8c>
   10990:	0007a023          	sw	x0,0(x15)
   10994:	00c03733          	sltu	x14,x0,x12
   10998:	00a76733          	or	x14,x14,x10
   1099c:	02412783          	lw	x15,36(x2)
   109a0:	02812683          	lw	x13,40(x2)
   109a4:	02c12503          	lw	x10,44(x2)
   109a8:	8e5ff06f          	jal	x0,1028c <__subtf3+0x584>
   109ac:	0007a023          	sw	x0,0(x15)
   109b0:	b89ff06f          	jal	x0,10538 <__subtf3+0x830>
   109b4:	0007a023          	sw	x0,0(x15)
   109b8:	0007a223          	sw	x0,4(x15)
   109bc:	ff870713          	addi	x14,x14,-8
   109c0:	00d787b3          	add	x15,x15,x13
   109c4:	b6dff06f          	jal	x0,10530 <__subtf3+0x828>
   109c8:	000086b7          	lui	x13,0x8
   109cc:	fff68693          	addi	x13,x13,-1 # 7fff <__gdtoa+0xa6b>
   109d0:	12d508e3          	beq	x10,x13,11300 <__subtf3+0x15f8>
   109d4:	01c12283          	lw	x5,28(x2)
   109d8:	000805b7          	lui	x11,0x80
   109dc:	07400693          	addi	x13,x0,116
   109e0:	00b2e2b3          	or	x5,x5,x11
   109e4:	00512e23          	sw	x5,28(x2)
   109e8:	5e76d063          	bge	x13,x7,10fc8 <__subtf3+0x12c0>
   109ec:	00060593          	addi	x11,x12,0
   109f0:	00078693          	addi	x13,x15,0
   109f4:	00100713          	addi	x14,x0,1
   109f8:	00e30733          	add	x14,x6,x14
   109fc:	00673333          	sltu	x6,x14,x6
   10a00:	00d30833          	add	x16,x6,x13
   10a04:	00683333          	sltu	x6,x16,x6
   10a08:	00f6b6b3          	sltu	x13,x13,x15
   10a0c:	0066e6b3          	or	x13,x13,x6
   10a10:	00b687b3          	add	x15,x13,x11
   10a14:	00d7b6b3          	sltu	x13,x15,x13
   10a18:	00c5b5b3          	sltu	x11,x11,x12
   10a1c:	00d5e6b3          	or	x13,x11,x13
   10a20:	00de0e33          	add	x28,x28,x13
   10a24:	00050413          	addi	x8,x10,0
   10a28:	89dff06f          	jal	x0,102c4 <__subtf3+0x5bc>
   10a2c:	76d000ef          	jal	x1,11998 <__clzsi2>
   10a30:	03450613          	addi	x12,x10,52
   10a34:	01f67813          	andi	x16,x12,31
   10a38:	40565593          	srai	x11,x12,0x5
   10a3c:	ca0808e3          	beq	x16,x0,106ec <__subtf3+0x9e4>
   10a40:	05312623          	sw	x19,76(x2)
   10a44:	03012983          	lw	x19,48(x2)
   10a48:	02000e13          	addi	x28,x0,32
   10a4c:	410e0e33          	sub	x28,x28,x16
   10a50:	010999b3          	sll	x19,x19,x16
   10a54:	cf5ff06f          	jal	x0,10748 <__subtf3+0xa40>
   10a58:	05312623          	sw	x19,76(x2)
   10a5c:	03012983          	lw	x19,48(x2)
   10a60:	02000e13          	addi	x28,x0,32
   10a64:	410e0e33          	sub	x28,x28,x16
   10a68:	010999b3          	sll	x19,x19,x16
   10a6c:	40565593          	srai	x11,x12,0x5
   10a70:	cd9ff06f          	jal	x0,10748 <__subtf3+0xa40>
   10a74:	41f3d813          	srai	x16,x7,0x1f
   10a78:	01f87813          	andi	x16,x16,31
   10a7c:	00780833          	add	x16,x16,x7
   10a80:	01f00693          	addi	x13,x0,31
   10a84:	40585813          	srai	x16,x16,0x5
   10a88:	de76c063          	blt	x13,x7,10068 <__subtf3+0x360>
   10a8c:	00080413          	addi	x8,x16,0
   10a90:	00000693          	addi	x13,x0,0
   10a94:	00000813          	addi	x16,x0,0
   10a98:	df4ff06f          	jal	x0,1008c <__subtf3+0x384>
   10a9c:	00688333          	add	x6,x17,x6
   10aa0:	00d786b3          	add	x13,x15,x13
   10aa4:	01133833          	sltu	x16,x6,x17
   10aa8:	01068833          	add	x16,x13,x16
   10aac:	00f6b7b3          	sltu	x15,x13,x15
   10ab0:	00d836b3          	sltu	x13,x16,x13
   10ab4:	00d7e6b3          	or	x13,x15,x13
   10ab8:	00e607b3          	add	x15,x12,x14
   10abc:	00d786b3          	add	x13,x15,x13
   10ac0:	00f6b8b3          	sltu	x17,x13,x15
   10ac4:	00c7b733          	sltu	x14,x15,x12
   10ac8:	01176733          	or	x14,x14,x17
   10acc:	00ae0533          	add	x10,x28,x10
   10ad0:	00a70733          	add	x14,x14,x10
   10ad4:	03010793          	addi	x15,x2,48
   10ad8:	02d12c23          	sw	x13,56(x2)
   10adc:	03012a23          	sw	x16,52(x2)
   10ae0:	02612823          	sw	x6,48(x2)
   10ae4:	02e12e23          	sw	x14,60(x2)
   10ae8:	00078693          	addi	x13,x15,0
   10aec:	03c10813          	addi	x16,x2,60
   10af0:	00135513          	srli	x10,x6,0x1
   10af4:	0046a303          	lw	x6,4(x13)
   10af8:	00468693          	addi	x13,x13,4
   10afc:	01f31613          	slli	x12,x6,0x1f
   10b00:	00a66633          	or	x12,x12,x10
   10b04:	fec6ae23          	sw	x12,-4(x13)
   10b08:	fed814e3          	bne	x16,x13,10af0 <__subtf3+0xde8>
   10b0c:	00175e13          	srli	x28,x14,0x1
   10b10:	00008737          	lui	x14,0x8
   10b14:	03c12e23          	sw	x28,60(x2)
   10b18:	fff70713          	addi	x14,x14,-1 # 7fff <__gdtoa+0xa6b>
   10b1c:	14e58e63          	beq	x11,x14,10c78 <__subtf3+0xf70>
   10b20:	03012703          	lw	x14,48(x2)
   10b24:	00058413          	addi	x8,x11,0 # 80000 <__heap_start+0x6d130>
   10b28:	dc1ff06f          	jal	x0,108e8 <__subtf3+0xbe0>
   10b2c:	60069e63          	bne	x13,x0,11148 <__subtf3+0x1440>
   10b30:	7e071e63          	bne	x14,x0,1132c <__subtf3+0x1624>
   10b34:	02a12e23          	sw	x10,60(x2)
   10b38:	02012c23          	sw	x0,56(x2)
   10b3c:	02012a23          	sw	x0,52(x2)
   10b40:	02012823          	sw	x0,48(x2)
   10b44:	03010793          	addi	x15,x2,48
   10b48:	03c10713          	addi	x14,x2,60
   10b4c:	00351613          	slli	x12,x10,0x3
   10b50:	ffc72503          	lw	x10,-4(x14)
   10b54:	ffc70713          	addi	x14,x14,-4
   10b58:	01d55693          	srli	x13,x10,0x1d
   10b5c:	00c6e6b3          	or	x13,x13,x12
   10b60:	00d72223          	sw	x13,4(x14)
   10b64:	fee794e3          	bne	x15,x14,10b4c <__subtf3+0xe44>
   10b68:	03c12e03          	lw	x28,60(x2)
   10b6c:	00080737          	lui	x14,0x80
   10b70:	00000493          	addi	x9,x0,0
   10b74:	00ee7733          	and	x14,x28,x14
   10b78:	00008437          	lui	x8,0x8
   10b7c:	fc071463          	bne	x14,x0,10344 <__subtf3+0x63c>
   10b80:	fff40413          	addi	x8,x8,-1 # 7fff <__gdtoa+0xa6b>
   10b84:	003e5593          	srli	x11,x28,0x3
   10b88:	fd0ff06f          	jal	x0,10358 <__subtf3+0x650>
   10b8c:	02f12a23          	sw	x15,52(x2)
   10b90:	02612823          	sw	x6,48(x2)
   10b94:	02c12c23          	sw	x12,56(x2)
   10b98:	03c12e23          	sw	x28,60(x2)
   10b9c:	00038413          	addi	x8,x7,0
   10ba0:	00058493          	addi	x9,x11,0
   10ba4:	03010793          	addi	x15,x2,48
   10ba8:	859ff06f          	jal	x0,10400 <__subtf3+0x6f8>
   10bac:	00688733          	add	x14,x17,x6
   10bb0:	01f58fb3          	add	x31,x11,x31
   10bb4:	01173833          	sltu	x16,x14,x17
   10bb8:	010f8833          	add	x16,x31,x16
   10bbc:	00bfb7b3          	sltu	x15,x31,x11
   10bc0:	01f83fb3          	sltu	x31,x16,x31
   10bc4:	01e38633          	add	x12,x7,x30
   10bc8:	01f7e7b3          	or	x15,x15,x31
   10bcc:	00f607b3          	add	x15,x12,x15
   10bd0:	007636b3          	sltu	x13,x12,x7
   10bd4:	00c7b633          	sltu	x12,x15,x12
   10bd8:	00c6e6b3          	or	x13,x13,x12
   10bdc:	01c50533          	add	x10,x10,x28
   10be0:	00a68e33          	add	x28,x13,x10
   10be4:	00100413          	addi	x8,x0,1
   10be8:	edcff06f          	jal	x0,102c4 <__subtf3+0x5bc>
   10bec:	02012703          	lw	x14,32(x2)
   10bf0:	05312623          	sw	x19,76(x2)
   10bf4:	02000993          	addi	x19,x0,32
   10bf8:	40d989b3          	sub	x19,x19,x13
   10bfc:	01371633          	sll	x12,x14,x19
   10c00:	05412423          	sw	x20,72(x2)
   10c04:	00d55533          	srl	x10,x10,x13
   10c08:	00300713          	addi	x14,x0,3
   10c0c:	00000813          	addi	x16,x0,0
   10c10:	b84ff06f          	jal	x0,ff94 <__subtf3+0x28c>
   10c14:	fff805b7          	lui	x11,0xfff80
   10c18:	fff58593          	addi	x11,x11,-1 # fff7ffff <__heap_end+0xffb7ffff>
   10c1c:	00be75b3          	and	x11,x28,x11
   10c20:	03010793          	addi	x15,x2,48
   10c24:	00140413          	addi	x8,x8,1
   10c28:	02b12e23          	sw	x11,60(x2)
   10c2c:	00078693          	addi	x13,x15,0
   10c30:	01f71813          	slli	x16,x14,0x1f
   10c34:	03c10893          	addi	x17,x2,60
   10c38:	00175513          	srli	x10,x14,0x1
   10c3c:	0046a703          	lw	x14,4(x13)
   10c40:	00468693          	addi	x13,x13,4
   10c44:	01f71613          	slli	x12,x14,0x1f
   10c48:	00a66633          	or	x12,x12,x10
   10c4c:	fec6ae23          	sw	x12,-4(x13)
   10c50:	ff1694e3          	bne	x13,x17,10c38 <__subtf3+0xf30>
   10c54:	03012703          	lw	x14,48(x2)
   10c58:	01f85693          	srli	x13,x16,0x1f
   10c5c:	0015de13          	srli	x28,x11,0x1
   10c60:	00e6e733          	or	x14,x13,x14
   10c64:	000086b7          	lui	x13,0x8
   10c68:	03c12e23          	sw	x28,60(x2)
   10c6c:	02e12823          	sw	x14,48(x2)
   10c70:	fff68693          	addi	x13,x13,-1 # 7fff <__gdtoa+0xa6b>
   10c74:	c6d41ae3          	bne	x8,x13,108e8 <__subtf3+0xbe0>
   10c78:	00008437          	lui	x8,0x8
   10c7c:	02012e23          	sw	x0,60(x2)
   10c80:	02012c23          	sw	x0,56(x2)
   10c84:	02012a23          	sw	x0,52(x2)
   10c88:	02012823          	sw	x0,48(x2)
   10c8c:	000e8693          	addi	x13,x29,0
   10c90:	fff40413          	addi	x8,x8,-1 # 7fff <__gdtoa+0xa6b>
   10c94:	a1dff06f          	jal	x0,106b0 <__subtf3+0x9a8>
   10c98:	03112823          	sw	x17,48(x2)
   10c9c:	03f12a23          	sw	x31,52(x2)
   10ca0:	03e12c23          	sw	x30,56(x2)
   10ca4:	03c12e23          	sw	x28,60(x2)
   10ca8:	00068413          	addi	x8,x13,0
   10cac:	03010793          	addi	x15,x2,48
   10cb0:	f50ff06f          	jal	x0,10400 <__subtf3+0x6f8>
   10cb4:	02412783          	lw	x15,36(x2)
   10cb8:	02812603          	lw	x12,40(x2)
   10cbc:	02c12e03          	lw	x28,44(x2)
   10cc0:	b50ff06f          	jal	x0,10010 <__subtf3+0x308>
   10cc4:	41e78733          	sub	x14,x15,x30
   10cc8:	405602b3          	sub	x5,x12,x5
   10ccc:	41130833          	sub	x16,x6,x17
   10cd0:	010336b3          	sltu	x13,x6,x16
   10cd4:	00563533          	sltu	x10,x12,x5
   10cd8:	00e7b633          	sltu	x12,x15,x14
   10cdc:	40d706b3          	sub	x13,x14,x13
   10ce0:	00060713          	addi	x14,x12,0
   10ce4:	01037463          	bgeu	x6,x16,10cec <__subtf3+0xfe4>
   10ce8:	45e78863          	beq	x15,x30,11138 <__subtf3+0x1430>
   10cec:	40e287b3          	sub	x15,x5,x14
   10cf0:	44061663          	bne	x12,x0,1113c <__subtf3+0x1434>
   10cf4:	41fe0fb3          	sub	x31,x28,x31
   10cf8:	40af8533          	sub	x10,x31,x10
   10cfc:	02a12e23          	sw	x10,60(x2)
   10d00:	02f12c23          	sw	x15,56(x2)
   10d04:	02d12a23          	sw	x13,52(x2)
   10d08:	03012823          	sw	x16,48(x2)
   10d0c:	00058493          	addi	x9,x11,0
   10d10:	9a050a63          	beq	x10,x0,fec4 <__subtf3+0x1bc>
   10d14:	485000ef          	jal	x1,11998 <__clzsi2>
   10d18:	ff450793          	addi	x15,x10,-12
   10d1c:	01f7f613          	andi	x12,x15,31
   10d20:	00000593          	addi	x11,x0,0
   10d24:	9c0604e3          	beq	x12,x0,106ec <__subtf3+0x9e4>
   10d28:	00060813          	addi	x16,x12,0
   10d2c:	05312623          	sw	x19,76(x2)
   10d30:	00078613          	addi	x12,x15,0
   10d34:	a01ff06f          	jal	x0,10734 <__subtf3+0xa2c>
   10d38:	41f807b3          	sub	x15,x16,x31
   10d3c:	40688733          	sub	x14,x17,x6
   10d40:	00e8beb3          	sltu	x29,x17,x14
   10d44:	00f83633          	sltu	x12,x16,x15
   10d48:	41d78eb3          	sub	x29,x15,x29
   10d4c:	41e586b3          	sub	x13,x11,x30
   10d50:	00060793          	addi	x15,x12,0
   10d54:	00e8f463          	bgeu	x17,x14,10d5c <__subtf3+0x1054>
   10d58:	090f8063          	beq	x31,x16,10dd8 <__subtf3+0x10d0>
   10d5c:	40f686b3          	sub	x13,x13,x15
   10d60:	06061e63          	bne	x12,x0,10ddc <__subtf3+0x10d4>
   10d64:	01e5bf33          	sltu	x30,x11,x30
   10d68:	40ae0533          	sub	x10,x28,x10
   10d6c:	41e50e33          	sub	x28,x10,x30
   10d70:	00100413          	addi	x8,x0,1
   10d74:	924ff06f          	jal	x0,fe98 <__subtf3+0x190>
   10d78:	03112823          	sw	x17,48(x2)
   10d7c:	03012a23          	sw	x16,52(x2)
   10d80:	02b12c23          	sw	x11,56(x2)
   10d84:	03c12e23          	sw	x28,60(x2)
   10d88:	03010793          	addi	x15,x2,48
   10d8c:	e74ff06f          	jal	x0,10400 <__subtf3+0x6f8>
   10d90:	01f638b3          	sltu	x17,x12,x31
   10d94:	ffff8693          	addi	x13,x31,-1
   10d98:	410607b3          	sub	x15,x12,x16
   10d9c:	0017b793          	sltiu	x15,x15,1
   10da0:	00f8e8b3          	or	x17,x17,x15
   10da4:	885ff06f          	jal	x0,10628 <__subtf3+0x920>
   10da8:	00e03733          	sltu	x14,x0,x14
   10dac:	00b774b3          	and	x9,x14,x11
   10db0:	02f12a23          	sw	x15,52(x2)
   10db4:	02612823          	sw	x6,48(x2)
   10db8:	02c12c23          	sw	x12,56(x2)
   10dbc:	03c12e23          	sw	x28,60(x2)
   10dc0:	03010793          	addi	x15,x2,48
   10dc4:	e3cff06f          	jal	x0,10400 <__subtf3+0x6f8>
   10dc8:	02412783          	lw	x15,36(x2)
   10dcc:	02812603          	lw	x12,40(x2)
   10dd0:	02c12e03          	lw	x28,44(x2)
   10dd4:	c34ff06f          	jal	x0,10208 <__subtf3+0x500>
   10dd8:	fff68693          	addi	x13,x13,-1
   10ddc:	00bf3f33          	sltu	x30,x30,x11
   10de0:	001f3f13          	sltiu	x30,x30,1
   10de4:	f85ff06f          	jal	x0,10d68 <__subtf3+0x1060>
   10de8:	03112823          	sw	x17,48(x2)
   10dec:	03f12a23          	sw	x31,52(x2)
   10df0:	03e12c23          	sw	x30,56(x2)
   10df4:	03c12e23          	sw	x28,60(x2)
   10df8:	03010793          	addi	x15,x2,48
   10dfc:	e04ff06f          	jal	x0,10400 <__subtf3+0x6f8>
   10e00:	3c059c63          	bne	x11,x0,111d8 <__subtf3+0x14d0>
   10e04:	02f12a23          	sw	x15,52(x2)
   10e08:	02612823          	sw	x6,48(x2)
   10e0c:	02c12c23          	sw	x12,56(x2)
   10e10:	03c12e23          	sw	x28,60(x2)
   10e14:	fff80413          	addi	x8,x16,-1
   10e18:	03010793          	addi	x15,x2,48
   10e1c:	de4ff06f          	jal	x0,10400 <__subtf3+0x6f8>
   10e20:	05312623          	sw	x19,76(x2)
   10e24:	41f3d893          	srai	x17,x7,0x1f
   10e28:	00281713          	slli	x14,x16,0x2
   10e2c:	01b8d813          	srli	x16,x17,0x1b
   10e30:	010388b3          	add	x17,x7,x16
   10e34:	00ef0733          	add	x14,x30,x14
   10e38:	00072703          	lw	x14,0(x14) # 80000 <__heap_start+0x6d130>
   10e3c:	01f8f893          	andi	x17,x17,31
   10e40:	41180833          	sub	x16,x16,x17
   10e44:	02080993          	addi	x19,x16,32
   10e48:	01371733          	sll	x14,x14,x19
   10e4c:	00e6e6b3          	or	x13,x13,x14
   10e50:	5a048463          	beq	x9,x0,113f8 <__subtf3+0x16f0>
   10e54:	00241293          	slli	x5,x8,0x2
   10e58:	005f0733          	add	x14,x30,x5
   10e5c:	008f8f93          	addi	x31,x31,8
   10e60:	405002b3          	sub	x5,x0,x5
   10e64:	00072803          	lw	x16,0(x14)
   10e68:	00472883          	lw	x17,4(x14)
   10e6c:	005703b3          	add	x7,x14,x5
   10e70:	01d85833          	srl	x16,x16,x29
   10e74:	013898b3          	sll	x17,x17,x19
   10e78:	01186833          	or	x16,x16,x17
   10e7c:	0103a023          	sw	x16,0(x7)
   10e80:	00470713          	addi	x14,x14,4
   10e84:	feef90e3          	bne	x31,x14,10e64 <__subtf3+0x115c>
   10e88:	01c12883          	lw	x17,28(x2)
   10e8c:	00249813          	slli	x16,x9,0x2
   10e90:	010f0833          	add	x16,x30,x16
   10e94:	01d8d8b3          	srl	x17,x17,x29
   10e98:	00400713          	addi	x14,x0,4
   10e9c:	04c12983          	lw	x19,76(x2)
   10ea0:	01182023          	sw	x17,0(x16)
   10ea4:	40870733          	sub	x14,x14,x8
   10ea8:	a18ff06f          	jal	x0,100c0 <__subtf3+0x3b8>
   10eac:	40978533          	sub	x10,x15,x9
   10eb0:	41130733          	sub	x14,x6,x17
   10eb4:	00e33eb3          	sltu	x29,x6,x14
   10eb8:	410606b3          	sub	x13,x12,x16
   10ebc:	00a7bf33          	sltu	x30,x15,x10
   10ec0:	41d50eb3          	sub	x29,x10,x29
   10ec4:	00d638b3          	sltu	x17,x12,x13
   10ec8:	000f0513          	addi	x10,x30,0
   10ecc:	00e37463          	bgeu	x6,x14,10ed4 <__subtf3+0x11cc>
   10ed0:	40f48463          	beq	x9,x15,112d8 <__subtf3+0x15d0>
   10ed4:	40a686b3          	sub	x13,x13,x10
   10ed8:	00088793          	addi	x15,x17,0
   10edc:	400f1063          	bne	x30,x0,112dc <__subtf3+0x15d4>
   10ee0:	405e02b3          	sub	x5,x28,x5
   10ee4:	40f28e33          	sub	x28,x5,x15
   10ee8:	00058493          	addi	x9,x11,0
   10eec:	00100413          	addi	x8,x0,1
   10ef0:	fa9fe06f          	jal	x0,fe98 <__subtf3+0x190>
   10ef4:	40ff06b3          	sub	x13,x30,x15
   10ef8:	40688733          	sub	x14,x17,x6
   10efc:	00e8b833          	sltu	x16,x17,x14
   10f00:	00df33b3          	sltu	x7,x30,x13
   10f04:	41068833          	sub	x16,x13,x16
   10f08:	40c28533          	sub	x10,x5,x12
   10f0c:	00038693          	addi	x13,x7,0
   10f10:	00e8f463          	bgeu	x17,x14,10f18 <__subtf3+0x1210>
   10f14:	3de78c63          	beq	x15,x30,112ec <__subtf3+0x15e4>
   10f18:	40d50533          	sub	x10,x10,x13
   10f1c:	3c039a63          	bne	x7,x0,112f0 <__subtf3+0x15e8>
   10f20:	00c2b3b3          	sltu	x7,x5,x12
   10f24:	41cf86b3          	sub	x13,x31,x28
   10f28:	407686b3          	sub	x13,x13,x7
   10f2c:	02a12c23          	sw	x10,56(x2)
   10f30:	03012a23          	sw	x16,52(x2)
   10f34:	02e12823          	sw	x14,48(x2)
   10f38:	02d12e23          	sw	x13,60(x2)
   10f3c:	00c69393          	slli	x7,x13,0xc
   10f40:	d803d263          	bge	x7,x0,104c4 <__subtf3+0x7bc>
   10f44:	41e78733          	sub	x14,x15,x30
   10f48:	41130833          	sub	x16,x6,x17
   10f4c:	405602b3          	sub	x5,x12,x5
   10f50:	010336b3          	sltu	x13,x6,x16
   10f54:	00e7b533          	sltu	x10,x15,x14
   10f58:	40d706b3          	sub	x13,x14,x13
   10f5c:	00563633          	sltu	x12,x12,x5
   10f60:	00050713          	addi	x14,x10,0
   10f64:	01037463          	bgeu	x6,x16,10f6c <__subtf3+0x1264>
   10f68:	49e78063          	beq	x15,x30,113e8 <__subtf3+0x16e0>
   10f6c:	40e287b3          	sub	x15,x5,x14
   10f70:	00060713          	addi	x14,x12,0
   10f74:	46051c63          	bne	x10,x0,113ec <__subtf3+0x16e4>
   10f78:	41fe0fb3          	sub	x31,x28,x31
   10f7c:	40ef8e33          	sub	x28,x31,x14
   10f80:	02f12c23          	sw	x15,56(x2)
   10f84:	03c12e23          	sw	x28,60(x2)
   10f88:	02d12a23          	sw	x13,52(x2)
   10f8c:	03012823          	sw	x16,48(x2)
   10f90:	00058493          	addi	x9,x11,0
   10f94:	03010793          	addi	x15,x2,48
   10f98:	c68ff06f          	jal	x0,10400 <__subtf3+0x6f8>
   10f9c:	00008437          	lui	x8,0x8
   10fa0:	02f12a23          	sw	x15,52(x2)
   10fa4:	02612823          	sw	x6,48(x2)
   10fa8:	02c12c23          	sw	x12,56(x2)
   10fac:	03c12e23          	sw	x28,60(x2)
   10fb0:	00058493          	addi	x9,x11,0
   10fb4:	fff40413          	addi	x8,x8,-1 # 7fff <__gdtoa+0xa6b>
   10fb8:	03010793          	addi	x15,x2,48
   10fbc:	c44ff06f          	jal	x0,10400 <__subtf3+0x6f8>
   10fc0:	00100693          	addi	x13,x0,1
   10fc4:	8edff06f          	jal	x0,108b0 <__subtf3+0xba8>
   10fc8:	41f3d693          	srai	x13,x7,0x1f
   10fcc:	01f6f693          	andi	x13,x13,31
   10fd0:	007686b3          	add	x13,x13,x7
   10fd4:	05312623          	sw	x19,76(x2)
   10fd8:	01f00593          	addi	x11,x0,31
   10fdc:	4056d693          	srai	x13,x13,0x5
   10fe0:	4275d463          	bge	x11,x7,11408 <__subtf3+0x1700>
   10fe4:	00070893          	addi	x17,x14,0
   10fe8:	00000593          	addi	x11,x0,0
   10fec:	00000813          	addi	x16,x0,0
   10ff0:	0008a403          	lw	x8,0(x17)
   10ff4:	00180813          	addi	x16,x16,1
   10ff8:	00488893          	addi	x17,x17,4
   10ffc:	0085e5b3          	or	x11,x11,x8
   11000:	fed848e3          	blt	x16,x13,10ff0 <__subtf3+0x12e8>
   11004:	00068413          	addi	x8,x13,0
   11008:	00300993          	addi	x19,x0,3
   1100c:	01f3f813          	andi	x16,x7,31
   11010:	408989b3          	sub	x19,x19,x8
   11014:	22081c63          	bne	x16,x0,1124c <__subtf3+0x1544>
   11018:	00241893          	slli	x17,x8,0x2
   1101c:	011706b3          	add	x13,x14,x17
   11020:	0006a683          	lw	x13,0(x13)
   11024:	00180813          	addi	x16,x16,1
   11028:	00470713          	addi	x14,x14,4
   1102c:	fed72e23          	sw	x13,-4(x14)
   11030:	ff09d6e3          	bge	x19,x16,1101c <__subtf3+0x1314>
   11034:	00400713          	addi	x14,x0,4
   11038:	40870733          	sub	x14,x14,x8
   1103c:	00300693          	addi	x13,x0,3
   11040:	01012803          	lw	x16,16(x2)
   11044:	02e6ce63          	blt	x13,x14,11080 <__subtf3+0x1378>
   11048:	00400693          	addi	x13,x0,4
   1104c:	40e686b3          	sub	x13,x13,x14
   11050:	00269693          	slli	x13,x13,0x2
   11054:	00271713          	slli	x14,x14,0x2
   11058:	00800893          	addi	x17,x0,8
   1105c:	00ef0733          	add	x14,x30,x14
   11060:	0116ea63          	bltu	x13,x17,11074 <__subtf3+0x136c>
   11064:	00072023          	sw	x0,0(x14)
   11068:	00072223          	sw	x0,4(x14)
   1106c:	ff868693          	addi	x13,x13,-8
   11070:	01170733          	add	x14,x14,x17
   11074:	00400893          	addi	x17,x0,4
   11078:	0116e463          	bltu	x13,x17,11080 <__subtf3+0x1378>
   1107c:	00072023          	sw	x0,0(x14)
   11080:	01412683          	lw	x13,20(x2)
   11084:	01812883          	lw	x17,24(x2)
   11088:	01c12f03          	lw	x30,28(x2)
   1108c:	00b03733          	sltu	x14,x0,x11
   11090:	04c12983          	lw	x19,76(x2)
   11094:	01076733          	or	x14,x14,x16
   11098:	00d786b3          	add	x13,x15,x13
   1109c:	011605b3          	add	x11,x12,x17
   110a0:	01ee0e33          	add	x28,x28,x30
   110a4:	955ff06f          	jal	x0,109f8 <__subtf3+0xcf0>
   110a8:	05f00793          	addi	x15,x0,95
   110ac:	010999b3          	sll	x19,x19,x16
   110b0:	32c7d463          	bge	x15,x12,113d8 <__subtf3+0x16d0>
   110b4:	03312e23          	sw	x19,60(x2)
   110b8:	00200713          	addi	x14,x0,2
   110bc:	04c12983          	lw	x19,76(x2)
   110c0:	03010793          	addi	x15,x2,48
   110c4:	edcff06f          	jal	x0,107a0 <__subtf3+0xa98>
   110c8:	03012703          	lw	x14,48(x2)
   110cc:	03c12e83          	lw	x29,60(x2)
   110d0:	02000e13          	addi	x28,x0,32
   110d4:	40de0e33          	sub	x28,x28,x13
   110d8:	01c71733          	sll	x14,x14,x28
   110dc:	00dedeb3          	srl	x29,x29,x13
   110e0:	00300513          	addi	x10,x0,3
   110e4:	00000593          	addi	x11,x0,0
   110e8:	f50ff06f          	jal	x0,10838 <__subtf3+0xb30>
   110ec:	00100793          	addi	x15,x0,1
   110f0:	c24ff06f          	jal	x0,10514 <__subtf3+0x80c>
   110f4:	02012703          	lw	x14,32(x2)
   110f8:	02000393          	addi	x7,x0,32
   110fc:	40d383b3          	sub	x7,x7,x13
   11100:	00771633          	sll	x12,x14,x7
   11104:	05312623          	sw	x19,76(x2)
   11108:	00d55533          	srl	x10,x10,x13
   1110c:	00300713          	addi	x14,x0,3
   11110:	00000e93          	addi	x29,x0,0
   11114:	8a4ff06f          	jal	x0,101b8 <__subtf3+0x4b0>
   11118:	02f12a23          	sw	x15,52(x2)
   1111c:	04c12983          	lw	x19,76(x2)
   11120:	02612823          	sw	x6,48(x2)
   11124:	02c12c23          	sw	x12,56(x2)
   11128:	03c12e23          	sw	x28,60(x2)
   1112c:	00038413          	addi	x8,x7,0
   11130:	03010793          	addi	x15,x2,48
   11134:	accff06f          	jal	x0,10400 <__subtf3+0x6f8>
   11138:	fff28793          	addi	x15,x5,-1
   1113c:	0012b293          	sltiu	x5,x5,1
   11140:	00556533          	or	x10,x10,x5
   11144:	bb1ff06f          	jal	x0,10cf4 <__subtf3+0xfec>
   11148:	20071263          	bne	x14,x0,1134c <__subtf3+0x1644>
   1114c:	03112823          	sw	x17,48(x2)
   11150:	03e12a23          	sw	x30,52(x2)
   11154:	02512c23          	sw	x5,56(x2)
   11158:	03f12e23          	sw	x31,60(x2)
   1115c:	000f8e13          	addi	x28,x31,0
   11160:	fff50413          	addi	x8,x10,-1
   11164:	03010793          	addi	x15,x2,48
   11168:	a98ff06f          	jal	x0,10400 <__subtf3+0x6f8>
   1116c:	00688333          	add	x6,x17,x6
   11170:	00d786b3          	add	x13,x15,x13
   11174:	011335b3          	sltu	x11,x6,x17
   11178:	00b685b3          	add	x11,x13,x11
   1117c:	00f6b7b3          	sltu	x15,x13,x15
   11180:	00d5b6b3          	sltu	x13,x11,x13
   11184:	00d7e6b3          	or	x13,x15,x13
   11188:	00e607b3          	add	x15,x12,x14
   1118c:	00d78733          	add	x14,x15,x13
   11190:	00f736b3          	sltu	x13,x14,x15
   11194:	00c7b7b3          	sltu	x15,x15,x12
   11198:	00d7e7b3          	or	x15,x15,x13
   1119c:	00ae0533          	add	x10,x28,x10
   111a0:	00a78e33          	add	x28,x15,x10
   111a4:	02e12c23          	sw	x14,56(x2)
   111a8:	02b12a23          	sw	x11,52(x2)
   111ac:	02612823          	sw	x6,48(x2)
   111b0:	00ce1793          	slli	x15,x28,0xc
   111b4:	1c07d863          	bge	x15,x0,11384 <__subtf3+0x167c>
   111b8:	fff807b7          	lui	x15,0xfff80
   111bc:	fff78793          	addi	x15,x15,-1 # fff7ffff <__heap_end+0xffb7ffff>
   111c0:	00fe7e33          	and	x28,x28,x15
   111c4:	03c12e23          	sw	x28,60(x2)
   111c8:	00100413          	addi	x8,x0,1
   111cc:	03010793          	addi	x15,x2,48
   111d0:	003e5593          	srli	x11,x28,0x3
   111d4:	984ff06f          	jal	x0,10358 <__subtf3+0x650>
   111d8:	00c7e7b3          	or	x15,x15,x12
   111dc:	0067e7b3          	or	x15,x15,x6
   111e0:	01c7e7b3          	or	x15,x15,x28
   111e4:	1a079e63          	bne	x15,x0,113a0 <__subtf3+0x1698>
   111e8:	03112823          	sw	x17,48(x2)
   111ec:	02d12a23          	sw	x13,52(x2)
   111f0:	02e12c23          	sw	x14,56(x2)
   111f4:	02a12e23          	sw	x10,60(x2)
   111f8:	00050e13          	addi	x28,x10,0
   111fc:	fff80413          	addi	x8,x16,-1
   11200:	03010793          	addi	x15,x2,48
   11204:	9fcff06f          	jal	x0,10400 <__subtf3+0x6f8>
   11208:	00688733          	add	x14,x17,x6
   1120c:	00f685b3          	add	x11,x13,x15
   11210:	01173833          	sltu	x16,x14,x17
   11214:	01058833          	add	x16,x11,x16
   11218:	00d5b7b3          	sltu	x15,x11,x13
   1121c:	00b835b3          	sltu	x11,x16,x11
   11220:	00c98633          	add	x12,x19,x12
   11224:	00b7e7b3          	or	x15,x15,x11
   11228:	00f607b3          	add	x15,x12,x15
   1122c:	013636b3          	sltu	x13,x12,x19
   11230:	00c7b633          	sltu	x12,x15,x12
   11234:	00c6e6b3          	or	x13,x13,x12
   11238:	01c282b3          	add	x5,x5,x28
   1123c:	04c12983          	lw	x19,76(x2)
   11240:	00568e33          	add	x28,x13,x5
   11244:	00100413          	addi	x8,x0,1
   11248:	87cff06f          	jal	x0,102c4 <__subtf3+0x5bc>
   1124c:	05412423          	sw	x20,72(x2)
   11250:	41f3d893          	srai	x17,x7,0x1f
   11254:	00269713          	slli	x14,x13,0x2
   11258:	01b8d693          	srli	x13,x17,0x1b
   1125c:	00d388b3          	add	x17,x7,x13
   11260:	00ef0733          	add	x14,x30,x14
   11264:	00072703          	lw	x14,0(x14)
   11268:	01f8f893          	andi	x17,x17,31
   1126c:	411686b3          	sub	x13,x13,x17
   11270:	02068a13          	addi	x20,x13,32
   11274:	01471733          	sll	x14,x14,x20
   11278:	00e5e5b3          	or	x11,x11,x14
   1127c:	1a098a63          	beq	x19,x0,11430 <__subtf3+0x1728>
   11280:	00241393          	slli	x7,x8,0x2
   11284:	007f0733          	add	x14,x30,x7
   11288:	008f8f93          	addi	x31,x31,8
   1128c:	407003b3          	sub	x7,x0,x7
   11290:	00072683          	lw	x13,0(x14)
   11294:	00472883          	lw	x17,4(x14)
   11298:	007702b3          	add	x5,x14,x7
   1129c:	0106d6b3          	srl	x13,x13,x16
   112a0:	014898b3          	sll	x17,x17,x20
   112a4:	0116e6b3          	or	x13,x13,x17
   112a8:	00d2a023          	sw	x13,0(x5)
   112ac:	00470713          	addi	x14,x14,4
   112b0:	feef90e3          	bne	x31,x14,11290 <__subtf3+0x1588>
   112b4:	01c12703          	lw	x14,28(x2)
   112b8:	00299693          	slli	x13,x19,0x2
   112bc:	00df06b3          	add	x13,x30,x13
   112c0:	01075833          	srl	x16,x14,x16
   112c4:	00400713          	addi	x14,x0,4
   112c8:	04812a03          	lw	x20,72(x2)
   112cc:	0106a023          	sw	x16,0(x13)
   112d0:	40870733          	sub	x14,x14,x8
   112d4:	d69ff06f          	jal	x0,1103c <__subtf3+0x1334>
   112d8:	fff68693          	addi	x13,x13,-1
   112dc:	40c807b3          	sub	x15,x16,x12
   112e0:	0017b793          	sltiu	x15,x15,1
   112e4:	00f8e7b3          	or	x15,x17,x15
   112e8:	bf9ff06f          	jal	x0,10ee0 <__subtf3+0x11d8>
   112ec:	fff50513          	addi	x10,x10,-1
   112f0:	005633b3          	sltu	x7,x12,x5
   112f4:	0013b393          	sltiu	x7,x7,1
   112f8:	c2dff06f          	jal	x0,10f24 <__subtf3+0x121c>
   112fc:	04c12983          	lw	x19,76(x2)
   11300:	00008437          	lui	x8,0x8
   11304:	02f12a23          	sw	x15,52(x2)
   11308:	02612823          	sw	x6,48(x2)
   1130c:	02c12c23          	sw	x12,56(x2)
   11310:	03c12e23          	sw	x28,60(x2)
   11314:	fff40413          	addi	x8,x8,-1 # 7fff <__gdtoa+0xa6b>
   11318:	03010793          	addi	x15,x2,48
   1131c:	8e4ff06f          	jal	x0,10400 <__subtf3+0x6f8>
   11320:	04c12983          	lw	x19,76(x2)
   11324:	00100793          	addi	x15,x0,1
   11328:	e34ff06f          	jal	x0,1095c <__subtf3+0xc54>
   1132c:	02f12a23          	sw	x15,52(x2)
   11330:	02612823          	sw	x6,48(x2)
   11334:	02c12c23          	sw	x12,56(x2)
   11338:	03c12e23          	sw	x28,60(x2)
   1133c:	00058493          	addi	x9,x11,0
   11340:	fff50413          	addi	x8,x10,-1
   11344:	03010793          	addi	x15,x2,48
   11348:	8b8ff06f          	jal	x0,10400 <__subtf3+0x6f8>
   1134c:	02a12e23          	sw	x10,60(x2)
   11350:	02012c23          	sw	x0,56(x2)
   11354:	02012a23          	sw	x0,52(x2)
   11358:	02012823          	sw	x0,48(x2)
   1135c:	03010793          	addi	x15,x2,48
   11360:	03c10713          	addi	x14,x2,60
   11364:	00351613          	slli	x12,x10,0x3
   11368:	ffc72503          	lw	x10,-4(x14)
   1136c:	ffc70713          	addi	x14,x14,-4
   11370:	01d55693          	srli	x13,x10,0x1d
   11374:	00c6e6b3          	or	x13,x13,x12
   11378:	00d72223          	sw	x13,4(x14)
   1137c:	fee794e3          	bne	x15,x14,11364 <__subtf3+0x165c>
   11380:	fe8ff06f          	jal	x0,10b68 <__subtf3+0xe60>
   11384:	03c12e23          	sw	x28,60(x2)
   11388:	954ff06f          	jal	x0,104dc <__subtf3+0x7d4>
   1138c:	01f00693          	addi	x13,x0,31
   11390:	0b06d863          	bge	x13,x16,11440 <__subtf3+0x1738>
   11394:	40585693          	srai	x13,x16,0x5
   11398:	00080393          	addi	x7,x16,0
   1139c:	c49ff06f          	jal	x0,10fe4 <__subtf3+0x12dc>
   113a0:	03012e23          	sw	x16,60(x2)
   113a4:	02012c23          	sw	x0,56(x2)
   113a8:	02012a23          	sw	x0,52(x2)
   113ac:	02012823          	sw	x0,48(x2)
   113b0:	03010793          	addi	x15,x2,48
   113b4:	03c10713          	addi	x14,x2,60
   113b8:	00381613          	slli	x12,x16,0x3
   113bc:	ffc72803          	lw	x16,-4(x14)
   113c0:	ffc70713          	addi	x14,x14,-4
   113c4:	01d85693          	srli	x13,x16,0x1d
   113c8:	00c6e6b3          	or	x13,x13,x12
   113cc:	00d72223          	sw	x13,4(x14)
   113d0:	fee794e3          	bne	x15,x14,113b8 <__subtf3+0x16b0>
   113d4:	f94ff06f          	jal	x0,10b68 <__subtf3+0xe60>
   113d8:	02000e13          	addi	x28,x0,32
   113dc:	410e0e33          	sub	x28,x28,x16
   113e0:	00200593          	addi	x11,x0,2
   113e4:	b64ff06f          	jal	x0,10748 <__subtf3+0xa40>
   113e8:	fff28793          	addi	x15,x5,-1
   113ec:	0012b293          	sltiu	x5,x5,1
   113f0:	00566733          	or	x14,x12,x5
   113f4:	b85ff06f          	jal	x0,10f78 <__subtf3+0x1270>
   113f8:	04c12983          	lw	x19,76(x2)
   113fc:	01d2deb3          	srl	x29,x5,x29
   11400:	00100713          	addi	x14,x0,1
   11404:	cc9fe06f          	jal	x0,100cc <__subtf3+0x3c4>
   11408:	00068413          	addi	x8,x13,0
   1140c:	00000593          	addi	x11,x0,0
   11410:	00000693          	addi	x13,x0,0
   11414:	bf5ff06f          	jal	x0,11008 <__subtf3+0x1300>
   11418:	05312623          	sw	x19,76(x2)
   1141c:	000e8393          	addi	x7,x29,0
   11420:	00000813          	addi	x16,x0,0
   11424:	00300493          	addi	x9,x0,3
   11428:	00000693          	addi	x13,x0,0
   1142c:	9f9ff06f          	jal	x0,10e24 <__subtf3+0x111c>
   11430:	04812a03          	lw	x20,72(x2)
   11434:	0102d833          	srl	x16,x5,x16
   11438:	00100713          	addi	x14,x0,1
   1143c:	c0dff06f          	jal	x0,11048 <__subtf3+0x1340>
   11440:	05412423          	sw	x20,72(x2)
   11444:	00080393          	addi	x7,x16,0
   11448:	00000693          	addi	x13,x0,0
   1144c:	00300993          	addi	x19,x0,3
   11450:	00000593          	addi	x11,x0,0
   11454:	dfdff06f          	jal	x0,11250 <__subtf3+0x1548>

00011458 <__unordtf2>:
   11458:	00c52803          	lw	x16,12(x10)
   1145c:	00c5a303          	lw	x6,12(x11)
   11460:	000087b7          	lui	x15,0x8
   11464:	fff78793          	addi	x15,x15,-1 # 7fff <__gdtoa+0xa6b>
   11468:	01085713          	srli	x14,x16,0x10
   1146c:	01035693          	srli	x13,x6,0x10
   11470:	00f77733          	and	x14,x14,x15
   11474:	00052603          	lw	x12,0(x10)
   11478:	00452e03          	lw	x28,4(x10)
   1147c:	0005a883          	lw	x17,0(x11)
   11480:	0045ae83          	lw	x29,4(x11)
   11484:	00852503          	lw	x10,8(x10)
   11488:	0085a583          	lw	x11,8(x11)
   1148c:	ff010113          	addi	x2,x2,-16
   11490:	00f6f6b3          	and	x13,x13,x15
   11494:	02f70a63          	beq	x14,x15,114c8 <__unordtf2+0x70>
   11498:	000087b7          	lui	x15,0x8
   1149c:	fff78793          	addi	x15,x15,-1 # 7fff <__gdtoa+0xa6b>
   114a0:	00000513          	addi	x10,x0,0
   114a4:	00f69e63          	bne	x13,x15,114c0 <__unordtf2+0x68>
   114a8:	01d8e533          	or	x10,x17,x29
   114ac:	01031313          	slli	x6,x6,0x10
   114b0:	00b56533          	or	x10,x10,x11
   114b4:	01035313          	srli	x6,x6,0x10
   114b8:	00656533          	or	x10,x10,x6
   114bc:	00a03533          	sltu	x10,x0,x10
   114c0:	01010113          	addi	x2,x2,16
   114c4:	00008067          	jalr	x0,0(x1)
   114c8:	01c66633          	or	x12,x12,x28
   114cc:	01081813          	slli	x16,x16,0x10
   114d0:	00a66633          	or	x12,x12,x10
   114d4:	01085813          	srli	x16,x16,0x10
   114d8:	01066633          	or	x12,x12,x16
   114dc:	00100513          	addi	x10,x0,1
   114e0:	fa060ce3          	beq	x12,x0,11498 <__unordtf2+0x40>
   114e4:	01010113          	addi	x2,x2,16
   114e8:	00008067          	jalr	x0,0(x1)

000114ec <__fixtfsi>:
   114ec:	00c52783          	lw	x15,12(x10)
   114f0:	00052583          	lw	x11,0(x10)
   114f4:	00852683          	lw	x13,8(x10)
   114f8:	00452803          	lw	x16,4(x10)
   114fc:	fe010113          	addi	x2,x2,-32
   11500:	00179713          	slli	x14,x15,0x1
   11504:	00004637          	lui	x12,0x4
   11508:	00f12623          	sw	x15,12(x2)
   1150c:	01175713          	srli	x14,x14,0x11
   11510:	00b12023          	sw	x11,0(x2)
   11514:	00b12823          	sw	x11,16(x2)
   11518:	01012223          	sw	x16,4(x2)
   1151c:	00d12423          	sw	x13,8(x2)
   11520:	00d12c23          	sw	x13,24(x2)
   11524:	ffe60613          	addi	x12,x12,-2 # 3ffe <_vfprintf_r+0x11ea>
   11528:	00000513          	addi	x10,x0,0
   1152c:	02e65063          	bge	x12,x14,1154c <__fixtfsi+0x60>
   11530:	00004637          	lui	x12,0x4
   11534:	01d60613          	addi	x12,x12,29 # 401d <_vfprintf_r+0x1209>
   11538:	01f7d593          	srli	x11,x15,0x1f
   1153c:	00e65c63          	bge	x12,x14,11554 <__fixtfsi+0x68>
   11540:	80000537          	lui	x10,0x80000
   11544:	fff50513          	addi	x10,x10,-1 # 7fffffff <__heap_end+0x7fbfffff>
   11548:	00a58533          	add	x10,x11,x10
   1154c:	02010113          	addi	x2,x2,32
   11550:	00008067          	jalr	x0,0(x1)
   11554:	00004637          	lui	x12,0x4
   11558:	01079793          	slli	x15,x15,0x10
   1155c:	00010537          	lui	x10,0x10
   11560:	06f60613          	addi	x12,x12,111 # 406f <_vfprintf_r+0x125b>
   11564:	0107d793          	srli	x15,x15,0x10
   11568:	40e60733          	sub	x14,x12,x14
   1156c:	00a7e7b3          	or	x15,x15,x10
   11570:	02000613          	addi	x12,x0,32
   11574:	01f77513          	andi	x10,x14,31
   11578:	00f12e23          	sw	x15,28(x2)
   1157c:	40575713          	srai	x14,x14,0x5
   11580:	40a60633          	sub	x12,x12,x10
   11584:	04050663          	beq	x10,x0,115d0 <__fixtfsi+0xe4>
   11588:	00200813          	addi	x16,x0,2
   1158c:	05071e63          	bne	x14,x16,115e8 <__fixtfsi+0xfc>
   11590:	00a6d6b3          	srl	x13,x13,x10
   11594:	00c79633          	sll	x12,x15,x12
   11598:	00c6e6b3          	or	x13,x13,x12
   1159c:	00d12823          	sw	x13,16(x2)
   115a0:	00100713          	addi	x14,x0,1
   115a4:	00271713          	slli	x14,x14,0x2
   115a8:	02070713          	addi	x14,x14,32
   115ac:	00270733          	add	x14,x14,x2
   115b0:	00a7d7b3          	srl	x15,x15,x10
   115b4:	fef72823          	sw	x15,-16(x14)
   115b8:	01012783          	lw	x15,16(x2)
   115bc:	40f00533          	sub	x10,x0,x15
   115c0:	f80596e3          	bne	x11,x0,1154c <__fixtfsi+0x60>
   115c4:	00078513          	addi	x10,x15,0
   115c8:	02010113          	addi	x2,x2,32
   115cc:	00008067          	jalr	x0,0(x1)
   115d0:	00271713          	slli	x14,x14,0x2
   115d4:	02070793          	addi	x15,x14,32
   115d8:	00278733          	add	x14,x15,x2
   115dc:	ff072783          	lw	x15,-16(x14)
   115e0:	00f12823          	sw	x15,16(x2)
   115e4:	fd5ff06f          	jal	x0,115b8 <__fixtfsi+0xcc>
   115e8:	00000713          	addi	x14,x0,0
   115ec:	fb9ff06f          	jal	x0,115a4 <__fixtfsi+0xb8>

000115f0 <__floatsitf>:
   115f0:	fd010113          	addi	x2,x2,-48
   115f4:	02912223          	sw	x9,36(x2)
   115f8:	02112623          	sw	x1,44(x2)
   115fc:	02812423          	sw	x8,40(x2)
   11600:	00050493          	addi	x9,x10,0 # 10000 <__subtf3+0x2f8>
   11604:	0a058a63          	beq	x11,x0,116b8 <__floatsitf+0xc8>
   11608:	41f5d793          	srai	x15,x11,0x1f
   1160c:	03212023          	sw	x18,32(x2)
   11610:	00b7c933          	xor	x18,x15,x11
   11614:	40f90933          	sub	x18,x18,x15
   11618:	00090513          	addi	x10,x18,0
   1161c:	01f5d413          	srli	x8,x11,0x1f
   11620:	378000ef          	jal	x1,11998 <__clzsi2>
   11624:	05150713          	addi	x14,x10,81
   11628:	000047b7          	lui	x15,0x4
   1162c:	01e78793          	addi	x15,x15,30 # 401e <_vfprintf_r+0x120a>
   11630:	01f77613          	andi	x12,x14,31
   11634:	01212823          	sw	x18,16(x2)
   11638:	00012a23          	sw	x0,20(x2)
   1163c:	00012c23          	sw	x0,24(x2)
   11640:	00012e23          	sw	x0,28(x2)
   11644:	40a787b3          	sub	x15,x15,x10
   11648:	40575713          	srai	x14,x14,0x5
   1164c:	0c061063          	bne	x12,x0,1170c <__floatsitf+0x11c>
   11650:	00300613          	addi	x12,x0,3
   11654:	40e60633          	sub	x12,x12,x14
   11658:	00261613          	slli	x12,x12,0x2
   1165c:	01010593          	addi	x11,x2,16
   11660:	00c58633          	add	x12,x11,x12
   11664:	00200693          	addi	x13,x0,2
   11668:	00062603          	lw	x12,0(x12)
   1166c:	00d71663          	bne	x14,x13,11678 <__floatsitf+0x88>
   11670:	01212c23          	sw	x18,24(x2)
   11674:	00100693          	addi	x13,x0,1
   11678:	00269693          	slli	x13,x13,0x2
   1167c:	00012823          	sw	x0,16(x2)
   11680:	ffc68693          	addi	x13,x13,-4
   11684:	0005a223          	sw	x0,4(x11)
   11688:	00400713          	addi	x14,x0,4
   1168c:	00e6e463          	bltu	x13,x14,11694 <__floatsitf+0xa4>
   11690:	00012c23          	sw	x0,24(x2)
   11694:	01061713          	slli	x14,x12,0x10
   11698:	01179793          	slli	x15,x15,0x11
   1169c:	01012503          	lw	x10,16(x2)
   116a0:	01412603          	lw	x12,20(x2)
   116a4:	01812683          	lw	x13,24(x2)
   116a8:	02012903          	lw	x18,32(x2)
   116ac:	0117d793          	srli	x15,x15,0x11
   116b0:	01075713          	srli	x14,x14,0x10
   116b4:	01c0006f          	jal	x0,116d0 <__floatsitf+0xe0>
   116b8:	00000413          	addi	x8,x0,0
   116bc:	00000793          	addi	x15,x0,0
   116c0:	00000713          	addi	x14,x0,0
   116c4:	00000693          	addi	x13,x0,0
   116c8:	00000613          	addi	x12,x0,0
   116cc:	00000513          	addi	x10,x0,0
   116d0:	00f41593          	slli	x11,x8,0xf
   116d4:	00b7e7b3          	or	x15,x15,x11
   116d8:	00f11723          	sh	x15,14(x2)
   116dc:	00e11623          	sh	x14,12(x2)
   116e0:	00c12783          	lw	x15,12(x2)
   116e4:	02c12083          	lw	x1,44(x2)
   116e8:	02812403          	lw	x8,40(x2)
   116ec:	00a4a023          	sw	x10,0(x9)
   116f0:	00c4a223          	sw	x12,4(x9)
   116f4:	00d4a423          	sw	x13,8(x9)
   116f8:	00f4a623          	sw	x15,12(x9)
   116fc:	00048513          	addi	x10,x9,0
   11700:	02412483          	lw	x9,36(x2)
   11704:	03010113          	addi	x2,x2,48
   11708:	00008067          	jalr	x0,0(x1)
   1170c:	00200693          	addi	x13,x0,2
   11710:	02d70263          	beq	x14,x13,11734 <__floatsitf+0x144>
   11714:	00300713          	addi	x14,x0,3
   11718:	00271713          	slli	x14,x14,0x2
   1171c:	01010593          	addi	x11,x2,16
   11720:	00c91933          	sll	x18,x18,x12
   11724:	00e58733          	add	x14,x11,x14
   11728:	01272023          	sw	x18,0(x14)
   1172c:	01c12603          	lw	x12,28(x2)
   11730:	f49ff06f          	jal	x0,11678 <__floatsitf+0x88>
   11734:	02000693          	addi	x13,x0,32
   11738:	40c686b3          	sub	x13,x13,x12
   1173c:	00d956b3          	srl	x13,x18,x13
   11740:	00d12e23          	sw	x13,28(x2)
   11744:	00100693          	addi	x13,x0,1
   11748:	fd1ff06f          	jal	x0,11718 <__floatsitf+0x128>

0001174c <__extenddftf2>:
   1174c:	01465793          	srli	x15,x12,0x14
   11750:	7ff7f793          	andi	x15,x15,2047
   11754:	00c61713          	slli	x14,x12,0xc
   11758:	fd010113          	addi	x2,x2,-48
   1175c:	00178693          	addi	x13,x15,1
   11760:	00c75713          	srli	x14,x14,0xc
   11764:	02812423          	sw	x8,40(x2)
   11768:	02912223          	sw	x9,36(x2)
   1176c:	03212023          	sw	x18,32(x2)
   11770:	02112623          	sw	x1,44(x2)
   11774:	00b12823          	sw	x11,16(x2)
   11778:	00012e23          	sw	x0,28(x2)
   1177c:	00012c23          	sw	x0,24(x2)
   11780:	7fe6f693          	andi	x13,x13,2046
   11784:	00e12a23          	sw	x14,20(x2)
   11788:	00058413          	addi	x8,x11,0
   1178c:	00050913          	addi	x18,x10,0
   11790:	01f65493          	srli	x9,x12,0x1f
   11794:	06068463          	beq	x13,x0,117fc <__extenddftf2+0xb0>
   11798:	00004637          	lui	x12,0x4
   1179c:	01c71693          	slli	x13,x14,0x1c
   117a0:	c0060613          	addi	x12,x12,-1024 # 3c00 <_vfprintf_r+0xdec>
   117a4:	0045d593          	srli	x11,x11,0x4
   117a8:	00c787b3          	add	x15,x15,x12
   117ac:	00475713          	srli	x14,x14,0x4
   117b0:	00b6e6b3          	or	x13,x13,x11
   117b4:	01c41413          	slli	x8,x8,0x1c
   117b8:	00000513          	addi	x10,x0,0
   117bc:	00f49613          	slli	x12,x9,0xf
   117c0:	00c7e7b3          	or	x15,x15,x12
   117c4:	00f11723          	sh	x15,14(x2)
   117c8:	00e11623          	sh	x14,12(x2)
   117cc:	00c12783          	lw	x15,12(x2)
   117d0:	00892223          	sw	x8,4(x18)
   117d4:	02c12083          	lw	x1,44(x2)
   117d8:	02812403          	lw	x8,40(x2)
   117dc:	00a92023          	sw	x10,0(x18)
   117e0:	00d92423          	sw	x13,8(x18)
   117e4:	00f92623          	sw	x15,12(x18)
   117e8:	02412483          	lw	x9,36(x2)
   117ec:	00090513          	addi	x10,x18,0
   117f0:	02012903          	lw	x18,32(x2)
   117f4:	03010113          	addi	x2,x2,48
   117f8:	00008067          	jalr	x0,0(x1)
   117fc:	00b76533          	or	x10,x14,x11
   11800:	04079e63          	bne	x15,x0,1185c <__extenddftf2+0x110>
   11804:	08050263          	beq	x10,x0,11888 <__extenddftf2+0x13c>
   11808:	0a070663          	beq	x14,x0,118b4 <__extenddftf2+0x168>
   1180c:	00070513          	addi	x10,x14,0
   11810:	188000ef          	jal	x1,11998 <__clzsi2>
   11814:	03150713          	addi	x14,x10,49
   11818:	01f77593          	andi	x11,x14,31
   1181c:	40575713          	srai	x14,x14,0x5
   11820:	0c059063          	bne	x11,x0,118e0 <__extenddftf2+0x194>
   11824:	00f00513          	addi	x10,x0,15
   11828:	40e006b3          	sub	x13,x0,x14
   1182c:	00269693          	slli	x13,x13,0x2
   11830:	01010613          	addi	x12,x2,16
   11834:	00d607b3          	add	x15,x12,x13
   11838:	00010893          	addi	x17,x2,0
   1183c:	40d006b3          	sub	x13,x0,x13
   11840:	00c7a803          	lw	x16,12(x15)
   11844:	00d785b3          	add	x11,x15,x13
   11848:	ffc78793          	addi	x15,x15,-4
   1184c:	0105a623          	sw	x16,12(x11)
   11850:	fef898e3          	bne	x17,x15,11840 <__extenddftf2+0xf4>
   11854:	fff70793          	addi	x15,x14,-1
   11858:	0e00006f          	jal	x0,11938 <__extenddftf2+0x1ec>
   1185c:	04050063          	beq	x10,x0,1189c <__extenddftf2+0x150>
   11860:	01c71693          	slli	x13,x14,0x1c
   11864:	000087b7          	lui	x15,0x8
   11868:	00475713          	srli	x14,x14,0x4
   1186c:	0045d613          	srli	x12,x11,0x4
   11870:	00f76733          	or	x14,x14,x15
   11874:	00c6e6b3          	or	x13,x13,x12
   11878:	01c59413          	slli	x8,x11,0x1c
   1187c:	fff78793          	addi	x15,x15,-1 # 7fff <__gdtoa+0xa6b>
   11880:	00000513          	addi	x10,x0,0
   11884:	f39ff06f          	jal	x0,117bc <__extenddftf2+0x70>
   11888:	00000693          	addi	x13,x0,0
   1188c:	00000413          	addi	x8,x0,0
   11890:	00000793          	addi	x15,x0,0
   11894:	00000713          	addi	x14,x0,0
   11898:	f25ff06f          	jal	x0,117bc <__extenddftf2+0x70>
   1189c:	000087b7          	lui	x15,0x8
   118a0:	fff78793          	addi	x15,x15,-1 # 7fff <__gdtoa+0xa6b>
   118a4:	00000693          	addi	x13,x0,0
   118a8:	00000413          	addi	x8,x0,0
   118ac:	00000713          	addi	x14,x0,0
   118b0:	f0dff06f          	jal	x0,117bc <__extenddftf2+0x70>
   118b4:	0e4000ef          	jal	x1,11998 <__clzsi2>
   118b8:	05150713          	addi	x14,x10,81
   118bc:	01f77593          	andi	x11,x14,31
   118c0:	40575713          	srai	x14,x14,0x5
   118c4:	0c058663          	beq	x11,x0,11990 <__extenddftf2+0x244>
   118c8:	00200793          	addi	x15,x0,2
   118cc:	02050513          	addi	x10,x10,32
   118d0:	00f70863          	beq	x14,x15,118e0 <__extenddftf2+0x194>
   118d4:	00300713          	addi	x14,x0,3
   118d8:	01010613          	addi	x12,x2,16
   118dc:	04c0006f          	jal	x0,11928 <__extenddftf2+0x1dc>
   118e0:	40e008b3          	sub	x17,x0,x14
   118e4:	00289893          	slli	x17,x17,0x2
   118e8:	00c88793          	addi	x15,x17,12
   118ec:	02000e13          	addi	x28,x0,32
   118f0:	01010613          	addi	x12,x2,16
   118f4:	40be0e33          	sub	x28,x28,x11
   118f8:	411008b3          	sub	x17,x0,x17
   118fc:	00f607b3          	add	x15,x12,x15
   11900:	0007a683          	lw	x13,0(x15)
   11904:	ffc7a803          	lw	x16,-4(x15)
   11908:	01178333          	add	x6,x15,x17
   1190c:	00b696b3          	sll	x13,x13,x11
   11910:	01c85833          	srl	x16,x16,x28
   11914:	0106e6b3          	or	x13,x13,x16
   11918:	00d32023          	sw	x13,0(x6)
   1191c:	ffc78793          	addi	x15,x15,-4
   11920:	fef610e3          	bne	x12,x15,11900 <__extenddftf2+0x1b4>
   11924:	fff70793          	addi	x15,x14,-1
   11928:	00271693          	slli	x13,x14,0x2
   1192c:	00d606b3          	add	x13,x12,x13
   11930:	00b415b3          	sll	x11,x8,x11
   11934:	00b6a023          	sw	x11,0(x13)
   11938:	00178793          	addi	x15,x15,1
   1193c:	00279793          	slli	x15,x15,0x2
   11940:	00800693          	addi	x13,x0,8
   11944:	00060713          	addi	x14,x12,0
   11948:	00d7ea63          	bltu	x15,x13,1195c <__extenddftf2+0x210>
   1194c:	00012823          	sw	x0,16(x2)
   11950:	00062223          	sw	x0,4(x12)
   11954:	ff878793          	addi	x15,x15,-8
   11958:	01810713          	addi	x14,x2,24
   1195c:	00400693          	addi	x13,x0,4
   11960:	00d7e463          	bltu	x15,x13,11968 <__extenddftf2+0x21c>
   11964:	00072023          	sw	x0,0(x14)
   11968:	000047b7          	lui	x15,0x4
   1196c:	c0c78793          	addi	x15,x15,-1012 # 3c0c <_vfprintf_r+0xdf8>
   11970:	40a787b3          	sub	x15,x15,x10
   11974:	01179793          	slli	x15,x15,0x11
   11978:	01012503          	lw	x10,16(x2)
   1197c:	01412403          	lw	x8,20(x2)
   11980:	01812683          	lw	x13,24(x2)
   11984:	01c15703          	lhu	x14,28(x2)
   11988:	0117d793          	srli	x15,x15,0x11
   1198c:	e31ff06f          	jal	x0,117bc <__extenddftf2+0x70>
   11990:	02f00513          	addi	x10,x0,47
   11994:	e95ff06f          	jal	x0,11828 <__extenddftf2+0xdc>

00011998 <__clzsi2>:
   11998:	000107b7          	lui	x15,0x10
   1199c:	02f57a63          	bgeu	x10,x15,119d0 <__clzsi2+0x38>
   119a0:	10053713          	sltiu	x14,x10,256
   119a4:	00173713          	sltiu	x14,x14,1
   119a8:	00371713          	slli	x14,x14,0x3
   119ac:	000127b7          	lui	x15,0x12
   119b0:	00e55533          	srl	x10,x10,x14
   119b4:	39c78793          	addi	x15,x15,924 # 1239c <__clz_tab>
   119b8:	00a787b3          	add	x15,x15,x10
   119bc:	0007c503          	lbu	x10,0(x15)
   119c0:	02000693          	addi	x13,x0,32
   119c4:	40e686b3          	sub	x13,x13,x14
   119c8:	40a68533          	sub	x10,x13,x10
   119cc:	00008067          	jalr	x0,0(x1)
   119d0:	010007b7          	lui	x15,0x1000
   119d4:	02f57463          	bgeu	x10,x15,119fc <__clzsi2+0x64>
   119d8:	01000693          	addi	x13,x0,16
   119dc:	00068713          	addi	x14,x13,0
   119e0:	000127b7          	lui	x15,0x12
   119e4:	00e55533          	srl	x10,x10,x14
   119e8:	39c78793          	addi	x15,x15,924 # 1239c <__clz_tab>
   119ec:	00a787b3          	add	x15,x15,x10
   119f0:	0007c503          	lbu	x10,0(x15)
   119f4:	40a68533          	sub	x10,x13,x10
   119f8:	00008067          	jalr	x0,0(x1)
   119fc:	01800713          	addi	x14,x0,24
   11a00:	000127b7          	lui	x15,0x12
   11a04:	00e55533          	srl	x10,x10,x14
   11a08:	39c78793          	addi	x15,x15,924 # 1239c <__clz_tab>
   11a0c:	00a787b3          	add	x15,x15,x10
   11a10:	0007c503          	lbu	x10,0(x15)
   11a14:	00800693          	addi	x13,x0,8
   11a18:	40a68533          	sub	x10,x13,x10
   11a1c:	00008067          	jalr	x0,0(x1)
